(dp0
S'Brazil'
p1
(lp2
ccopy_reg
_reconstructor
p3
(cdjango.utils.safestring
SafeText
p4
c__builtin__
unicode
p5
Vuel
p6
tp7
Rp8
ag3
(g4
g5
Vbrasileirao
p9
tp10
Rp11
ag3
(g4
g5
Vcarol-muniz
p12
tp13
Rp14
ag3
(g4
g5
V50-tons-de-cinza
p15
tp16
Rp17
ag3
(g4
g5
Vadib-jatene
p18
tp19
Rp20
ag3
(g4
g5
Vunesp
p21
tp22
Rp23
ag3
(g4
g5
Vufpr
p24
tp25
Rp26
ag3
(g4
g5
Vcaldas-country-2014
p27
tp28
Rp29
ag3
(g4
g5
Vsao-paulo
p30
tp31
Rp32
ag3
(g4
g5
Vufc
p33
tp34
Rp35
ag3
(g4
g5
Varctic-monkeys
p36
tp37
Rp38
ag3
(g4
g5
Vpatrick-schwarzenegger
p39
tp40
Rp41
ag3
(g4
g5
Vgremio
p42
tp43
Rp44
ag3
(g4
g5
Vmanoel-de-barros
p45
tp46
Rp47
ag3
(g4
g5
Vlotomania
p48
tp49
Rp50
ag3
(g4
g5
Viades
p51
tp52
Rp53
ag3
(g4
g5
Vufc-combate
p54
tp55
Rp56
ag3
(g4
g5
Vcampeonato-brasileiro
p57
tp58
Rp59
ag3
(g4
g5
Vfilho-do-anao-marquinhos
p60
tp61
Rp62
ag3
(g4
g5
V15-de-novembro
p63
tp64
Rp65
asS'Australia'
p66
(lp67
g3
(g4
g5
Vufc-180
p68
tp69
Rp70
ag3
(g4
g5
Vcricket
p71
tp72
Rp73
ag3
(g4
g5
Vbeaufort-street-festival
p74
tp75
Rp76
ag3
(g4
g5
Vmh17
p77
tp78
Rp79
ag3
(g4
g5
Vdiplo
p80
tp81
Rp82
ag3
(g4
g5
Vjohnny-depp
p83
tp84
Rp85
ag3
(g4
g5
Vs-club-7
p86
tp87
Rp88
ag3
(g4
g5
Vbrisbane-weather
p89
tp90
Rp91
ag3
(g4
g5
Vchristy-mack
p92
tp93
Rp94
ag3
(g4
g5
V50-shades-of-grey-trailer
p95
tp96
Rp97
ag3
(g4
g5
Vbill-cosby
p98
tp99
Rp100
ag3
(g4
g5
Vpatrick-schwarzenegger
p101
tp102
Rp103
ag3
(g4
g5
Vbarack-obama
p104
tp105
Rp106
ag3
(g4
g5
Vdiem-brown
p107
tp108
Rp109
ag3
(g4
g5
Vkarl-stefanovic
p110
tp111
Rp112
ag3
(g4
g5
Vcricket-scores
p113
tp114
Rp115
ag3
(g4
g5
Vpeter-kassig
p116
tp117
Rp118
ag3
(g4
g5
Vfour-nations-final
p119
tp120
Rp121
ag3
(g4
g5
Vangela-merkel
p122
tp123
Rp124
ag3
(g4
g5
Vrohit-sharma
p125
tp126
Rp127
asS'Italy'
p128
(lp129
g3
(g4
g5
Vitalia-croazia
p130
tp131
Rp132
ag3
(g4
g5
Vautostrade
p133
tp134
Rp135
ag3
(g4
g5
Vklitschko
p136
tp137
Rp138
ag3
(g4
g5
Vgiancarlo-giannini
p139
tp140
Rp141
ag3
(g4
g5
Vselvaggia-lucarelli
p142
tp143
Rp144
ag3
(g4
g5
Vcomune-di-roma
p145
tp146
Rp147
ag3
(g4
g5
Vmilano
p148
tp149
Rp150
ag3
(g4
g5
Vserpico
p151
tp152
Rp153
ag3
(g4
g5
Vil-segreto-anticipazioni
p154
tp155
Rp156
ag3
(g4
g5
Vdear-jack
p157
tp158
Rp159
ag3
(g4
g5
Vseveso
p160
tp161
Rp162
ag3
(g4
g5
Vitalia-croazia-san-siro
p163
tp164
Rp165
ag3
(g4
g5
Vblocco-auto-roma
p166
tp167
Rp168
ag3
(g4
g5
Vanticipazioni-il-segreto
p169
tp170
Rp171
ag3
(g4
g5
Vil-secolo-xix
p172
tp173
Rp174
ag3
(g4
g5
Vuveite
p175
tp176
Rp177
ag3
(g4
g5
Vfederer
p178
tp179
Rp180
ag3
(g4
g5
Vbologna-brescia
p181
tp182
Rp183
ag3
(g4
g5
Vgenova
p184
tp185
Rp186
ag3
(g4
g5
Vturin-marathon
p187
tp188
Rp189
asS'Spain'
p190
(lp191
g3
(g4
g5
Vel-lute
p192
tp193
Rp194
ag3
(g4
g5
Vdubai
p195
tp196
Rp197
ag3
(g4
g5
Vblas-de-lezo
p198
tp199
Rp200
ag3
(g4
g5
Vabengoa
p201
tp202
Rp203
ag3
(g4
g5
Visabel-pantoja-ultimas-noticias
p204
tp205
Rp206
ag3
(g4
g5
Vmaraton-valencia
p207
tp208
Rp209
ag3
(g4
g5
Vdiario-de-burgos
p210
tp211
Rp212
ag3
(g4
g5
Vgreenpeace
p213
tp214
Rp215
ag3
(g4
g5
Velsa-anka
p216
tp217
Rp218
ag3
(g4
g5
Vespana-bielorrusia
p219
tp220
Rp221
ag3
(g4
g5
Vjul-bolinaga
p222
tp223
Rp224
ag3
(g4
g5
Vraul-gonzalez
p225
tp226
Rp227
ag3
(g4
g5
Vtania-sanchez
p228
tp229
Rp230
ag3
(g4
g5
Vdaniel-guzman
p231
tp232
Rp233
ag3
(g4
g5
Vtve
p234
tp235
Rp236
ag3
(g4
g5
Vpablo-alboran
p237
tp238
Rp239
ag3
(g4
g5
Vcampofrio
p240
tp241
Rp242
ag3
(g4
g5
Varenal-sound
p243
tp244
Rp245
ag3
(g4
g5
Variana-grande
p246
tp247
Rp248
ag3
(g4
g5
Vjavier-krahe
p249
tp250
Rp251
asS'UK'
p252
(lp253
g3
(g4
g5
Vchildren-in-need
p254
tp255
Rp256
ag3
(g4
g5
Vtim-wiese
p257
tp258
Rp259
ag3
(g4
g5
Vengland
p260
tp261
Rp262
ag3
(g4
g5
Vrochelle-humes
p263
tp264
Rp265
ag3
(g4
g5
Vchronicle
p266
tp267
Rp268
ag3
(g4
g5
Vklitschko
p269
tp270
Rp271
ag3
(g4
g5
Vs-club-7
p272
tp273
Rp274
ag3
(g4
g5
Vjulien-blanc
p275
tp276
Rp277
ag3
(g4
g5
Vjohnny-depp
p278
tp279
Rp280
ag3
(g4
g5
Vjamie-dornan
p281
tp282
Rp283
ag3
(g4
g5
Vchris-denning
p284
tp285
Rp286
ag3
(g4
g5
Vkatherine-jenkins
p287
tp288
Rp289
ag3
(g4
g5
Vpatrick-schwarzenegger
p290
tp291
Rp292
ag3
(g4
g5
Vgordon-ramsay
p293
tp294
Rp295
ag3
(g4
g5
Vone-direction
p296
tp297
Rp298
ag3
(g4
g5
Vm25-traffic
p299
tp300
Rp301
ag3
(g4
g5
Vitv
p302
tp303
Rp304
ag3
(g4
g5
Vpeter-kassig
p305
tp306
Rp307
ag3
(g4
g5
Vhannah-spearritt
p308
tp309
Rp310
ag3
(g4
g5
Vboyzone
p311
tp312
Rp313
asS'India'
p314
(lp315
g3
(g4
g5
Vchildrens-day
p316
tp317
Rp318
ag3
(g4
g5
Vcricket
p319
tp320
Rp321
ag3
(g4
g5
Vmamta-kulkarni
p322
tp323
Rp324
ag3
(g4
g5
Vinstagram
p325
tp326
Rp327
ag3
(g4
g5
Vibps
p328
tp329
Rp330
ag3
(g4
g5
Vkim-kardashian
p331
tp332
Rp333
ag3
(g4
g5
Vgas
p334
tp335
Rp336
ag3
(g4
g5
Vchildren-s-day
p337
tp338
Rp339
ag3
(g4
g5
Vsofia-hayat
p340
tp341
Rp342
ag3
(g4
g5
Vravi-chopra
p343
tp344
Rp345
ag3
(g4
g5
Vamazon
p346
tp347
Rp348
ag3
(g4
g5
Vpilla-nuvvu-leni-jeevitham
p349
tp350
Rp351
ag3
(g4
g5
Vsnapdeal
p352
tp353
Rp354
ag3
(g4
g5
Vphilae-lander
p355
tp356
Rp357
ag3
(g4
g5
Varpita-khan
p358
tp359
Rp360
ag3
(g4
g5
Vlingaa
p361
tp362
Rp363
ag3
(g4
g5
Vkill-dil
p364
tp365
Rp366
ag3
(g4
g5
Vjawaharlal-nehru
p367
tp368
Rp369
ag3
(g4
g5
Vrohit-sharma
p370
tp371
Rp372
asS'US'
p373
(lp374
g3
(g4
g5
Vkristen-stewart
p375
tp376
Rp377
ag3
(g4
g5
Vbill-cosby
p378
tp379
Rp380
ag3
(g4
g5
Vtcu-football
p381
tp382
Rp383
ag3
(g4
g5
Valabama-football
p384
tp385
Rp386
ag3
(g4
g5
Vjohnny-depp
p387
tp388
Rp389
ag3
(g4
g5
Vderrick-rose
p390
tp391
Rp392
ag3
(g4
g5
Vfoxcatcher
p393
tp394
Rp395
ag3
(g4
g5
Vmelvin-gordon
p396
tp397
Rp398
ag3
(g4
g5
Vpatrick-schwarzenegger
p399
tp400
Rp401
ag3
(g4
g5
Vmississippi-state-football
p402
tp403
Rp404
ag3
(g4
g5
Vaaliyah
p405
tp406
Rp407
ag3
(g4
g5
Vflorida-state-football
p408
tp409
Rp410
ag3
(g4
g5
Vdiem-brown
p411
tp412
Rp413
ag3
(g4
g5
Velisabeth-hasselbeck
p414
tp415
Rp416
ag3
(g4
g5
Vthursday-night-football
p417
tp418
Rp419
ag3
(g4
g5
Vbreakthrough-prize
p420
tp421
Rp422
ag3
(g4
g5
Vohio-state-football
p423
tp424
Rp425
ag3
(g4
g5
V50-shades-of-grey-trailer
p426
tp427
Rp428
ag3
(g4
g5
Vdumb-and-dumber-to
p429
tp430
Rp431
ag3
(g4
g5
Vbeyond-the-lights
p432
tp433
Rp434
asS'France'
p435
(lp436
g3
(g4
g5
Vfrance-australie
p437
tp438
Rp439
ag3
(g4
g5
Vfrance-albanie
p440
tp441
Rp442
ag3
(g4
g5
Vcoupe-de-france
p443
tp444
Rp445
ag3
(g4
g5
Vklitschko
p446
tp447
Rp448
ag3
(g4
g5
Vequipe-de-france
p449
tp450
Rp451
ag3
(g4
g5
Vtonya-kinzinger
p452
tp453
Rp454
ag3
(g4
g5
Vhunger-games
p455
tp456
Rp457
ag3
(g4
g5
Vabrogation
p458
tp459
Rp460
ag3
(g4
g5
Vnathalie-pechalat
p461
tp462
Rp463
ag3
(g4
g5
Vmathieu-kassovitz
p464
tp465
Rp466
ag3
(g4
g5
Vlucien-clergue
p467
tp468
Rp469
ag3
(g4
g5
Vshy-m
p470
tp471
Rp472
ag3
(g4
g5
Vgriezmann
p473
tp474
Rp475
ag3
(g4
g5
Vvalery-mezague
p476
tp477
Rp478
ag3
(g4
g5
Vpatrick-sebastien
p479
tp480
Rp481
ag3
(g4
g5
Vary-abittan
p482
tp483
Rp484
ag3
(g4
g5
Vpeter-kassig
p485
tp486
Rp487
ag3
(g4
g5
Vfederer
p488
tp489
Rp490
ag3
(g4
g5
Vvictor-lanoux
p491
tp492
Rp493
ag3
(g4
g5
Vrising-star
p494
tp495
Rp496
as.