(dp0
S'Australia'
p1
(lp2
ccopy_reg
_reconstructor
p3
(cdjango.utils.safestring
SafeText
p4
c__builtin__
unicode
p5
Vsydney-to-hobart
p6
tp7
Rp8
ag3
(g4
g5
Vchristmas-images
p9
tp10
Rp11
ag3
(g4
g5
Vdeadpool
p12
tp13
Rp14
ag3
(g4
g5
Vhow-to-cook-a-turkey
p15
tp16
Rp17
ag3
(g4
g5
Vtotal-fire-ban
p18
tp19
Rp20
ag3
(g4
g5
Vhoverboard
p21
tp22
Rp23
ag3
(g4
g5
Vchristmas-pictures
p24
tp25
Rp26
ag3
(g4
g5
Vlorne-fire
p27
tp28
Rp29
ag3
(g4
g5
Vchristmas-wishes
p30
tp31
Rp32
ag3
(g4
g5
Vthe-grinch
p33
tp34
Rp35
ag3
(g4
g5
Vmerry-christmas
p36
tp37
Rp38
ag3
(g4
g5
Va-league
p39
tp40
Rp41
ag3
(g4
g5
Vbottle-shop
p42
tp43
Rp44
ag3
(g4
g5
Vall-i-want-for-christmas
p45
tp46
Rp47
ag3
(g4
g5
Vboxing-day-sales-2015
p48
tp49
Rp50
ag3
(g4
g5
Vchristmas-songs
p51
tp52
Rp53
ag3
(g4
g5
Vmcdonalds
p54
tp55
Rp56
ag3
(g4
g5
Vboxing-day-sales
p57
tp58
Rp59
ag3
(g4
g5
Vhome-alone
p60
tp61
Rp62
ag3
(g4
g5
Vsanta-tracker
p63
tp64
Rp65
asS'India'
p66
(lp67
g3
(g4
g5
Vatal-bihari-vajpayee
p68
tp69
Rp70
ag3
(g4
g5
Vpasanga-2-review
p71
tp72
Rp73
ag3
(g4
g5
Vchristmas-messages
p74
tp75
Rp76
ag3
(g4
g5
Vxmas
p77
tp78
Rp79
ag3
(g4
g5
Vmerry-christmas-message
p80
tp81
Rp82
ag3
(g4
g5
Vmerry-christmas
p83
tp84
Rp85
ag3
(g4
g5
Vchristmas-pictures
p86
tp87
Rp88
ag3
(g4
g5
Vmerry-christmas-wishes
p89
tp90
Rp91
ag3
(g4
g5
Vchristmas-images
p92
tp93
Rp94
ag3
(g4
g5
Vjesus
p95
tp96
Rp97
ag3
(g4
g5
Vchristmas-wishes
p98
tp99
Rp100
ag3
(g4
g5
Vsanta-claus
p101
tp102
Rp103
ag3
(g4
g5
Vchristmas-wish
p104
tp105
Rp106
ag3
(g4
g5
Vchristmas-greetings
p107
tp108
Rp109
ag3
(g4
g5
Vmodi-in-pakistan
p110
tp111
Rp112
ag3
(g4
g5
Vchristmas-quotes
p113
tp114
Rp115
ag3
(g4
g5
Vkirti-azad
p116
tp117
Rp118
ag3
(g4
g5
Vchristmas-tree
p119
tp120
Rp121
ag3
(g4
g5
Vchristmas
p122
tp123
Rp124
ag3
(g4
g5
Vsadhana
p125
tp126
Rp127
asS'UK'
p128
(lp129
g3
(g4
g5
Vchristmas-number-1-2015
p130
tp131
Rp132
ag3
(g4
g5
Vbrave
p133
tp134
Rp135
ag3
(g4
g5
Vdeadpool
p136
tp137
Rp138
ag3
(g4
g5
Vhow-to-cook-a-turkey
p139
tp140
Rp141
ag3
(g4
g5
Vqueen-elizabeth
p142
tp143
Rp144
ag3
(g4
g5
Vtwas-the-night-before-christmas
p145
tp146
Rp147
ag3
(g4
g5
Vnext-sale
p148
tp149
Rp150
ag3
(g4
g5
Vsales
p151
tp152
Rp153
ag3
(g4
g5
Vpnp
p154
tp155
Rp156
ag3
(g4
g5
Vmerry-christmas
p157
tp158
Rp159
ag3
(g4
g5
Vchristmas-wishes
p160
tp161
Rp162
ag3
(g4
g5
Vroast-potatoes
p163
tp164
Rp165
ag3
(g4
g5
Vchristmas-eve
p166
tp167
Rp168
ag3
(g4
g5
Vboxing-day-sales-2015
p169
tp170
Rp171
ag3
(g4
g5
Vmarks-and-spencer-sale
p172
tp173
Rp174
ag3
(g4
g5
Vnational-lampoon-s-christmas-vacation
p175
tp176
Rp177
ag3
(g4
g5
Vboxing-day-sales
p178
tp179
Rp180
ag3
(g4
g5
Vit-s-a-wonderful-life
p181
tp182
Rp183
ag3
(g4
g5
Vwizard-of-oz
p184
tp185
Rp186
ag3
(g4
g5
Vinternational-space-station
p187
tp188
Rp189
asS'US'
p190
(lp191
g3
(g4
g5
Vrestaurants-open-on-christmas-day
p192
tp193
Rp194
ag3
(g4
g5
Vwhite-christmas
p195
tp196
Rp197
ag3
(g4
g5
Vwhat-s-open-on-christmas
p198
tp199
Rp200
ag3
(g4
g5
Vfull-moon-december-2015
p201
tp202
Rp203
ag3
(g4
g5
Vit-s-a-wonderful-life
p204
tp205
Rp206
ag3
(g4
g5
Vchristmas-pictures
p207
tp208
Rp209
ag3
(g4
g5
Vstores-open-on-christmas
p210
tp211
Rp212
ag3
(g4
g5
Vwhat-stores-are-open-on-christmas-day
p213
tp214
Rp215
ag3
(g4
g5
Vmerry-christmas-eve
p216
tp217
Rp218
ag3
(g4
g5
Vtwas-the-night-before-christmas
p219
tp220
Rp221
ag3
(g4
g5
Vcharles-woodson
p222
tp223
Rp224
ag3
(g4
g5
Vmerry-christmas
p225
tp226
Rp227
ag3
(g4
g5
Vfeliz-navidad
p228
tp229
Rp230
ag3
(g4
g5
Vchristmas-quotes
p231
tp232
Rp233
ag3
(g4
g5
Vnorthlake-mall
p234
tp235
Rp236
ag3
(g4
g5
Vmcdonalds
p237
tp238
Rp239
ag3
(g4
g5
Vdollar-general
p240
tp241
Rp242
ag3
(g4
g5
Vdunkin-donuts
p243
tp244
Rp245
ag3
(g4
g5
Vkroger
p246
tp247
Rp248
ag3
(g4
g5
Va-christmas-story
p249
tp250
Rp251
as.