(dp0
S'Brazil'
p1
(lp2
ccopy_reg
_reconstructor
p3
(cdjango.utils.safestring
SafeText
p4
c__builtin__
unicode
p5
Vloterias
p6
tp7
Rp8
ag3
(g4
g5
Vbosnia-x-ira
p9
tp10
Rp11
ag3
(g4
g5
Vmichael-jackson
p12
tp13
Rp14
ag3
(g4
g5
Vgiba
p15
tp16
Rp17
ag3
(g4
g5
Vbalotelli
p18
tp19
Rp20
ag3
(g4
g5
Vhonduras-x-suica
p21
tp22
Rp23
ag3
(g4
g5
Vgrecia-x-costa-do-marfim
p24
tp25
Rp26
ag3
(g4
g5
Vjapao-x-colombia
p27
tp28
Rp29
ag3
(g4
g5
Vquina
p30
tp31
Rp32
ag3
(g4
g5
Vitalia-x-uruguai
p33
tp34
Rp35
ag3
(g4
g5
Vresultado-da-quina
p36
tp37
Rp38
ag3
(g4
g5
Vsisu
p39
tp40
Rp41
ag3
(g4
g5
Vuruguai
p42
tp43
Rp44
ag3
(g4
g5
Vnigeria-x-argentina
p45
tp46
Rp47
ag3
(g4
g5
Vsandy
p48
tp49
Rp50
ag3
(g4
g5
Voab
p51
tp52
Rp53
ag3
(g4
g5
Vuruguai-x-italia
p54
tp55
Rp56
ag3
(g4
g5
Vsandy-gravida
p57
tp58
Rp59
ag3
(g4
g5
Vbrasil-e-chile
p60
tp61
Rp62
ag3
(g4
g5
Vcopa-do-mundo-colombia
p63
tp64
Rp65
asS'Australia'
p66
(lp67
g3
(g4
g5
Vmasters
p68
tp69
Rp70
ag3
(g4
g5
Vhonduras-vs-switzerland
p71
tp72
Rp73
ag3
(g4
g5
Vbig-day-out
p74
tp75
Rp76
ag3
(g4
g5
Vunited-states-vs-germany
p77
tp78
Rp79
ag3
(g4
g5
Vbosnia-and-herzegovina-vs-iran
p80
tp81
Rp82
ag3
(g4
g5
Vgreece-vs-cote-divoire
p83
tp84
Rp85
ag3
(g4
g5
Vlebron-james
p86
tp87
Rp88
ag3
(g4
g5
Vhunger-games
p89
tp90
Rp91
ag3
(g4
g5
Vtransformers-4
p92
tp93
Rp94
ag3
(g4
g5
Veli-wallach
p95
tp96
Rp97
ag3
(g4
g5
Vnigeria-vs-argentina
p98
tp99
Rp100
ag3
(g4
g5
Vdavid-beckham
p101
tp102
Rp103
ag3
(g4
g5
Vclive-palmer
p104
tp105
Rp106
ag3
(g4
g5
Vmichael-jackson
p107
tp108
Rp109
ag3
(g4
g5
Vdante-exum
p110
tp111
Rp112
ag3
(g4
g5
Vdegustation
p113
tp114
Rp115
ag3
(g4
g5
Vgoogle-io
p116
tp117
Rp118
ag3
(g4
g5
Vworld-cup-2014
p119
tp120
Rp121
ag3
(g4
g5
Vfalls-creek
p122
tp123
Rp124
ag3
(g4
g5
Vlana-del-rey
p125
tp126
Rp127
asS'Italy'
p128
(lp129
g3
(g4
g5
Vgazzetta-dello-sport
p130
tp131
Rp132
ag3
(g4
g5
Veli-wallach
p133
tp134
Rp135
ag3
(g4
g5
Vgazzetta-ufficiale
p136
tp137
Rp138
ag3
(g4
g5
Vil-tempo
p139
tp140
Rp141
ag3
(g4
g5
Vmichael-jackson
p142
tp143
Rp144
ag3
(g4
g5
Vnigeria-argentina
p145
tp146
Rp147
ag3
(g4
g5
Vitalia-uruguay
p148
tp149
Rp150
ag3
(g4
g5
Vgrecia-vs-costa-d-avorio
p151
tp152
Rp153
ag3
(g4
g5
Vitalia-vs-uruguay
p154
tp155
Rp156
ag3
(g4
g5
Vgiappone-vs-colombia
p157
tp158
Rp159
ag3
(g4
g5
Vsuarez
p160
tp161
Rp162
ag3
(g4
g5
Vciro-esposito
p163
tp164
Rp165
ag3
(g4
g5
Vrai-tv
p166
tp167
Rp168
ag3
(g4
g5
Vbalotelli
p169
tp170
Rp171
ag3
(g4
g5
Vcosta-rica-inghilterra
p172
tp173
Rp174
ag3
(g4
g5
Vbuffon
p175
tp176
Rp177
ag3
(g4
g5
Vrai
p178
tp179
Rp180
ag3
(g4
g5
Vrai-sport
p181
tp182
Rp183
ag3
(g4
g5
Vverratti
p184
tp185
Rp186
ag3
(g4
g5
Vcesare-prandelli
p187
tp188
Rp189
asS'Spain'
p190
(lp191
g3
(g4
g5
Vana-maria-matute
p192
tp193
Rp194
ag3
(g4
g5
Vsicav
p195
tp196
Rp197
ag3
(g4
g5
Vebola
p198
tp199
Rp200
ag3
(g4
g5
Veli-wallach
p201
tp202
Rp203
ag3
(g4
g5
Vcuatro-en-directo
p204
tp205
Rp206
ag3
(g4
g5
Vmichael-jackson
p207
tp208
Rp209
ag3
(g4
g5
Vnigeria-contra-argentina
p210
tp211
Rp212
ag3
(g4
g5
Vrolling-stones
p213
tp214
Rp215
ag3
(g4
g5
Velsa-pataky
p216
tp217
Rp218
ag3
(g4
g5
Vgrecia-contra-costa-de-marfil
p219
tp220
Rp221
ag3
(g4
g5
Vjapon-contra-colombia
p222
tp223
Rp224
ag3
(g4
g5
Vitalia-contra-uruguay
p225
tp226
Rp227
ag3
(g4
g5
Vcosta-rica-contra-inglaterra
p228
tp229
Rp230
ag3
(g4
g5
Vintocable
p231
tp232
Rp233
ag3
(g4
g5
Vjordi-alba
p234
tp235
Rp236
ag3
(g4
g5
Vhable-con-ellas
p237
tp238
Rp239
ag3
(g4
g5
Vander-herrera
p240
tp241
Rp242
ag3
(g4
g5
Vpablo-iglesias
p243
tp244
Rp245
ag3
(g4
g5
Vintocable-pelicula
p246
tp247
Rp248
ag3
(g4
g5
Vbuffon
p249
tp250
Rp251
asS'UK'
p252
(lp253
g3
(g4
g5
Vecuador
p254
tp255
Rp256
ag3
(g4
g5
Veli-wallach
p257
tp258
Rp259
ag3
(g4
g5
Vstepanek
p260
tp261
Rp262
ag3
(g4
g5
Vjames-rodriguez
p263
tp264
Rp265
ag3
(g4
g5
Vwonga
p266
tp267
Rp268
ag3
(g4
g5
Vgoogle-io
p269
tp270
Rp271
ag3
(g4
g5
Vmichael-jackson
p272
tp273
Rp274
ag3
(g4
g5
Vnigel-havers
p275
tp276
Rp277
ag3
(g4
g5
Vstrathallan-castle
p278
tp279
Rp280
ag3
(g4
g5
Vbosnia-and-herzegovina-vs-iran
p281
tp282
Rp283
ag3
(g4
g5
Vglastonbury-line-up
p284
tp285
Rp286
ag3
(g4
g5
Vworld-cup-2014
p287
tp288
Rp289
ag3
(g4
g5
Vluis-suarez
p290
tp291
Rp292
ag3
(g4
g5
Vnigeria-vs-argentina
p293
tp294
Rp295
ag3
(g4
g5
Vivory-coast
p296
tp297
Rp298
ag3
(g4
g5
Vander-herrera
p299
tp300
Rp301
ag3
(g4
g5
Vrebekah-brooks
p302
tp303
Rp304
ag3
(g4
g5
Veuro-2016
p305
tp306
Rp307
ag3
(g4
g5
Vyaya-toure
p308
tp309
Rp310
ag3
(g4
g5
Vroger-federer
p311
tp312
Rp313
asS'India'
p314
(lp315
g3
(g4
g5
Vhonduras-vs-switzerland
p316
tp317
Rp318
ag3
(g4
g5
Vgoogle-io
p319
tp320
Rp321
ag3
(g4
g5
Vunited-states-vs-germany
p322
tp323
Rp324
ag3
(g4
g5
Vnigeria-vs-argentina
p325
tp326
Rp327
ag3
(g4
g5
Vblackberry-z3
p328
tp329
Rp330
ag3
(g4
g5
Vaiims
p331
tp332
Rp333
ag3
(g4
g5
Vcalicut-university
p334
tp335
Rp336
ag3
(g4
g5
Vvtu
p337
tp338
Rp339
ag3
(g4
g5
Vmichael-jackson
p340
tp341
Rp342
ag3
(g4
g5
Vbosnia-and-herzegovina-vs-iran
p343
tp344
Rp345
ag3
(g4
g5
Vitaly-vs-uruguay
p346
tp347
Rp348
ag3
(g4
g5
Vworld-cup-2014
p349
tp350
Rp351
ag3
(g4
g5
Vgreece-vs-cote-divoire
p352
tp353
Rp354
ag3
(g4
g5
Vnokia-x2
p355
tp356
Rp357
ag3
(g4
g5
Vnetherlands-vs-chile
p358
tp359
Rp360
ag3
(g4
g5
Vunited-states-vs-portugal
p361
tp362
Rp363
ag3
(g4
g5
Vaustralia-vs-spain
p364
tp365
Rp366
ag3
(g4
g5
Vaiims
p367
tp368
Rp369
ag3
(g4
g5
Vwww-facebook-com
p370
tp371
Rp372
ag3
(g4
g5
Vwimbledon
p373
tp374
Rp375
asS'US'
p376
(lp377
g3
(g4
g5
Veli-wallach
p378
tp379
Rp380
ag3
(g4
g5
Vmichael-jackson
p381
tp382
Rp383
ag3
(g4
g5
Vbig-brother
p384
tp385
Rp386
ag3
(g4
g5
Vdiane-sawyer
p387
tp388
Rp389
ag3
(g4
g5
Vusa-vs-germany
p390
tp391
Rp392
ag3
(g4
g5
Vaereo
p393
tp394
Rp395
ag3
(g4
g5
Vecuador-vs-france
p396
tp397
Rp398
ag3
(g4
g5
Vgoogle-io
p399
tp400
Rp401
ag3
(g4
g5
Vtim-lincecum
p402
tp403
Rp404
ag3
(g4
g5
Vtyson-chandler
p405
tp406
Rp407
ag3
(g4
g5
Vwhitney-cummings
p408
tp409
Rp410
ag3
(g4
g5
Vluis-suarez
p411
tp412
Rp413
ag3
(g4
g5
Vlebron-james
p414
tp415
Rp416
ag3
(g4
g5
Vnigeria-vs-argentina
p417
tp418
Rp419
ag3
(g4
g5
Vgreece-vs-cote-divoire
p420
tp421
Rp422
ag3
(g4
g5
Vtyrant
p423
tp424
Rp425
ag3
(g4
g5
Vlee-thompson-young
p426
tp427
Rp428
ag3
(g4
g5
Vkatie-cleary
p429
tp430
Rp431
ag3
(g4
g5
Vgary-oldman
p432
tp433
Rp434
ag3
(g4
g5
Vjoan-lunden
p435
tp436
Rp437
asS'France'
p438
(lp439
g3
(g4
g5
Vcoupe-du-monde-2014
p440
tp441
Rp442
ag3
(g4
g5
Vresultat-france-equateur
p443
tp444
Rp445
ag3
(g4
g5
Vgiroud
p446
tp447
Rp448
ag3
(g4
g5
Vkarim-benzema
p449
tp450
Rp451
ag3
(g4
g5
Vvalbuena
p452
tp453
Rp454
ag3
(g4
g5
Vzidane
p455
tp456
Rp457
ag3
(g4
g5
Valgerie-russie
p458
tp459
Rp460
ag3
(g4
g5
Vcdiscount
p461
tp462
Rp463
ag3
(g4
g5
Vsarenza
p464
tp465
Rp466
ag3
(g4
g5
Vsuisse-honduras
p467
tp468
Rp469
ag3
(g4
g5
Veli-wallach
p470
tp471
Rp472
ag3
(g4
g5
Vgaleries-lafayette
p473
tp474
Rp475
ag3
(g4
g5
Vmichael-jackson
p476
tp477
Rp478
ag3
(g4
g5
Vschneiderlin
p479
tp480
Rp481
ag3
(g4
g5
Vsoldes-2014
p482
tp483
Rp484
ag3
(g4
g5
Vgriezmann
p485
tp486
Rp487
ag3
(g4
g5
Venner-valencia
p488
tp489
Rp490
ag3
(g4
g5
Vbrevet-2014
p491
tp492
Rp493
ag3
(g4
g5
Vprincesse-tam-tam
p494
tp495
Rp496
ag3
(g4
g5
Vlacoste
p497
tp498
Rp499
as.