(dp0
S'Australia'
p1
(lp2
ccopy_reg
_reconstructor
p3
(cdjango.utils.safestring
SafeText
p4
c__builtin__
unicode
p5
Vaami-park
p6
tp7
Rp8
ag3
(g4
g5
Vron-lester
p9
tp10
Rp11
ag3
(g4
g5
Vlotto
p12
tp13
Rp14
ag3
(g4
g5
Vzika-virus
p15
tp16
Rp17
ag3
(g4
g5
Vitaly-vs-sweden
p18
tp19
Rp20
ag3
(g4
g5
Vus-open
p21
tp22
Rp23
ag3
(g4
g5
Vspain-vs-turkey
p24
tp25
Rp26
ag3
(g4
g5
Vnorth-melbourne
p27
tp28
Rp29
ag3
(g4
g5
Vazerbaijan
p30
tp31
Rp32
ag3
(g4
g5
Vzara-holland
p33
tp34
Rp35
ag3
(g4
g5
Vjo-cox
p36
tp37
Rp38
ag3
(g4
g5
Vsemi-radradra
p39
tp40
Rp41
ag3
(g4
g5
Vbaku
p42
tp43
Rp44
ag3
(g4
g5
Vharbour-bridge
p45
tp46
Rp47
ag3
(g4
g5
Vv8-supercars-darwin
p48
tp49
Rp50
ag3
(g4
g5
Vnba
p51
tp52
Rp53
ag3
(g4
g5
Vmeatloaf
p54
tp55
Rp56
ag3
(g4
g5
Vus-open-2016
p57
tp58
Rp59
ag3
(g4
g5
Vorange-is-the-new-black
p60
tp61
Rp62
ag3
(g4
g5
Vfathers-day
p63
tp64
Rp65
asS'India'
p66
(lp67
g3
(g4
g5
Vudta-punjab-collection
p68
tp69
Rp70
ag3
(g4
g5
Vsbi
p71
tp72
Rp73
ag3
(g4
g5
Vmamta-kulkarni
p74
tp75
Rp76
ag3
(g4
g5
Vspain-vs-turkey
p77
tp78
Rp79
ag3
(g4
g5
Vitaly-vs-sweden
p80
tp81
Rp82
ag3
(g4
g5
Vnow-you-see-me-2
p83
tp84
Rp85
ag3
(g4
g5
Vgermany-vs-poland
p86
tp87
Rp88
ag3
(g4
g5
Vjeppiaar
p89
tp90
Rp91
ag3
(g4
g5
Vchetan-chauhan
p92
tp93
Rp94
ag3
(g4
g5
Vindia-vs-zimbabwe-t20
p95
tp96
Rp97
ag3
(g4
g5
Vchampions-trophy-hockey-india-vs-australia
p98
tp99
Rp100
ag3
(g4
g5
Vsbi-clerk-result
p101
tp102
Rp103
ag3
(g4
g5
Vfather-s-day
p104
tp105
Rp106
ag3
(g4
g5
Vfinding-dory
p107
tp108
Rp109
ag3
(g4
g5
Vkabali
p110
tp111
Rp112
ag3
(g4
g5
Vgentleman-review
p113
tp114
Rp115
ag3
(g4
g5
Vnba-finals
p116
tp117
Rp118
ag3
(g4
g5
Vpooja-misrra
p119
tp120
Rp121
ag3
(g4
g5
Vraghuram-rajan
p122
tp123
Rp124
ag3
(g4
g5
Vudta-punjab
p125
tp126
Rp127
asS'UK'
p128
(lp129
g3
(g4
g5
Veurotrash
p130
tp131
Rp132
ag3
(g4
g5
Vbelgium-vs-ireland
p133
tp134
Rp135
ag3
(g4
g5
Vculture-clash
p136
tp137
Rp138
ag3
(g4
g5
Vorange-is-the-new-black
p139
tp140
Rp141
ag3
(g4
g5
Vmarco-pierre-white-jr
p142
tp143
Rp144
ag3
(g4
g5
Vspain-vs-turkey
p145
tp146
Rp147
ag3
(g4
g5
Vuefa-euro-2016
p148
tp149
Rp150
ag3
(g4
g5
Vitaly-vs-sweden
p151
tp152
Rp153
ag3
(g4
g5
Vazerbaijan
p154
tp155
Rp156
ag3
(g4
g5
Vcharlie-sheen
p157
tp158
Rp159
ag3
(g4
g5
Vgods-of-egypt
p160
tp161
Rp162
ag3
(g4
g5
Vrick-astley
p163
tp164
Rp165
ag3
(g4
g5
Vbaku
p166
tp167
Rp168
ag3
(g4
g5
Vghostbusters
p169
tp170
Rp171
ag3
(g4
g5
Vengland-v-australia-rugby
p172
tp173
Rp174
ag3
(g4
g5
Vtim-peake
p175
tp176
Rp177
ag3
(g4
g5
Vmeatloaf
p178
tp179
Rp180
ag3
(g4
g5
Vrick-parfitt
p181
tp182
Rp183
ag3
(g4
g5
Vnba
p184
tp185
Rp186
ag3
(g4
g5
Vnasa
p187
tp188
Rp189
asS'US'
p190
(lp191
g3
(g4
g5
Vron-lester
p192
tp193
Rp194
ag3
(g4
g5
Vusa-vs-ecuador
p195
tp196
Rp197
ag3
(g4
g5
Vwestboro-baptist-church-orlando-shooting
p198
tp199
Rp200
ag3
(g4
g5
Vus-open-live
p201
tp202
Rp203
ag3
(g4
g5
Vhappy-fathers-day
p204
tp205
Rp206
ag3
(g4
g5
Vcharlie-puth
p207
tp208
Rp209
ag3
(g4
g5
Vargentina-vs-venezuela
p210
tp211
Rp212
ag3
(g4
g5
Vzonnique-pullins
p213
tp214
Rp215
ag3
(g4
g5
Vdemi-lovato
p216
tp217
Rp218
ag3
(g4
g5
Vwarriors
p219
tp220
Rp221
ag3
(g4
g5
Valligator-attack
p222
tp223
Rp224
ag3
(g4
g5
Vruben-aguirre
p225
tp226
Rp227
ag3
(g4
g5
Vcroatia
p228
tp229
Rp230
ag3
(g4
g5
Vcentral-intelligence
p231
tp232
Rp233
ag3
(g4
g5
Vpm-dawn
p234
tp235
Rp236
ag3
(g4
g5
Vfinding-dory
p237
tp238
Rp239
ag3
(g4
g5
Vnba-finals
p240
tp241
Rp242
ag3
(g4
g5
Vjerry-lawler
p243
tp244
Rp245
ag3
(g4
g5
Vcolombia-vs-peru
p246
tp247
Rp248
ag3
(g4
g5
Vus-open
p249
tp250
Rp251
as.