(dp0
S'Brazil'
p1
(lp2
ccopy_reg
_reconstructor
p3
(cdjango.utils.safestring
SafeText
p4
c__builtin__
unicode
p5
Vsophie-turner
p6
tp7
Rp8
ag3
(g4
g5
Vbbb15
p9
tp10
Rp11
ag3
(g4
g5
Vanos-dourados
p12
tp13
Rp14
ag3
(g4
g5
Vcopinha
p15
tp16
Rp17
ag3
(g4
g5
Vandre-goncalves
p18
tp19
Rp20
ag3
(g4
g5
Vdeep-web
p21
tp22
Rp23
ag3
(g4
g5
Vjulia-bbb15
p24
tp25
Rp26
ag3
(g4
g5
Vlampiao-e-maria-bonita
p27
tp28
Rp29
ag3
(g4
g5
Vbbb
p30
tp31
Rp32
ag3
(g4
g5
Valibaba
p33
tp34
Rp35
ag3
(g4
g5
Vtalita-bbb15
p36
tp37
Rp38
ag3
(g4
g5
Vufpa
p39
tp40
Rp41
ag3
(g4
g5
Vpopcorn-time
p42
tp43
Rp44
ag3
(g4
g5
Vbanda-do-mar
p45
tp46
Rp47
ag3
(g4
g5
Vdiverticulite
p48
tp49
Rp50
ag3
(g4
g5
Vcrefisa
p51
tp52
Rp53
ag3
(g4
g5
Vwhatsapp
p54
tp55
Rp56
ag3
(g4
g5
Vkesha
p57
tp58
Rp59
ag3
(g4
g5
Vmelissa-benoist
p60
tp61
Rp62
ag3
(g4
g5
Vjulia-bbb-15
p63
tp64
Rp65
asS'Australia'
p66
(lp67
g3
(g4
g5
Vsam-groth
p68
tp69
Rp70
ag3
(g4
g5
Vmadison-keys
p71
tp72
Rp73
ag3
(g4
g5
Vjapan
p74
tp75
Rp76
ag3
(g4
g5
Vroger-federer
p77
tp78
Rp79
ag3
(g4
g5
Vthe-firm
p80
tp81
Rp82
ag3
(g4
g5
Vsteve-smith
p83
tp84
Rp85
ag3
(g4
g5
Vsonia-kruger
p86
tp87
Rp88
ag3
(g4
g5
Vbrisbane-weather
p89
tp90
Rp91
ag3
(g4
g5
Vazarenka
p92
tp93
Rp94
ag3
(g4
g5
Vfa-cup
p95
tp96
Rp97
ag3
(g4
g5
Vnovak-djokovic
p98
tp99
Rp100
ag3
(g4
g5
Va-league
p101
tp102
Rp103
ag3
(g4
g5
Vemma-watson
p104
tp105
Rp106
ag3
(g4
g5
Vnishikori
p107
tp108
Rp109
ag3
(g4
g5
Vserena-williams
p110
tp111
Rp112
ag3
(g4
g5
Vnick-kyrgios
p113
tp114
Rp115
ag3
(g4
g5
Vmisery
p116
tp117
Rp118
ag3
(g4
g5
Vklay-thompson
p119
tp120
Rp121
ag3
(g4
g5
Vmelissa-benoist
p122
tp123
Rp124
ag3
(g4
g5
Vcharlotte-mckinney
p125
tp126
Rp127
asS'Italy'
p128
(lp129
g3
(g4
g5
Vssc-napoli
p130
tp131
Rp132
ag3
(g4
g5
Vmino-raiola
p133
tp134
Rp135
ag3
(g4
g5
Vguendalina-tavassi
p136
tp137
Rp138
ag3
(g4
g5
Vtu-la-conosci-claudia
p139
tp140
Rp141
ag3
(g4
g5
Vbrozovic
p142
tp143
Rp144
ag3
(g4
g5
Vfanny-neguesha
p145
tp146
Rp147
ag3
(g4
g5
Vyaya-toure
p148
tp149
Rp150
ag3
(g4
g5
Vjohn-wick
p151
tp152
Rp153
ag3
(g4
g5
Vterremoto
p154
tp155
Rp156
ag3
(g4
g5
Vcassano
p157
tp158
Rp159
ag3
(g4
g5
Vrick-owens
p160
tp161
Rp162
ag3
(g4
g5
Vgilardino
p163
tp164
Rp165
ag3
(g4
g5
Vsenza-identita
p166
tp167
Rp168
ag3
(g4
g5
Vritorno-a-cold-mountain
p169
tp170
Rp171
ag3
(g4
g5
Vdakota-johnson
p172
tp173
Rp174
ag3
(g4
g5
Vterremoto-in-tempo-reale
p175
tp176
Rp177
ag3
(g4
g5
Vseppi
p178
tp179
Rp180
ag3
(g4
g5
Vingv
p181
tp182
Rp183
ag3
(g4
g5
Vrocco-siffredi
p184
tp185
Rp186
ag3
(g4
g5
Vlucia-annibali
p187
tp188
Rp189
asS'Spain'
p190
(lp191
g3
(g4
g5
Vdakota-johnson
p192
tp193
Rp194
ag3
(g4
g5
Vcordoba-real-madrid
p195
tp196
Rp197
ag3
(g4
g5
Vdesire-cordero
p198
tp199
Rp200
ag3
(g4
g5
Velcorteingles
p201
tp202
Rp203
ag3
(g4
g5
Vlucas-silva
p204
tp205
Rp206
ag3
(g4
g5
Vsalvame-fashion-week
p207
tp208
Rp209
ag3
(g4
g5
Vstephen-hawking
p210
tp211
Rp212
ag3
(g4
g5
Vares-gh-vip
p213
tp214
Rp215
ag3
(g4
g5
Vbarcenas
p216
tp217
Rp218
ag3
(g4
g5
Vana-cobos
p219
tp220
Rp221
ag3
(g4
g5
Vangela-portero
p222
tp223
Rp224
ag3
(g4
g5
Vinto-the-woods
p225
tp226
Rp227
ag3
(g4
g5
Vsyriza
p228
tp229
Rp230
ag3
(g4
g5
Vashley-ellerin
p231
tp232
Rp233
ag3
(g4
g5
Vmakoke
p234
tp235
Rp236
ag3
(g4
g5
Vwill-ferrell
p237
tp238
Rp239
ag3
(g4
g5
Vmia-khalifa
p240
tp241
Rp242
ag3
(g4
g5
Vsilvia-fominaya
p243
tp244
Rp245
ag3
(g4
g5
Vodegaard
p246
tp247
Rp248
ag3
(g4
g5
Vsevilla-fc
p249
tp250
Rp251
asS'UK'
p252
(lp253
g3
(g4
g5
Vburns-night
p254
tp255
Rp256
ag3
(g4
g5
Ved-sheeran
p257
tp258
Rp259
ag3
(g4
g5
Vradio-1-big-weekend-2015
p260
tp261
Rp262
ag3
(g4
g5
Vmartin-odegaard
p263
tp264
Rp265
ag3
(g4
g5
Vesther-mcvey
p266
tp267
Rp268
ag3
(g4
g5
Vjessica-chastain
p269
tp270
Rp271
ag3
(g4
g5
Vpage-3
p272
tp273
Rp274
ag3
(g4
g5
Vjosie-cunningham
p275
tp276
Rp277
ag3
(g4
g5
Vprince-andrew
p278
tp279
Rp280
ag3
(g4
g5
Veugenie-bouchard
p281
tp282
Rp283
ag3
(g4
g5
Vwinston-churchill
p284
tp285
Rp286
ag3
(g4
g5
Vthomas-cromwell
p287
tp288
Rp289
ag3
(g4
g5
Vcambridge-united
p290
tp291
Rp292
ag3
(g4
g5
Vleon-brittan
p293
tp294
Rp295
ag3
(g4
g5
Vwindows-10
p296
tp297
Rp298
ag3
(g4
g5
Vheath-ledger
p299
tp300
Rp301
ag3
(g4
g5
Vwhatsapp
p302
tp303
Rp304
ag3
(g4
g5
Vrspb
p305
tp306
Rp307
ag3
(g4
g5
Vking-abdullah
p308
tp309
Rp310
ag3
(g4
g5
Vadrian-chiles
p311
tp312
Rp313
asS'India'
p314
(lp315
g3
(g4
g5
Vms-narayana-death
p316
tp317
Rp318
ag3
(g4
g5
Vcricket
p319
tp320
Rp321
ag3
(g4
g5
Vroger-federer
p322
tp323
Rp324
ag3
(g4
g5
Vaus-vs-eng-live-score
p325
tp326
Rp327
ag3
(g4
g5
Vwindows-10
p328
tp329
Rp330
ag3
(g4
g5
Vsubhash-chandra-bose
p331
tp332
Rp333
ag3
(g4
g5
Vwhatsapp-web
p334
tp335
Rp336
ag3
(g4
g5
Vsaraswati-puja
p337
tp338
Rp339
ag3
(g4
g5
Vbarcelona
p340
tp341
Rp342
ag3
(g4
g5
Vnupur-sharma
p343
tp344
Rp345
ag3
(g4
g5
Vbaby-movie
p346
tp347
Rp348
ag3
(g4
g5
Vkpsc
p349
tp350
Rp351
ag3
(g4
g5
Vms-narayana
p352
tp353
Rp354
ag3
(g4
g5
Vtata-bolt
p355
tp356
Rp357
ag3
(g4
g5
Vbaby-movie-review
p358
tp359
Rp360
ag3
(g4
g5
Vbaby
p361
tp362
Rp363
ag3
(g4
g5
Vdolly-ki-doli
p364
tp365
Rp366
ag3
(g4
g5
Vbank-strike
p367
tp368
Rp369
ag3
(g4
g5
Vking-abdullah
p370
tp371
Rp372
ag3
(g4
g5
Vindia-vs-england
p373
tp374
Rp375
asS'US'
p376
(lp377
g3
(g4
g5
Vbox
p378
tp379
Rp380
ag3
(g4
g5
Vbackstrom
p381
tp382
Rp383
ag3
(g4
g5
Vstrange-magic
p384
tp385
Rp386
ag3
(g4
g5
Vkobe-bryant
p387
tp388
Rp389
ag3
(g4
g5
Vskymall
p390
tp391
Rp392
ag3
(g4
g5
Vmelissa-benoist
p393
tp394
Rp395
ag3
(g4
g5
Vernie-banks
p396
tp397
Rp398
ag3
(g4
g5
Vsheldon-silver
p399
tp400
Rp401
ag3
(g4
g5
Vcharlotte-mckinney
p402
tp403
Rp404
ag3
(g4
g5
Vvince-camuto
p405
tp406
Rp407
ag3
(g4
g5
Vthe-boy-next-door
p408
tp409
Rp410
ag3
(g4
g5
Vedgewater-fire
p411
tp412
Rp413
ag3
(g4
g5
Vmandy-moore
p414
tp415
Rp416
ag3
(g4
g5
Vtom-brady
p417
tp418
Rp419
ag3
(g4
g5
Vklay-thompson
p420
tp421
Rp422
ag3
(g4
g5
Vjeff-gordon
p423
tp424
Rp425
ag3
(g4
g5
Vwill-ferrell
p426
tp427
Rp428
ag3
(g4
g5
Vking-abdullah
p429
tp430
Rp431
ag3
(g4
g5
Vrocket-fizz
p432
tp433
Rp434
ag3
(g4
g5
Vmortdecai
p435
tp436
Rp437
asS'France'
p438
(lp439
g3
(g4
g5
Varabie-saoudite
p440
tp441
Rp442
ag3
(g4
g5
Vnajat-vallaud-belkacem
p443
tp444
Rp445
ag3
(g4
g5
Vdavos
p446
tp447
Rp448
ag3
(g4
g5
Vlisa-angell
p449
tp450
Rp451
ag3
(g4
g5
Vnouvelle-star-2015
p452
tp453
Rp454
ag3
(g4
g5
Valgerie-ghana
p455
tp456
Rp457
ag3
(g4
g5
Vsamy-naceri
p458
tp459
Rp460
ag3
(g4
g5
Vbce
p461
tp462
Rp463
ag3
(g4
g5
Vnouvelle-star
p464
tp465
Rp466
ag3
(g4
g5
Vrick-owens
p467
tp468
Rp469
ag3
(g4
g5
Vdes-paroles-et-des-actes
p470
tp471
Rp472
ag3
(g4
g5
Vmartin-odegaard
p473
tp474
Rp475
ag3
(g4
g5
Vqi-la-france-passe-le-test
p476
tp477
Rp478
ag3
(g4
g5
Vpulp-fiction
p479
tp480
Rp481
ag3
(g4
g5
Vdakota-johnson
p482
tp483
Rp484
ag3
(g4
g5
Vrallye-monte-carlo
p485
tp486
Rp487
ag3
(g4
g5
Vjose-artur
p488
tp489
Rp490
ag3
(g4
g5
Vvampire-diaries-saison-6
p491
tp492
Rp493
ag3
(g4
g5
Vtirage-coupe-de-france
p494
tp495
Rp496
ag3
(g4
g5
Variane-brodier
p497
tp498
Rp499
as.