(dp0
S'Brazil'
p1
(lp2
ccopy_reg
_reconstructor
p3
(cdjango.utils.safestring
SafeText
p4
c__builtin__
unicode
p5
Vbrasil-x-japao
p6
tp7
Rp8
ag3
(g4
g5
Vfeliz-dia-dos-professores
p9
tp10
Rp11
ag3
(g4
g5
Vneymar
p12
tp13
Rp14
ag3
(g4
g5
Vfox-sports
p15
tp16
Rp17
ag3
(g4
g5
Vtribunal-de-contas-de-minas-gerais
p18
tp19
Rp20
ag3
(g4
g5
Vdeep-web
p21
tp22
Rp23
ag3
(g4
g5
Vraphael-sumar
p24
tp25
Rp26
ag3
(g4
g5
Vdia-dos-professores
p27
tp28
Rp29
ag3
(g4
g5
Vhomenagem-aos-professores
p30
tp31
Rp32
ag3
(g4
g5
Vnexus-6
p33
tp34
Rp35
ag3
(g4
g5
Vthais-fersoza
p36
tp37
Rp38
ag3
(g4
g5
Vezra-miller
p39
tp40
Rp41
ag3
(g4
g5
Vibope
p42
tp43
Rp44
ag3
(g4
g5
Vcopa-do-brasil
p45
tp46
Rp47
ag3
(g4
g5
Vdia-do-professor
p48
tp49
Rp50
ag3
(g4
g5
Vdebate-band
p51
tp52
Rp53
ag3
(g4
g5
Vxico-sa
p54
tp55
Rp56
ag3
(g4
g5
Vprofessores
p57
tp58
Rp59
ag3
(g4
g5
Vzenfone-5
p60
tp61
Rp62
ag3
(g4
g5
Vresumo-da-novela-imperio
p63
tp64
Rp65
asS'Australia'
p66
(lp67
g3
(g4
g5
Vpowerball
p68
tp69
Rp70
ag3
(g4
g5
Vapple
p71
tp72
Rp73
ag3
(g4
g5
Vmark-holden
p74
tp75
Rp76
ag3
(g4
g5
Vzach-galifianakis
p77
tp78
Rp79
ag3
(g4
g5
Velizabeth-pena
p80
tp81
Rp82
ag3
(g4
g5
Vmiley-cyrus
p83
tp84
Rp85
ag3
(g4
g5
Vtom-boyd
p86
tp87
Rp88
ag3
(g4
g5
Vrichard-flanagan
p89
tp90
Rp91
ag3
(g4
g5
Vnexus-6
p92
tp93
Rp94
ag3
(g4
g5
Vsydney-airport
p95
tp96
Rp97
ag3
(g4
g5
Vthe-hunger-games
p98
tp99
Rp100
ag3
(g4
g5
Vtroy
p101
tp102
Rp103
ag3
(g4
g5
Vperth-weather
p104
tp105
Rp106
ag3
(g4
g5
Ved-sheeran
p107
tp108
Rp109
ag3
(g4
g5
Vtaylor-swift
p110
tp111
Rp112
ag3
(g4
g5
Vhunger-games
p113
tp114
Rp115
ag3
(g4
g5
Vjarryd-hayne
p116
tp117
Rp118
ag3
(g4
g5
Vmadeleine-mccann
p119
tp120
Rp121
ag3
(g4
g5
Viggy-azalea
p122
tp123
Rp124
ag3
(g4
g5
Vthe-evil-within
p125
tp126
Rp127
asS'Italy'
p128
(lp129
g3
(g4
g5
Vgraziano-pelle
p130
tp131
Rp132
ag3
(g4
g5
Vdjango-unchained
p133
tp134
Rp135
ag3
(g4
g5
Vsquadra-antimafia-6
p136
tp137
Rp138
ag3
(g4
g5
Vserbia-albania
p139
tp140
Rp141
ag3
(g4
g5
Vgazzetta-di-parma
p142
tp143
Rp144
ag3
(g4
g5
Vmaurizio-mattioli
p145
tp146
Rp147
ag3
(g4
g5
Vzoe-saldana
p148
tp149
Rp150
ag3
(g4
g5
Vlegge-di-stabilita-2014
p151
tp152
Rp153
ag3
(g4
g5
Vlaura-barriales
p154
tp155
Rp156
ag3
(g4
g5
Vregina-vittoria
p157
tp158
Rp159
ag3
(g4
g5
Vmalta
p160
tp161
Rp162
ag3
(g4
g5
Vnexus-6
p163
tp164
Rp165
ag3
(g4
g5
Vparma
p166
tp167
Rp168
ag3
(g4
g5
Vla-papessa
p169
tp170
Rp171
ag3
(g4
g5
Vavatar
p172
tp173
Rp174
ag3
(g4
g5
Vmicol-olivieri
p175
tp176
Rp177
ag3
(g4
g5
Vil-piccolo
p178
tp179
Rp180
ag3
(g4
g5
Vreal-steel
p181
tp182
Rp183
ag3
(g4
g5
Vthe-walking-dead
p184
tp185
Rp186
ag3
(g4
g5
Vhannah-arendt
p187
tp188
Rp189
asS'Spain'
p190
(lp191
g3
(g4
g5
Vtv3
p192
tp193
Rp194
ag3
(g4
g5
Vfrancisco-nicolas-gomez-iglesias
p195
tp196
Rp197
ag3
(g4
g5
Vneymar
p198
tp199
Rp200
ag3
(g4
g5
Vpremio-planeta-2014
p201
tp202
Rp203
ag3
(g4
g5
Valbania
p204
tp205
Rp206
ag3
(g4
g5
Velizabeth-pena
p207
tp208
Rp209
ag3
(g4
g5
Vsanta-teresa
p210
tp211
Rp212
ag3
(g4
g5
Vcalzedonia
p213
tp214
Rp215
ag3
(g4
g5
Vbetis
p216
tp217
Rp218
ag3
(g4
g5
Vjustin-timberlake
p219
tp220
Rp221
ag3
(g4
g5
Vcopa-del-rey
p222
tp223
Rp224
ag3
(g4
g5
Vnexus-6
p225
tp226
Rp227
ag3
(g4
g5
Vpique
p228
tp229
Rp230
ag3
(g4
g5
Vezra-miller
p231
tp232
Rp233
ag3
(g4
g5
Vrojadirecta
p234
tp235
Rp236
ag3
(g4
g5
Vthiago-alcantara
p237
tp238
Rp239
ag3
(g4
g5
Vabraham-mateo
p240
tp241
Rp242
ag3
(g4
g5
Visco
p243
tp244
Rp245
ag3
(g4
g5
Velecciones-plebiscitarias
p246
tp247
Rp248
ag3
(g4
g5
Vhannah-arendt
p249
tp250
Rp251
asS'UK'
p252
(lp253
g3
(g4
g5
Vipad
p254
tp255
Rp256
ag3
(g4
g5
Vlord-freud
p257
tp258
Rp259
ag3
(g4
g5
Vmichael-mcintyre
p260
tp261
Rp262
ag3
(g4
g5
Vftse-100
p263
tp264
Rp265
ag3
(g4
g5
Vthe-apprentice-2014
p266
tp267
Rp268
ag3
(g4
g5
Vim-a-celebrity-2014
p269
tp270
Rp271
ag3
(g4
g5
Velizabeth-pena
p272
tp273
Rp274
ag3
(g4
g5
Vchloe-madeley
p275
tp276
Rp277
ag3
(g4
g5
Vtower-of-london-poppies
p278
tp279
Rp280
ag3
(g4
g5
Vnexus-6
p281
tp282
Rp283
ag3
(g4
g5
Vbryan-adams
p284
tp285
Rp286
ag3
(g4
g5
Vsteve-carell
p287
tp288
Rp289
ag3
(g4
g5
Vezra-miller
p290
tp291
Rp292
ag3
(g4
g5
Veuro-millions
p293
tp294
Rp295
ag3
(g4
g5
Vwaterloo-road
p296
tp297
Rp298
ag3
(g4
g5
Vcrabzilla
p299
tp300
Rp301
ag3
(g4
g5
Vserbia-albania
p302
tp303
Rp304
ag3
(g4
g5
Vkesha
p305
tp306
Rp307
ag3
(g4
g5
Vlipsy
p308
tp309
Rp310
ag3
(g4
g5
Vdecadence
p311
tp312
Rp313
asS'India'
p314
(lp315
g3
(g4
g5
Vhudhud
p316
tp317
Rp318
ag3
(g4
g5
Vnote-4
p319
tp320
Rp321
ag3
(g4
g5
Vamazon-india
p322
tp323
Rp324
ag3
(g4
g5
Vcricket
p325
tp326
Rp327
ag3
(g4
g5
Vkarwa-chauth
p328
tp329
Rp330
ag3
(g4
g5
Vgate-2015
p331
tp332
Rp333
ag3
(g4
g5
Vmaharashtra-election
p334
tp335
Rp336
ag3
(g4
g5
Vamazon
p337
tp338
Rp339
ag3
(g4
g5
Vnexus-6
p340
tp341
Rp342
ag3
(g4
g5
Vpenelope-cruz
p343
tp344
Rp345
ag3
(g4
g5
Vlive-cricket-score
p346
tp347
Rp348
ag3
(g4
g5
Vindian-super-league
p349
tp350
Rp351
ag3
(g4
g5
Visl
p352
tp353
Rp354
ag3
(g4
g5
Vkailash-satyarthi
p355
tp356
Rp357
ag3
(g4
g5
Vali-quli-mirza
p358
tp359
Rp360
ag3
(g4
g5
Vupsc
p361
tp362
Rp363
ag3
(g4
g5
Vrekha
p364
tp365
Rp366
ag3
(g4
g5
Vamitabh-bachchan
p367
tp368
Rp369
asS'US'
p370
(lp371
g3
(g4
g5
Veagles-schedule
p372
tp373
Rp374
ag3
(g4
g5
Vnina-pham
p375
tp376
Rp377
ag3
(g4
g5
Vgal-gadot
p378
tp379
Rp380
ag3
(g4
g5
Vbosses-day
p381
tp382
Rp383
ag3
(g4
g5
Vzach-galifianakis
p384
tp385
Rp386
ag3
(g4
g5
Vbears
p387
tp388
Rp389
ag3
(g4
g5
Velizabeth-pena
p390
tp391
Rp392
ag3
(g4
g5
Vout-of-the-woods
p393
tp394
Rp395
ag3
(g4
g5
Vebola-outbreak
p396
tp397
Rp398
ag3
(g4
g5
Vroyals
p399
tp400
Rp401
ag3
(g4
g5
Vnexus-6
p402
tp403
Rp404
ag3
(g4
g5
Vpenelope-cruz
p405
tp406
Rp407
ag3
(g4
g5
Vstock-market
p408
tp409
Rp410
ag3
(g4
g5
V49ers
p411
tp412
Rp413
ag3
(g4
g5
Vezra-miller
p414
tp415
Rp416
ag3
(g4
g5
Vbet-hiphop-awards-2014
p417
tp418
Rp419
ag3
(g4
g5
Vjoseph-randle
p420
tp421
Rp422
ag3
(g4
g5
Vkesha
p423
tp424
Rp425
ag3
(g4
g5
Vjameis-winston
p426
tp427
Rp428
ag3
(g4
g5
Vpriscilla-chan
p429
tp430
Rp431
asS'France'
p432
(lp433
g3
(g4
g5
Vipad
p434
tp435
Rp436
ag3
(g4
g5
Vnadine-morano
p437
tp438
Rp439
ag3
(g4
g5
Vkesha
p440
tp441
Rp442
ag3
(g4
g5
Vgisele-bundchen
p443
tp444
Rp445
ag3
(g4
g5
Vkurzawa
p446
tp447
Rp448
ag3
(g4
g5
Vcristina-cordula
p449
tp450
Rp451
ag3
(g4
g5
Vnexus-6
p452
tp453
Rp454
ag3
(g4
g5
Vthe-cover
p455
tp456
Rp457
ag3
(g4
g5
Vbruel
p458
tp459
Rp460
ag3
(g4
g5
Vmarie-dubois
p461
tp462
Rp463
ag3
(g4
g5
Vvaleurs-actuelles
p464
tp465
Rp466
ag3
(g4
g5
Vcac-40
p467
tp468
Rp469
ag3
(g4
g5
Vjean-bernard-levy
p470
tp471
Rp472
ag3
(g4
g5
Vfrance-3
p473
tp474
Rp475
ag3
(g4
g5
Vblacklist-saison-2
p476
tp477
Rp478
ag3
(g4
g5
Valgerie-malawi
p479
tp480
Rp481
ag3
(g4
g5
Vjean-marie-le-pen
p482
tp483
Rp484
ag3
(g4
g5
Vprecious
p485
tp486
Rp487
ag3
(g4
g5
Vmc-solaar
p488
tp489
Rp490
ag3
(g4
g5
Vcan-2015
p491
tp492
Rp493
as.