(dp0
S'Brazil'
p1
(lp2
ccopy_reg
_reconstructor
p3
(cdjango.utils.safestring
SafeText
p4
c__builtin__
unicode
p5
Vstyle-taylor-swift
p6
tp7
Rp8
ag3
(g4
g5
Vwaze
p9
tp10
Rp11
ag3
(g4
g5
V50-tons-de-cinza
p12
tp13
Rp14
ag3
(g4
g5
V50-tons-de-cinza-filme
p15
tp16
Rp17
ag3
(g4
g5
Vluma-de-oliveira
p18
tp19
Rp20
ag3
(g4
g5
Vsexta-feira-13
p21
tp22
Rp23
ag3
(g4
g5
Vdia-dos-namorados
p24
tp25
Rp26
ag3
(g4
g5
Vroberta-close
p27
tp28
Rp29
ag3
(g4
g5
Vlais-souza
p30
tp31
Rp32
ag3
(g4
g5
Vlula
p33
tp34
Rp35
ag3
(g4
g5
Vufpb
p36
tp37
Rp38
ag3
(g4
g5
Vovo-faberge
p39
tp40
Rp41
ag3
(g4
g5
Vlaura-neiva
p42
tp43
Rp44
ag3
(g4
g5
Vlista-de-espera-sisu
p45
tp46
Rp47
ag3
(g4
g5
Vrock-in-rio
p48
tp49
Rp50
ag3
(g4
g5
Vsisu
p51
tp52
Rp53
ag3
(g4
g5
Vpalmeiras-x-rio-claro
p54
tp55
Rp56
ag3
(g4
g5
Vtomie-ohtake
p57
tp58
Rp59
ag3
(g4
g5
Vguilherme-de-padua
p60
tp61
Rp62
ag3
(g4
g5
Vdesfile-das-escolas-de-samba-2015
p63
tp64
Rp65
asS'Australia'
p66
(lp67
g3
(g4
g5
Vglenn-wheeler
p68
tp69
Rp70
ag3
(g4
g5
Vtaylor-swift-style
p71
tp72
Rp73
ag3
(g4
g5
Vhepatitis-a
p74
tp75
Rp76
ag3
(g4
g5
Vgallipoli
p77
tp78
Rp79
ag3
(g4
g5
Vroses
p80
tp81
Rp82
ag3
(g4
g5
Vhappy-valentines-day-images
p83
tp84
Rp85
ag3
(g4
g5
Vhappy-valentines
p86
tp87
Rp88
ag3
(g4
g5
Vvalentines
p89
tp90
Rp91
ag3
(g4
g5
Vvalentines-day-quotes
p92
tp93
Rp94
ag3
(g4
g5
Vfa-cup
p95
tp96
Rp97
ag3
(g4
g5
Vnrl
p98
tp99
Rp100
ag3
(g4
g5
Vphilip-ruddock
p101
tp102
Rp103
ag3
(g4
g5
Vvalentines-day-cards
p104
tp105
Rp106
ag3
(g4
g5
Vjames-franco
p107
tp108
Rp109
ag3
(g4
g5
Vvalentines-day
p110
tp111
Rp112
ag3
(g4
g5
Vannastacia-palaszczuk
p113
tp114
Rp115
ag3
(g4
g5
V2015-cricket-world-cup
p116
tp117
Rp118
ag3
(g4
g5
Vhappy-valentines-day
p119
tp120
Rp121
ag3
(g4
g5
Vgina-rinehart
p122
tp123
Rp124
ag3
(g4
g5
Vthe-invasion
p125
tp126
Rp127
asS'Italy'
p128
(lp129
g3
(g4
g5
Vfesta-di-san-valentino
p130
tp131
Rp132
ag3
(g4
g5
Voriana-fallaci
p133
tp134
Rp135
ag3
(g4
g5
Vcuori
p136
tp137
Rp138
ag3
(g4
g5
Vnesli
p139
tp140
Rp141
ag3
(g4
g5
Vgiovanni-allevi
p142
tp143
Rp144
ag3
(g4
g5
Vcuore
p145
tp146
Rp147
ag3
(g4
g5
Vs-valentino
p148
tp149
Rp150
ag3
(g4
g5
Vmassimo-ferrero
p151
tp152
Rp153
ag3
(g4
g5
Vornella-vanoni
p154
tp155
Rp156
ag3
(g4
g5
Vimmagini-di-san-valentino
p157
tp158
Rp159
ag3
(g4
g5
Vmalika-ayane
p160
tp161
Rp162
ag3
(g4
g5
Vantonio-conte
p163
tp164
Rp165
ag3
(g4
g5
Ved-sheeran
p166
tp167
Rp168
ag3
(g4
g5
Vfoto-san-valentino
p169
tp170
Rp171
ag3
(g4
g5
Vsammy-basso
p172
tp173
Rp174
ag3
(g4
g5
Vsan-valentino
p175
tp176
Rp177
ag3
(g4
g5
Velena-sofia-ricci
p178
tp179
Rp180
ag3
(g4
g5
Vlotito
p181
tp182
Rp183
ag3
(g4
g5
Vraf-malato
p184
tp185
Rp186
ag3
(g4
g5
Vnek
p187
tp188
Rp189
asS'Spain'
p190
(lp191
g3
(g4
g5
Vwhitney-houston
p192
tp193
Rp194
ag3
(g4
g5
Vdia-de-san-valentin
p195
tp196
Rp197
ag3
(g4
g5
Vfeliz-dia-de-san-valentin
p198
tp199
Rp200
ag3
(g4
g5
Vcindy-crawford
p201
tp202
Rp203
ag3
(g4
g5
Vsteve-strange
p204
tp205
Rp206
ag3
(g4
g5
Vtesla
p207
tp208
Rp209
ag3
(g4
g5
Vreina-del-carnaval-2015
p210
tp211
Rp212
ag3
(g4
g5
V50-sombras-de-grey-pelicula
p213
tp214
Rp215
ag3
(g4
g5
Vpequeno-nicolas
p216
tp217
Rp218
ag3
(g4
g5
Vsan-valentin-2015
p219
tp220
Rp221
ag3
(g4
g5
Vluis-miguel
p222
tp223
Rp224
ag3
(g4
g5
Vimagenes-de-san-valentin
p225
tp226
Rp227
ag3
(g4
g5
Vbobbi-kristina
p228
tp229
Rp230
ag3
(g4
g5
Vviernes-13
p231
tp232
Rp233
ag3
(g4
g5
Vdakota-johnson
p234
tp235
Rp236
ag3
(g4
g5
Vmaradona
p237
tp238
Rp239
ag3
(g4
g5
Vdia-de-los-enamorados
p240
tp241
Rp242
ag3
(g4
g5
Virina-shayk
p243
tp244
Rp245
ag3
(g4
g5
Velisabetta-canalis
p246
tp247
Rp248
ag3
(g4
g5
Vtomas-gomez
p249
tp250
Rp251
asS'UK'
p252
(lp253
g3
(g4
g5
Vvalentine-s-day
p254
tp255
Rp256
ag3
(g4
g5
Vcharli-xcx
p257
tp258
Rp259
ag3
(g4
g5
Vparklife
p260
tp261
Rp262
ag3
(g4
g5
Vsteve-strange
p263
tp264
Rp265
ag3
(g4
g5
Vrita-ora
p266
tp267
Rp268
ag3
(g4
g5
Vvalentines
p269
tp270
Rp271
ag3
(g4
g5
Vhappy-valentine
p272
tp273
Rp274
ag3
(g4
g5
Vdrake
p275
tp276
Rp277
ag3
(g4
g5
Vdame-edna
p278
tp279
Rp280
ag3
(g4
g5
Vjennifer-aniston
p281
tp282
Rp283
ag3
(g4
g5
Vaston-villa
p284
tp285
Rp286
ag3
(g4
g5
Vbestival
p287
tp288
Rp289
ag3
(g4
g5
Vdakota-johnson
p290
tp291
Rp292
ag3
(g4
g5
Vfred-talbot
p293
tp294
Rp295
ag3
(g4
g5
Vchapel-hill-shooting
p296
tp297
Rp298
ag3
(g4
g5
Vhappy-valentines-day
p299
tp300
Rp301
ag3
(g4
g5
V2015-cricket-world-cup
p302
tp303
Rp304
ag3
(g4
g5
Vjamie-dornan
p305
tp306
Rp307
ag3
(g4
g5
Vvalentines-poems
p308
tp309
Rp310
ag3
(g4
g5
Vvalentines-day-quotes
p311
tp312
Rp313
asS'India'
p314
(lp315
g3
(g4
g5
Vvalentine-s-day
p316
tp317
Rp318
ag3
(g4
g5
Vnew-zealand-cricket-team
p319
tp320
Rp321
ag3
(g4
g5
Vhappy-valentine-s-day
p322
tp323
Rp324
ag3
(g4
g5
Vvalentine-day-image
p325
tp326
Rp327
ag3
(g4
g5
Vtemper-review
p328
tp329
Rp330
ag3
(g4
g5
Vaus-vs-eng
p331
tp332
Rp333
ag3
(g4
g5
Vhappy-valentines-day-images
p334
tp335
Rp336
ag3
(g4
g5
Vlove-quotes
p337
tp338
Rp339
ag3
(g4
g5
Vvalentine-day-status
p340
tp341
Rp342
ag3
(g4
g5
Vworld-cup-2015-schedule
p343
tp344
Rp345
ag3
(g4
g5
Vroy
p346
tp347
Rp348
ag3
(g4
g5
Vvalentines-day
p349
tp350
Rp351
ag3
(g4
g5
Vindia-cricket-team
p352
tp353
Rp354
ag3
(g4
g5
Vmsg
p355
tp356
Rp357
ag3
(g4
g5
Vespncricinfo
p358
tp359
Rp360
ag3
(g4
g5
Vlive-tv
p361
tp362
Rp363
ag3
(g4
g5
Vvalentines-day-quotes
p364
tp365
Rp366
ag3
(g4
g5
V2015-cricket-world-cup
p367
tp368
Rp369
ag3
(g4
g5
Vvalentine-day
p370
tp371
Rp372
ag3
(g4
g5
Vhappy-valentines-day
p373
tp374
Rp375
asS'US'
p376
(lp377
g3
(g4
g5
Vvalentine-s-day
p378
tp379
Rp380
ag3
(g4
g5
Vtaylor-swift-style
p381
tp382
Rp383
ag3
(g4
g5
Vdavid-carr
p384
tp385
Rp386
ag3
(g4
g5
Vpowerball
p387
tp388
Rp389
ag3
(g4
g5
Vlove-quotes
p390
tp391
Rp392
ag3
(g4
g5
Valyson-stoner
p393
tp394
Rp395
ag3
(g4
g5
Vj-prince
p396
tp397
Rp398
ag3
(g4
g5
Vdrake
p399
tp400
Rp401
ag3
(g4
g5
Vva-lottery
p402
tp403
Rp404
ag3
(g4
g5
Vjames-harden
p405
tp406
Rp407
ag3
(g4
g5
Vkingsman-the-secret-service
p408
tp409
Rp410
ag3
(g4
g5
Vamanda-knox
p411
tp412
Rp413
ag3
(g4
g5
Vfriday-the-13th
p414
tp415
Rp416
ag3
(g4
g5
Vkevin-hart
p417
tp418
Rp419
ag3
(g4
g5
Vemile-hirsch
p420
tp421
Rp422
ag3
(g4
g5
Vvalentines-day-quotes
p423
tp424
Rp425
ag3
(g4
g5
Vthe-slap
p426
tp427
Rp428
ag3
(g4
g5
Vcylvia-hayes
p429
tp430
Rp431
ag3
(g4
g5
Vvalentines-day-cards
p432
tp433
Rp434
ag3
(g4
g5
Vhappy-valentines-day
p435
tp436
Rp437
asS'France'
p438
(lp439
g3
(g4
g5
Vjulie-gayet
p440
tp441
Rp442
ag3
(g4
g5
Vfrancois-damiens
p443
tp444
Rp445
ag3
(g4
g5
Vsaint-valentin
p446
tp447
Rp448
ag3
(g4
g5
Vmichel-denisot
p449
tp450
Rp451
ag3
(g4
g5
Vsteve-strange
p452
tp453
Rp454
ag3
(g4
g5
Vintelligence
p455
tp456
Rp457
ag3
(g4
g5
Vchristine-and-the-queens
p458
tp459
Rp460
ag3
(g4
g5
Vdrake
p461
tp462
Rp463
ag3
(g4
g5
Vjean-luc-lahaye
p464
tp465
Rp466
ag3
(g4
g5
Vraphael
p467
tp468
Rp469
ag3
(g4
g5
Varthur
p470
tp471
Rp472
ag3
(g4
g5
Vloto
p473
tp474
Rp475
ag3
(g4
g5
Vaccident-a1
p476
tp477
Rp478
ag3
(g4
g5
Vtinder
p479
tp480
Rp481
ag3
(g4
g5
Valessandra-sublet
p482
tp483
Rp484
ag3
(g4
g5
Vkad-merad
p485
tp486
Rp487
ag3
(g4
g5
Vrafale
p488
tp489
Rp490
ag3
(g4
g5
Vtarget
p491
tp492
Rp493
ag3
(g4
g5
Vdavid-guetta
p494
tp495
Rp496
ag3
(g4
g5
Vindila
p497
tp498
Rp499
as.