(dp0
S'Brazil'
p1
(lp2
ccopy_reg
_reconstructor
p3
(cdjango.utils.safestring
SafeText
p4
c__builtin__
unicode
p5
Vjair-rodrigues
p6
tp7
Rp8
ag3
(g4
g5
Vconvocacao-selecao-brasileira-2014
p9
tp10
Rp11
ag3
(g4
g5
Vnovela-em-familia
p12
tp13
Rp14
ag3
(g4
g5
Vebay
p15
tp16
Rp17
ag3
(g4
g5
Venem
p18
tp19
Rp20
ag3
(g4
g5
Vayrton-senna
p21
tp22
Rp23
ag3
(g4
g5
Vparada-gay
p24
tp25
Rp26
ag3
(g4
g5
Vthiaguinho
p27
tp28
Rp29
ag3
(g4
g5
Vstar-wars
p30
tp31
Rp32
ag3
(g4
g5
Vvalesca-popozuda
p33
tp34
Rp35
ag3
(g4
g5
Vaudrey-hepburn
p36
tp37
Rp38
ag3
(g4
g5
Vmae-dinah
p39
tp40
Rp41
ag3
(g4
g5
Vfeirao-da-caixa
p42
tp43
Rp44
ag3
(g4
g5
Vatletico-mineiro
p45
tp46
Rp47
ag3
(g4
g5
Vjames-franco
p48
tp49
Rp50
ag3
(g4
g5
Vtitanic
p51
tp52
Rp53
ag3
(g4
g5
Vdia-do-trabalho
p54
tp55
Rp56
ag3
(g4
g5
Vo-espetacular-homem-aranha-2
p57
tp58
Rp59
ag3
(g4
g5
Vayrton-senna
p60
tp61
Rp62
ag3
(g4
g5
Vchelsea
p63
tp64
Rp65
asS'Australia'
p66
(lp67
g3
(g4
g5
Vclueless
p68
tp69
Rp70
ag3
(g4
g5
Veurovision-2014
p71
tp72
Rp73
ag3
(g4
g5
Vmasterchef
p74
tp75
Rp76
ag3
(g4
g5
Vbad-neighbours
p77
tp78
Rp79
ag3
(g4
g5
Vjonah-from-tonga
p80
tp81
Rp82
ag3
(g4
g5
Vepl
p83
tp84
Rp85
ag3
(g4
g5
Vkatie-price
p86
tp87
Rp88
ag3
(g4
g5
Vwillow-smith
p89
tp90
Rp91
ag3
(g4
g5
Vmothers-day
p92
tp93
Rp94
ag3
(g4
g5
Vjack-viney
p95
tp96
Rp97
ag3
(g4
g5
Vroger-federer
p98
tp99
Rp100
ag3
(g4
g5
Vperth-weather
p101
tp102
Rp103
ag3
(g4
g5
Vmiranda-fugate
p104
tp105
Rp106
ag3
(g4
g5
Vmonica-lewinsky
p107
tp108
Rp109
ag3
(g4
g5
Veurovision-2014
p110
tp111
Rp112
ag3
(g4
g5
Vpeter-milos
p113
tp114
Rp115
ag3
(g4
g5
Vblake-lively
p116
tp117
Rp118
ag3
(g4
g5
Vmanchester-united
p119
tp120
Rp121
ag3
(g4
g5
Vmiley-cyrus
p122
tp123
Rp124
ag3
(g4
g5
Vmet-gala-2014
p125
tp126
Rp127
asS'Italy'
p128
(lp129
g3
(g4
g5
Vfesta-della-mamma
p130
tp131
Rp132
ag3
(g4
g5
Vscajola
p133
tp134
Rp135
ag3
(g4
g5
Vle-iene
p136
tp137
Rp138
ag3
(g4
g5
Vprogrammi-tv-stasera
p139
tp140
Rp141
ag3
(g4
g5
Vinail
p142
tp143
Rp144
ag3
(g4
g5
Vestrazioni-del-lotto
p145
tp146
Rp147
ag3
(g4
g5
Vto-rome-with-love
p148
tp149
Rp150
ag3
(g4
g5
Vpaola-bacchiddu
p151
tp152
Rp153
ag3
(g4
g5
V5-maggio
p154
tp155
Rp156
ag3
(g4
g5
Vmoreno
p157
tp158
Rp159
ag3
(g4
g5
Vantonello-venditti
p160
tp161
Rp162
ag3
(g4
g5
Vreal-madrid
p163
tp164
Rp165
ag3
(g4
g5
Vluca-argentero
p166
tp167
Rp168
ag3
(g4
g5
Vmilan-inter
p169
tp170
Rp171
ag3
(g4
g5
Vcoppa-italia
p172
tp173
Rp174
ag3
(g4
g5
Vjuventus
p175
tp176
Rp177
ag3
(g4
g5
Vornella-vanoni
p178
tp179
Rp180
ag3
(g4
g5
Vdaniele-de-santis
p181
tp182
Rp183
ag3
(g4
g5
Vnapoli-calcio
p184
tp185
Rp186
ag3
(g4
g5
Vcatania-roma
p187
tp188
Rp189
asS'Spain'
p190
(lp191
g3
(g4
g5
Vun-principe-para-laura
p192
tp193
Rp194
ag3
(g4
g5
Vliga-bbva
p195
tp196
Rp197
ag3
(g4
g5
Vclasificacion-liga
p198
tp199
Rp200
ag3
(g4
g5
Virina-shayk
p201
tp202
Rp203
ag3
(g4
g5
Vhiba-abouk
p204
tp205
Rp206
ag3
(g4
g5
Vsupervivientes
p207
tp208
Rp209
ag3
(g4
g5
Vpilar-rubio
p210
tp211
Rp212
ag3
(g4
g5
Vagencia-tributaria
p213
tp214
Rp215
ag3
(g4
g5
Vonce
p216
tp217
Rp218
ag3
(g4
g5
Vcita-previa-renta-2013
p219
tp220
Rp221
ag3
(g4
g5
Vcupon-de-la-once
p222
tp223
Rp224
ag3
(g4
g5
Vdeclaracion-de-la-renta
p225
tp226
Rp227
ag3
(g4
g5
Vemilio-aragon
p228
tp229
Rp230
ag3
(g4
g5
Vgoogle-glass
p231
tp232
Rp233
ag3
(g4
g5
Velena-baltacha
p234
tp235
Rp236
ag3
(g4
g5
Vaudrey-hepburn
p237
tp238
Rp239
ag3
(g4
g5
Vreal-madrid
p240
tp241
Rp242
ag3
(g4
g5
Vdia-de-la-madre
p243
tp244
Rp245
ag3
(g4
g5
Vclasificacion-liga
p246
tp247
Rp248
ag3
(g4
g5
Vsorteo-once
p249
tp250
Rp251
asS'UK'
p252
(lp253
g3
(g4
g5
Vmaisie-williams
p254
tp255
Rp256
ag3
(g4
g5
Vbanksy
p257
tp258
Rp259
ag3
(g4
g5
Vaustin-healey
p260
tp261
Rp262
ag3
(g4
g5
Vsummertime-ball-2014
p263
tp264
Rp265
ag3
(g4
g5
Vla-liga
p266
tp267
Rp268
ag3
(g4
g5
Vgiro-ditalia
p269
tp270
Rp271
ag3
(g4
g5
Vkatie-price
p272
tp273
Rp274
ag3
(g4
g5
Vpizza-express
p275
tp276
Rp277
ag3
(g4
g5
Vroger-federer
p278
tp279
Rp280
ag3
(g4
g5
Vbilly-connolly
p281
tp282
Rp283
ag3
(g4
g5
Vmonica-lewinsky
p284
tp285
Rp286
ag3
(g4
g5
Vhelena-costa
p287
tp288
Rp289
ag3
(g4
g5
Vmoises-arias
p290
tp291
Rp292
ag3
(g4
g5
Vgoblin-shark
p293
tp294
Rp295
ag3
(g4
g5
Vpokemon
p296
tp297
Rp298
ag3
(g4
g5
Vmiley-cyrus
p299
tp300
Rp301
ag3
(g4
g5
Vipl
p302
tp303
Rp304
ag3
(g4
g5
Valibaba
p305
tp306
Rp307
ag3
(g4
g5
Vbrazil-world-cup-squad
p308
tp309
Rp310
ag3
(g4
g5
Vlipsy
p311
tp312
Rp313
asS'India'
p314
(lp315
g3
(g4
g5
Vpuc-result
p316
tp317
Rp318
ag3
(g4
g5
Vrbse
p319
tp320
Rp321
ag3
(g4
g5
Vankit-tiwari
p322
tp323
Rp324
ag3
(g4
g5
V2nd-puc-result
p325
tp326
Rp327
ag3
(g4
g5
V12th-result
p328
tp329
Rp330
ag3
(g4
g5
Vselfie
p331
tp332
Rp333
ag3
(g4
g5
Vipl-live-score
p334
tp335
Rp336
ag3
(g4
g5
Vmothers-day
p337
tp338
Rp339
ag3
(g4
g5
Vpollard-vs-starc
p340
tp341
Rp342
ag3
(g4
g5
Vmonica-lewinsky
p343
tp344
Rp345
ag3
(g4
g5
Vroger-federer
p346
tp347
Rp348
ag3
(g4
g5
Vmi-vs-rcb
p349
tp350
Rp351
ag3
(g4
g5
Vliverpool
p352
tp353
Rp354
ag3
(g4
g5
Vmoto-e
p355
tp356
Rp357
ag3
(g4
g5
Vepl
p358
tp359
Rp360
ag3
(g4
g5
Vicici
p361
tp362
Rp363
ag3
(g4
g5
Vreal-madrid
p364
tp365
Rp366
ag3
(g4
g5
Vab-de-villiers
p367
tp368
Rp369
ag3
(g4
g5
Vla-liga-standings
p370
tp371
Rp372
ag3
(g4
g5
Vkkr-vs-rr
p373
tp374
Rp375
asS'US'
p376
(lp377
g3
(g4
g5
Vearthquake
p378
tp379
Rp380
ag3
(g4
g5
Vmoises-arias
p381
tp382
Rp383
ag3
(g4
g5
Vnfl-draft
p384
tp385
Rp386
ag3
(g4
g5
Vbrandon-jennings
p387
tp388
Rp389
ag3
(g4
g5
Vjames-blake
p390
tp391
Rp392
ag3
(g4
g5
Vrich-homie-quan
p393
tp394
Rp395
ag3
(g4
g5
Vapollo-nida
p396
tp397
Rp398
ag3
(g4
g5
Vroger-federer
p399
tp400
Rp401
ag3
(g4
g5
Vrichard-sherman
p402
tp403
Rp404
ag3
(g4
g5
Vpokemon-omega-ruby
p405
tp406
Rp407
ag3
(g4
g5
Vtsla
p408
tp409
Rp410
ag3
(g4
g5
Vclay-aiken
p411
tp412
Rp413
ag3
(g4
g5
Vmonica-lewinsky
p414
tp415
Rp416
ag3
(g4
g5
Vkevin-durant
p417
tp418
Rp419
ag3
(g4
g5
Vmiranda-fugate
p420
tp421
Rp422
ag3
(g4
g5
Valibaba
p423
tp424
Rp425
ag3
(g4
g5
Vblackhawks
p426
tp427
Rp428
ag3
(g4
g5
Vmark-jackson
p429
tp430
Rp431
ag3
(g4
g5
Vyovanna-ventura
p432
tp433
Rp434
ag3
(g4
g5
Vstevie-j
p435
tp436
Rp437
asS'France'
p438
(lp439
g3
(g4
g5
Varmageddon
p440
tp441
Rp442
ag3
(g4
g5
Vla-disparition
p443
tp444
Rp445
ag3
(g4
g5
Vhelena-costa
p446
tp447
Rp448
ag3
(g4
g5
Vhelene-pastor
p449
tp450
Rp451
ag3
(g4
g5
Vpsg-rennes
p452
tp453
Rp454
ag3
(g4
g5
V8-mai
p455
tp456
Rp457
ag3
(g4
g5
V8-mai-1945
p458
tp459
Rp460
ag3
(g4
g5
Vligue-1
p461
tp462
Rp463
ag3
(g4
g5
Volympe-de-gouges
p464
tp465
Rp466
ag3
(g4
g5
Vclooney
p467
tp468
Rp469
ag3
(g4
g5
Vmonica-lewinsky
p470
tp471
Rp472
ag3
(g4
g5
Vryan-giggs
p473
tp474
Rp475
ag3
(g4
g5
Valibaba
p476
tp477
Rp478
ag3
(g4
g5
Vdia
p479
tp480
Rp481
ag3
(g4
g5
Vrc-lens
p482
tp483
Rp484
ag3
(g4
g5
V4-jours-de-dunkerque
p485
tp486
Rp487
ag3
(g4
g5
Vkevin-durant
p488
tp489
Rp490
ag3
(g4
g5
Vfc-metz
p491
tp492
Rp493
ag3
(g4
g5
Veurovision-2014
p494
tp495
Rp496
ag3
(g4
g5
Vfederer
p497
tp498
Rp499
as.