(dp0
S'Brazil'
p1
(lp2
ccopy_reg
_reconstructor
p3
(cdjango.utils.safestring
SafeText
p4
c__builtin__
unicode
p5
Vmancha-verde
p6
tp7
Rp8
ag3
(g4
g5
Valine-bbb15
p9
tp10
Rp11
ag3
(g4
g5
Vblocos-rio-de-janeiro-2015
p12
tp13
Rp14
ag3
(g4
g5
Vcarla-prata
p15
tp16
Rp17
ag3
(g4
g5
Vinter
p18
tp19
Rp20
ag3
(g4
g5
Velis-regina
p21
tp22
Rp23
ag3
(g4
g5
Valessandro-volta
p24
tp25
Rp26
ag3
(g4
g5
Vquarta-feira-de-cinzas-2015
p27
tp28
Rp29
ag3
(g4
g5
Vinternacional
p30
tp31
Rp32
ag3
(g4
g5
Vquarta-feira-de-cinzas
p33
tp34
Rp35
ag3
(g4
g5
Vangelis-borges
p36
tp37
Rp38
ag3
(g4
g5
Vfox-sports
p39
tp40
Rp41
ag3
(g4
g5
Vportela
p42
tp43
Rp44
ag3
(g4
g5
Vcampanha-da-fraternidade-2015
p45
tp46
Rp47
ag3
(g4
g5
Vchampions-league
p48
tp49
Rp50
ag3
(g4
g5
Vquaresma
p51
tp52
Rp53
ag3
(g4
g5
Vcris-vianna
p54
tp55
Rp56
ag3
(g4
g5
Vmusica-do-carnaval-2015
p57
tp58
Rp59
ag3
(g4
g5
Vchelsea
p60
tp61
Rp62
ag3
(g4
g5
Vtaylor-kinney
p63
tp64
Rp65
asS'Australia'
p66
(lp67
g3
(g4
g5
Vearthquake-today
p68
tp69
Rp70
ag3
(g4
g5
Vfa-cup-draw
p71
tp72
Rp73
ag3
(g4
g5
Vash-wednesday
p74
tp75
Rp76
ag3
(g4
g5
Vchinese-new-year-2015
p77
tp78
Rp79
ag3
(g4
g5
Vfred-dib
p80
tp81
Rp82
ag3
(g4
g5
Vlesley-gore
p83
tp84
Rp85
ag3
(g4
g5
Vbrisbane-weather
p86
tp87
Rp88
ag3
(g4
g5
Vipl-auction-2015
p89
tp90
Rp91
ag3
(g4
g5
Valessandro-volta
p92
tp93
Rp94
ag3
(g4
g5
Vfour-corners
p95
tp96
Rp97
ag3
(g4
g5
Vamanda-seyfried
p98
tp99
Rp100
ag3
(g4
g5
Vkeira-knightley
p101
tp102
Rp103
ag3
(g4
g5
Vmadison-ashton
p104
tp105
Rp106
ag3
(g4
g5
Vamber-rose
p107
tp108
Rp109
ag3
(g4
g5
Vtoday-show
p110
tp111
Rp112
ag3
(g4
g5
Vchampions-league
p113
tp114
Rp115
ag3
(g4
g5
Vtoll
p116
tp117
Rp118
ag3
(g4
g5
Vcyclone-lam
p119
tp120
Rp121
ag3
(g4
g5
Vshrove-tuesday
p122
tp123
Rp124
ag3
(g4
g5
Vtaylor-kinney
p125
tp126
Rp127
asS'Italy'
p128
(lp129
g3
(g4
g5
Vuber
p130
tp131
Rp132
ag3
(g4
g5
Vyara-gambirasio
p133
tp134
Rp135
ag3
(g4
g5
Vbudapest
p136
tp137
Rp138
ag3
(g4
g5
Vgabriele-romagnoli
p139
tp140
Rp141
ag3
(g4
g5
Vgiordano-bruno
p142
tp143
Rp144
ag3
(g4
g5
Vterremoto
p145
tp146
Rp147
ag3
(g4
g5
Veleonora-daniele
p148
tp149
Rp150
ag3
(g4
g5
Vmercoledi-delle-ceneri-2015
p151
tp152
Rp153
ag3
(g4
g5
Vbarbara-guerra
p154
tp155
Rp156
ag3
(g4
g5
Valessandro-volta
p157
tp158
Rp159
ag3
(g4
g5
Vmichael-jordan
p160
tp161
Rp162
ag3
(g4
g5
Vveneto-banca
p163
tp164
Rp165
ag3
(g4
g5
Vtassa-sui-contanti
p166
tp167
Rp168
ag3
(g4
g5
Vchampions-league
p169
tp170
Rp171
ag3
(g4
g5
Vterremoto-in-tempo-reale
p172
tp173
Rp174
ag3
(g4
g5
Vedoardo-scotti
p175
tp176
Rp177
ag3
(g4
g5
Vquaresima
p178
tp179
Rp180
ag3
(g4
g5
Vmartedi-grasso-2015
p181
tp182
Rp183
ag3
(g4
g5
Vtaylor-kinney
p184
tp185
Rp186
ag3
(g4
g5
Vteresa-e-salvatore
p187
tp188
Rp189
asS'Spain'
p190
(lp191
g3
(g4
g5
Vnba-all-star
p192
tp193
Rp194
ag3
(g4
g5
Vapple-watch
p195
tp196
Rp197
ag3
(g4
g5
Vcelta-atletico-de-madrid
p198
tp199
Rp200
ag3
(g4
g5
Vsindrome-de-asperger
p201
tp202
Rp203
ag3
(g4
g5
Vkaty-perry
p204
tp205
Rp206
ag3
(g4
g5
Vsergio-blanco
p207
tp208
Rp209
ag3
(g4
g5
Vella-baila-sola
p210
tp211
Rp212
ag3
(g4
g5
Valessandro-volta
p213
tp214
Rp215
ag3
(g4
g5
Vall-star
p216
tp217
Rp218
ag3
(g4
g5
Vtaylor-kinney
p219
tp220
Rp221
ag3
(g4
g5
Vpsg-chelsea
p222
tp223
Rp224
ag3
(g4
g5
Vnasa
p225
tp226
Rp227
ag3
(g4
g5
Vestado-islamico
p228
tp229
Rp230
ag3
(g4
g5
Vchampions-league
p231
tp232
Rp233
ag3
(g4
g5
Vlesley-gore
p234
tp235
Rp236
ag3
(g4
g5
Vlorena-rojas
p237
tp238
Rp239
ag3
(g4
g5
Variana-grande
p240
tp241
Rp242
ag3
(g4
g5
Vmiercoles-de-ceniza
p243
tp244
Rp245
ag3
(g4
g5
Vkeanu-reeves
p246
tp247
Rp248
asS'UK'
p249
(lp250
g3
(g4
g5
Vchinese-new-year-2015
p251
tp252
Rp253
ag3
(g4
g5
Vfa-cup-draw
p254
tp255
Rp256
ag3
(g4
g5
Vzoella
p257
tp258
Rp259
ag3
(g4
g5
Vash-wednesday
p260
tp261
Rp262
ag3
(g4
g5
Vamber-rose
p263
tp264
Rp265
ag3
(g4
g5
Vlesley-gore
p266
tp267
Rp268
ag3
(g4
g5
Veastenders
p269
tp270
Rp271
ag3
(g4
g5
Valessandro-volta
p272
tp273
Rp274
ag3
(g4
g5
Vamerican-pancakes
p275
tp276
Rp277
ag3
(g4
g5
Vcindy-crawford
p278
tp279
Rp280
ag3
(g4
g5
Vhow-to-make-pancake-mix
p281
tp282
Rp283
ag3
(g4
g5
Vjacqueline-jossa
p284
tp285
Rp286
ag3
(g4
g5
Vpancake-batter
p287
tp288
Rp289
ag3
(g4
g5
Vrichard-blackwood
p290
tp291
Rp292
ag3
(g4
g5
Vitv
p293
tp294
Rp295
ag3
(g4
g5
Veuromillions-results
p296
tp297
Rp298
ag3
(g4
g5
Vfootball-scores
p299
tp300
Rp301
ag3
(g4
g5
Vpancake-recipe
p302
tp303
Rp304
ag3
(g4
g5
Vchelsea
p305
tp306
Rp307
ag3
(g4
g5
Vtaylor-kinney
p308
tp309
Rp310
asS'India'
p311
(lp312
g3
(g4
g5
Vwest-indies-vs-ireland
p313
tp314
Rp315
ag3
(g4
g5
Vsamsung-galaxy-s4
p316
tp317
Rp318
ag3
(g4
g5
Vom-namah-shivaya
p319
tp320
Rp321
ag3
(g4
g5
Vashraful-haque
p322
tp323
Rp324
ag3
(g4
g5
Vash-wednesday
p325
tp326
Rp327
ag3
(g4
g5
Vafghanistan-cricket-team
p328
tp329
Rp330
ag3
(g4
g5
Vaero-india-2015
p331
tp332
Rp333
ag3
(g4
g5
Vshivaratri
p334
tp335
Rp336
ag3
(g4
g5
Vtrent-boult
p337
tp338
Rp339
ag3
(g4
g5
Valessandro-volta
p340
tp341
Rp342
ag3
(g4
g5
Vr-r-patil
p343
tp344
Rp345
ag3
(g4
g5
Vkc-cariappa
p346
tp347
Rp348
ag3
(g4
g5
Vlord-shiva
p349
tp350
Rp351
ag3
(g4
g5
Vmahashivratri
p352
tp353
Rp354
ag3
(g4
g5
Vlorena-rojas
p355
tp356
Rp357
ag3
(g4
g5
Vbangladesh-vs-afghanistan
p358
tp359
Rp360
ag3
(g4
g5
Vramanaidu
p361
tp362
Rp363
ag3
(g4
g5
Vchelsea
p364
tp365
Rp366
ag3
(g4
g5
Vtaylor-kinney
p367
tp368
Rp369
ag3
(g4
g5
Vyograj-singh
p370
tp371
Rp372
asS'US'
p373
(lp374
g3
(g4
g5
Vjade-from-bachelor
p375
tp376
Rp377
ag3
(g4
g5
Vstevie-wonder
p378
tp379
Rp380
ag3
(g4
g5
Vash-wednesday
p381
tp382
Rp383
ag3
(g4
g5
Vschool-closings
p384
tp385
Rp386
ag3
(g4
g5
Vleeza-gibbons
p387
tp388
Rp389
ag3
(g4
g5
Vmichael-jordan
p390
tp391
Rp392
ag3
(g4
g5
Vlesley-gore
p393
tp394
Rp395
ag3
(g4
g5
V19-kids-and-counting
p396
tp397
Rp398
ag3
(g4
g5
Vfat-tuesday
p399
tp400
Rp401
ag3
(g4
g5
Valessandro-volta
p402
tp403
Rp404
ag3
(g4
g5
Vtaylor-kinney
p405
tp406
Rp407
ag3
(g4
g5
Vpaczki
p408
tp409
Rp410
ag3
(g4
g5
Vamber-rose
p411
tp412
Rp413
ag3
(g4
g5
Vwestminster-dog-show
p414
tp415
Rp416
ag3
(g4
g5
Vchampions-league
p417
tp418
Rp419
ag3
(g4
g5
Vlorena-rojas
p420
tp421
Rp422
ag3
(g4
g5
Vchinese-new-year
p423
tp424
Rp425
ag3
(g4
g5
Vpresidents-day
p426
tp427
Rp428
ag3
(g4
g5
Vangie-harmon
p429
tp430
Rp431
ag3
(g4
g5
Vadrian-peterson
p432
tp433
Rp434
asS'France'
p435
(lp436
g3
(g4
g5
Vpsg-chelsea
p437
tp438
Rp439
ag3
(g4
g5
Vclaude-francois
p440
tp441
Rp442
ag3
(g4
g5
Vmotion-de-censure
p443
tp444
Rp445
ag3
(g4
g5
Vcindy-crawford
p446
tp447
Rp448
ag3
(g4
g5
Vcorinne-le-poulain
p449
tp450
Rp451
ag3
(g4
g5
Vsarre-union
p452
tp453
Rp454
ag3
(g4
g5
Vloi-macron
p455
tp456
Rp457
ag3
(g4
g5
Vsalon-de-l-agriculture
p458
tp459
Rp460
ag3
(g4
g5
Veuromillions
p461
tp462
Rp463
ag3
(g4
g5
Valessandro-volta
p464
tp465
Rp466
ag3
(g4
g5
Vmardi-gras
p467
tp468
Rp469
ag3
(g4
g5
Vjean-baptiste-grange
p470
tp471
Rp472
ag3
(g4
g5
Vamber-rose
p473
tp474
Rp475
ag3
(g4
g5
Vle-grand-bleu
p476
tp477
Rp478
ag3
(g4
g5
Vanne-gravoin
p479
tp480
Rp481
ag3
(g4
g5
Vroland-dumas
p482
tp483
Rp484
ag3
(g4
g5
Vchris-kyle
p485
tp486
Rp487
ag3
(g4
g5
Vtaylor-kinney
p488
tp489
Rp490
ag3
(g4
g5
Vthibaut-courtois
p491
tp492
Rp493
ag3
(g4
g5
Vbein-sport
p494
tp495
Rp496
as.