(dp0
S'Australia'
p1
(lp2
ccopy_reg
_reconstructor
p3
(cdjango.utils.safestring
SafeText
p4
c__builtin__
unicode
p5
Vsimona-halep
p6
tp7
Rp8
ag3
(g4
g5
Vdavid-bowie-china-girl
p9
tp10
Rp11
ag3
(g4
g5
Vbrad-pitt
p12
tp13
Rp14
ag3
(g4
g5
Vistanbul
p15
tp16
Rp17
ag3
(g4
g5
Vjerry-hall
p18
tp19
Rp20
ag3
(g4
g5
Vindia-vs-australia-2016
p21
tp22
Rp23
ag3
(g4
g5
Vlottoland
p24
tp25
Rp26
ag3
(g4
g5
Vcharlie-carver
p27
tp28
Rp29
ag3
(g4
g5
Vcollege-football
p30
tp31
Rp32
ag3
(g4
g5
Vunder-pressure
p33
tp34
Rp35
ag3
(g4
g5
Vvale
p36
tp37
Rp38
ag3
(g4
g5
Vrachel-bloom
p39
tp40
Rp41
ag3
(g4
g5
Vdavid-bowie-changes
p42
tp43
Rp44
ag3
(g4
g5
Vnick-kyrgios
p45
tp46
Rp47
ag3
(g4
g5
Vlemmy
p48
tp49
Rp50
ag3
(g4
g5
Vessendon
p51
tp52
Rp53
ag3
(g4
g5
Vdavid-bowie
p54
tp55
Rp56
ag3
(g4
g5
Vamerican-horror-story-hotel
p57
tp58
Rp59
ag3
(g4
g5
Vdavid-bowie-life-on-mars
p60
tp61
Rp62
ag3
(g4
g5
Vjeffrey-tambor
p63
tp64
Rp65
asS'India'
p66
(lp67
g3
(g4
g5
Vthe-revenant
p68
tp69
Rp70
ag3
(g4
g5
Vdavid-bowie
p71
tp72
Rp73
ag3
(g4
g5
Vistanbul
p74
tp75
Rp76
ag3
(g4
g5
Vespn
p77
tp78
Rp79
ag3
(g4
g5
Vgo-air
p80
tp81
Rp82
ag3
(g4
g5
Vjallikattu
p83
tp84
Rp85
ag3
(g4
g5
Vfa-cup
p86
tp87
Rp88
ag3
(g4
g5
Vrahul-dravid
p89
tp90
Rp91
ag3
(g4
g5
Vhrithik-roshan
p92
tp93
Rp94
ag3
(g4
g5
Vzayn-malik
p95
tp96
Rp97
ag3
(g4
g5
Vballon-d-or-2016
p98
tp99
Rp100
ag3
(g4
g5
Vlive-cricket
p101
tp102
Rp103
ag3
(g4
g5
Vreal-madrid
p104
tp105
Rp106
ag3
(g4
g5
Vlohri
p107
tp108
Rp109
ag3
(g4
g5
Vranveer-singh
p110
tp111
Rp112
ag3
(g4
g5
Vcharles-perrault
p113
tp114
Rp115
ag3
(g4
g5
Vredmi-3
p116
tp117
Rp118
ag3
(g4
g5
Vswami-vivekananda
p119
tp120
Rp121
ag3
(g4
g5
Vrekha
p122
tp123
Rp124
ag3
(g4
g5
Vlive-streaming
p125
tp126
Rp127
asS'UK'
p128
(lp129
g3
(g4
g5
Vsylvester-stallone
p130
tp131
Rp132
ag3
(g4
g5
Vhenri-saivet
p133
tp134
Rp135
ag3
(g4
g5
Vfa-cup-draw
p136
tp137
Rp138
ag3
(g4
g5
Vcharles-perrault
p139
tp140
Rp141
ag3
(g4
g5
Vjerry-hall
p142
tp143
Rp144
ag3
(g4
g5
Vbenidorm
p145
tp146
Rp147
ag3
(g4
g5
Vharrison-ford
p148
tp149
Rp150
ag3
(g4
g5
Vlife-on-mars
p151
tp152
Rp153
ag3
(g4
g5
Vjunior-doctors-strike
p154
tp155
Rp156
ag3
(g4
g5
Vjonathan-cheban
p157
tp158
Rp159
ag3
(g4
g5
Vmegan-mckenna
p160
tp161
Rp162
ag3
(g4
g5
Vballon-d-or
p163
tp164
Rp165
ag3
(g4
g5
Vtracey-ullman
p166
tp167
Rp168
ag3
(g4
g5
Vrosie-huntington-whiteley
p169
tp170
Rp171
ag3
(g4
g5
Vistanbul
p172
tp173
Rp174
ag3
(g4
g5
Vjonjo-shelvey
p175
tp176
Rp177
ag3
(g4
g5
Vdavid-bowie
p178
tp179
Rp180
ag3
(g4
g5
Vbrie-larson
p181
tp182
Rp183
ag3
(g4
g5
Vscottish-cup-draw
p184
tp185
Rp186
ag3
(g4
g5
Vsteven-caulker
p187
tp188
Rp189
asS'US'
p190
(lp191
g3
(g4
g5
Vmiles-teller
p192
tp193
Rp194
ag3
(g4
g5
Vcharles-perrault
p195
tp196
Rp197
ag3
(g4
g5
Vmichael-galeota
p198
tp199
Rp200
ag3
(g4
g5
Vmessi
p201
tp202
Rp203
ag3
(g4
g5
Vcharlie-carver
p204
tp205
Rp206
ag3
(g4
g5
Vunder-pressure
p207
tp208
Rp209
ag3
(g4
g5
Vjerry-hall
p210
tp211
Rp212
ag3
(g4
g5
Vrodeo-houston-2016
p213
tp214
Rp215
ag3
(g4
g5
Vdavid-bowie-dancing-in-the-street
p216
tp217
Rp218
ag3
(g4
g5
Vballon-d-or
p219
tp220
Rp221
ag3
(g4
g5
Vaustin-and-ally
p222
tp223
Rp224
ag3
(g4
g5
Vthe-finest-hours
p225
tp226
Rp227
ag3
(g4
g5
Vistanbul
p228
tp229
Rp230
ag3
(g4
g5
Vplayboy-mansion
p231
tp232
Rp233
ag3
(g4
g5
Vford-gt
p234
tp235
Rp236
ag3
(g4
g5
Vmartin-luther-king-jr
p237
tp238
Rp239
ag3
(g4
g5
Vdavid-bowie-life-on-mars
p240
tp241
Rp242
ag3
(g4
g5
Vstate-of-the-union
p243
tp244
Rp245
ag3
(g4
g5
Vlemmy-kilmister
p246
tp247
Rp248
ag3
(g4
g5
Valabama-football
p249
tp250
Rp251
as.