(dp0
S'Brazil'
p1
(lp2
ccopy_reg
_reconstructor
p3
(cdjango.utils.safestring
SafeText
p4
c__builtin__
unicode
p5
Vreal-madrid
p6
tp7
Rp8
ag3
(g4
g5
Vcristiano-ronaldo
p9
tp10
Rp11
ag3
(g4
g5
Vufc-173
p12
tp13
Rp14
ag3
(g4
g5
Vdavid-luiz
p15
tp16
Rp17
ag3
(g4
g5
Venem
p18
tp19
Rp20
ag3
(g4
g5
Vconchita-wurst
p21
tp22
Rp23
ag3
(g4
g5
Vsanta-rita-de-cassia
p24
tp25
Rp26
ag3
(g4
g5
Vgiovanna-lancellotti
p27
tp28
Rp29
ag3
(g4
g5
Vxuxa
p30
tp31
Rp32
ag3
(g4
g5
Vshakira
p33
tp34
Rp35
ag3
(g4
g5
Vfluminense
p36
tp37
Rp38
ag3
(g4
g5
Vtabela-do-brasileirao-2014
p39
tp40
Rp41
ag3
(g4
g5
Vbrasileirao-2014
p42
tp43
Rp44
ag3
(g4
g5
Vpraia-do-futuro
p45
tp46
Rp47
ag3
(g4
g5
Vgreve-policia
p48
tp49
Rp50
ag3
(g4
g5
Vgreve-da-policia
p51
tp52
Rp53
ag3
(g4
g5
Vgreve-de-onibus
p54
tp55
Rp56
ag3
(g4
g5
Vmetro
p57
tp58
Rp59
ag3
(g4
g5
Vcet
p60
tp61
Rp62
ag3
(g4
g5
Vgreve
p63
tp64
Rp65
asS'Australia'
p66
(lp67
g3
(g4
g5
Vchampions-league
p68
tp69
Rp70
ag3
(g4
g5
Velliot-rodger
p71
tp72
Rp73
ag3
(g4
g5
Vtim-cahill
p74
tp75
Rp76
ag3
(g4
g5
Vmaleficent
p77
tp78
Rp79
ag3
(g4
g5
Vcricinfo
p80
tp81
Rp82
ag3
(g4
g5
Vwatch-dogs
p83
tp84
Rp85
ag3
(g4
g5
Vchanning-tatum
p86
tp87
Rp88
ag3
(g4
g5
Vufc
p89
tp90
Rp91
ag3
(g4
g5
Vfrench-open
p92
tp93
Rp94
ag3
(g4
g5
Vadam-lambert
p95
tp96
Rp97
ag3
(g4
g5
Vkim-kardashian
p98
tp99
Rp100
ag3
(g4
g5
Vf1
p101
tp102
Rp103
ag3
(g4
g5
Vchad-smith
p104
tp105
Rp106
ag3
(g4
g5
Vvivid-sydney
p107
tp108
Rp109
ag3
(g4
g5
Vthailand
p110
tp111
Rp112
ag3
(g4
g5
Vgiro-ditalia
p113
tp114
Rp115
ag3
(g4
g5
Vsurvivor-cagayan
p116
tp117
Rp118
ag3
(g4
g5
Vtony-abbott
p119
tp120
Rp121
ag3
(g4
g5
Vx-men-days-of-future-past
p122
tp123
Rp124
ag3
(g4
g5
Vguy-walter
p125
tp126
Rp127
asS'Italy'
p128
(lp129
g3
(g4
g5
Vcandidati-europee-2014
p130
tp131
Rp132
ag3
(g4
g5
Vkim-kardashian
p133
tp134
Rp135
ag3
(g4
g5
Vronaldo
p136
tp137
Rp138
ag3
(g4
g5
Velezioni-europee-2014
p139
tp140
Rp141
ag3
(g4
g5
Vfinale-champions-league-2014
p142
tp143
Rp144
ag3
(g4
g5
Vcristiano-ronaldo
p145
tp146
Rp147
ag3
(g4
g5
Vformula-1
p148
tp149
Rp150
ag3
(g4
g5
Vsergio-ramos
p151
tp152
Rp153
ag3
(g4
g5
Vpenelope-film
p154
tp155
Rp156
ag3
(g4
g5
Vford-mustang
p157
tp158
Rp159
ag3
(g4
g5
Vscelta-di-luca-uomini-e-donne
p160
tp161
Rp162
ag3
(g4
g5
Vtsipras
p163
tp164
Rp165
ag3
(g4
g5
Vdavid-luiz
p166
tp167
Rp168
ag3
(g4
g5
Vanticipazioni-un-medico-in-famiglia
p169
tp170
Rp171
ag3
(g4
g5
Vscelta-luca-uomini-e-donne
p172
tp173
Rp174
ag3
(g4
g5
Vlista-tsipras
p175
tp176
Rp177
ag3
(g4
g5
Vsara-tommasi
p178
tp179
Rp180
ag3
(g4
g5
Vamanda-lear
p181
tp182
Rp183
ag3
(g4
g5
Vgiovanni-falcone
p184
tp185
Rp186
ag3
(g4
g5
Vsanta-rita-da-cascia
p187
tp188
Rp189
asS'Spain'
p190
(lp191
g3
(g4
g5
Vvarane
p192
tp193
Rp194
ag3
(g4
g5
Velecciones-europeas
p195
tp196
Rp197
ag3
(g4
g5
Vpilar-rubio
p198
tp199
Rp200
ag3
(g4
g5
Vupyd
p201
tp202
Rp203
ag3
(g4
g5
Vcarlo-ancelotti
p204
tp205
Rp206
ag3
(g4
g5
Vkim-kardashian
p207
tp208
Rp209
ag3
(g4
g5
Vfinal-de-champions-2014
p210
tp211
Rp212
ag3
(g4
g5
Vsergio-ramos
p213
tp214
Rp215
ag3
(g4
g5
Vfinal-champions-2014
p216
tp217
Rp218
ag3
(g4
g5
Vformula-1
p219
tp220
Rp221
ag3
(g4
g5
Vxabi-alonso
p222
tp223
Rp224
ag3
(g4
g5
Vhindenburg
p225
tp226
Rp227
ag3
(g4
g5
Vcourtois
p228
tp229
Rp230
ag3
(g4
g5
Vhala-madrid
p231
tp232
Rp233
ag3
(g4
g5
Vdavid-luiz
p234
tp235
Rp236
ag3
(g4
g5
Vreal-madrid
p237
tp238
Rp239
ag3
(g4
g5
Vlluvia-de-estrellas-mayo-2014
p240
tp241
Rp242
ag3
(g4
g5
Vlisboa
p243
tp244
Rp245
ag3
(g4
g5
Vkiko-matamoros
p246
tp247
Rp248
ag3
(g4
g5
Vdani-martin
p249
tp250
Rp251
asS'UK'
p252
(lp253
g3
(g4
g5
Vkim-kardashian
p254
tp255
Rp256
ag3
(g4
g5
Vmonaco-grand-prix
p257
tp258
Rp259
ag3
(g4
g5
Vjonny-wilkinson
p260
tp261
Rp262
ag3
(g4
g5
Vqpr
p263
tp264
Rp265
ag3
(g4
g5
Velliot-rodger
p266
tp267
Rp268
ag3
(g4
g5
Vbritish-soap-awards
p269
tp270
Rp271
ag3
(g4
g5
Vchanning-tatum
p272
tp273
Rp274
ag3
(g4
g5
Vlottery-result
p275
tp276
Rp277
ag3
(g4
g5
Vellie-goulding
p278
tp279
Rp280
ag3
(g4
g5
Vfroch-groves
p281
tp282
Rp283
ag3
(g4
g5
Vgogglebox
p284
tp285
Rp286
ag3
(g4
g5
Vcheeki-rafiki
p287
tp288
Rp289
ag3
(g4
g5
Vedinburgh-marathon
p290
tp291
Rp292
ag3
(g4
g5
Vxabi-alonso
p293
tp294
Rp295
ag3
(g4
g5
Vali-carter
p296
tp297
Rp298
ag3
(g4
g5
Vreal-madrid
p299
tp300
Rp301
ag3
(g4
g5
Veuropean-elections-2014
p302
tp303
Rp304
ag3
(g4
g5
Vchampions-league
p305
tp306
Rp307
ag3
(g4
g5
Vjulie-andrews
p308
tp309
Rp310
ag3
(g4
g5
Vglasgow-school-of-art
p311
tp312
Rp313
asS'India'
p314
(lp315
g3
(g4
g5
Vup-board
p316
tp317
Rp318
ag3
(g4
g5
Vyusuf-pathan
p319
tp320
Rp321
ag3
(g4
g5
Vreal-madrid
p322
tp323
Rp324
ag3
(g4
g5
Vshazia-ilmi
p325
tp326
Rp327
ag3
(g4
g5
Vdavid-luiz
p328
tp329
Rp330
ag3
(g4
g5
Vsbicoin
p331
tp332
Rp333
ag3
(g4
g5
Vup-board-result
p334
tp335
Rp336
ag3
(g4
g5
Vsslc-result
p337
tp338
Rp339
ag3
(g4
g5
V10th-result
p340
tp341
Rp342
ag3
(g4
g5
Vgseborg
p343
tp344
Rp345
ag3
(g4
g5
Vheropanti
p346
tp347
Rp348
ag3
(g4
g5
Vkochadaiyaan
p349
tp350
Rp351
ag3
(g4
g5
Vx-men-days-of-future-past
p352
tp353
Rp354
ag3
(g4
g5
Vshanti-dynamite
p355
tp356
Rp357
ag3
(g4
g5
Vmicromax-unite-2
p358
tp359
Rp360
ag3
(g4
g5
Vkkr
p361
tp362
Rp363
ag3
(g4
g5
Vipl-live-score
p364
tp365
Rp366
ag3
(g4
g5
Vipl-live
p367
tp368
Rp369
ag3
(g4
g5
Vpanasonic-p81
p370
tp371
Rp372
ag3
(g4
g5
Vrbse
p373
tp374
Rp375
asS'US'
p376
(lp377
g3
(g4
g5
Vindy-500
p378
tp379
Rp380
ag3
(g4
g5
Velliot-rodger
p381
tp382
Rp383
ag3
(g4
g5
Vkim-kardashian
p384
tp385
Rp386
ag3
(g4
g5
Vreal-madrid
p387
tp388
Rp389
ag3
(g4
g5
Vmiami-heat
p390
tp391
Rp392
ag3
(g4
g5
Vblackhawks
p393
tp394
Rp395
ag3
(g4
g5
Vray-rice
p396
tp397
Rp398
ag3
(g4
g5
Vufc-173
p399
tp400
Rp401
ag3
(g4
g5
Vmeteor-shower
p402
tp403
Rp404
ag3
(g4
g5
Vx-men-days-of-future-past
p405
tp406
Rp407
ag3
(g4
g5
Vmemorial-day
p408
tp409
Rp410
ag3
(g4
g5
Vchad-smith
p411
tp412
Rp413
ag3
(g4
g5
Vamber-alert
p414
tp415
Rp416
ag3
(g4
g5
Vcandice-swanepoel
p417
tp418
Rp419
ag3
(g4
g5
Vmark-cuban
p420
tp421
Rp422
ag3
(g4
g5
Vlandon-donovan
p423
tp424
Rp425
ag3
(g4
g5
Vblackhawks
p426
tp427
Rp428
ag3
(g4
g5
Vcollege-board
p429
tp430
Rp431
ag3
(g4
g5
Vgregg-jarrett
p432
tp433
Rp434
ag3
(g4
g5
Valyssa-funke
p435
tp436
Rp437
asS'France'
p438
(lp439
g3
(g4
g5
Velections-europeennes-2014
p440
tp441
Rp442
ag3
(g4
g5
Vnathalie-pechalat
p443
tp444
Rp445
ag3
(g4
g5
Vrct
p446
tp447
Rp448
ag3
(g4
g5
Velliot-rodger
p449
tp450
Rp451
ag3
(g4
g5
Velections-europeennes
p452
tp453
Rp454
ag3
(g4
g5
Vreal-madrid
p455
tp456
Rp457
ag3
(g4
g5
Vjonny-wilkinson
p458
tp459
Rp460
ag3
(g4
g5
Vcannes-2014
p461
tp462
Rp463
ag3
(g4
g5
Vflorent-pagny
p464
tp465
Rp466
ag3
(g4
g5
Vdiego-simeone
p467
tp468
Rp469
ag3
(g4
g5
Vwinter-sleep
p470
tp471
Rp472
ag3
(g4
g5
Vtimothy-spall
p473
tp474
Rp475
ag3
(g4
g5
Vafrique
p476
tp477
Rp478
ag3
(g4
g5
Vbruxelles
p479
tp480
Rp481
ag3
(g4
g5
Vyannick-noah
p482
tp483
Rp484
ag3
(g4
g5
Vford-mustang
p485
tp486
Rp487
ag3
(g4
g5
Vphilip-plisson
p488
tp489
Rp490
ag3
(g4
g5
Vdavid-luiz
p491
tp492
Rp493
ag3
(g4
g5
Vroland-garros
p494
tp495
Rp496
ag3
(g4
g5
Vpoeme-fete-des-meres
p497
tp498
Rp499
as.