(dp0
S'Brazil'
p1
(lp2
ccopy_reg
_reconstructor
p3
(cdjango.utils.safestring
SafeText
p4
c__builtin__
unicode
p5
Vsindrome-de-down
p6
tp7
Rp8
ag3
(g4
g5
Valine-riscado
p9
tp10
Rp11
ag3
(g4
g5
Vbethe-correia
p12
tp13
Rp14
ag3
(g4
g5
Vchampions-league
p15
tp16
Rp17
ag3
(g4
g5
Vliga-dos-campeoes
p18
tp19
Rp20
ag3
(g4
g5
Vchevrolet
p21
tp22
Rp23
ag3
(g4
g5
Vsergio-malheiros
p24
tp25
Rp26
ag3
(g4
g5
Vfernando-e-amanda
p27
tp28
Rp29
ag3
(g4
g5
Vkelly-key
p30
tp31
Rp32
ag3
(g4
g5
Vnoticias
p33
tp34
Rp35
ag3
(g4
g5
Voutono
p36
tp37
Rp38
ag3
(g4
g5
Vcruzeiro
p39
tp40
Rp41
ag3
(g4
g5
Vbarcelona-x-real-madrid
p42
tp43
Rp44
ag3
(g4
g5
Vrock-in-rio
p45
tp46
Rp47
ag3
(g4
g5
Veclipse-solar
p48
tp49
Rp50
ag3
(g4
g5
Vsam-smith
p51
tp52
Rp53
ag3
(g4
g5
Vcarrossel
p54
tp55
Rp56
ag3
(g4
g5
Vprefeitura
p57
tp58
Rp59
ag3
(g4
g5
Vgrazi-massafera
p60
tp61
Rp62
ag3
(g4
g5
Vsao-jose
p63
tp64
Rp65
asS'Australia'
p66
(lp67
g3
(g4
g5
Vsix-nations
p68
tp69
Rp70
ag3
(g4
g5
Vnew-zealand-vs-west-indies
p71
tp72
Rp73
ag3
(g4
g5
Vmont-saint-michel
p74
tp75
Rp76
ag3
(g4
g5
Vliverpool
p77
tp78
Rp79
ag3
(g4
g5
Vglee
p80
tp81
Rp82
ag3
(g4
g5
Vjude-law
p83
tp84
Rp85
ag3
(g4
g5
Vmartin-pistorius
p86
tp87
Rp88
ag3
(g4
g5
Vrey-mysterio
p89
tp90
Rp91
ag3
(g4
g5
Vsuge-knight
p92
tp93
Rp94
ag3
(g4
g5
Vcasper
p95
tp96
Rp97
ag3
(g4
g5
Vlisa-colagrossi
p98
tp99
Rp100
ag3
(g4
g5
Vthe-words
p101
tp102
Rp103
ag3
(g4
g5
Vnick-jonas
p104
tp105
Rp106
ag3
(g4
g5
Vlindt-cafe
p107
tp108
Rp109
ag3
(g4
g5
Vsuper-amart
p110
tp111
Rp112
ag3
(g4
g5
Vgolden-slipper
p113
tp114
Rp115
ag3
(g4
g5
Vironman-melbourne
p116
tp117
Rp118
ag3
(g4
g5
Vwafl
p119
tp120
Rp121
ag3
(g4
g5
Vlouis-tomlinson
p122
tp123
Rp124
ag3
(g4
g5
Vsteve-nash
p125
tp126
Rp127
asS'Italy'
p128
(lp129
g3
(g4
g5
Vjuventus-genoa
p130
tp131
Rp132
ag3
(g4
g5
Vmaratona-di-roma-2015
p133
tp134
Rp135
ag3
(g4
g5
Vempoli-sassuolo
p136
tp137
Rp138
ag3
(g4
g5
Vnotti-sul-ghiaccio
p139
tp140
Rp141
ag3
(g4
g5
Vaurora-ramazzotti
p142
tp143
Rp144
ag3
(g4
g5
Vrey-mysterio
p145
tp146
Rp147
ag3
(g4
g5
Vmilan-cagliari
p148
tp149
Rp150
ag3
(g4
g5
Vclassifica-serie-b
p151
tp152
Rp153
ag3
(g4
g5
Vlatin-lover
p154
tp155
Rp156
ag3
(g4
g5
Vbarcellona-real-madrid
p157
tp158
Rp159
ag3
(g4
g5
Vmarco-mengoni
p160
tp161
Rp162
ag3
(g4
g5
Vgiornata-fai
p163
tp164
Rp165
ag3
(g4
g5
Vgiornate-fai
p166
tp167
Rp168
ag3
(g4
g5
Vchampions-league
p169
tp170
Rp171
ag3
(g4
g5
Vmaratona-di-roma
p172
tp173
Rp174
ag3
(g4
g5
Veder
p175
tp176
Rp177
ag3
(g4
g5
Vsuperbike
p178
tp179
Rp180
ag3
(g4
g5
Vitalia-galles
p181
tp182
Rp183
ag3
(g4
g5
Vchiara-mastalli
p184
tp185
Rp186
ag3
(g4
g5
Vlea-pericoli
p187
tp188
Rp189
asS'Spain'
p190
(lp191
g3
(g4
g5
Vsindrome-de-down
p192
tp193
Rp194
ag3
(g4
g5
Vmarchas-de-la-dignidad
p195
tp196
Rp197
ag3
(g4
g5
Vandalucia
p198
tp199
Rp200
ag3
(g4
g5
Vlos-40-principales
p201
tp202
Rp203
ag3
(g4
g5
Velecciones-andalucia
p204
tp205
Rp206
ag3
(g4
g5
Vrey-misterio
p207
tp208
Rp209
ag3
(g4
g5
Vequinoccio-de-primavera
p210
tp211
Rp212
ag3
(g4
g5
Vatletico-de-madrid
p213
tp214
Rp215
ag3
(g4
g5
Vmonte-saint-michel
p216
tp217
Rp218
ag3
(g4
g5
Vchampions-league
p219
tp220
Rp221
ag3
(g4
g5
Vnoticias
p222
tp223
Rp224
ag3
(g4
g5
Vchampions-league-2015
p225
tp226
Rp227
ag3
(g4
g5
Vyemen
p228
tp229
Rp230
ag3
(g4
g5
Velecciones-andaluzas-2015
p231
tp232
Rp233
ag3
(g4
g5
Vbarca-madrid
p234
tp235
Rp236
ag3
(g4
g5
Velecciones-andaluzas
p237
tp238
Rp239
ag3
(g4
g5
Vdavid-beckham
p240
tp241
Rp242
ag3
(g4
g5
Vprimavera
p243
tp244
Rp245
ag3
(g4
g5
Vsteve-nash
p246
tp247
Rp248
asS'UK'
p249
(lp250
g3
(g4
g5
Vsix-nations
p251
tp252
Rp253
ag3
(g4
g5
Vbbc-eclipse
p254
tp255
Rp256
ag3
(g4
g5
Vrichard-iii
p257
tp258
Rp259
ag3
(g4
g5
Vliverpool
p260
tp261
Rp262
ag3
(g4
g5
Vrey-mysterio
p263
tp264
Rp265
ag3
(g4
g5
Vthe-voice
p266
tp267
Rp268
ag3
(g4
g5
Vrugby-world-cup
p269
tp270
Rp271
ag3
(g4
g5
Vtom-jones
p272
tp273
Rp274
ag3
(g4
g5
Vs-club-7
p275
tp276
Rp277
ag3
(g4
g5
Vrita-ora
p278
tp279
Rp280
ag3
(g4
g5
Vrussell-crowe
p281
tp282
Rp283
ag3
(g4
g5
Veclipse-2015
p284
tp285
Rp286
ag3
(g4
g5
Vjackie-trent
p287
tp288
Rp289
ag3
(g4
g5
Vthe-voice-uk
p290
tp291
Rp292
ag3
(g4
g5
Vdominos
p293
tp294
Rp295
ag3
(g4
g5
Vsuge-knight
p296
tp297
Rp298
ag3
(g4
g5
Vlily-james
p299
tp300
Rp301
ag3
(g4
g5
Vharry-kane
p302
tp303
Rp304
ag3
(g4
g5
Vlottery-results
p305
tp306
Rp307
ag3
(g4
g5
Vliz-hurley
p308
tp309
Rp310
asS'India'
p311
(lp312
g3
(g4
g5
Vbombay-velvet
p313
tp314
Rp315
ag3
(g4
g5
Vnavroz
p316
tp317
Rp318
ag3
(g4
g5
Vaustralia-vs-pakistan
p319
tp320
Rp321
ag3
(g4
g5
Vicc-world-cup
p322
tp323
Rp324
ag3
(g4
g5
Vel-clasico
p325
tp326
Rp327
ag3
(g4
g5
Vgo-air
p328
tp329
Rp330
ag3
(g4
g5
Vaustralia-cricket-team
p331
tp332
Rp333
ag3
(g4
g5
Vhijo-del-perro-aguayo
p334
tp335
Rp336
ag3
(g4
g5
Vnew-zealand-cricket-team
p337
tp338
Rp339
ag3
(g4
g5
V100-days-of-love
p340
tp341
Rp342
ag3
(g4
g5
Vugadi
p343
tp344
Rp345
ag3
(g4
g5
Vvernal-equinox
p346
tp347
Rp348
ag3
(g4
g5
Vspicejet
p349
tp350
Rp351
ag3
(g4
g5
Vyevade-subramanyam-review
p352
tp353
Rp354
ag3
(g4
g5
Vindia-vs-australia
p355
tp356
Rp357
ag3
(g4
g5
Vsolar-eclipse
p358
tp359
Rp360
ag3
(g4
g5
Vgudi-padwa
p361
tp362
Rp363
ag3
(g4
g5
Vhunterrr
p364
tp365
Rp366
asS'US'
p367
(lp368
g3
(g4
g5
Vucla-basketball
p369
tp370
Rp371
ag3
(g4
g5
Vglee
p372
tp373
Rp374
ag3
(g4
g5
Vvillanova
p375
tp376
Rp377
ag3
(g4
g5
Vgonzaga-basketball
p378
tp379
Rp380
ag3
(g4
g5
Vthe-gunman
p381
tp382
Rp383
ag3
(g4
g5
Vlisa-colagrossi
p384
tp385
Rp386
ag3
(g4
g5
Vbarcelona-vs-real-madrid
p387
tp388
Rp389
ag3
(g4
g5
Vsuge-knight
p390
tp391
Rp392
ag3
(g4
g5
Vvernal-equinox
p393
tp394
Rp395
ag3
(g4
g5
Vrey-mysterio
p396
tp397
Rp398
ag3
(g4
g5
Vspring-equinox-2015
p399
tp400
Rp401
ag3
(g4
g5
Variana-grande
p402
tp403
Rp404
ag3
(g4
g5
Vuc-irvine-basketball
p405
tp406
Rp407
ag3
(g4
g5
Vblake-lively
p408
tp409
Rp410
ag3
(g4
g5
Vsia
p411
tp412
Rp413
ag3
(g4
g5
Vashley-judd
p414
tp415
Rp416
ag3
(g4
g5
Vmonica-lewinsky
p417
tp418
Rp419
ag3
(g4
g5
Vsteve-nash
p420
tp421
Rp422
ag3
(g4
g5
Vinsurgent-movie
p423
tp424
Rp425
ag3
(g4
g5
Vkevin-durant
p426
tp427
Rp428
asS'France'
p429
(lp430
g3
(g4
g5
Vhugues-aufray
p431
tp432
Rp433
ag3
(g4
g5
Vcirculation-alternee
p434
tp435
Rp436
ag3
(g4
g5
Vmont-saint-michel
p437
tp438
Rp439
ag3
(g4
g5
Vrugby
p440
tp441
Rp442
ag3
(g4
g5
Vflorent-pagny
p443
tp444
Rp445
ag3
(g4
g5
Vfrance-angleterre
p446
tp447
Rp448
ag3
(g4
g5
Vsamuel-benchetrit
p449
tp450
Rp451
ag3
(g4
g5
Velections-departementales-2015
p452
tp453
Rp454
ag3
(g4
g5
Vtournoi-6-nations
p455
tp456
Rp457
ag3
(g4
g5
Velection-2015
p458
tp459
Rp460
ag3
(g4
g5
Vprintemps-du-cinema
p461
tp462
Rp463
ag3
(g4
g5
Velection
p464
tp465
Rp466
ag3
(g4
g5
Vmilan-san-remo
p467
tp468
Rp469
ag3
(g4
g5
Vlyon-nice
p470
tp471
Rp472
ag3
(g4
g5
Velection-departementale
p473
tp474
Rp475
ag3
(g4
g5
Vyael-naim
p476
tp477
Rp478
ag3
(g4
g5
Vgourcuff
p479
tp480
Rp481
ag3
(g4
g5
Vmilan-san-remo-2015
p482
tp483
Rp484
ag3
(g4
g5
Velections-departementales
p485
tp486
Rp487
ag3
(g4
g5
Vdepartementales-2015
p488
tp489
Rp490
as.