(dp0
S'Brazil'
p1
(lp2
ccopy_reg
_reconstructor
p3
(cdjango.utils.safestring
SafeText
p4
c__builtin__
unicode
p5
Vmiley-cyrus
p6
tp7
Rp8
ag3
(g4
g5
Vthe-voice
p9
tp10
Rp11
ag3
(g4
g5
Vcuba
p12
tp13
Rp14
ag3
(g4
g5
Vxuxa
p15
tp16
Rp17
ag3
(g4
g5
Vunicamp
p18
tp19
Rp20
ag3
(g4
g5
Vdetran-rs
p21
tp22
Rp23
ag3
(g4
g5
Vmasterchef
p24
tp25
Rp26
ag3
(g4
g5
Vwassily-kandinsky
p27
tp28
Rp29
ag3
(g4
g5
Vuefs
p30
tp31
Rp32
ag3
(g4
g5
Vmeio-norte
p33
tp34
Rp35
ag3
(g4
g5
Vmackenzie
p36
tp37
Rp38
ag3
(g4
g5
Vdia-do-arquiteto
p39
tp40
Rp41
ag3
(g4
g5
Vgonzaguinha
p42
tp43
Rp44
ag3
(g4
g5
Vsan-lorenzo
p45
tp46
Rp47
ag3
(g4
g5
Vfuvest
p48
tp49
Rp50
ag3
(g4
g5
Vlais-souza
p51
tp52
Rp53
ag3
(g4
g5
Vifpe
p54
tp55
Rp56
ag3
(g4
g5
Vsasha
p57
tp58
Rp59
ag3
(g4
g5
Vmonsters-of-rock
p60
tp61
Rp62
asS'Australia'
p63
(lp64
g3
(g4
g5
Vmartin-place-flowers
p65
tp66
Rp67
ag3
(g4
g5
Vpakistan
p68
tp69
Rp70
ag3
(g4
g5
Vlove-actually
p71
tp72
Rp73
ag3
(g4
g5
Vsoundwave
p74
tp75
Rp76
ag3
(g4
g5
Vtori-johnson
p77
tp78
Rp79
ag3
(g4
g5
Vsurvivor
p80
tp81
Rp82
ag3
(g4
g5
Vcuba
p83
tp84
Rp85
ag3
(g4
g5
Vhsc-results
p86
tp87
Rp88
ag3
(g4
g5
Vjeremy-kewley
p89
tp90
Rp91
ag3
(g4
g5
Vthierry-henry
p92
tp93
Rp94
ag3
(g4
g5
Vnatalie-barr
p95
tp96
Rp97
ag3
(g4
g5
Voutcast
p98
tp99
Rp100
ag3
(g4
g5
Vnight-at-the-museum
p101
tp102
Rp103
ag3
(g4
g5
Vrussell-brand
p104
tp105
Rp106
ag3
(g4
g5
Vwassily-kandinsky
p107
tp108
Rp109
ag3
(g4
g5
Vbig-bash
p110
tp111
Rp112
ag3
(g4
g5
Villawarra-mercury
p113
tp114
Rp115
ag3
(g4
g5
Vatar-results
p116
tp117
Rp118
ag3
(g4
g5
Vmiranda-kerr
p119
tp120
Rp121
ag3
(g4
g5
Vthe-interview
p122
tp123
Rp124
asS'Italy'
p125
(lp126
g3
(g4
g5
Vmarco-mengoni
p127
tp128
Rp129
ag3
(g4
g5
Vpapa-francesco
p130
tp131
Rp132
ag3
(g4
g5
Vylenia-carrisi
p133
tp134
Rp135
ag3
(g4
g5
Vraffaella-fico
p136
tp137
Rp138
ag3
(g4
g5
Vprobabili-formazioni
p139
tp140
Rp141
ag3
(g4
g5
Vthe-missing
p142
tp143
Rp144
ag3
(g4
g5
Vkim-kardashian
p145
tp146
Rp147
ag3
(g4
g5
Vsegnali-dal-futuro
p148
tp149
Rp150
ag3
(g4
g5
Vcagliari-juve
p151
tp152
Rp153
ag3
(g4
g5
Vwassily-kandinsky
p154
tp155
Rp156
ag3
(g4
g5
Vtutta-colpa-di-freud
p157
tp158
Rp159
ag3
(g4
g5
Valberto-stasi
p160
tp161
Rp162
ag3
(g4
g5
Vricatto-d-amore
p163
tp164
Rp165
ag3
(g4
g5
Vsabato-jovanotti
p166
tp167
Rp168
ag3
(g4
g5
Vamerican-pie
p169
tp170
Rp171
ag3
(g4
g5
Vfantagazzetta
p172
tp173
Rp174
ag3
(g4
g5
Vjoaquin-correa
p175
tp176
Rp177
ag3
(g4
g5
Vac-dc
p178
tp179
Rp180
ag3
(g4
g5
Vrussia
p181
tp182
Rp183
ag3
(g4
g5
Vvirna-lisi
p184
tp185
Rp186
asS'Spain'
p187
(lp188
g3
(g4
g5
Vel-senor-de-los-anillos
p189
tp190
Rp191
ag3
(g4
g5
Vpakistan
p192
tp193
Rp194
ag3
(g4
g5
Vsalvame
p195
tp196
Rp197
ag3
(g4
g5
Vcuatro
p198
tp199
Rp200
ag3
(g4
g5
Vvalencia-cf
p201
tp202
Rp203
ag3
(g4
g5
Vcuba
p204
tp205
Rp206
ag3
(g4
g5
Vauckland-city
p207
tp208
Rp209
ag3
(g4
g5
Vgym-tony
p210
tp211
Rp212
ag3
(g4
g5
Vtorres-dulce
p213
tp214
Rp215
ag3
(g4
g5
Vganador-top-chef-2014
p216
tp217
Rp218
ag3
(g4
g5
Vwassily-kandinsky
p219
tp220
Rp221
ag3
(g4
g5
Vlowi
p222
tp223
Rp224
ag3
(g4
g5
Vmanucho
p225
tp226
Rp227
ag3
(g4
g5
Vsandra-barneda
p228
tp229
Rp230
ag3
(g4
g5
Vlara-alvarez
p231
tp232
Rp233
ag3
(g4
g5
Ventradas-acdc
p234
tp235
Rp236
ag3
(g4
g5
Vthe-interview
p237
tp238
Rp239
ag3
(g4
g5
Vgoogle-news
p240
tp241
Rp242
ag3
(g4
g5
Vshiloh-jolie-pitt
p243
tp244
Rp245
ag3
(g4
g5
Vvirna-lisi
p246
tp247
Rp248
asS'UK'
p249
(lp250
g3
(g4
g5
Vpakistan
p251
tp252
Rp253
ag3
(g4
g5
Veuropa-league-draw
p254
tp255
Rp256
ag3
(g4
g5
Vblack-mirror
p257
tp258
Rp259
ag3
(g4
g5
Vharry-potter
p260
tp261
Rp262
ag3
(g4
g5
Vnigel-farage
p263
tp264
Rp265
ag3
(g4
g5
Vcards-against-humanity
p266
tp267
Rp268
ag3
(g4
g5
Velite-dangerous
p269
tp270
Rp271
ag3
(g4
g5
Vthe-apprentice
p272
tp273
Rp274
ag3
(g4
g5
Vbebo
p275
tp276
Rp277
ag3
(g4
g5
Vthierry-henry
p278
tp279
Rp280
ag3
(g4
g5
Vthe-missing
p281
tp282
Rp283
ag3
(g4
g5
Vwealdstone-raider
p284
tp285
Rp286
ag3
(g4
g5
Vwassily-kandinsky
p287
tp288
Rp289
ag3
(g4
g5
Vanthony-crolla
p290
tp291
Rp292
ag3
(g4
g5
Vrobert-downey-jr
p293
tp294
Rp295
ag3
(g4
g5
Vsydney
p296
tp297
Rp298
ag3
(g4
g5
Vsan-andreas-2
p299
tp300
Rp301
ag3
(g4
g5
Vkanavape
p302
tp303
Rp304
ag3
(g4
g5
Vchampions-league-draw
p305
tp306
Rp307
ag3
(g4
g5
Vthe-interview
p308
tp309
Rp310
asS'India'
p311
(lp312
g3
(g4
g5
Vwwe-tlc-2014-results
p313
tp314
Rp315
ag3
(g4
g5
Vchakri
p316
tp317
Rp318
ag3
(g4
g5
Vraj-kapoor-movies
p319
tp320
Rp321
ag3
(g4
g5
Vgst
p322
tp323
Rp324
ag3
(g4
g5
Vuiic
p325
tp326
Rp327
ag3
(g4
g5
Vpeshawar-attack
p328
tp329
Rp330
ag3
(g4
g5
Vmiss-world-2014
p331
tp332
Rp333
ag3
(g4
g5
Vwassily-kandinsky
p334
tp335
Rp336
ag3
(g4
g5
Vmahira-khan
p337
tp338
Rp339
ag3
(g4
g5
Vdiandra-soares
p340
tp341
Rp342
ag3
(g4
g5
Vi-trailer
p343
tp344
Rp345
ag3
(g4
g5
Vkerala-blasters
p346
tp347
Rp348
ag3
(g4
g5
Visro
p349
tp350
Rp351
ag3
(g4
g5
Vsydney
p352
tp353
Rp354
ag3
(g4
g5
Visl
p355
tp356
Rp357
ag3
(g4
g5
Vmicromax-yu
p358
tp359
Rp360
ag3
(g4
g5
Vk-balachander
p361
tp362
Rp363
ag3
(g4
g5
Vuefa-champions-league
p364
tp365
Rp366
ag3
(g4
g5
Vindia-vs-australia-2nd-test
p367
tp368
Rp369
ag3
(g4
g5
Vgurgaon-news
p370
tp371
Rp372
asS'US'
p373
(lp374
g3
(g4
g5
Vdetroit-lions
p375
tp376
Rp377
ag3
(g4
g5
Vstephen-collins
p378
tp379
Rp380
ag3
(g4
g5
Vjim-harbaugh
p381
tp382
Rp383
ag3
(g4
g5
Vbruno-mars
p384
tp385
Rp386
ag3
(g4
g5
Vsurvivor
p387
tp388
Rp389
ag3
(g4
g5
Vcuba
p390
tp391
Rp392
ag3
(g4
g5
Vchicago-bears
p393
tp394
Rp395
ag3
(g4
g5
Vbobby-shmurda
p396
tp397
Rp398
ag3
(g4
g5
Vhanukkah
p399
tp400
Rp401
ag3
(g4
g5
Vseth-rogen
p402
tp403
Rp404
ag3
(g4
g5
Vwassily-kandinsky
p405
tp406
Rp407
ag3
(g4
g5
Vwho-won-the-voice
p408
tp409
Rp410
ag3
(g4
g5
Vbritney-spears
p411
tp412
Rp413
ag3
(g4
g5
Vmichael-buble
p414
tp415
Rp416
ag3
(g4
g5
Vbeverly-johnson
p417
tp418
Rp419
ag3
(g4
g5
Vpakistan
p420
tp421
Rp422
ag3
(g4
g5
Vjeb-bush
p423
tp424
Rp425
ag3
(g4
g5
Vserial-podcast
p426
tp427
Rp428
ag3
(g4
g5
Vthe-interview
p429
tp430
Rp431
ag3
(g4
g5
Vjimmy-clausen
p432
tp433
Rp434
asS'France'
p435
(lp436
g3
(g4
g5
Vzemmour
p437
tp438
Rp439
ag3
(g4
g5
Vpakistan
p440
tp441
Rp442
ag3
(g4
g5
Vthierry-henry
p443
tp444
Rp445
ag3
(g4
g5
Vdorothee
p446
tp447
Rp448
ag3
(g4
g5
Vfatal-bazooka
p449
tp450
Rp451
ag3
(g4
g5
Vcuba
p452
tp453
Rp454
ag3
(g4
g5
Vstade-de-france
p455
tp456
Rp457
ag3
(g4
g5
Vdumb-and-dumber
p458
tp459
Rp460
ag3
(g4
g5
Vmonopoly
p461
tp462
Rp463
ag3
(g4
g5
Vflorian-philippot
p464
tp465
Rp466
ag3
(g4
g5
Vpsg
p467
tp468
Rp469
ag3
(g4
g5
Vmohamed-bastaoui
p470
tp471
Rp472
ag3
(g4
g5
Vflorent-manaudou
p473
tp474
Rp475
ag3
(g4
g5
Vmentalist-saison-7
p476
tp477
Rp478
ag3
(g4
g5
Vcoupe-de-la-ligue
p479
tp480
Rp481
ag3
(g4
g5
Vvirna-lisi
p482
tp483
Rp484
ag3
(g4
g5
Vkanavape
p485
tp486
Rp487
ag3
(g4
g5
Vfrance-3
p488
tp489
Rp490
ag3
(g4
g5
Vgeorges-tron
p491
tp492
Rp493
ag3
(g4
g5
Vthe-interview
p494
tp495
Rp496
as.