(dp0
S'Brazil'
p1
(lp2
ccopy_reg
_reconstructor
p3
(cdjango.utils.safestring
SafeText
p4
c__builtin__
unicode
p5
Vas-noivas-de-copacabana
p6
tp7
Rp8
ag3
(g4
g5
Vbbb15
p9
tp10
Rp11
ag3
(g4
g5
Valine-bbb15
p12
tp13
Rp14
ag3
(g4
g5
Vfernanda-gentil
p15
tp16
Rp17
ag3
(g4
g5
Vflamengo-e-vasco
p18
tp19
Rp20
ag3
(g4
g5
Vbbb-2015
p21
tp22
Rp23
ag3
(g4
g5
Vwindows-10
p24
tp25
Rp26
ag3
(g4
g5
Vjulia-bbb15
p27
tp28
Rp29
ag3
(g4
g5
Vwhatsapp-web
p30
tp31
Rp32
ag3
(g4
g5
Vcrefisa
p33
tp34
Rp35
ag3
(g4
g5
Vbarcelona
p36
tp37
Rp38
ag3
(g4
g5
Vsao-sebastiao
p39
tp40
Rp41
ag3
(g4
g5
Vdiario-de-pernambuco
p42
tp43
Rp44
ag3
(g4
g5
Vifpi
p45
tp46
Rp47
ag3
(g4
g5
Vnotas-de-corte-sisu-2015
p48
tp49
Rp50
ag3
(g4
g5
Vmega-sena-1671
p51
tp52
Rp53
ag3
(g4
g5
Vdercy-goncalves
p54
tp55
Rp56
ag3
(g4
g5
Vbig-brother-brasil
p57
tp58
Rp59
ag3
(g4
g5
Vsurfista-ricardinho
p60
tp61
Rp62
ag3
(g4
g5
Vlotofacil-1161
p63
tp64
Rp65
asS'Australia'
p66
(lp67
g3
(g4
g5
Vsam-groth
p68
tp69
Rp70
ag3
(g4
g5
Vasian-cup
p71
tp72
Rp73
ag3
(g4
g5
Vnadal
p74
tp75
Rp76
ag3
(g4
g5
Vjarmila-gajdosova
p77
tp78
Rp79
ag3
(g4
g5
Vandrew-chan
p80
tp81
Rp82
ag3
(g4
g5
Vwindows-10
p83
tp84
Rp85
ag3
(g4
g5
Vbetter-call-saul
p86
tp87
Rp88
ag3
(g4
g5
Vfrilled-shark
p89
tp90
Rp91
ag3
(g4
g5
Vsam-stosur
p92
tp93
Rp94
ag3
(g4
g5
Vlleyton-hewitt
p95
tp96
Rp97
ag3
(g4
g5
Vricardo-dos-santos
p98
tp99
Rp100
ag3
(g4
g5
Veugenie-bouchard
p101
tp102
Rp103
ag3
(g4
g5
Vcircular-quay
p104
tp105
Rp106
ag3
(g4
g5
Vnick-kyrgios
p107
tp108
Rp109
ag3
(g4
g5
Vazarenka
p110
tp111
Rp112
ag3
(g4
g5
Vvioletta-degtiareva
p113
tp114
Rp115
ag3
(g4
g5
Vwhatsapp
p116
tp117
Rp118
ag3
(g4
g5
Vfederer
p119
tp120
Rp121
ag3
(g4
g5
Vmeghan-trainor
p122
tp123
Rp124
ag3
(g4
g5
Vpottermore
p125
tp126
Rp127
asS'Italy'
p128
(lp129
g3
(g4
g5
Vantonio-martino
p130
tp131
Rp132
ag3
(g4
g5
Vinter-sampdoria
p133
tp134
Rp135
ag3
(g4
g5
Vfiorentina-atalanta-coppa-italia
p136
tp137
Rp138
ag3
(g4
g5
Vmagalli
p139
tp140
Rp141
ag3
(g4
g5
Vviaggio-nell-isola-misteriosa
p142
tp143
Rp144
ag3
(g4
g5
Vfc-internazionale-milano
p145
tp146
Rp147
ag3
(g4
g5
Vwindows-10
p148
tp149
Rp150
ag3
(g4
g5
Vkim-kardashian
p151
tp152
Rp153
ag3
(g4
g5
Vlaura-chiatti
p154
tp155
Rp156
ag3
(g4
g5
Vjoe-bastianich
p157
tp158
Rp159
ag3
(g4
g5
Vfabrizio-corona
p160
tp161
Rp162
ag3
(g4
g5
Vdraghi
p163
tp164
Rp165
ag3
(g4
g5
Vimu-terreni-agricoli
p166
tp167
Rp168
ag3
(g4
g5
Vmauricio
p169
tp170
Rp171
ag3
(g4
g5
Vrama-lila
p172
tp173
Rp174
ag3
(g4
g5
Vexpo-2015
p175
tp176
Rp177
ag3
(g4
g5
Vbalotelli
p178
tp179
Rp180
ag3
(g4
g5
Vwhatsapp
p181
tp182
Rp183
ag3
(g4
g5
Vosvaldo
p184
tp185
Rp186
ag3
(g4
g5
Vogni-cosa-e-illuminata
p187
tp188
Rp189
asS'Spain'
p190
(lp191
g3
(g4
g5
Vdesire-cordero
p192
tp193
Rp194
ag3
(g4
g5
Vwhatsapp-plus
p195
tp196
Rp197
ag3
(g4
g5
Vcope
p198
tp199
Rp200
ag3
(g4
g5
Vconcha-caballero
p201
tp202
Rp203
ag3
(g4
g5
Vwindows-10
p204
tp205
Rp206
ag3
(g4
g5
Vwhatsapp-web
p207
tp208
Rp209
ag3
(g4
g5
Vlucas-silva
p210
tp211
Rp212
ag3
(g4
g5
Vlucia-villalon
p213
tp214
Rp215
ag3
(g4
g5
Vstephen-hawking
p216
tp217
Rp218
ag3
(g4
g5
Vamaya-mendez
p219
tp220
Rp221
ag3
(g4
g5
Vana-cobos
p222
tp223
Rp224
ag3
(g4
g5
Vhooligans
p225
tp226
Rp227
ag3
(g4
g5
Vfutbol
p228
tp229
Rp230
ag3
(g4
g5
Vdakota-johnson
p231
tp232
Rp233
ag3
(g4
g5
Vsiria
p234
tp235
Rp236
ag3
(g4
g5
Vprimavera-sound
p237
tp238
Rp239
ag3
(g4
g5
Vteledeporte
p240
tp241
Rp242
ag3
(g4
g5
Vbarcelona-atletico-de-madrid
p243
tp244
Rp245
ag3
(g4
g5
Vodegaard
p246
tp247
Rp248
ag3
(g4
g5
Vtarjeta-roja
p249
tp250
Rp251
asS'UK'
p252
(lp253
g3
(g4
g5
Vemma-atkins
p254
tp255
Rp256
ag3
(g4
g5
Vdanny-dyer
p257
tp258
Rp259
ag3
(g4
g5
Vthe-sun
p260
tp261
Rp262
ag3
(g4
g5
Vanne-kirkbride
p263
tp264
Rp265
ag3
(g4
g5
Vkris-jenner
p266
tp267
Rp268
ag3
(g4
g5
Vmartin-odegaard
p269
tp270
Rp271
ag3
(g4
g5
Vleon-brittan
p272
tp273
Rp274
ag3
(g4
g5
Vsheridan-smith
p275
tp276
Rp277
ag3
(g4
g5
Vex-machina
p278
tp279
Rp280
ag3
(g4
g5
Vdavid-tennant
p281
tp282
Rp283
ag3
(g4
g5
Vjosie-cunningham
p284
tp285
Rp286
ag3
(g4
g5
Vkavana
p287
tp288
Rp289
ag3
(g4
g5
Vnta-awards
p290
tp291
Rp292
ag3
(g4
g5
Vthomas-cromwell
p293
tp294
Rp295
ag3
(g4
g5
Vlucia-villalon
p296
tp297
Rp298
ag3
(g4
g5
Vwindows-10
p299
tp300
Rp301
ag3
(g4
g5
Vwhatsapp
p302
tp303
Rp304
ag3
(g4
g5
Vfearne-cotton
p305
tp306
Rp307
ag3
(g4
g5
Vliverpool-vs-chelsea
p308
tp309
Rp310
ag3
(g4
g5
Vjames-blunt
p311
tp312
Rp313
asS'India'
p314
(lp315
g3
(g4
g5
Vrun-kerala-run
p316
tp317
Rp318
ag3
(g4
g5
Vcricket
p319
tp320
Rp321
ag3
(g4
g5
Vaustralian-open
p322
tp323
Rp324
ag3
(g4
g5
Vwindows-10
p325
tp326
Rp327
ag3
(g4
g5
Vwhatsapp-web
p328
tp329
Rp330
ag3
(g4
g5
Vlenovo-a6000
p331
tp332
Rp333
ag3
(g4
g5
Vbarcelona
p334
tp335
Rp336
ag3
(g4
g5
Vnupur-sharma
p337
tp338
Rp339
ag3
(g4
g5
Vbaby-movie
p340
tp341
Rp342
ag3
(g4
g5
Vab-de-villiers
p343
tp344
Rp345
ag3
(g4
g5
Vyureka
p346
tp347
Rp348
ag3
(g4
g5
Vreal-madrid
p349
tp350
Rp351
ag3
(g4
g5
Vms-narayana
p352
tp353
Rp354
ag3
(g4
g5
Valone
p355
tp356
Rp357
ag3
(g4
g5
Vbank-strike
p358
tp359
Rp360
ag3
(g4
g5
Vmartin-luther-king-jr-day
p361
tp362
Rp363
ag3
(g4
g5
Vindia-vs-england
p364
tp365
Rp366
ag3
(g4
g5
Vliverpool-vs-chelsea
p367
tp368
Rp369
ag3
(g4
g5
Vgreg-plitt
p370
tp371
Rp372
asS'US'
p373
(lp374
g3
(g4
g5
Vnew-kids-on-the-block
p375
tp376
Rp377
ag3
(g4
g5
Volivia-munn
p378
tp379
Rp380
ag3
(g4
g5
Vfrilled-shark
p381
tp382
Rp383
ag3
(g4
g5
Vluke-bryan
p384
tp385
Rp386
ag3
(g4
g5
Vclub-nintendo
p387
tp388
Rp389
ag3
(g4
g5
Vwindows-10
p390
tp391
Rp392
ag3
(g4
g5
Vstate-of-the-union-address
p393
tp394
Rp395
ag3
(g4
g5
Vhope-solo
p396
tp397
Rp398
ag3
(g4
g5
Vsuper-bowl-2015
p399
tp400
Rp401
ag3
(g4
g5
Vpopcorn-time
p402
tp403
Rp404
ag3
(g4
g5
Vsorry-for-the-wait-2
p405
tp406
Rp407
ag3
(g4
g5
Vchikungunya
p408
tp409
Rp410
ag3
(g4
g5
Vpatriots
p411
tp412
Rp413
ag3
(g4
g5
Vsotu
p414
tp415
Rp416
ag3
(g4
g5
Vjohn-boehner
p417
tp418
Rp419
ag3
(g4
g5
Vpatriots-cheating
p420
tp421
Rp422
ag3
(g4
g5
Vsarah-roemer
p423
tp424
Rp425
ag3
(g4
g5
Vjoni-ernst
p426
tp427
Rp428
ag3
(g4
g5
Vstate-of-the-union
p429
tp430
Rp431
ag3
(g4
g5
Vedgewater-fire
p432
tp433
Rp434
asS'France'
p435
(lp436
g3
(g4
g5
Vcash-converter
p437
tp438
Rp439
ag3
(g4
g5
Vcoupe-de-france
p440
tp441
Rp442
ag3
(g4
g5
Vapartheid
p443
tp444
Rp445
ag3
(g4
g5
Vjakie-quartz
p446
tp447
Rp448
ag3
(g4
g5
Vpsg-bordeaux
p449
tp450
Rp451
ag3
(g4
g5
Vnantes-lyon
p452
tp453
Rp454
ag3
(g4
g5
Vlassana-bathily
p455
tp456
Rp457
ag3
(g4
g5
Vtaken
p458
tp459
Rp460
ag3
(g4
g5
Vricardo-dos-santos
p461
tp462
Rp463
ag3
(g4
g5
Vhandball
p464
tp465
Rp466
ag3
(g4
g5
Vfc-nantes
p467
tp468
Rp469
ag3
(g4
g5
Vmeteo
p470
tp471
Rp472
ag3
(g4
g5
Vmuriel-robin
p473
tp474
Rp475
ag3
(g4
g5
Vapb
p476
tp477
Rp478
ag3
(g4
g5
Vbce
p479
tp480
Rp481
ag3
(g4
g5
Vwindows-10
p482
tp483
Rp484
ag3
(g4
g5
Vdate-limite
p485
tp486
Rp487
ag3
(g4
g5
Vle-nom-des-gens
p488
tp489
Rp490
ag3
(g4
g5
Vdarren-shahlavi
p491
tp492
Rp493
ag3
(g4
g5
Vphilippe-tesson
p494
tp495
Rp496
as.