(dp0
S'Brazil'
p1
(lp2
ccopy_reg
_reconstructor
p3
(cdjango.utils.safestring
SafeText
p4
c__builtin__
unicode
p5
Vuel
p6
tp7
Rp8
ag3
(g4
g5
Vcampos-24-horas
p9
tp10
Rp11
ag3
(g4
g5
Vbrasil-x-turquia
p12
tp13
Rp14
ag3
(g4
g5
Vphilae
p15
tp16
Rp17
ag3
(g4
g5
Vsao-paulo
p18
tp19
Rp20
ag3
(g4
g5
Vkim-kardashian
p21
tp22
Rp23
ag3
(g4
g5
Vbrasileirao-2014
p24
tp25
Rp26
ag3
(g4
g5
Vmega-sena
p27
tp28
Rp29
ag3
(g4
g5
Vlotomania
p30
tp31
Rp32
ag3
(g4
g5
Vinternacional
p33
tp34
Rp35
ag3
(g4
g5
Vleandro-konder
p36
tp37
Rp38
ag3
(g4
g5
Vpatrick-schwarzenegger
p39
tp40
Rp41
ag3
(g4
g5
Vmanoel-de-barros
p42
tp43
Rp44
ag3
(g4
g5
Vcruzeiro
p45
tp46
Rp47
ag3
(g4
g5
Vans
p48
tp49
Rp50
ag3
(g4
g5
Vjornal-hoje
p51
tp52
Rp53
ag3
(g4
g5
Vcampeonato-brasileiro
p54
tp55
Rp56
ag3
(g4
g5
Vgabarito-enem-2014
p57
tp58
Rp59
ag3
(g4
g5
Vleticia-sabatela
p60
tp61
Rp62
ag3
(g4
g5
Vbrasileirao
p63
tp64
Rp65
asS'Australia'
p66
(lp67
g3
(g4
g5
Vluke-beveridge
p68
tp69
Rp70
ag3
(g4
g5
Vcricket
p71
tp72
Rp73
ag3
(g4
g5
Vgrease
p74
tp75
Rp76
ag3
(g4
g5
Vrussian-warships-australia
p77
tp78
Rp79
ag3
(g4
g5
Vjacqui-lambie
p80
tp81
Rp82
ag3
(g4
g5
Vcricinfo
p83
tp84
Rp85
ag3
(g4
g5
Vfloyd-mayweather
p86
tp87
Rp88
ag3
(g4
g5
Vcatalyst-abc
p89
tp90
Rp91
ag3
(g4
g5
Vlindsay-lohan
p92
tp93
Rp94
ag3
(g4
g5
V50-shades-of-grey-trailer
p95
tp96
Rp97
ag3
(g4
g5
Vbill-cosby
p98
tp99
Rp100
ag3
(g4
g5
Vcricket-australia
p101
tp102
Rp103
ag3
(g4
g5
Vpatrick-schwarzenegger
p104
tp105
Rp106
ag3
(g4
g5
Vwarren-clarke
p107
tp108
Rp109
ag3
(g4
g5
Vphilae-lander
p110
tp111
Rp112
ag3
(g4
g5
Vgail-kelly
p113
tp114
Rp115
ag3
(g4
g5
Vwarrimoo
p116
tp117
Rp118
ag3
(g4
g5
Vdiplo
p119
tp120
Rp121
ag3
(g4
g5
Vcfa
p122
tp123
Rp124
ag3
(g4
g5
Vrohit-sharma
p125
tp126
Rp127
asS'Italy'
p128
(lp129
g3
(g4
g5
Vi-cesaroni-6
p130
tp131
Rp132
ag3
(g4
g5
Vtina-cipollari
p133
tp134
Rp135
ag3
(g4
g5
Vmorgan
p136
tp137
Rp138
ag3
(g4
g5
Vsciopero-14-novembre
p139
tp140
Rp141
ag3
(g4
g5
Vrita-moriconi
p142
tp143
Rp144
ag3
(g4
g5
Vbuddy-valastro
p145
tp146
Rp147
ag3
(g4
g5
Vkim-kardashian
p148
tp149
Rp150
ag3
(g4
g5
Vnicole-minetti
p151
tp152
Rp153
ag3
(g4
g5
Vil-cittadino
p154
tp155
Rp156
ag3
(g4
g5
Vvittorio-de-sica
p157
tp158
Rp159
ag3
(g4
g5
Vmariano-di-vaio
p160
tp161
Rp162
ag3
(g4
g5
Vjobs-act
p163
tp164
Rp165
ag3
(g4
g5
Vanticipazioni-beautiful
p166
tp167
Rp168
ag3
(g4
g5
Vmazzarri
p169
tp170
Rp171
ag3
(g4
g5
Vandrea-baroni
p172
tp173
Rp174
ag3
(g4
g5
Vmarito-di-tina-cipollari
p175
tp176
Rp177
ag3
(g4
g5
Vthe-chronicles-of-riddick
p178
tp179
Rp180
ag3
(g4
g5
Vle-iene
p181
tp182
Rp183
ag3
(g4
g5
Vsonda-spaziale-philae
p184
tp185
Rp186
ag3
(g4
g5
Vhozier
p187
tp188
Rp189
asS'Spain'
p190
(lp191
g3
(g4
g5
Vfernando-llorente
p192
tp193
Rp194
ag3
(g4
g5
Vtop-chef
p195
tp196
Rp197
ag3
(g4
g5
Vadan-y-eva
p198
tp199
Rp200
ag3
(g4
g5
Vabengoa
p201
tp202
Rp203
ag3
(g4
g5
Vadan-y-eva-cuatro
p204
tp205
Rp206
ag3
(g4
g5
Vberta-vazquez
p207
tp208
Rp209
ag3
(g4
g5
Vfonsi-loaiza
p210
tp211
Rp212
ag3
(g4
g5
Vkim-kardashian
p213
tp214
Rp215
ag3
(g4
g5
Vsonda-philae
p216
tp217
Rp218
ag3
(g4
g5
Velsa-anka
p219
tp220
Rp221
ag3
(g4
g5
Vpaz-vega
p222
tp223
Rp224
ag3
(g4
g5
Vcuatro
p225
tp226
Rp227
ag3
(g4
g5
Vlana-del-rey
p228
tp229
Rp230
ag3
(g4
g5
Vanuncio-loteria-navidad-2014
p231
tp232
Rp233
ag3
(g4
g5
Vraul-gonzalez
p234
tp235
Rp236
ag3
(g4
g5
Vvelvet
p237
tp238
Rp239
ag3
(g4
g5
Vjesus-vazquez
p240
tp241
Rp242
ag3
(g4
g5
Vmarcos-exposito
p243
tp244
Rp245
ag3
(g4
g5
Vpedro-sanchez
p246
tp247
Rp248
ag3
(g4
g5
Vmasterchef
p249
tp250
Rp251
asS'UK'
p252
(lp253
g3
(g4
g5
Vchildren-in-need
p254
tp255
Rp256
ag3
(g4
g5
Vandy-murray
p257
tp258
Rp259
ag3
(g4
g5
Vneil-diamond
p260
tp261
Rp262
ag3
(g4
g5
Vroy-keane
p263
tp264
Rp265
ag3
(g4
g5
Vted-baker
p266
tp267
Rp268
ag3
(g4
g5
Veuromillions
p269
tp270
Rp271
ag3
(g4
g5
Vjulien-blanc
p272
tp273
Rp274
ag3
(g4
g5
Vsainsbury-s-christmas-advert-2014
p275
tp276
Rp277
ag3
(g4
g5
Vkim-kardashian
p278
tp279
Rp280
ag3
(g4
g5
Vali-astall
p281
tp282
Rp283
ag3
(g4
g5
Vphilae-lander
p284
tp285
Rp286
ag3
(g4
g5
Vrebekah-gibbs
p287
tp288
Rp289
ag3
(g4
g5
Vwarren-clarke
p290
tp291
Rp292
ag3
(g4
g5
Vcarol-ann-susi
p293
tp294
Rp295
ag3
(g4
g5
Vm25-traffic
p296
tp297
Rp298
ag3
(g4
g5
Vfoo-fighters
p299
tp300
Rp301
ag3
(g4
g5
Vtake-that-tickets
p302
tp303
Rp304
ag3
(g4
g5
Vjamie-dornan
p305
tp306
Rp307
ag3
(g4
g5
Vgillian-anderson
p308
tp309
Rp310
asS'India'
p311
(lp312
g3
(g4
g5
Vchildrens-day
p313
tp314
Rp315
ag3
(g4
g5
Vchildren-s-day
p316
tp317
Rp318
ag3
(g4
g5
Valibaba
p319
tp320
Rp321
ag3
(g4
g5
Vmamta-kulkarni
p322
tp323
Rp324
ag3
(g4
g5
Vinstagram
p325
tp326
Rp327
ag3
(g4
g5
Vkim-kardashian
p328
tp329
Rp330
ag3
(g4
g5
Vgas
p331
tp332
Rp333
ag3
(g4
g5
Vphilae-lander
p334
tp335
Rp336
ag3
(g4
g5
Vsofia-hayat
p337
tp338
Rp339
ag3
(g4
g5
Vravi-chopra
p340
tp341
Rp342
ag3
(g4
g5
Vamazon
p343
tp344
Rp345
ag3
(g4
g5
Vdoodle-4-google-india
p346
tp347
Rp348
ag3
(g4
g5
Vpilla-nuvvu-leni-jeevitham
p349
tp350
Rp351
ag3
(g4
g5
Vsnapdeal
p352
tp353
Rp354
ag3
(g4
g5
Vlive-streaming
p355
tp356
Rp357
ag3
(g4
g5
Varpita-khan
p358
tp359
Rp360
ag3
(g4
g5
Vkill-dil
p361
tp362
Rp363
ag3
(g4
g5
Vchildren-s-day-quotes
p364
tp365
Rp366
ag3
(g4
g5
Vjawaharlal-nehru
p367
tp368
Rp369
ag3
(g4
g5
Vrohit-sharma
p370
tp371
Rp372
asS'US'
p373
(lp374
g3
(g4
g5
Vthursday-night-football
p375
tp376
Rp377
ag3
(g4
g5
Vkim-kardashian-paper
p378
tp379
Rp380
ag3
(g4
g5
Vcricinfo
p381
tp382
Rp383
ag3
(g4
g5
Vsofia-vergara
p384
tp385
Rp386
ag3
(g4
g5
Vmexico-vs-netherlands
p387
tp388
Rp389
ag3
(g4
g5
Vfifty-shades-of-grey
p390
tp391
Rp392
ag3
(g4
g5
Vkim-kardashian
p393
tp394
Rp395
ag3
(g4
g5
Vfoxcatcher
p396
tp397
Rp398
ag3
(g4
g5
Vderrick-rose
p399
tp400
Rp401
ag3
(g4
g5
Vphilae-lander
p402
tp403
Rp404
ag3
(g4
g5
Vashley-picco
p405
tp406
Rp407
ag3
(g4
g5
Vsons-of-anarchy
p408
tp409
Rp410
ag3
(g4
g5
Vamerican-horror-story
p411
tp412
Rp413
ag3
(g4
g5
Vnasa
p414
tp415
Rp416
ag3
(g4
g5
Vcarol-ann-susi
p417
tp418
Rp419
ag3
(g4
g5
Val-roker
p420
tp421
Rp422
ag3
(g4
g5
Vdiplo
p423
tp424
Rp425
ag3
(g4
g5
Vgia-allemand
p426
tp427
Rp428
ag3
(g4
g5
Vwalmart-black-friday-2014
p429
tp430
Rp431
asS'France'
p432
(lp433
g3
(g4
g5
Vkim-kardashian-nue
p434
tp435
Rp436
ag3
(g4
g5
Vphilae-atterrisseur
p437
tp438
Rp439
ag3
(g4
g5
Vgrand-memorial
p440
tp441
Rp442
ag3
(g4
g5
Vpole-emploi
p443
tp444
Rp445
ag3
(g4
g5
Vrita-ora
p446
tp447
Rp448
ag3
(g4
g5
Vkim-kardashian
p449
tp450
Rp451
ag3
(g4
g5
Vchronopost
p452
tp453
Rp454
ag3
(g4
g5
Vtigre
p455
tp456
Rp457
ag3
(g4
g5
Vjournee-de-la-gentillesse
p458
tp459
Rp460
ag3
(g4
g5
Vla-vie-est-un-long-fleuve-tranquille
p461
tp462
Rp463
ag3
(g4
g5
Vapec
p464
tp465
Rp466
ag3
(g4
g5
Vcarol-ann-susi
p467
tp468
Rp469
ag3
(g4
g5
Vmiss-france-2015
p470
tp471
Rp472
ag3
(g4
g5
Vsandrine-bonnaire
p473
tp474
Rp475
ag3
(g4
g5
Vmarie-curie
p476
tp477
Rp478
ag3
(g4
g5
Vle-meilleur-patissier
p479
tp480
Rp481
ag3
(g4
g5
Vrising-star
p482
tp483
Rp484
ag3
(g4
g5
Vups
p485
tp486
Rp487
ag3
(g4
g5
Valexandre-grothendieck
p488
tp489
Rp490
ag3
(g4
g5
Vnotre-dame-de-lorette
p491
tp492
Rp493
as.