(dp0
S'Brazil'
p1
(lp2
ccopy_reg
_reconstructor
p3
(cdjango.utils.safestring
SafeText
p4
c__builtin__
unicode
p5
Vcarlinhos-brown
p6
tp7
Rp8
ag3
(g4
g5
Vpsn
p9
tp10
Rp11
ag3
(g4
g5
Vfeliz-natal
p12
tp13
Rp14
ag3
(g4
g5
Vlulu-santos
p15
tp16
Rp17
ag3
(g4
g5
Vdanilo-reis-e-rafael
p18
tp19
Rp20
ag3
(g4
g5
Vreveillon
p21
tp22
Rp23
ag3
(g4
g5
Vjared-leto
p24
tp25
Rp26
ag3
(g4
g5
Vfeliz-ano-novo
p27
tp28
Rp29
ag3
(g4
g5
Vnatal
p30
tp31
Rp32
ag3
(g4
g5
Vreveillon-2015
p33
tp34
Rp35
ag3
(g4
g5
Vstar-trek
p36
tp37
Rp38
ag3
(g4
g5
Vretrospectiva-2014
p39
tp40
Rp41
ag3
(g4
g5
Vmensagem-de-natal
p42
tp43
Rp44
ag3
(g4
g5
Vtsunami
p45
tp46
Rp47
ag3
(g4
g5
Vrick-e-renner
p48
tp49
Rp50
ag3
(g4
g5
Vsuco-detox
p51
tp52
Rp53
ag3
(g4
g5
V2015
p54
tp55
Rp56
ag3
(g4
g5
Vmensagem-de-ano-novo
p57
tp58
Rp59
ag3
(g4
g5
Vecovias
p60
tp61
Rp62
ag3
(g4
g5
Vmarcelo-muller
p63
tp64
Rp65
asS'Australia'
p66
(lp67
g3
(g4
g5
Vworld-news
p68
tp69
Rp70
ag3
(g4
g5
Vpsn
p71
tp72
Rp73
ag3
(g4
g5
Vsia
p74
tp75
Rp76
ag3
(g4
g5
Vtom-cruise
p77
tp78
Rp79
ag3
(g4
g5
Vmichael-jordan
p80
tp81
Rp82
ag3
(g4
g5
Vthe-rock
p83
tp84
Rp85
ag3
(g4
g5
Vbobby-shmurda
p86
tp87
Rp88
ag3
(g4
g5
Vvirat-kohli
p89
tp90
Rp91
ag3
(g4
g5
Vepl
p92
tp93
Rp94
ag3
(g4
g5
Veminem
p95
tp96
Rp97
ag3
(g4
g5
Vdustin-diamond
p98
tp99
Rp100
ag3
(g4
g5
Vtaken
p101
tp102
Rp103
ag3
(g4
g5
Vbrisbane-heat
p104
tp105
Rp106
ag3
(g4
g5
Vair-asia
p107
tp108
Rp109
ag3
(g4
g5
Vbbc-news
p110
tp111
Rp112
ag3
(g4
g5
Vdwayne-johnson
p113
tp114
Rp115
ag3
(g4
g5
Vcnn
p116
tp117
Rp118
ag3
(g4
g5
Vtaken-3
p119
tp120
Rp121
ag3
(g4
g5
Vsteve-smith
p122
tp123
Rp124
ag3
(g4
g5
Vthe-reader
p125
tp126
Rp127
asS'Italy'
p128
(lp129
g3
(g4
g5
Voymyakon
p130
tp131
Rp132
ag3
(g4
g5
Vmeteo-milano
p133
tp134
Rp135
ag3
(g4
g5
Vairasia
p136
tp137
Rp138
ag3
(g4
g5
Vgladiatori-di-roma
p139
tp140
Rp141
ag3
(g4
g5
Vali-agca
p142
tp143
Rp144
ag3
(g4
g5
Vcenone-di-capodanno
p145
tp146
Rp147
ag3
(g4
g5
Vcarlo-conti
p148
tp149
Rp150
ag3
(g4
g5
Vclassifica-serie-b
p151
tp152
Rp153
ag3
(g4
g5
Vtraghetto-in-fiamme
p154
tp155
Rp156
ag3
(g4
g5
Vneve
p157
tp158
Rp159
ag3
(g4
g5
Vgigi-d-alessio
p160
tp161
Rp162
ag3
(g4
g5
Vblocco-auto-roma
p163
tp164
Rp165
ag3
(g4
g5
Vrapunzel
p166
tp167
Rp168
ag3
(g4
g5
Vlassana-diarra
p169
tp170
Rp171
ag3
(g4
g5
Vrenzo-arbore
p172
tp173
Rp174
ag3
(g4
g5
Vbraccialetti-rossi
p175
tp176
Rp177
ag3
(g4
g5
Vmeteo-bologna
p178
tp179
Rp180
ag3
(g4
g5
Vla-banda-dei-babbi-natale
p181
tp182
Rp183
ag3
(g4
g5
Vboxing-day
p184
tp185
Rp186
ag3
(g4
g5
Vwebcam-milano
p187
tp188
Rp189
asS'Spain'
p190
(lp191
g3
(g4
g5
Vavion-desaparecido
p192
tp193
Rp194
ag3
(g4
g5
Vhepatitis-c
p195
tp196
Rp197
ag3
(g4
g5
Vuber
p198
tp199
Rp200
ag3
(g4
g5
Vharry-potter
p201
tp202
Rp203
ag3
(g4
g5
Vjohnny-depp
p204
tp205
Rp206
ag3
(g4
g5
Vdustin-diamond
p207
tp208
Rp209
ag3
(g4
g5
Vup
p210
tp211
Rp212
ag3
(g4
g5
Vpablo-echenique
p213
tp214
Rp215
ag3
(g4
g5
Vbertin-osborne
p216
tp217
Rp218
ag3
(g4
g5
Veminem
p219
tp220
Rp221
ag3
(g4
g5
Vemma-watson
p222
tp223
Rp224
ag3
(g4
g5
Vmango
p225
tp226
Rp227
ag3
(g4
g5
Vgala-inocente-inocente-2014
p228
tp229
Rp230
ag3
(g4
g5
Vthe-interview
p231
tp232
Rp233
ag3
(g4
g5
Vinocentadas
p234
tp235
Rp236
ag3
(g4
g5
Vmarta-hazas
p237
tp238
Rp239
ag3
(g4
g5
Vboxing-day
p240
tp241
Rp242
ag3
(g4
g5
Vdia-de-los-inocentes
p243
tp244
Rp245
ag3
(g4
g5
Vel-pacto
p246
tp247
Rp248
asS'UK'
p249
(lp250
g3
(g4
g5
Vdavid-ryall
p251
tp252
Rp253
ag3
(g4
g5
Vbt-sport
p254
tp255
Rp256
ag3
(g4
g5
Vdebenhams
p257
tp258
Rp259
ag3
(g4
g5
Vboxing-day-sales
p260
tp261
Rp262
ag3
(g4
g5
Vzara
p263
tp264
Rp265
ag3
(g4
g5
Vmissing-plane
p266
tp267
Rp268
ag3
(g4
g5
Veuromillions
p269
tp270
Rp271
ag3
(g4
g5
Vbobby-shmurda
p272
tp273
Rp274
ag3
(g4
g5
Vhunger-games
p275
tp276
Rp277
ag3
(g4
g5
Vnext-sale
p278
tp279
Rp280
ag3
(g4
g5
Veminem
p281
tp282
Rp283
ag3
(g4
g5
Vdustin-diamond
p284
tp285
Rp286
ag3
(g4
g5
Vgame
p287
tp288
Rp289
ag3
(g4
g5
Vsky-sports
p290
tp291
Rp292
ag3
(g4
g5
Vjennifer-lawrence
p293
tp294
Rp295
ag3
(g4
g5
Vpatagonia
p296
tp297
Rp298
ag3
(g4
g5
Vdarcy-oake
p299
tp300
Rp301
ag3
(g4
g5
Vbruce-forsyth
p302
tp303
Rp304
ag3
(g4
g5
Vnext
p305
tp306
Rp307
ag3
(g4
g5
Vbbc-weather
p308
tp309
Rp310
asS'India'
p311
(lp312
g3
(g4
g5
Vatal-bihari-vajpayee
p313
tp314
Rp315
ag3
(g4
g5
Vchristmas-wishes
p316
tp317
Rp318
ag3
(g4
g5
Vchristmas-images
p319
tp320
Rp321
ag3
(g4
g5
Vchinnadana-neekosam
p322
tp323
Rp324
ag3
(g4
g5
Vsanta-claus
p325
tp326
Rp327
ag3
(g4
g5
Vind-vs-aus-3rd-test-live-score
p328
tp329
Rp330
ag3
(g4
g5
Vvirat-kohli
p331
tp332
Rp333
ag3
(g4
g5
Vcat-2014
p334
tp335
Rp336
ag3
(g4
g5
Vepl
p337
tp338
Rp339
ag3
(g4
g5
Vbomb-blast-in-bangalore
p340
tp341
Rp342
ag3
(g4
g5
Vugly
p343
tp344
Rp345
ag3
(g4
g5
Vsalman-khan
p346
tp347
Rp348
ag3
(g4
g5
Vair-asia
p349
tp350
Rp351
ag3
(g4
g5
Vmukunda-review
p352
tp353
Rp354
ag3
(g4
g5
Vthe-interview
p355
tp356
Rp357
ag3
(g4
g5
Vchristmas-pics
p358
tp359
Rp360
ag3
(g4
g5
Vindia-vs-australia-3rd-test
p361
tp362
Rp363
ag3
(g4
g5
Vchristmas-tree
p364
tp365
Rp366
ag3
(g4
g5
Vchristmas
p367
tp368
Rp369
ag3
(g4
g5
Vboxing-day
p370
tp371
Rp372
asS'US'
p373
(lp374
g3
(g4
g5
Vmcdonalds
p375
tp376
Rp377
ag3
(g4
g5
Vjim-harbaugh
p378
tp379
Rp380
ag3
(g4
g5
Vharry-potter
p381
tp382
Rp383
ag3
(g4
g5
Vamerican-sniper
p384
tp385
Rp386
ag3
(g4
g5
Vdustin-diamond
p387
tp388
Rp389
ag3
(g4
g5
Vbobby-shmurda
p390
tp391
Rp392
ag3
(g4
g5
Vis-psn-still-down
p393
tp394
Rp395
ag3
(g4
g5
Vnebraska-football
p396
tp397
Rp398
ag3
(g4
g5
Veminem
p399
tp400
Rp401
ag3
(g4
g5
Vstores-open-on-christmas
p402
tp403
Rp404
ag3
(g4
g5
Vair-asia
p405
tp406
Rp407
ag3
(g4
g5
Vpsn-status
p408
tp409
Rp410
ag3
(g4
g5
Vboxing-day
p411
tp412
Rp413
ag3
(g4
g5
Vrestaurants-open-on-christmas
p414
tp415
Rp416
ag3
(g4
g5
Vpenn-state-football
p417
tp418
Rp419
ag3
(g4
g5
Vinto-the-woods
p420
tp421
Rp422
ag3
(g4
g5
Vmovies
p423
tp424
Rp425
ag3
(g4
g5
Vlebron-james
p426
tp427
Rp428
ag3
(g4
g5
Vunbroken
p429
tp430
Rp431
ag3
(g4
g5
Vdivergent
p432
tp433
Rp434
asS'France'
p435
(lp436
g3
(g4
g5
Vapostasie
p437
tp438
Rp439
ag3
(g4
g5
Vmarianne-james
p440
tp441
Rp442
ag3
(g4
g5
Vsoldes-hiver-2015
p443
tp444
Rp445
ag3
(g4
g5
Vmamie-loto
p446
tp447
Rp448
ag3
(g4
g5
Vpsn-ps4
p449
tp450
Rp451
ag3
(g4
g5
Vangelina-jolie
p452
tp453
Rp454
ag3
(g4
g5
Vetat-des-routes
p455
tp456
Rp457
ag3
(g4
g5
Veminem
p458
tp459
Rp460
ag3
(g4
g5
Vvanessa-paradis
p461
tp462
Rp463
ag3
(g4
g5
Vtsunami
p464
tp465
Rp466
ag3
(g4
g5
Vair-asia
p467
tp468
Rp469
ag3
(g4
g5
Vtsunami-2004
p470
tp471
Rp472
ag3
(g4
g5
Vnos-chers-voisins
p473
tp474
Rp475
ag3
(g4
g5
Vgeorge-clooney
p476
tp477
Rp478
ag3
(g4
g5
Vpsn
p479
tp480
Rp481
ag3
(g4
g5
Vmeteo-france
p482
tp483
Rp484
ag3
(g4
g5
Vle-monde-de-narnia
p485
tp486
Rp487
ag3
(g4
g5
Vnanny-mcphee
p488
tp489
Rp490
ag3
(g4
g5
Vboxing-day
p491
tp492
Rp493
ag3
(g4
g5
Vchristian-clavier
p494
tp495
Rp496
as.