(dp0
S'Brazil'
p1
(lp2
ccopy_reg
_reconstructor
p3
(cdjango.utils.safestring
SafeText
p4
c__builtin__
unicode
p5
Vjoe-cocker
p6
tp7
Rp8
ag3
(g4
g5
Vcid-gomes
p9
tp10
Rp11
ag3
(g4
g5
Vsophie-charlotte
p12
tp13
Rp14
ag3
(g4
g5
Vtap
p15
tp16
Rp17
ag3
(g4
g5
Vfeliz-natal
p18
tp19
Rp20
ag3
(g4
g5
Vcamila-karam
p21
tp22
Rp23
ag3
(g4
g5
Vroberto-carlos
p24
tp25
Rp26
ag3
(g4
g5
Vnascimento-de-jesus
p27
tp28
Rp29
ag3
(g4
g5
Vimagens-de-natal
p30
tp31
Rp32
ag3
(g4
g5
Vguarda-compartilhada
p33
tp34
Rp35
ag3
(g4
g5
Ventao-e-natal
p36
tp37
Rp38
ag3
(g4
g5
Vnatal
p39
tp40
Rp41
ag3
(g4
g5
Vboas-festas
p42
tp43
Rp44
ag3
(g4
g5
Valexandre-nero
p45
tp46
Rp47
ag3
(g4
g5
Vlouis-tomlinson
p48
tp49
Rp50
ag3
(g4
g5
Vconcurso-banco-do-brasil
p51
tp52
Rp53
ag3
(g4
g5
Vuem
p54
tp55
Rp56
ag3
(g4
g5
Venem
p57
tp58
Rp59
ag3
(g4
g5
Vgraca-foster
p60
tp61
Rp62
ag3
(g4
g5
Vmensagem-de-feliz-natal
p63
tp64
Rp65
asS'Australia'
p66
(lp67
g3
(g4
g5
Vjoe-cocker
p68
tp69
Rp70
ag3
(g4
g5
Veggnog-recipe
p71
tp72
Rp73
ag3
(g4
g5
Vcyclone-tracy
p74
tp75
Rp76
ag3
(g4
g5
Vcarols-by-candlelight-melbourne
p77
tp78
Rp79
ag3
(g4
g5
Vthe-drop
p80
tp81
Rp82
ag3
(g4
g5
Vhelena-bonham-carter
p83
tp84
Rp85
ag3
(g4
g5
Ventourage
p86
tp87
Rp88
ag3
(g4
g5
Vcameron-diaz
p89
tp90
Rp91
ag3
(g4
g5
Vcarols-by-candlelight
p92
tp93
Rp94
ag3
(g4
g5
Vtwas-the-night-before-christmas
p95
tp96
Rp97
ag3
(g4
g5
Vmerry-christmas
p98
tp99
Rp100
ag3
(g4
g5
Vchristmas-wishes
p101
tp102
Rp103
ag3
(g4
g5
Vfeliz-navidad
p104
tp105
Rp106
ag3
(g4
g5
Vtis-the-season
p107
tp108
Rp109
ag3
(g4
g5
Vpriest
p110
tp111
Rp112
ag3
(g4
g5
Vchristmas-eve
p113
tp114
Rp115
ag3
(g4
g5
Vamy-adams
p116
tp117
Rp118
ag3
(g4
g5
Vchristmas-carols
p119
tp120
Rp121
ag3
(g4
g5
Vsanta-tracker
p122
tp123
Rp124
ag3
(g4
g5
Vchristmas-message
p125
tp126
Rp127
asS'Italy'
p128
(lp129
g3
(g4
g5
Vjoe-cocker
p130
tp131
Rp132
ag3
(g4
g5
Vbuone-feste
p133
tp134
Rp135
ag3
(g4
g5
Vtim-burton
p136
tp137
Rp138
ag3
(g4
g5
Vterremoto
p139
tp140
Rp141
ag3
(g4
g5
Vbuon-natale
p142
tp143
Rp144
ag3
(g4
g5
Vsara-tommasi
p145
tp146
Rp147
ag3
(g4
g5
Vlouis-tomlinson
p148
tp149
Rp150
ag3
(g4
g5
Vmiracolo-nella-34-strada
p151
tp152
Rp153
ag3
(g4
g5
Vclassifica-serie-b
p154
tp155
Rp156
ag3
(g4
g5
Vvigilia-di-natale
p157
tp158
Rp159
ag3
(g4
g5
Vjuve-napoli
p160
tp161
Rp162
ag3
(g4
g5
Vluca-toni
p163
tp164
Rp165
ag3
(g4
g5
Vbuona-vigilia-di-natale
p166
tp167
Rp168
ag3
(g4
g5
Vfast-and-furious
p169
tp170
Rp171
ag3
(g4
g5
Vgrinch
p172
tp173
Rp174
ag3
(g4
g5
Vbologna
p175
tp176
Rp177
ag3
(g4
g5
Vestrazioni-del-lotto-di-oggi
p178
tp179
Rp180
ag3
(g4
g5
Vpodolski
p181
tp182
Rp183
ag3
(g4
g5
Vil-piu-grande-pasticcere
p184
tp185
Rp186
ag3
(g4
g5
Vauguri-di-natale
p187
tp188
Rp189
asS'Spain'
p190
(lp191
g3
(g4
g5
Vfelices-fiestas
p192
tp193
Rp194
ag3
(g4
g5
Vel-concierto
p195
tp196
Rp197
ag3
(g4
g5
Vel-ano-de-facebook
p198
tp199
Rp200
ag3
(g4
g5
Vabraham-mateo
p201
tp202
Rp203
ag3
(g4
g5
Vtadeo-jones
p204
tp205
Rp206
ag3
(g4
g5
Vvillancicos
p207
tp208
Rp209
ag3
(g4
g5
Vloterianacional
p210
tp211
Rp212
ag3
(g4
g5
Vpablo-echenique
p213
tp214
Rp215
ag3
(g4
g5
Vmasterchef
p216
tp217
Rp218
ag3
(g4
g5
Vjordan-carver
p219
tp220
Rp221
ag3
(g4
g5
Vhelena-bonham-carter
p222
tp223
Rp224
ag3
(g4
g5
Vdinahosting
p225
tp226
Rp227
ag3
(g4
g5
Vana-raisa
p228
tp229
Rp230
ag3
(g4
g5
Vsonia-castedo
p231
tp232
Rp233
ag3
(g4
g5
Vfernando-torres
p234
tp235
Rp236
ag3
(g4
g5
Vlouis-tomlinson
p237
tp238
Rp239
ag3
(g4
g5
Vfelicitaciones-de-navidad
p240
tp241
Rp242
ag3
(g4
g5
Vnochebuena
p243
tp244
Rp245
ag3
(g4
g5
Viggy-azalea
p246
tp247
Rp248
ag3
(g4
g5
Vesperanza-aguirre
p249
tp250
Rp251
asS'UK'
p252
(lp253
g3
(g4
g5
Vjeremy-lloyd
p254
tp255
Rp256
ag3
(g4
g5
Vjoe-cocker
p257
tp258
Rp259
ag3
(g4
g5
Viss-tracker
p260
tp261
Rp262
ag3
(g4
g5
Vstv-news
p263
tp264
Rp265
ag3
(g4
g5
Vglasgow
p266
tp267
Rp268
ag3
(g4
g5
Vtesco-opening-times
p269
tp270
Rp271
ag3
(g4
g5
Vclarke-carlisle
p272
tp273
Rp274
ag3
(g4
g5
Vnext-sale
p275
tp276
Rp277
ag3
(g4
g5
Vasda-opening-times
p278
tp279
Rp280
ag3
(g4
g5
Vthe-grinch
p281
tp282
Rp283
ag3
(g4
g5
Vhelena-bonham-carter
p284
tp285
Rp286
ag3
(g4
g5
Vtis-the-season
p287
tp288
Rp289
ag3
(g4
g5
Vken-dodd
p290
tp291
Rp292
ag3
(g4
g5
Vchristmas-eve
p293
tp294
Rp295
ag3
(g4
g5
Vinternational-space-station
p296
tp297
Rp298
ag3
(g4
g5
Vdaily-record
p299
tp300
Rp301
ag3
(g4
g5
Vmerry-christmas
p302
tp303
Rp304
ag3
(g4
g5
Vchelsea
p305
tp306
Rp307
ag3
(g4
g5
Vsanta-tracker
p308
tp309
Rp310
asS'India'
p311
(lp312
g3
(g4
g5
Vatal-bihari-vajpayee
p313
tp314
Rp315
ag3
(g4
g5
Velection-result
p316
tp317
Rp318
ag3
(g4
g5
Vx-mas
p319
tp320
Rp321
ag3
(g4
g5
Vjharkhand-election-result-2014
p322
tp323
Rp324
ag3
(g4
g5
Vzee-news
p325
tp326
Rp327
ag3
(g4
g5
Vcat-2014-results
p328
tp329
Rp330
ag3
(g4
g5
Vchristmas-images
p331
tp332
Rp333
ag3
(g4
g5
Vhappy-christmas
p334
tp335
Rp336
ag3
(g4
g5
Vxmas
p337
tp338
Rp339
ag3
(g4
g5
Vchristmas-wishes
p340
tp341
Rp342
ag3
(g4
g5
Vtis-the-season
p343
tp344
Rp345
ag3
(g4
g5
Vmallika-sherawat
p346
tp347
Rp348
ag3
(g4
g5
Vchristmas-greetings
p349
tp350
Rp351
ag3
(g4
g5
Vsanta
p352
tp353
Rp354
ag3
(g4
g5
Vk-balachander
p355
tp356
Rp357
ag3
(g4
g5
Vmerry-christmas
p358
tp359
Rp360
ag3
(g4
g5
Vchristmas
p361
tp362
Rp363
ag3
(g4
g5
Vgo-air
p364
tp365
Rp366
asS'US'
p367
(lp368
g3
(g4
g5
Vkeurig-recall
p369
tp370
Rp371
ag3
(g4
g5
Vjoe-cocker
p372
tp373
Rp374
ag3
(g4
g5
Vbyu-football
p375
tp376
Rp377
ag3
(g4
g5
Vjosh-smith
p378
tp379
Rp380
ag3
(g4
g5
Vdenver-broncos
p381
tp382
Rp383
ag3
(g4
g5
Vfeliz-navidad
p384
tp385
Rp386
ag3
(g4
g5
Vfestivus
p387
tp388
Rp389
ag3
(g4
g5
Vamy-adams
p390
tp391
Rp392
ag3
(g4
g5
Vreese-witherspoon
p393
tp394
Rp395
ag3
(g4
g5
Vantonio-martin
p396
tp397
Rp398
ag3
(g4
g5
Vmerry-christmas
p399
tp400
Rp401
ag3
(g4
g5
Vhelena-bonham-carter
p402
tp403
Rp404
ag3
(g4
g5
Vtis-the-season
p405
tp406
Rp407
ag3
(g4
g5
Vchristmas-eve
p408
tp409
Rp410
ag3
(g4
g5
Ventourage-movie-trailer
p411
tp412
Rp413
ag3
(g4
g5
Vmarshawn-lynch
p414
tp415
Rp416
ag3
(g4
g5
Vrussell-wilson
p417
tp418
Rp419
ag3
(g4
g5
Vsanta-tracker
p420
tp421
Rp422
ag3
(g4
g5
Vthe-interview
p423
tp424
Rp425
ag3
(g4
g5
Vnorth-korea
p426
tp427
Rp428
asS'France'
p429
(lp430
g3
(g4
g5
Vjoe-cocker
p431
tp432
Rp433
ag3
(g4
g5
Vdjango-unchained
p434
tp435
Rp436
ag3
(g4
g5
Vlacazette
p437
tp438
Rp439
ag3
(g4
g5
Vnoel
p440
tp441
Rp442
ag3
(g4
g5
Vjoyeux-noel
p443
tp444
Rp445
ag3
(g4
g5
Vben-hur
p446
tp447
Rp448
ag3
(g4
g5
Vjacques-chancel
p449
tp450
Rp451
ag3
(g4
g5
Vtunisie
p452
tp453
Rp454
ag3
(g4
g5
Vbordeaux-lyon
p455
tp456
Rp457
ag3
(g4
g5
Vmerry-christmas
p458
tp459
Rp460
ag3
(g4
g5
Vglasgow
p461
tp462
Rp463
ag3
(g4
g5
Vrebelle
p464
tp465
Rp466
ag3
(g4
g5
Vsaint-pierre-et-miquelon
p467
tp468
Rp469
ag3
(g4
g5
Vles-schtroumpfs
p470
tp471
Rp472
ag3
(g4
g5
Vchanson-de-noel
p473
tp474
Rp475
ag3
(g4
g5
Vle-bien-public
p476
tp477
Rp478
ag3
(g4
g5
Vsolstice-d-hiver
p479
tp480
Rp481
ag3
(g4
g5
Vjoyeuses-fetes
p482
tp483
Rp484
ag3
(g4
g5
Vphilippe-bouvard
p485
tp486
Rp487
ag3
(g4
g5
Vnantes
p488
tp489
Rp490
as.