(dp0
S'Brazil'
p1
(lp2
ccopy_reg
_reconstructor
p3
(cdjango.utils.safestring
SafeText
p4
c__builtin__
unicode
p5
Vtim
p6
tp7
Rp8
ag3
(g4
g5
Vplayboy
p9
tp10
Rp11
ag3
(g4
g5
Vsantos-fc
p12
tp13
Rp14
ag3
(g4
g5
Vdia-das-criancas
p15
tp16
Rp17
ag3
(g4
g5
Vpalmeiras
p18
tp19
Rp20
ag3
(g4
g5
Vthe-walking-dead
p21
tp22
Rp23
ag3
(g4
g5
Vnossa-senhora-aparecida
p24
tp25
Rp26
ag3
(g4
g5
Valexandre-nero
p27
tp28
Rp29
ag3
(g4
g5
Vfeliz-dia-das-criancas
p30
tp31
Rp32
ag3
(g4
g5
Vtele-sena
p33
tp34
Rp35
ag3
(g4
g5
Var-condicionado
p36
tp37
Rp38
ag3
(g4
g5
Vpenelope-cruz
p39
tp40
Rp41
ag3
(g4
g5
Vdia-do-fisioterapeuta
p42
tp43
Rp44
ag3
(g4
g5
Vibope
p45
tp46
Rp47
ag3
(g4
g5
Vmensagem-dia-das-criancas
p48
tp49
Rp50
ag3
(g4
g5
Vflamengo
p51
tp52
Rp53
ag3
(g4
g5
Vdia-do-professor
p54
tp55
Rp56
ag3
(g4
g5
Vvox-populi
p57
tp58
Rp59
ag3
(g4
g5
Vhannah-arendt
p60
tp61
Rp62
ag3
(g4
g5
Vdani-bolina
p63
tp64
Rp65
asS'Australia'
p66
(lp67
g3
(g4
g5
Vbathurst-2014
p68
tp69
Rp70
ag3
(g4
g5
Vthe-block-results
p71
tp72
Rp73
ag3
(g4
g5
Vsnappening
p74
tp75
Rp76
ag3
(g4
g5
Vthe-walking-dead
p77
tp78
Rp79
ag3
(g4
g5
Vnfl
p80
tp81
Rp82
ag3
(g4
g5
Vhalloween
p83
tp84
Rp85
ag3
(g4
g5
Vgotham
p86
tp87
Rp88
ag3
(g4
g5
V5-seconds-of-summer
p89
tp90
Rp91
ag3
(g4
g5
Vdarren-jolly
p92
tp93
Rp94
ag3
(g4
g5
Vairbnb
p95
tp96
Rp97
ag3
(g4
g5
Vreigan-derry
p98
tp99
Rp100
ag3
(g4
g5
Vamerican-horror-story
p101
tp102
Rp103
ag3
(g4
g5
Vweather-sydney
p104
tp105
Rp106
ag3
(g4
g5
Voscar-pistorius
p107
tp108
Rp109
ag3
(g4
g5
V5sos
p110
tp111
Rp112
ag3
(g4
g5
Vshirtfront
p113
tp114
Rp115
ag3
(g4
g5
Vthe-script
p116
tp117
Rp118
ag3
(g4
g5
Viggy-azalea
p119
tp120
Rp121
ag3
(g4
g5
Vben-flower
p122
tp123
Rp124
ag3
(g4
g5
Vthe-block
p125
tp126
Rp127
asS'Italy'
p128
(lp129
g3
(g4
g5
Vfca
p130
tp131
Rp132
ag3
(g4
g5
Vla-papessa
p133
tp134
Rp135
ag3
(g4
g5
Vautostrade
p136
tp137
Rp138
ag3
(g4
g5
Vprotezione-civile
p139
tp140
Rp141
ag3
(g4
g5
Vvanessa-paradis
p142
tp143
Rp144
ag3
(g4
g5
Vcomune-di-genova
p145
tp146
Rp147
ag3
(g4
g5
Vthe-walking-dead
p148
tp149
Rp150
ag3
(g4
g5
Varpav
p151
tp152
Rp153
ag3
(g4
g5
Vregina-vittoria
p154
tp155
Rp156
ag3
(g4
g5
Valessio-lo-passo
p157
tp158
Rp159
ag3
(g4
g5
Vmalta
p160
tp161
Rp162
ag3
(g4
g5
Vu2
p163
tp164
Rp165
ag3
(g4
g5
Varpal
p166
tp167
Rp168
ag3
(g4
g5
Vpenelope-cruz
p169
tp170
Rp171
ag3
(g4
g5
Velezioni-provinciali-2014
p172
tp173
Rp174
ag3
(g4
g5
Vparma
p175
tp176
Rp177
ag3
(g4
g5
Vluxottica
p178
tp179
Rp180
ag3
(g4
g5
Vugo-russo
p181
tp182
Rp183
ag3
(g4
g5
Valex-zanardi
p184
tp185
Rp186
ag3
(g4
g5
Vhannah-arendt
p187
tp188
Rp189
asS'Spain'
p190
(lp191
g3
(g4
g5
Vno-bra-day
p192
tp193
Rp194
ag3
(g4
g5
Vluxemburgo
p195
tp196
Rp197
ag3
(g4
g5
Vla-que-se-avecina-temporada-8
p198
tp199
Rp200
ag3
(g4
g5
Vben-flower
p201
tp202
Rp203
ag3
(g4
g5
Vbernat
p204
tp205
Rp206
ag3
(g4
g5
Vthe-walking-dead
p207
tp208
Rp209
ag3
(g4
g5
Vginebra
p210
tp211
Rp212
ag3
(g4
g5
Vkylie-minogue
p213
tp214
Rp215
ag3
(g4
g5
Vjose-antonio-marina
p216
tp217
Rp218
ag3
(g4
g5
Volvido-hormigos
p219
tp220
Rp221
ag3
(g4
g5
Vceleste-paz
p222
tp223
Rp224
ag3
(g4
g5
Vpenelope-cruz
p225
tp226
Rp227
ag3
(g4
g5
Vla-que-se-avecina
p228
tp229
Rp230
ag3
(g4
g5
Vjean-tirole
p231
tp232
Rp233
ag3
(g4
g5
Vtve
p234
tp235
Rp236
ag3
(g4
g5
Vjuan-iranzo
p237
tp238
Rp239
ag3
(g4
g5
Vtorrente-4
p240
tp241
Rp242
ag3
(g4
g5
Valberto-isla
p243
tp244
Rp245
ag3
(g4
g5
Vrocio-flores-carrasco
p246
tp247
Rp248
ag3
(g4
g5
Vhannah-arendt
p249
tp250
Rp251
asS'UK'
p252
(lp253
g3
(g4
g5
Vjudy-finnigan
p254
tp255
Rp256
ag3
(g4
g5
Vandrea-faustini
p257
tp258
Rp259
ag3
(g4
g5
Vsnapchat-leaked-photos
p260
tp261
Rp262
ag3
(g4
g5
Vsimon-hirst
p263
tp264
Rp265
ag3
(g4
g5
Vestonia
p266
tp267
Rp268
ag3
(g4
g5
Vtaylor-swift
p269
tp270
Rp271
ag3
(g4
g5
Vthe-walking-dead
p272
tp273
Rp274
ag3
(g4
g5
Vebola-uk
p275
tp276
Rp277
ag3
(g4
g5
Vguy-martin
p278
tp279
Rp280
ag3
(g4
g5
Vnoel-gallagher
p281
tp282
Rp283
ag3
(g4
g5
Voscar-pistorius
p284
tp285
Rp286
ag3
(g4
g5
Vmark-bell
p287
tp288
Rp289
ag3
(g4
g5
Vgotham
p290
tp291
Rp292
ag3
(g4
g5
Vitv
p293
tp294
Rp295
ag3
(g4
g5
Vjimmy-tarbuck
p296
tp297
Rp298
ag3
(g4
g5
Vwalking-dead
p299
tp300
Rp301
ag3
(g4
g5
Vpharrell-williams
p302
tp303
Rp304
ag3
(g4
g5
Vmade-in-chelsea
p305
tp306
Rp307
ag3
(g4
g5
Vbob-the-builder
p308
tp309
Rp310
ag3
(g4
g5
Vthe-evil-within
p311
tp312
Rp313
asS'India'
p314
(lp315
g3
(g4
g5
Vhudhud
p316
tp317
Rp318
ag3
(g4
g5
Vrk-narayan
p319
tp320
Rp321
ag3
(g4
g5
Vamazon-india
p322
tp323
Rp324
ag3
(g4
g5
Vcricinfo
p325
tp326
Rp327
ag3
(g4
g5
Vcricket
p328
tp329
Rp330
ag3
(g4
g5
Vkarva-chauth
p331
tp332
Rp333
ag3
(g4
g5
Vhtc-desire-eye
p334
tp335
Rp336
ag3
(g4
g5
Vamazon
p337
tp338
Rp339
ag3
(g4
g5
Vlive-cricket-score
p340
tp341
Rp342
ag3
(g4
g5
Vindian-super-league
p343
tp344
Rp345
ag3
(g4
g5
Visl
p346
tp347
Rp348
ag3
(g4
g5
Vgate
p349
tp350
Rp351
ag3
(g4
g5
Vkailash-satyarthi
p352
tp353
Rp354
ag3
(g4
g5
Vannabelle
p355
tp356
Rp357
ag3
(g4
g5
Vkarwa-chauth
p358
tp359
Rp360
ag3
(g4
g5
Vrekha
p361
tp362
Rp363
ag3
(g4
g5
Vamitabh-bachchan
p364
tp365
Rp366
asS'US'
p367
(lp368
g3
(g4
g5
Vbethany-mota
p369
tp370
Rp371
ag3
(g4
g5
Vnina-pham
p372
tp373
Rp374
ag3
(g4
g5
Vchicago-marathon
p375
tp376
Rp377
ag3
(g4
g5
Vvikings
p378
tp379
Rp380
ag3
(g4
g5
Vraiders
p381
tp382
Rp383
ag3
(g4
g5
Vwalking-dead
p384
tp385
Rp386
ag3
(g4
g5
Vbears
p387
tp388
Rp389
ag3
(g4
g5
Vgreen-bay-packers
p390
tp391
Rp392
ag3
(g4
g5
Vjane-the-virgin
p393
tp394
Rp395
ag3
(g4
g5
V49ers
p396
tp397
Rp398
ag3
(g4
g5
Vjohn-luke-robertson
p399
tp400
Rp401
ag3
(g4
g5
Vbengals
p402
tp403
Rp404
ag3
(g4
g5
Veagles-schedule
p405
tp406
Rp407
ag3
(g4
g5
Vpenelope-cruz
p408
tp409
Rp410
ag3
(g4
g5
Vvictor-cruz
p411
tp412
Rp413
ag3
(g4
g5
Vpatriots
p414
tp415
Rp416
ag3
(g4
g5
Vredskins
p417
tp418
Rp419
ag3
(g4
g5
Vcolumbus-day
p420
tp421
Rp422
ag3
(g4
g5
Vkevin-durant
p423
tp424
Rp425
ag3
(g4
g5
Vdallas-cowboys
p426
tp427
Rp428
asS'France'
p429
(lp430
g3
(g4
g5
Vinglourious-basterds
p431
tp432
Rp433
ag3
(g4
g5
V20-km-de-paris
p434
tp435
Rp436
ag3
(g4
g5
Vmireille-mathieu
p437
tp438
Rp439
ag3
(g4
g5
Vthe-dark-knight
p440
tp441
Rp442
ag3
(g4
g5
Vbatman
p443
tp444
Rp445
ag3
(g4
g5
Vronaldo
p446
tp447
Rp448
ag3
(g4
g5
Vdanse-avec-les-stars
p449
tp450
Rp451
ag3
(g4
g5
Vtout-rennes-court
p452
tp453
Rp454
ag3
(g4
g5
Vsnapchat
p455
tp456
Rp457
ag3
(g4
g5
Vannabelle
p458
tp459
Rp460
ag3
(g4
g5
Vcristiano-ronaldo
p461
tp462
Rp463
ag3
(g4
g5
Vthe-walking-dead-saison-5
p464
tp465
Rp466
ag3
(g4
g5
Vcharlotte-gainsbourg
p467
tp468
Rp469
ag3
(g4
g5
Vfrance-portugal
p470
tp471
Rp472
ag3
(g4
g5
Vemmanuel-macron
p473
tp474
Rp475
ag3
(g4
g5
Vjean-tirole
p476
tp477
Rp478
ag3
(g4
g5
Vfederer
p479
tp480
Rp481
ag3
(g4
g5
Velsa-zylberstein
p482
tp483
Rp484
ag3
(g4
g5
V20km-de-paris
p485
tp486
Rp487
as.