(dp0
S'Brazil'
p1
(lp2
ccopy_reg
_reconstructor
p3
(cdjango.utils.safestring
SafeText
p4
c__builtin__
unicode
p5
Vcool-for-the-summer
p6
tp7
Rp8
ag3
(g4
g5
Vsteve-jobs
p9
tp10
Rp11
ag3
(g4
g5
Vparque-da-monica
p12
tp13
Rp14
ag3
(g4
g5
Vfifth-harmony
p15
tp16
Rp17
ag3
(g4
g5
Vjaguar
p18
tp19
Rp20
ag3
(g4
g5
Vjulho
p21
tp22
Rp23
ag3
(g4
g5
Vrobinho
p24
tp25
Rp26
ag3
(g4
g5
Vgrafite
p27
tp28
Rp29
ag3
(g4
g5
Vporsche
p30
tp31
Rp32
ag3
(g4
g5
Vscarlett-johansson
p33
tp34
Rp35
ag3
(g4
g5
Vxiaomi
p36
tp37
Rp38
ag3
(g4
g5
Vflash
p39
tp40
Rp41
ag3
(g4
g5
Vsenado
p42
tp43
Rp44
ag3
(g4
g5
Vmaioridade-penal
p45
tp46
Rp47
ag3
(g4
g5
Vapple-music
p48
tp49
Rp50
ag3
(g4
g5
Vnota-legal
p51
tp52
Rp53
ag3
(g4
g5
Vcarol-portaluppi
p54
tp55
Rp56
ag3
(g4
g5
Vhoje-em-dia
p57
tp58
Rp59
ag3
(g4
g5
Vjennifer-garner
p60
tp61
Rp62
ag3
(g4
g5
Vbugatti
p63
tp64
Rp65
asS'Australia'
p66
(lp67
g3
(g4
g5
Vleap-second
p68
tp69
Rp70
ag3
(g4
g5
Vben-affleck
p71
tp72
Rp73
ag3
(g4
g5
Vasx
p74
tp75
Rp76
ag3
(g4
g5
Vjackson-vroman
p77
tp78
Rp79
ag3
(g4
g5
Vtax-return
p80
tp81
Rp82
ag3
(g4
g5
Vato
p83
tp84
Rp85
ag3
(g4
g5
Vcreed
p86
tp87
Rp88
ag3
(g4
g5
Vej-whitten-game
p89
tp90
Rp91
ag3
(g4
g5
Vtax
p92
tp93
Rp94
ag3
(g4
g5
Vcanada-day
p95
tp96
Rp97
ag3
(g4
g5
Vzoo
p98
tp99
Rp100
ag3
(g4
g5
Veugenie-bouchard
p101
tp102
Rp103
ag3
(g4
g5
Vravenhall-prison
p104
tp105
Rp106
ag3
(g4
g5
Vavonsleigh
p107
tp108
Rp109
ag3
(g4
g5
Vargentina-vs-paraguay
p110
tp111
Rp112
ag3
(g4
g5
Vlyme-disease
p113
tp114
Rp115
ag3
(g4
g5
Vmarc-jacobs
p116
tp117
Rp118
ag3
(g4
g5
Vsiri-0-divided-by-0
p119
tp120
Rp121
ag3
(g4
g5
Vtyga
p122
tp123
Rp124
ag3
(g4
g5
Vapple-music
p125
tp126
Rp127
asS'Italy'
p128
(lp129
g3
(g4
g5
Vfabio-borriello
p130
tp131
Rp132
ag3
(g4
g5
Vbuoni-pasto
p133
tp134
Rp135
ag3
(g4
g5
Vmisty-copeland
p136
tp137
Rp138
ag3
(g4
g5
Vflegetonte
p139
tp140
Rp141
ag3
(g4
g5
Vargentina-paraguay
p142
tp143
Rp144
ag3
(g4
g5
Vgiove-e-venere
p145
tp146
Rp147
ag3
(g4
g5
Vjovetic
p148
tp149
Rp150
ag3
(g4
g5
Vilaria-d-amico
p151
tp152
Rp153
ag3
(g4
g5
Vibrahimovic
p154
tp155
Rp156
ag3
(g4
g5
Vmaria-giulia-sergio
p157
tp158
Rp159
ag3
(g4
g5
Vmalattia-di-lyme
p160
tp161
Rp162
ag3
(g4
g5
Vapple-music
p163
tp164
Rp165
ag3
(g4
g5
Vangelina-jolie
p166
tp167
Rp168
ag3
(g4
g5
Vmickey-rourke
p169
tp170
Rp171
ag3
(g4
g5
Vl-unita
p172
tp173
Rp174
ag3
(g4
g5
Vmatteo-sereni
p175
tp176
Rp177
ag3
(g4
g5
Vmaglia-juve-2016
p178
tp179
Rp180
ag3
(g4
g5
Vedu-vargas
p181
tp182
Rp183
ag3
(g4
g5
Vjennifer-garner
p184
tp185
Rp186
ag3
(g4
g5
Vkuzmanovic
p187
tp188
Rp189
asS'Spain'
p190
(lp191
g3
(g4
g5
Vcorralito
p192
tp193
Rp194
ag3
(g4
g5
Vargentina-colombia
p195
tp196
Rp197
ag3
(g4
g5
Vlucas-vazquez
p198
tp199
Rp200
ag3
(g4
g5
Vargentina-paraguay
p201
tp202
Rp203
ag3
(g4
g5
Vley-mordaza
p204
tp205
Rp206
ag3
(g4
g5
Vbrasil-paraguay
p207
tp208
Rp209
ag3
(g4
g5
Vchile-peru
p210
tp211
Rp212
ag3
(g4
g5
Vbilbao-athletic
p213
tp214
Rp215
ag3
(g4
g5
Vjulio-iglesias
p216
tp217
Rp218
ag3
(g4
g5
Vrodrigo-caio
p219
tp220
Rp221
ag3
(g4
g5
Venfermedad-de-lyme
p222
tp223
Rp224
ag3
(g4
g5
Vcarlos-masterchef
p225
tp226
Rp227
ag3
(g4
g5
Vwimbledon
p228
tp229
Rp230
ag3
(g4
g5
Vgrecia-noticias
p231
tp232
Rp233
ag3
(g4
g5
Vsan-pedro
p234
tp235
Rp236
ag3
(g4
g5
Vchris-squire
p237
tp238
Rp239
ag3
(g4
g5
Vsan-pedro-y-san-pablo
p240
tp241
Rp242
ag3
(g4
g5
Vwimbledon-2015
p243
tp244
Rp245
ag3
(g4
g5
Vjennifer-garner
p246
tp247
Rp248
ag3
(g4
g5
Vapple-music
p249
tp250
Rp251
asS'UK'
p252
(lp253
g3
(g4
g5
Vben-affleck
p254
tp255
Rp256
ag3
(g4
g5
Vandy-murray
p257
tp258
Rp259
ag3
(g4
g5
Vjasmine-lennard
p260
tp261
Rp262
ag3
(g4
g5
Vsergio-ramos
p263
tp264
Rp265
ag3
(g4
g5
Vtemperature
p266
tp267
Rp268
ag3
(g4
g5
Vwimbledon-order-of-play
p269
tp270
Rp271
ag3
(g4
g5
Vkauto-star
p272
tp273
Rp274
ag3
(g4
g5
Vlaura-robson
p275
tp276
Rp277
ag3
(g4
g5
Vhope-solo
p278
tp279
Rp280
ag3
(g4
g5
Vcanada-day
p281
tp282
Rp283
ag3
(g4
g5
Vwomen-s-world-cup
p284
tp285
Rp286
ag3
(g4
g5
Vloose-women
p287
tp288
Rp289
ag3
(g4
g5
Veugenie-bouchard
p290
tp291
Rp292
ag3
(g4
g5
Vfans
p293
tp294
Rp295
ag3
(g4
g5
Vnigel-pearson
p296
tp297
Rp298
ag3
(g4
g5
Vapple-music
p299
tp300
Rp301
ag3
(g4
g5
Vheather-watson
p302
tp303
Rp304
ag3
(g4
g5
Vchrissy-teigen
p305
tp306
Rp307
ag3
(g4
g5
Vjohn-noakes
p308
tp309
Rp310
ag3
(g4
g5
Vhelen-flanagan
p311
tp312
Rp313
asS'India'
p314
(lp315
g3
(g4
g5
Vmanik-paul
p316
tp317
Rp318
ag3
(g4
g5
Vhelmet
p319
tp320
Rp321
ag3
(g4
g5
Vredmi-note-4g
p322
tp323
Rp324
ag3
(g4
g5
Varuvikkara
p325
tp326
Rp327
ag3
(g4
g5
Vdholpur-palace
p328
tp329
Rp330
ag3
(g4
g5
Vwimbledon-2015
p331
tp332
Rp333
ag3
(g4
g5
Vgreece
p334
tp335
Rp336
ag3
(g4
g5
Vbrazil-vs-paraguay
p337
tp338
Rp339
ag3
(g4
g5
Vdigital-india
p340
tp341
Rp342
ag3
(g4
g5
Vwimbledon
p343
tp344
Rp345
ag3
(g4
g5
Vsmita-sabharwal
p346
tp347
Rp348
ag3
(g4
g5
Vmira-rajput
p349
tp350
Rp351
ag3
(g4
g5
Vchennai-metro
p352
tp353
Rp354
ag3
(g4
g5
Vjawaharlal-nehru
p355
tp356
Rp357
ag3
(g4
g5
Vargentina-vs-paraguay
p358
tp359
Rp360
ag3
(g4
g5
Vhyundai-creta
p361
tp362
Rp363
ag3
(g4
g5
Vdoctors-day
p364
tp365
Rp366
ag3
(g4
g5
Vpreeti-gupta
p367
tp368
Rp369
ag3
(g4
g5
Vjennifer-garner
p370
tp371
Rp372
ag3
(g4
g5
Vapple-music
p373
tp374
Rp375
asS'US'
p376
(lp377
g3
(g4
g5
Vevangeline-lilly
p378
tp379
Rp380
ag3
(g4
g5
Vben-affleck
p381
tp382
Rp383
ag3
(g4
g5
Valex-morgan
p384
tp385
Rp386
ag3
(g4
g5
Vmisty-copeland
p387
tp388
Rp389
ag3
(g4
g5
Vzoo
p390
tp391
Rp392
ag3
(g4
g5
Vargentina-vs-paraguay
p393
tp394
Rp395
ag3
(g4
g5
Vbobbi-kristina
p396
tp397
Rp398
ag3
(g4
g5
Vcreed
p399
tp400
Rp401
ag3
(g4
g5
Vhope-solo
p402
tp403
Rp404
ag3
(g4
g5
Vstar-of-bethlehem
p405
tp406
Rp407
ag3
(g4
g5
Vbrandon-saad
p408
tp409
Rp410
ag3
(g4
g5
Vwomen-s-world-cup
p411
tp412
Rp413
ag3
(g4
g5
Vchris-christie
p414
tp415
Rp416
ag3
(g4
g5
Vminka-kelly
p417
tp418
Rp419
ag3
(g4
g5
Vcanada-day
p420
tp421
Rp422
ag3
(g4
g5
Vamber-alert
p423
tp424
Rp425
ag3
(g4
g5
Vabby-wambach
p426
tp427
Rp428
ag3
(g4
g5
Vbobby-bonilla
p429
tp430
Rp431
ag3
(g4
g5
Vsiri-0-divided-by-0
p432
tp433
Rp434
ag3
(g4
g5
Vjulie-johnston
p435
tp436
Rp437
asS'France'
p438
(lp439
g3
(g4
g5
Vcoupure-de-courant
p440
tp441
Rp442
ag3
(g4
g5
Vrer-a
p443
tp444
Rp445
ag3
(g4
g5
Vtour-triangle
p446
tp447
Rp448
ag3
(g4
g5
Vmurder
p449
tp450
Rp451
ag3
(g4
g5
Valfred-enoch
p452
tp453
Rp454
ag3
(g4
g5
Vlaury-thilleman
p455
tp456
Rp457
ag3
(g4
g5
Vcharles-pasqua
p458
tp459
Rp460
ag3
(g4
g5
Vgreve-controleurs-aeriens
p461
tp462
Rp463
ag3
(g4
g5
Vvincent-cerutti
p464
tp465
Rp466
ag3
(g4
g5
Vnathalie-pechalat
p467
tp468
Rp469
ag3
(g4
g5
Vapple-music
p470
tp471
Rp472
ag3
(g4
g5
Vla-vie-est-belle
p473
tp474
Rp475
ag3
(g4
g5
Vrenault-talisman
p476
tp477
Rp478
ag3
(g4
g5
Vjennifer-love-hewitt
p479
tp480
Rp481
ag3
(g4
g5
Vmaladie-de-lyme
p482
tp483
Rp484
ag3
(g4
g5
Vargentine-paraguay
p485
tp486
Rp487
ag3
(g4
g5
Verdf
p488
tp489
Rp490
ag3
(g4
g5
Vles-profs-2
p491
tp492
Rp493
ag3
(g4
g5
Vjennifer-garner
p494
tp495
Rp496
ag3
(g4
g5
Valain-de-greef
p497
tp498
Rp499
as.