(dp0
S'Brazil'
p1
(lp2
ccopy_reg
_reconstructor
p3
(cdjango.utils.safestring
SafeText
p4
c__builtin__
unicode
p5
Vuem
p6
tp7
Rp8
ag3
(g4
g5
Vluis-ricardo
p9
tp10
Rp11
ag3
(g4
g5
Vlyoto-machida
p12
tp13
Rp14
ag3
(g4
g5
Vgabriel-medina
p15
tp16
Rp17
ag3
(g4
g5
Vwilliam-bonner
p18
tp19
Rp20
ag3
(g4
g5
Vcaio-castro
p21
tp22
Rp23
ag3
(g4
g5
Vmedina
p24
tp25
Rp26
ag3
(g4
g5
Vdiego-aguirre
p27
tp28
Rp29
ag3
(g4
g5
Vconcurso-banco-do-brasil
p30
tp31
Rp32
ag3
(g4
g5
Vvenina-velosa-da-fonseca
p33
tp34
Rp35
ag3
(g4
g5
Vmedina-surf
p36
tp37
Rp38
ag3
(g4
g5
Var-condicionado
p39
tp40
Rp41
ag3
(g4
g5
Vreal-madrid
p42
tp43
Rp44
ag3
(g4
g5
Vdupla-identidade
p45
tp46
Rp47
ag3
(g4
g5
Vnicole-bahls
p48
tp49
Rp50
ag3
(g4
g5
Vcabo-verde
p51
tp52
Rp53
ag3
(g4
g5
Vunioeste
p54
tp55
Rp56
ag3
(g4
g5
Vsolsticio-de-verao-2014
p57
tp58
Rp59
ag3
(g4
g5
Vchay-suede
p60
tp61
Rp62
ag3
(g4
g5
Vmega-sena-1663
p63
tp64
Rp65
asS'Australia'
p66
(lp67
g3
(g4
g5
Vamirah-droudis
p68
tp69
Rp70
ag3
(g4
g5
Vjoe-burns
p71
tp72
Rp73
ag3
(g4
g5
Vcarols-in-the-domain
p74
tp75
Rp76
ag3
(g4
g5
Velton-john
p77
tp78
Rp79
ag3
(g4
g5
Vkourtney-kardashian-baby
p80
tp81
Rp82
ag3
(g4
g5
Vmersane-warria
p83
tp84
Rp85
ag3
(g4
g5
Vscott-morrison
p86
tp87
Rp88
ag3
(g4
g5
Vnfl
p89
tp90
Rp91
ag3
(g4
g5
Vmerry-christmas
p92
tp93
Rp94
ag3
(g4
g5
Vlegend-of-korra
p95
tp96
Rp97
ag3
(g4
g5
Vtis-the-season
p98
tp99
Rp100
ag3
(g4
g5
Vbig-mac
p101
tp102
Rp103
ag3
(g4
g5
Vperth-scorchers
p104
tp105
Rp106
ag3
(g4
g5
Vamerican-sniper
p107
tp108
Rp109
ag3
(g4
g5
Vmuhammad-ali
p110
tp111
Rp112
ag3
(g4
g5
Viggy-azalea
p113
tp114
Rp115
ag3
(g4
g5
Vjesinta-campbell
p116
tp117
Rp118
ag3
(g4
g5
Vjarryd-hayne
p119
tp120
Rp121
ag3
(g4
g5
Vkate-upton
p122
tp123
Rp124
ag3
(g4
g5
Vreal-madrid
p125
tp126
Rp127
asS'Italy'
p128
(lp129
g3
(g4
g5
Vil-volo
p130
tp131
Rp132
ag3
(g4
g5
Vcharlotte-caniggia
p133
tp134
Rp135
ag3
(g4
g5
Vmuhammad-ali
p136
tp137
Rp138
ag3
(g4
g5
Vshiloh-pitt
p139
tp140
Rp141
ag3
(g4
g5
Vfiorentina-empoli
p142
tp143
Rp144
ag3
(g4
g5
Vsupercoppa-italiana-2014
p145
tp146
Rp147
ag3
(g4
g5
Vbuon-natale
p148
tp149
Rp150
ag3
(g4
g5
Vroma-milan
p151
tp152
Rp153
ag3
(g4
g5
Vsolstizio-di-inverno
p154
tp155
Rp156
ag3
(g4
g5
Vulisse
p157
tp158
Rp159
ag3
(g4
g5
Vtorino-genoa
p160
tp161
Rp162
ag3
(g4
g5
Vlegge-di-stabilita-2015
p163
tp164
Rp165
ag3
(g4
g5
Vreal-madrid
p166
tp167
Rp168
ag3
(g4
g5
Vsoldipubblici-gov-it
p169
tp170
Rp171
ag3
(g4
g5
Vverona-chievo
p172
tp173
Rp174
ag3
(g4
g5
Vzeman
p175
tp176
Rp177
ag3
(g4
g5
Vinter-lazio
p178
tp179
Rp180
ag3
(g4
g5
Vudo-jurgens
p181
tp182
Rp183
ag3
(g4
g5
Vkate-upton
p184
tp185
Rp186
ag3
(g4
g5
Vauguri-di-natale
p187
tp188
Rp189
asS'Spain'
p190
(lp191
g3
(g4
g5
Vmarta-sanchez
p192
tp193
Rp194
ag3
(g4
g5
Vudo-jurgens
p195
tp196
Rp197
ag3
(g4
g5
Vcadena-ser
p198
tp199
Rp200
ag3
(g4
g5
Valice-goodwin
p201
tp202
Rp203
ag3
(g4
g5
Vviaje-al-centro-de-la-tierra-2
p204
tp205
Rp206
ag3
(g4
g5
Vonda-cero
p207
tp208
Rp209
ag3
(g4
g5
Vloteria-nacional
p210
tp211
Rp212
ag3
(g4
g5
Vsolsticio-de-invierno
p213
tp214
Rp215
ag3
(g4
g5
Vinfanta-cristina
p216
tp217
Rp218
ag3
(g4
g5
Vrtve
p219
tp220
Rp221
ag3
(g4
g5
Vla-1
p222
tp223
Rp224
ag3
(g4
g5
Vradio
p225
tp226
Rp227
ag3
(g4
g5
Vloteria-22-diciembre-2014
p228
tp229
Rp230
ag3
(g4
g5
Vdiscovery-max
p231
tp232
Rp233
ag3
(g4
g5
Vtve
p234
tp235
Rp236
ag3
(g4
g5
Vloterias
p237
tp238
Rp239
ag3
(g4
g5
Vel-langui
p240
tp241
Rp242
ag3
(g4
g5
Vbigote-arrocet
p243
tp244
Rp245
ag3
(g4
g5
Vkate-upton
p246
tp247
Rp248
ag3
(g4
g5
Vser
p249
tp250
Rp251
asS'UK'
p252
(lp253
g3
(g4
g5
Vliverpool-vs-arsenal
p254
tp255
Rp256
ag3
(g4
g5
Vthe-terminal
p257
tp258
Rp259
ag3
(g4
g5
Vwinter-solstice
p260
tp261
Rp262
ag3
(g4
g5
Vharry-potter
p263
tp264
Rp265
ag3
(g4
g5
Vtara-palmer-tomkinson
p266
tp267
Rp268
ag3
(g4
g5
Vcharlie-austin
p269
tp270
Rp271
ag3
(g4
g5
Vthe-apprentice
p272
tp273
Rp274
ag3
(g4
g5
Vclimb-online
p275
tp276
Rp277
ag3
(g4
g5
Vmerry-christmas
p278
tp279
Rp280
ag3
(g4
g5
Vbillie-whitelaw
p281
tp282
Rp283
ag3
(g4
g5
Vstrictly-come-dancing
p284
tp285
Rp286
ag3
(g4
g5
Vchristmas-number-one-2014
p287
tp288
Rp289
ag3
(g4
g5
Vkourtney-kardashian
p290
tp291
Rp292
ag3
(g4
g5
Vkristina-rihanoff
p293
tp294
Rp295
ag3
(g4
g5
Velton-john
p296
tp297
Rp298
ag3
(g4
g5
Viggy-azalea
p299
tp300
Rp301
ag3
(g4
g5
Vally-mccoist
p302
tp303
Rp304
ag3
(g4
g5
Vglasgow
p305
tp306
Rp307
ag3
(g4
g5
Vchanning-tatum
p308
tp309
Rp310
ag3
(g4
g5
Vsimon-webbe
p311
tp312
Rp313
asS'India'
p314
(lp315
g3
(g4
g5
Vpk-review
p316
tp317
Rp318
ag3
(g4
g5
Vmicromax-yureka
p319
tp320
Rp321
ag3
(g4
g5
Vwinter-solstice
p322
tp323
Rp324
ag3
(g4
g5
Vuiic
p325
tp326
Rp327
ag3
(g4
g5
Vfirst-day-collection-of-pk
p328
tp329
Rp330
ag3
(g4
g5
Vgo-air
p331
tp332
Rp333
ag3
(g4
g5
Vgst
p334
tp335
Rp336
ag3
(g4
g5
Visl-final
p337
tp338
Rp339
ag3
(g4
g5
Vchristmas-images
p340
tp341
Rp342
ag3
(g4
g5
Vwassily-kandinsky
p343
tp344
Rp345
ag3
(g4
g5
Vpisasu-review
p346
tp347
Rp348
ag3
(g4
g5
Vi-trailer
p349
tp350
Rp351
ag3
(g4
g5
Vmallika-sherawat
p352
tp353
Rp354
ag3
(g4
g5
Vreal-madrid
p355
tp356
Rp357
ag3
(g4
g5
Visro
p358
tp359
Rp360
ag3
(g4
g5
Vpk
p361
tp362
Rp363
ag3
(g4
g5
Vgurgaon-news
p364
tp365
Rp366
ag3
(g4
g5
Vindia-vs-australia-2nd-test
p367
tp368
Rp369
ag3
(g4
g5
Vpk-collection
p370
tp371
Rp372
asS'US'
p373
(lp374
g3
(g4
g5
Vshailene-woodley
p375
tp376
Rp377
ag3
(g4
g5
Vwinter-solstice
p378
tp379
Rp380
ag3
(g4
g5
Vchamps
p381
tp382
Rp383
ag3
(g4
g5
Vnfl-schedule
p384
tp385
Rp386
ag3
(g4
g5
Vnfl-standings
p387
tp388
Rp389
ag3
(g4
g5
Vdetroit-lions
p390
tp391
Rp392
ag3
(g4
g5
Vnfl
p393
tp394
Rp395
ag3
(g4
g5
Vandrew-luck
p396
tp397
Rp398
ag3
(g4
g5
Vaaron-hernandez
p399
tp400
Rp401
ag3
(g4
g5
Vde-blasio
p402
tp403
Rp404
ag3
(g4
g5
V49ers
p405
tp406
Rp407
ag3
(g4
g5
Vamy-adams
p408
tp409
Rp410
ag3
(g4
g5
Vclint-reif
p411
tp412
Rp413
ag3
(g4
g5
Vmarshawn-lynch
p414
tp415
Rp416
ag3
(g4
g5
Vsound-of-music
p417
tp418
Rp419
ag3
(g4
g5
Vfoot-locker
p420
tp421
Rp422
ag3
(g4
g5
Vismaaiyl-brinsley
p423
tp424
Rp425
ag3
(g4
g5
Vdallas-cowboys
p426
tp427
Rp428
ag3
(g4
g5
Veastbay
p429
tp430
Rp431
ag3
(g4
g5
Vphiladelphia-eagles
p432
tp433
Rp434
asS'France'
p435
(lp436
g3
(g4
g5
Vsolstice-d-hiver
p437
tp438
Rp439
ag3
(g4
g5
Vmarseille-lille
p440
tp441
Rp442
ag3
(g4
g5
Vlacazette
p443
tp444
Rp445
ag3
(g4
g5
Vlamborghini
p446
tp447
Rp448
ag3
(g4
g5
Vjohnny-hallyday
p449
tp450
Rp451
ag3
(g4
g5
Vpsg-montpellier
p452
tp453
Rp454
ag3
(g4
g5
Vle-bien-public
p455
tp456
Rp457
ag3
(g4
g5
Vdijon
p458
tp459
Rp460
ag3
(g4
g5
Vbordeaux-lyon
p461
tp462
Rp463
ag3
(g4
g5
Vmadagascar
p464
tp465
Rp466
ag3
(g4
g5
Vzemmour
p467
tp468
Rp469
ag3
(g4
g5
Vroberto-alagna
p470
tp471
Rp472
ag3
(g4
g5
Vtop-14
p473
tp474
Rp475
ag3
(g4
g5
Vreal-madrid
p476
tp477
Rp478
ag3
(g4
g5
Vtunisie
p479
tp480
Rp481
ag3
(g4
g5
Vmuriel-robin
p482
tp483
Rp484
ag3
(g4
g5
Vcarole-bouquet
p485
tp486
Rp487
ag3
(g4
g5
Vla-grande-vadrouille
p488
tp489
Rp490
ag3
(g4
g5
Vkate-upton
p491
tp492
Rp493
ag3
(g4
g5
Vcindy-sander
p494
tp495
Rp496
as.