(dp0
S'Brazil'
p1
(lp2
ccopy_reg
_reconstructor
p3
(cdjango.utils.safestring
SafeText
p4
c__builtin__
unicode
p5
Vtransformers
p6
tp7
Rp8
ag3
(g4
g5
Vmatthew-mcconaughey
p9
tp10
Rp11
ag3
(g4
g5
Vellen-degeneres
p12
tp13
Rp14
ag3
(g4
g5
Vjared-leto
p15
tp16
Rp17
ag3
(g4
g5
Vreal-madrid
p18
tp19
Rp20
ag3
(g4
g5
Vjennifer-lawrence
p21
tp22
Rp23
ag3
(g4
g5
Vcate-blanchett
p24
tp25
Rp26
ag3
(g4
g5
Vvitor-belfort
p27
tp28
Rp29
ag3
(g4
g5
Vleonardo-dicaprio
p30
tp31
Rp32
asS'Australia'
p33
(lp34
g3
(g4
g5
Vkaty-perry
p35
tp36
Rp37
ag3
(g4
g5
Vash-wednesday
p38
tp39
Rp40
ag3
(g4
g5
Vbonds
p41
tp42
Rp43
ag3
(g4
g5
Vjared-leto
p44
tp45
Rp46
ag3
(g4
g5
Vmatthew-mcconaughey
p47
tp48
Rp49
ag3
(g4
g5
Vdallas-buyers-club
p50
tp51
Rp52
ag3
(g4
g5
Vgraeme-smith
p53
tp54
Rp55
ag3
(g4
g5
Vkim-novak
p56
tp57
Rp58
ag3
(g4
g5
Vjustin-bieber
p59
tp60
Rp61
ag3
(g4
g5
Vcate-blanchett
p62
tp63
Rp64
ag3
(g4
g5
Vpizza-hut
p65
tp66
Rp67
asS'Italy'
p68
(lp69
g3
(g4
g5
Vmatthew-mcconaughey
p70
tp71
Rp72
ag3
(g4
g5
Vgravity
p73
tp74
Rp75
ag3
(g4
g5
Vatletico-madrid
p76
tp77
Rp78
ag3
(g4
g5
Vleonardo-di-caprio
p79
tp80
Rp81
ag3
(g4
g5
Vrome
p82
tp83
Rp84
ag3
(g4
g5
Vamy-adams
p85
tp86
Rp87
ag3
(g4
g5
Vjennifer-lawrence
p88
tp89
Rp90
ag3
(g4
g5
Vcate-blanchett
p91
tp92
Rp93
ag3
(g4
g5
Vdallas-buyers-club
p94
tp95
Rp96
asS'India'
p97
(lp98
g3
(g4
g5
Vcricket
p99
tp100
Rp101
ag3
(g4
g5
Vnargis-fakhri
p102
tp103
Rp104
ag3
(g4
g5
Vsubrata-roy
p105
tp106
Rp107
ag3
(g4
g5
Vmatthew-mcconaughey
p108
tp109
Rp110
ag3
(g4
g5
Vfrozen
p111
tp112
Rp113
ag3
(g4
g5
Voscars
p114
tp115
Rp116
ag3
(g4
g5
Vsatyamev-jayate
p117
tp118
Rp119
ag3
(g4
g5
Vreal-madrid
p120
tp121
Rp122
ag3
(g4
g5
Vcate-blanchett
p123
tp124
Rp125
ag3
(g4
g5
Vdallas-buyers-club
p126
tp127
Rp128
asS'US'
p129
(lp130
g3
(g4
g5
Vhuvr
p131
tp132
Rp133
ag3
(g4
g5
Vrachel-canning
p134
tp135
Rp136
ag3
(g4
g5
Vscarlett-johansson
p137
tp138
Rp139
ag3
(g4
g5
Vmardi-gras
p140
tp141
Rp142
ag3
(g4
g5
Vlebron-james
p143
tp144
Rp145
ag3
(g4
g5
Vihop
p146
tp147
Rp148
asS'France'
p149
(lp150
g3
(g4
g5
Vsilver-linings-playbook
p151
tp152
Rp153
ag3
(g4
g5
Vromain-dauriac
p154
tp155
Rp156
ag3
(g4
g5
Volivier-giroud
p157
tp158
Rp159
ag3
(g4
g5
Vmatthew-mcconaughey
p160
tp161
Rp162
ag3
(g4
g5
Vcarnaval
p163
tp164
Rp165
ag3
(g4
g5
Vlebron-james
p166
tp167
Rp168
ag3
(g4
g5
Vchanel
p169
tp170
Rp171
asS'UK'
p172
(lp173
g3
(g4
g5
Vpc-world
p174
tp175
Rp176
ag3
(g4
g5
Vpatrick-rock
p177
tp178
Rp179
ag3
(g4
g5
Vhuvr
p180
tp181
Rp182
ag3
(g4
g5
Vscarlett-johansson
p183
tp184
Rp185
ag3
(g4
g5
Vkim-novak
p186
tp187
Rp188
ag3
(g4
g5
Vmichelle-burger
p189
tp190
Rp191
ag3
(g4
g5
Vmardi-gras
p192
tp193
Rp194
ag3
(g4
g5
Vsidney-poitier
p195
tp196
Rp197
asS'Spain'
p198
(lp199
g3
(g4
g5
Vdiego-costa
p200
tp201
Rp202
ag3
(g4
g5
Vmatthew-mcconaughey
p203
tp204
Rp205
ag3
(g4
g5
Vellen-degeneres
p206
tp207
Rp208
ag3
(g4
g5
Vjared-leto
p209
tp210
Rp211
ag3
(g4
g5
Voscars-2014
p212
tp213
Rp214
ag3
(g4
g5
Vamy-adams
p215
tp216
Rp217
ag3
(g4
g5
Vreal-madrid
p218
tp219
Rp220
ag3
(g4
g5
Vjennifer-lawrence
p221
tp222
Rp223
ag3
(g4
g5
Vcate-blanchett
p224
tp225
Rp226
ag3
(g4
g5
Vleonardo-dicaprio
p227
tp228
Rp229
as.