(dp0
S'Brazil'
p1
(lp2
ccopy_reg
_reconstructor
p3
(cdjango.utils.safestring
SafeText
p4
c__builtin__
unicode
p5
Vfatec
p6
tp7
Rp8
ag3
(g4
g5
Vdia-do-amigo-2015
p9
tp10
Rp11
ag3
(g4
g5
Vcamila-mayrink
p12
tp13
Rp14
ag3
(g4
g5
Vpronatec
p15
tp16
Rp17
ag3
(g4
g5
Vamizade
p18
tp19
Rp20
ag3
(g4
g5
Vashley-madison
p21
tp22
Rp23
ag3
(g4
g5
Vfies
p24
tp25
Rp26
ag3
(g4
g5
Vo-noivo-da-minha-melhor-amiga
p27
tp28
Rp29
ag3
(g4
g5
Vstephen-hawking
p30
tp31
Rp32
ag3
(g4
g5
Vlotofacil-1237
p33
tp34
Rp35
ag3
(g4
g5
Vmaria-melilo
p36
tp37
Rp38
ag3
(g4
g5
Vresumo-da-novela-os-dez-mandamentos
p39
tp40
Rp41
ag3
(g4
g5
Vgrooveshark
p42
tp43
Rp44
ag3
(g4
g5
Vprouni
p45
tp46
Rp47
ag3
(g4
g5
Vmensagem
p48
tp49
Rp50
ag3
(g4
g5
V20-de-julho
p51
tp52
Rp53
ag3
(g4
g5
Vbela-gil
p54
tp55
Rp56
ag3
(g4
g5
Vamigos
p57
tp58
Rp59
ag3
(g4
g5
Vjules-bianchi
p60
tp61
Rp62
ag3
(g4
g5
Vthaila-ayala
p63
tp64
Rp65
asS'Australia'
p66
(lp67
g3
(g4
g5
Vamy-schumer
p68
tp69
Rp70
ag3
(g4
g5
Vwwe
p71
tp72
Rp73
ag3
(g4
g5
Vliverpool-vs-adelaide
p74
tp75
Rp76
ag3
(g4
g5
Vliverpool
p77
tp78
Rp79
ag3
(g4
g5
Vhouse-rules-2015
p80
tp81
Rp82
ag3
(g4
g5
Vmasterchef-2015
p83
tp84
Rp85
ag3
(g4
g5
Vmick-fanning-shark-attack
p86
tp87
Rp88
ag3
(g4
g5
Vman-city-vs-roma
p89
tp90
Rp91
ag3
(g4
g5
Vturia-pitt
p92
tp93
Rp94
ag3
(g4
g5
Vecho-entertainment
p95
tp96
Rp97
ag3
(g4
g5
Vpatrick-dangerfield
p98
tp99
Rp100
ag3
(g4
g5
Vdon-randall
p101
tp102
Rp103
ag3
(g4
g5
Vdaniel-radcliffe
p104
tp105
Rp106
ag3
(g4
g5
Vthe-open-2015
p107
tp108
Rp109
ag3
(g4
g5
Vashley-madison
p110
tp111
Rp112
ag3
(g4
g5
Vsalmonella
p113
tp114
Rp115
ag3
(g4
g5
Vgold-price
p116
tp117
Rp118
ag3
(g4
g5
Vrestaurant-revolution
p119
tp120
Rp121
ag3
(g4
g5
Vskepta
p122
tp123
Rp124
ag3
(g4
g5
Vlee-nelson
p125
tp126
Rp127
asS'Italy'
p128
(lp129
g3
(g4
g5
Vbattleground-2015
p130
tp131
Rp132
ag3
(g4
g5
Vbed-and-breakfast
p133
tp134
Rp135
ag3
(g4
g5
Vcarlo-giuliani
p136
tp137
Rp138
ag3
(g4
g5
Vinter-bayern
p139
tp140
Rp141
ag3
(g4
g5
Vtrue-lies
p142
tp143
Rp144
ag3
(g4
g5
Vgiorgio-morandi
p145
tp146
Rp147
ag3
(g4
g5
Velio-fiorucci
p148
tp149
Rp150
ag3
(g4
g5
Vashley-madison
p151
tp152
Rp153
ag3
(g4
g5
Vcarabinieri
p154
tp155
Rp156
ag3
(g4
g5
Vallan
p157
tp158
Rp159
ag3
(g4
g5
Vincidente-laguna-seca
p160
tp161
Rp162
ag3
(g4
g5
Vrobin-williams
p163
tp164
Rp165
ag3
(g4
g5
Vbill-cosby
p166
tp167
Rp168
ag3
(g4
g5
Vjamie-lee-curtis
p169
tp170
Rp171
ag3
(g4
g5
Vle-onde-del-destino
p172
tp173
Rp174
ag3
(g4
g5
Vrojadirecta
p175
tp176
Rp177
ag3
(g4
g5
Vismaele-lulli
p178
tp179
Rp180
ag3
(g4
g5
Vthe-perfect-man
p181
tp182
Rp183
ag3
(g4
g5
Vdemi-moore
p184
tp185
Rp186
ag3
(g4
g5
Vdraxler
p187
tp188
Rp189
asS'Spain'
p190
(lp191
g3
(g4
g5
Vthe-flash
p192
tp193
Rp194
ag3
(g4
g5
Vfilipe-luis
p195
tp196
Rp197
ag3
(g4
g5
Vjules-bianchi
p198
tp199
Rp200
ag3
(g4
g5
Vpremios-platino
p201
tp202
Rp203
ag3
(g4
g5
Vfc-barcelona
p204
tp205
Rp206
ag3
(g4
g5
Vreal-madrid-roma
p207
tp208
Rp209
ag3
(g4
g5
Vashley-madison
p210
tp211
Rp212
ag3
(g4
g5
Vminions-nazis
p213
tp214
Rp215
ag3
(g4
g5
Vmargot-robbie
p216
tp217
Rp218
ag3
(g4
g5
Vdemi-moore
p219
tp220
Rp221
ag3
(g4
g5
Vcaitlyn-jenner
p222
tp223
Rp224
ag3
(g4
g5
Vdani-rivas
p225
tp226
Rp227
ag3
(g4
g5
Vsavic
p228
tp229
Rp230
ag3
(g4
g5
Vamy-schumer
p231
tp232
Rp233
ag3
(g4
g5
Vmick-fanning
p234
tp235
Rp236
ag3
(g4
g5
V18-de-julio
p237
tp238
Rp239
ag3
(g4
g5
Vkiko-casilla
p240
tp241
Rp242
ag3
(g4
g5
Vdonald-trump
p243
tp244
Rp245
ag3
(g4
g5
Vkim-kardashian
p246
tp247
Rp248
ag3
(g4
g5
Vcopa-davis
p249
tp250
Rp251
asS'UK'
p252
(lp253
g3
(g4
g5
Vdavid-frost
p254
tp255
Rp256
ag3
(g4
g5
Vturkey
p257
tp258
Rp259
ag3
(g4
g5
Vlove-actually
p260
tp261
Rp262
ag3
(g4
g5
Vwarehouse-project
p263
tp264
Rp265
ag3
(g4
g5
Verin-darke
p266
tp267
Rp268
ag3
(g4
g5
Vsouth-west-trains
p269
tp270
Rp271
ag3
(g4
g5
Valex-rocco
p272
tp273
Rp274
ag3
(g4
g5
Vgeraint-thomas
p275
tp276
Rp277
ag3
(g4
g5
Vjake-roche
p278
tp279
Rp280
ag3
(g4
g5
Vdavis-cup
p281
tp282
Rp283
ag3
(g4
g5
Vwwe
p284
tp285
Rp286
ag3
(g4
g5
Vzach-johnson
p287
tp288
Rp289
ag3
(g4
g5
Vmatthew-daley
p290
tp291
Rp292
ag3
(g4
g5
Vdemi-moore
p293
tp294
Rp295
ag3
(g4
g5
Vmick-fanning
p296
tp297
Rp298
ag3
(g4
g5
Vthomas-muller
p299
tp300
Rp301
ag3
(g4
g5
Vadam-deacon
p302
tp303
Rp304
ag3
(g4
g5
Vskepta
p305
tp306
Rp307
ag3
(g4
g5
Vashley-madison
p308
tp309
Rp310
ag3
(g4
g5
Vlee-nelson
p311
tp312
Rp313
asS'India'
p314
(lp315
g3
(g4
g5
Vyakub-memon
p316
tp317
Rp318
ag3
(g4
g5
Vgold-rate-today
p319
tp320
Rp321
ag3
(g4
g5
Vwwe-battleground-2015-results
p322
tp323
Rp324
ag3
(g4
g5
Vbajrangi-bhaijaan-sunday-collection
p325
tp326
Rp327
ag3
(g4
g5
Vashley-madison
p328
tp329
Rp330
ag3
(g4
g5
Vmilind-soman
p331
tp332
Rp333
ag3
(g4
g5
Vpro-kabaddi
p334
tp335
Rp336
ag3
(g4
g5
Vwwe-battleground-results
p337
tp338
Rp339
ag3
(g4
g5
Vmaari-review
p340
tp341
Rp342
ag3
(g4
g5
Vmyntra-sale
p343
tp344
Rp345
ag3
(g4
g5
Vnawazuddin-siddiqui
p346
tp347
Rp348
ag3
(g4
g5
Vsun-pharma-share-price
p349
tp350
Rp351
ag3
(g4
g5
Vyureka-plus
p352
tp353
Rp354
ag3
(g4
g5
Vrbi
p355
tp356
Rp357
ag3
(g4
g5
Vmumbai-rains
p358
tp359
Rp360
ag3
(g4
g5
Vgold-rate
p361
tp362
Rp363
ag3
(g4
g5
Vhyundai-creta
p364
tp365
Rp366
ag3
(g4
g5
Vbajrangi-bhaijaan-collection
p367
tp368
Rp369
ag3
(g4
g5
Vjules-bianchi
p370
tp371
Rp372
ag3
(g4
g5
Vnach-baliye-7-winner
p373
tp374
Rp375
asS'US'
p376
(lp377
g3
(g4
g5
Valex-morgan
p378
tp379
Rp380
ag3
(g4
g5
Vbritish-open
p381
tp382
Rp383
ag3
(g4
g5
Vbo-derek
p384
tp385
Rp386
ag3
(g4
g5
Vgawker
p387
tp388
Rp389
ag3
(g4
g5
Vjet
p390
tp391
Rp392
ag3
(g4
g5
Vbecky-hammon
p393
tp394
Rp395
ag3
(g4
g5
Vashley-madison
p396
tp397
Rp398
ag3
(g4
g5
Vaction-bronson
p399
tp400
Rp401
ag3
(g4
g5
Vsepp-blatter
p402
tp403
Rp404
ag3
(g4
g5
Vearthquake
p405
tp406
Rp407
ag3
(g4
g5
Vgeorge-coe
p408
tp409
Rp410
ag3
(g4
g5
Vgrooveshark
p411
tp412
Rp413
ag3
(g4
g5
Vkendall-taylor
p414
tp415
Rp416
ag3
(g4
g5
Vblake-shelton
p417
tp418
Rp419
ag3
(g4
g5
Vstephen-hawking
p420
tp421
Rp422
ag3
(g4
g5
Vrachel-dolezal
p423
tp424
Rp425
ag3
(g4
g5
Vpixels
p426
tp427
Rp428
ag3
(g4
g5
Vjohn-kasich
p429
tp430
Rp431
ag3
(g4
g5
Vfrank-ocean
p432
tp433
Rp434
ag3
(g4
g5
Vsam-hunt
p435
tp436
Rp437
asS'France'
p438
(lp439
g3
(g4
g5
Volivier-minne
p440
tp441
Rp442
ag3
(g4
g5
Vpeter-sagan
p443
tp444
Rp445
ag3
(g4
g5
Vattentat-turquie
p446
tp447
Rp448
ag3
(g4
g5
Vpsg-benfica
p449
tp450
Rp451
ag3
(g4
g5
Vaudrey-crespo-mara
p452
tp453
Rp454
ag3
(g4
g5
Vantoine-de-maximy
p455
tp456
Rp457
ag3
(g4
g5
Vashley-madison
p458
tp459
Rp460
ag3
(g4
g5
Vle-bien-public
p461
tp462
Rp463
ag3
(g4
g5
Vstephen-hawking
p464
tp465
Rp466
ag3
(g4
g5
Vstambouli
p467
tp468
Rp469
ag3
(g4
g5
Vamy-schumer
p470
tp471
Rp472
ag3
(g4
g5
Vlionel-richie
p473
tp474
Rp475
ag3
(g4
g5
Vlivret-a
p476
tp477
Rp478
ag3
(g4
g5
Vdemi-moore
p479
tp480
Rp481
ag3
(g4
g5
Vmick-fanning
p482
tp483
Rp484
ag3
(g4
g5
Vfanny-et-alexandre
p485
tp486
Rp487
ag3
(g4
g5
Vearvin-ngapeth
p488
tp489
Rp490
ag3
(g4
g5
Vsoprano
p491
tp492
Rp493
ag3
(g4
g5
Vcaen
p494
tp495
Rp496
ag3
(g4
g5
Vbeur-sur-la-ville
p497
tp498
Rp499
as.