(dp0
S'Brazil'
p1
(lp2
ccopy_reg
_reconstructor
p3
(cdjango.utils.safestring
SafeText
p4
c__builtin__
unicode
p5
Vkiwi
p6
tp7
Rp8
ag3
(g4
g5
Vbabilonia
p9
tp10
Rp11
ag3
(g4
g5
Vfox-sports
p12
tp13
Rp14
ag3
(g4
g5
Vcaixa-economica
p15
tp16
Rp17
ag3
(g4
g5
Vfernando-e-amanda
p18
tp19
Rp20
ag3
(g4
g5
Vdia-do-consumidor
p21
tp22
Rp23
ag3
(g4
g5
Velis-regina
p24
tp25
Rp26
ag3
(g4
g5
Vnovela-babilonia
p27
tp28
Rp29
ag3
(g4
g5
Vjogo-do-corinthians
p30
tp31
Rp32
ag3
(g4
g5
Vsue-lasmar
p33
tp34
Rp35
ag3
(g4
g5
Venquete-bbb15
p36
tp37
Rp38
ag3
(g4
g5
Vst-patrick-s-day
p39
tp40
Rp41
ag3
(g4
g5
Vrock-in-rio
p42
tp43
Rp44
ag3
(g4
g5
Vcp
p45
tp46
Rp47
ag3
(g4
g5
Vcorinthians
p48
tp49
Rp50
ag3
(g4
g5
Vunder-armour
p51
tp52
Rp53
ag3
(g4
g5
Vcarrossel
p54
tp55
Rp56
ag3
(g4
g5
Vdetran
p57
tp58
Rp59
ag3
(g4
g5
Vcpc
p60
tp61
Rp62
ag3
(g4
g5
Vlaura-neiva
p63
tp64
Rp65
asS'Australia'
p66
(lp67
g3
(g4
g5
Vthe-flash
p68
tp69
Rp70
ag3
(g4
g5
Vcarrie-bickmore
p71
tp72
Rp73
ag3
(g4
g5
Vsri-lanka-vs-south-africa
p74
tp75
Rp76
ag3
(g4
g5
Vpaul-walker
p77
tp78
Rp79
ag3
(g4
g5
Vv8-supercars
p80
tp81
Rp82
ag3
(g4
g5
Vlee-kuan-yew
p83
tp84
Rp85
ag3
(g4
g5
Vmorgan-huxley
p86
tp87
Rp88
ag3
(g4
g5
Vinternet-explorer
p89
tp90
Rp91
ag3
(g4
g5
Varsenal
p92
tp93
Rp94
ag3
(g4
g5
Veminem
p95
tp96
Rp97
ag3
(g4
g5
Vmarcos-ambrose
p98
tp99
Rp100
ag3
(g4
g5
Visrael-election
p101
tp102
Rp103
ag3
(g4
g5
Vasher-keddie
p104
tp105
Rp106
ag3
(g4
g5
Vst-patrick-s-day
p107
tp108
Rp109
ag3
(g4
g5
Vmadonna
p110
tp111
Rp112
ag3
(g4
g5
Vizombie
p113
tp114
Rp115
ag3
(g4
g5
Vaurora-australis
p116
tp117
Rp118
ag3
(g4
g5
Vwhooping-cough
p119
tp120
Rp121
ag3
(g4
g5
Vpixels
p122
tp123
Rp124
ag3
(g4
g5
Vst-patrick-s-day-2015
p125
tp126
Rp127
asS'Italy'
p128
(lp129
g3
(g4
g5
Vsportube
p130
tp131
Rp132
ag3
(g4
g5
Vthe-flash
p133
tp134
Rp135
ag3
(g4
g5
Veclissi-solare
p136
tp137
Rp138
ag3
(g4
g5
Vbattiato
p139
tp140
Rp141
ag3
(g4
g5
Vlino-guanciale
p142
tp143
Rp144
ag3
(g4
g5
Vmanenti
p145
tp146
Rp147
ag3
(g4
g5
Vtunisia
p148
tp149
Rp150
ag3
(g4
g5
Velettra-lamborghini
p151
tp152
Rp153
ag3
(g4
g5
Vbelen-rodriguez
p154
tp155
Rp156
ag3
(g4
g5
Visraele
p157
tp158
Rp159
ag3
(g4
g5
Vbobby-solo
p160
tp161
Rp162
ag3
(g4
g5
Vmonaco-arsenal
p163
tp164
Rp165
ag3
(g4
g5
Vborussia-dortmund-juventus
p166
tp167
Rp168
ag3
(g4
g5
Vatletico-madrid
p169
tp170
Rp171
ag3
(g4
g5
Varrow
p172
tp173
Rp174
ag3
(g4
g5
Vla-dama-velata
p175
tp176
Rp177
ag3
(g4
g5
Venel-energia
p178
tp179
Rp180
ag3
(g4
g5
Vun-passo-dal-cielo
p181
tp182
Rp183
ag3
(g4
g5
Vsan-patrizio
p184
tp185
Rp186
ag3
(g4
g5
Vcentovetrine
p187
tp188
Rp189
asS'Spain'
p190
(lp191
g3
(g4
g5
Vsan-patricio
p192
tp193
Rp194
ag3
(g4
g5
Vbanco-madrid
p195
tp196
Rp197
ag3
(g4
g5
Vantonio-betancort
p198
tp199
Rp200
ag3
(g4
g5
Voblak
p201
tp202
Rp203
ag3
(g4
g5
Vunderboob
p204
tp205
Rp206
ag3
(g4
g5
Vibrahimovic
p207
tp208
Rp209
ag3
(g4
g5
Vatletico-de-madrid
p210
tp211
Rp212
ag3
(g4
g5
Vanna-atkins
p213
tp214
Rp215
ag3
(g4
g5
Vdolce-gabbana
p216
tp217
Rp218
ag3
(g4
g5
Vtunez
p219
tp220
Rp221
ag3
(g4
g5
Vcervantes
p222
tp223
Rp224
ag3
(g4
g5
Vst-patrick-s-day
p225
tp226
Rp227
ag3
(g4
g5
Vgisele-bundchen
p228
tp229
Rp230
ag3
(g4
g5
Vtulum
p231
tp232
Rp233
ag3
(g4
g5
Vreal-sociedad
p234
tp235
Rp236
ag3
(g4
g5
Vcenicienta
p237
tp238
Rp239
ag3
(g4
g5
Vst-patricks-day
p240
tp241
Rp242
ag3
(g4
g5
Vsupervivientes
p243
tp244
Rp245
ag3
(g4
g5
Vrobert-durst
p246
tp247
Rp248
asS'UK'
p249
(lp250
g3
(g4
g5
Vordinary-lies
p251
tp252
Rp253
ag3
(g4
g5
Vnatalia-kills
p254
tp255
Rp256
ag3
(g4
g5
Veclipse-2015
p257
tp258
Rp259
ag3
(g4
g5
Vbudget-2015
p260
tp261
Rp262
ag3
(g4
g5
Vcyril-smith
p263
tp264
Rp265
ag3
(g4
g5
Varsenal
p266
tp267
Rp268
ag3
(g4
g5
Vputin
p269
tp270
Rp271
ag3
(g4
g5
Vkendrick-lamar
p272
tp273
Rp274
ag3
(g4
g5
Vreal-madrid
p275
tp276
Rp277
ag3
(g4
g5
Vliverpool
p278
tp279
Rp280
ag3
(g4
g5
Vkanye-west
p281
tp282
Rp283
ag3
(g4
g5
Vst-patrick-s-day
p284
tp285
Rp286
ag3
(g4
g5
Vandy-fraser
p287
tp288
Rp289
ag3
(g4
g5
Vnorthern-lights
p290
tp291
Rp292
ag3
(g4
g5
Vrobert-durst
p293
tp294
Rp295
ag3
(g4
g5
Vraised-by-wolves
p296
tp297
Rp298
ag3
(g4
g5
Vdick-advocaat
p299
tp300
Rp301
ag3
(g4
g5
Vst-patricks-day
p302
tp303
Rp304
ag3
(g4
g5
Vanna-atkins
p305
tp306
Rp307
ag3
(g4
g5
Vglastonbury-2015
p308
tp309
Rp310
asS'India'
p311
(lp312
g3
(g4
g5
Vind-vs-zim
p313
tp314
Rp315
ag3
(g4
g5
Vcricket
p316
tp317
Rp318
ag3
(g4
g5
Vwhatsapp-calling-feature
p319
tp320
Rp321
ag3
(g4
g5
Vpak-vs-ireland
p322
tp323
Rp324
ag3
(g4
g5
Vwhatsapp-calling
p325
tp326
Rp327
ag3
(g4
g5
Vkim-kardashian
p328
tp329
Rp330
ag3
(g4
g5
Vmother-s-day
p331
tp332
Rp333
ag3
(g4
g5
Varsenal
p334
tp335
Rp336
ag3
(g4
g5
Vbangladesh-cricket-team
p337
tp338
Rp339
ag3
(g4
g5
Valtaf-raja
p340
tp341
Rp342
ag3
(g4
g5
Vlive-cricket
p343
tp344
Rp345
ag3
(g4
g5
Vst-patrick-s-day
p346
tp347
Rp348
ag3
(g4
g5
Vlive-streaming
p349
tp350
Rp351
ag3
(g4
g5
Vi20-active
p352
tp353
Rp354
ag3
(g4
g5
Vfci
p355
tp356
Rp357
ag3
(g4
g5
Varijit-singh
p358
tp359
Rp360
ag3
(g4
g5
Vaamir-khan
p361
tp362
Rp363
ag3
(g4
g5
Vmothers-day
p364
tp365
Rp366
ag3
(g4
g5
Vanna-atkins
p367
tp368
Rp369
ag3
(g4
g5
Vdk-ravi
p370
tp371
Rp372
asS'US'
p373
(lp374
g3
(g4
g5
Vthe-flash
p375
tp376
Rp377
ag3
(g4
g5
Vsuzanne-somers
p378
tp379
Rp380
ag3
(g4
g5
Vaaron-schock
p381
tp382
Rp383
ag3
(g4
g5
Vizombie
p384
tp385
Rp386
ag3
(g4
g5
Virish-blessing
p387
tp388
Rp389
ag3
(g4
g5
Vncaa-basketball
p390
tp391
Rp392
ag3
(g4
g5
Vchris-borland
p393
tp394
Rp395
ag3
(g4
g5
Vjack-haley
p396
tp397
Rp398
ag3
(g4
g5
Vrumer-willis
p399
tp400
Rp401
ag3
(g4
g5
Vdairy-queen
p402
tp403
Rp404
ag3
(g4
g5
Vfour-leaf-clover
p405
tp406
Rp407
ag3
(g4
g5
Visrael-election
p408
tp409
Rp410
ag3
(g4
g5
Vazealia-banks
p411
tp412
Rp413
ag3
(g4
g5
Vst-patrick-s-day
p414
tp415
Rp416
ag3
(g4
g5
Vleprechaun
p417
tp418
Rp419
ag3
(g4
g5
Vnorthern-lights
p420
tp421
Rp422
ag3
(g4
g5
Vcharlotte-mckinney
p423
tp424
Rp425
ag3
(g4
g5
Vyahoo-screen
p426
tp427
Rp428
ag3
(g4
g5
Vcorned-beef-and-cabbage
p429
tp430
Rp431
ag3
(g4
g5
Vdancing-with-the-stars
p432
tp433
Rp434
asS'France'
p435
(lp436
g3
(g4
g5
Visrael
p437
tp438
Rp439
ag3
(g4
g5
Vmathieu-gallet
p440
tp441
Rp442
ag3
(g4
g5
Vmonaco-arsenal
p443
tp444
Rp445
ag3
(g4
g5
Vprocuration-vote
p446
tp447
Rp448
ag3
(g4
g5
Vtv
p449
tp450
Rp451
ag3
(g4
g5
Veclipse
p452
tp453
Rp454
ag3
(g4
g5
Vlacrim
p455
tp456
Rp457
ag3
(g4
g5
Vtunisie
p458
tp459
Rp460
ag3
(g4
g5
Vatletico-madrid
p461
tp462
Rp463
ag3
(g4
g5
Vsaint-patrick
p464
tp465
Rp466
ag3
(g4
g5
Vkendrick-lamar
p467
tp468
Rp469
ag3
(g4
g5
Vshy-m
p470
tp471
Rp472
ag3
(g4
g5
Vmarc-veyrat
p473
tp474
Rp475
ag3
(g4
g5
Vadriana-karembeu
p476
tp477
Rp478
ag3
(g4
g5
Variana-miyamoto
p479
tp480
Rp481
ag3
(g4
g5
Vpierre-niney
p482
tp483
Rp484
ag3
(g4
g5
Vbalkany
p485
tp486
Rp487
ag3
(g4
g5
Vpatrick-buisson
p488
tp489
Rp490
ag3
(g4
g5
Vanna-atkins
p491
tp492
Rp493
ag3
(g4
g5
Vunforgettable
p494
tp495
Rp496
as.