(dp0
S'Brazil'
p1
(lp2
ccopy_reg
_reconstructor
p3
(cdjango.utils.safestring
SafeText
p4
c__builtin__
unicode
p5
Vmoto-e
p6
tp7
Rp8
ag3
(g4
g5
Vfifacom
p9
tp10
Rp11
ag3
(g4
g5
Vfifa
p12
tp13
Rp14
ag3
(g4
g5
Vjogo-do-brasil
p15
tp16
Rp17
ag3
(g4
g5
Vrihanna
p18
tp19
Rp20
ag3
(g4
g5
Vserasa
p21
tp22
Rp23
ag3
(g4
g5
Vsicredi
p24
tp25
Rp26
ag3
(g4
g5
Vmalhacao
p27
tp28
Rp29
ag3
(g4
g5
Vipva
p30
tp31
Rp32
ag3
(g4
g5
Vpatricia-poeta
p33
tp34
Rp35
ag3
(g4
g5
Vsisu
p36
tp37
Rp38
ag3
(g4
g5
Vprouni
p39
tp40
Rp41
ag3
(g4
g5
Vios-8
p42
tp43
Rp44
ag3
(g4
g5
Vedward-snowden
p45
tp46
Rp47
ag3
(g4
g5
Vr7
p48
tp49
Rp50
ag3
(g4
g5
Vfifa
p51
tp52
Rp53
ag3
(g4
g5
Vfifa-ingressos
p54
tp55
Rp56
ag3
(g4
g5
Vmarinho-chagas
p57
tp58
Rp59
ag3
(g4
g5
Vtuf-brasil-3
p60
tp61
Rp62
ag3
(g4
g5
Vmauricio-torres
p63
tp64
Rp65
asS'Australia'
p66
(lp67
g3
(g4
g5
Vtiananmen-square
p68
tp69
Rp70
ag3
(g4
g5
Vworld-cup-2014
p71
tp72
Rp73
ag3
(g4
g5
Vharry-styles
p74
tp75
Rp76
ag3
(g4
g5
Vdoc-neeson
p77
tp78
Rp79
ag3
(g4
g5
Vthe-fault-in-our-stars
p80
tp81
Rp82
ag3
(g4
g5
Vpeta-credlin
p83
tp84
Rp85
ag3
(g4
g5
Vanime
p86
tp87
Rp88
ag3
(g4
g5
Vchanning-tatum
p89
tp90
Rp91
ag3
(g4
g5
Vsocceroos
p92
tp93
Rp94
ag3
(g4
g5
Vmanga
p95
tp96
Rp97
ag3
(g4
g5
Vrihanna
p98
tp99
Rp100
ag3
(g4
g5
Vjosh-bootsma
p101
tp102
Rp103
ag3
(g4
g5
Vios-8
p104
tp105
Rp106
ag3
(g4
g5
Vslender-man
p107
tp108
Rp109
ag3
(g4
g5
Vtony-abbott
p110
tp111
Rp112
ag3
(g4
g5
Vputlocker
p113
tp114
Rp115
ag3
(g4
g5
Vscout-willis
p116
tp117
Rp118
ag3
(g4
g5
Vkate-middleton
p119
tp120
Rp121
ag3
(g4
g5
Vkate-upton
p122
tp123
Rp124
ag3
(g4
g5
Vapple
p125
tp126
Rp127
asS'Italy'
p128
(lp129
g3
(g4
g5
Vmose
p130
tp131
Rp132
ag3
(g4
g5
Vitalia-lussemburgo
p133
tp134
Rp135
ag3
(g4
g5
Vfinale-the-voice
p136
tp137
Rp138
ag3
(g4
g5
Vvalentina-nappi
p139
tp140
Rp141
ag3
(g4
g5
Vlaura-pausini
p142
tp143
Rp144
ag3
(g4
g5
Vmiur
p145
tp146
Rp147
ag3
(g4
g5
Vcrotone-bari
p148
tp149
Rp150
ag3
(g4
g5
Vmusic-awards-2014
p151
tp152
Rp153
ag3
(g4
g5
Vcristian-e-tara
p154
tp155
Rp156
ag3
(g4
g5
Vmenez
p157
tp158
Rp159
ag3
(g4
g5
Vimu-2014
p160
tp161
Rp162
ag3
(g4
g5
Vschumacher
p163
tp164
Rp165
ag3
(g4
g5
Vkeita
p166
tp167
Rp168
ag3
(g4
g5
Vgrano-saraceno
p169
tp170
Rp171
ag3
(g4
g5
Vlorde
p172
tp173
Rp174
ag3
(g4
g5
Vemis-killa
p175
tp176
Rp177
ag3
(g4
g5
Vgeorge-jung
p178
tp179
Rp180
ag3
(g4
g5
Vil-tempo-del-coraggio-e-dell-amore
p181
tp182
Rp183
ag3
(g4
g5
Vfesta-della-repubblica
p184
tp185
Rp186
ag3
(g4
g5
Vapple
p187
tp188
Rp189
asS'Spain'
p190
(lp191
g3
(g4
g5
Vmira-quien-salta
p192
tp193
Rp194
ag3
(g4
g5
Vfrancis-montesinos
p195
tp196
Rp197
ag3
(g4
g5
Veurosport
p198
tp199
Rp200
ag3
(g4
g5
Vmarilo-montero
p201
tp202
Rp203
ag3
(g4
g5
Vpatricia-martinez
p204
tp205
Rp206
ag3
(g4
g5
Vdiego-costa
p207
tp208
Rp209
ag3
(g4
g5
Vslenderman
p210
tp211
Rp212
ag3
(g4
g5
Vcamiseta-real-madrid-2015
p213
tp214
Rp215
ag3
(g4
g5
Vrihanna
p216
tp217
Rp218
ag3
(g4
g5
Vmanolo-el-del-bombo
p219
tp220
Rp221
ag3
(g4
g5
Vcuentame
p222
tp223
Rp224
ag3
(g4
g5
Veva-sannum
p225
tp226
Rp227
ag3
(g4
g5
Vpelopony
p228
tp229
Rp230
ag3
(g4
g5
Voberyn-martell
p231
tp232
Rp233
ag3
(g4
g5
Vclarin
p234
tp235
Rp236
ag3
(g4
g5
Voriana
p237
tp238
Rp239
ag3
(g4
g5
Vel-rey-abdica
p240
tp241
Rp242
ag3
(g4
g5
Vono
p243
tp244
Rp245
ag3
(g4
g5
Vapple
p246
tp247
Rp248
ag3
(g4
g5
Vtve
p249
tp250
Rp251
asS'UK'
p252
(lp253
g3
(g4
g5
Vkourtney-kardashian
p254
tp255
Rp256
ag3
(g4
g5
Vdiego-costa
p257
tp258
Rp259
ag3
(g4
g5
Vrachel-stevens
p260
tp261
Rp262
ag3
(g4
g5
Vtiananmen-square
p263
tp264
Rp265
ag3
(g4
g5
Vrihanna-perfume
p266
tp267
Rp268
ag3
(g4
g5
Vnadal
p269
tp270
Rp271
ag3
(g4
g5
Veuro-millions
p272
tp273
Rp274
ag3
(g4
g5
Vemre-can
p275
tp276
Rp277
ag3
(g4
g5
Vecuador
p278
tp279
Rp280
ag3
(g4
g5
Vrihanna
p281
tp282
Rp283
ag3
(g4
g5
Vkarl-harris
p284
tp285
Rp286
ag3
(g4
g5
Vslender-man
p287
tp288
Rp289
ag3
(g4
g5
Vfrank-lampard
p290
tp291
Rp292
ag3
(g4
g5
Vgameover-zeus
p293
tp294
Rp295
ag3
(g4
g5
Vscout-willis
p296
tp297
Rp298
ag3
(g4
g5
Vchannel-4
p299
tp300
Rp301
ag3
(g4
g5
Veugenie-bouchard
p302
tp303
Rp304
ag3
(g4
g5
Vapple
p305
tp306
Rp307
ag3
(g4
g5
Vchanning-tatum
p308
tp309
Rp310
ag3
(g4
g5
Voberyn-martell
p311
tp312
Rp313
asS'India'
p314
(lp315
g3
(g4
g5
Vcomedk
p316
tp317
Rp318
ag3
(g4
g5
Vrihanna
p319
tp320
Rp321
ag3
(g4
g5
Vgopinath-munde
p322
tp323
Rp324
ag3
(g4
g5
Vios-8
p325
tp326
Rp327
ag3
(g4
g5
Vaipmt-result-2014
p328
tp329
Rp330
ag3
(g4
g5
Vhoney-singh
p331
tp332
Rp333
ag3
(g4
g5
Vupsee
p334
tp335
Rp336
ag3
(g4
g5
Vipl-score
p337
tp338
Rp339
ag3
(g4
g5
V10th-result
p340
tp341
Rp342
ag3
(g4
g5
Vmsbte
p343
tp344
Rp345
ag3
(g4
g5
Vhsc
p346
tp347
Rp348
ag3
(g4
g5
Vdu
p349
tp350
Rp351
ag3
(g4
g5
Vwwe-payback-2014
p352
tp353
Rp354
ag3
(g4
g5
Vipl-final-match
p355
tp356
Rp357
ag3
(g4
g5
Vrbi
p358
tp359
Rp360
ag3
(g4
g5
Vwwe-payback-results
p361
tp362
Rp363
ag3
(g4
g5
Vwwdc-2014
p364
tp365
Rp366
ag3
(g4
g5
Vkkr
p367
tp368
Rp369
ag3
(g4
g5
Vpseb
p370
tp371
Rp372
ag3
(g4
g5
Vtelangana
p373
tp374
Rp375
asS'US'
p376
(lp377
g3
(g4
g5
Vjonah-hill
p378
tp379
Rp380
ag3
(g4
g5
Vrihanna
p381
tp382
Rp383
ag3
(g4
g5
Vslender-man
p384
tp385
Rp386
ag3
(g4
g5
Vgeorge-jung
p387
tp388
Rp389
ag3
(g4
g5
Vmortal-kombat-x
p390
tp391
Rp392
ag3
(g4
g5
Vscout-willis
p393
tp394
Rp395
ag3
(g4
g5
Vios-8
p396
tp397
Rp398
ag3
(g4
g5
Vblackhawks
p399
tp400
Rp401
ag3
(g4
g5
Vgame-of-thrones
p402
tp403
Rp404
ag3
(g4
g5
Vwwe
p405
tp406
Rp407
ag3
(g4
g5
Vchris-brown
p408
tp409
Rp410
ag3
(g4
g5
Vgwendoline-christie
p411
tp412
Rp413
ag3
(g4
g5
Vaapl
p414
tp415
Rp416
ag3
(g4
g5
Vjean-kasem
p417
tp418
Rp419
ag3
(g4
g5
Vspurs
p420
tp421
Rp422
ag3
(g4
g5
Vann-b-davis
p423
tp424
Rp425
ag3
(g4
g5
Vearthquake
p426
tp427
Rp428
ag3
(g4
g5
Vlewis-katz
p429
tp430
Rp431
ag3
(g4
g5
Vluis-montes
p432
tp433
Rp434
ag3
(g4
g5
Votf-nunu
p435
tp436
Rp437
asS'France'
p438
(lp439
g3
(g4
g5
Vrihanna
p440
tp441
Rp442
ag3
(g4
g5
Veinstein
p443
tp444
Rp445
ag3
(g4
g5
Vvalerie-fourneyron
p446
tp447
Rp448
ag3
(g4
g5
Valgerie-roumanie
p449
tp450
Rp451
ag3
(g4
g5
Vloana
p452
tp453
Rp454
ag3
(g4
g5
Vedge-of-tomorrow
p455
tp456
Rp457
ag3
(g4
g5
Vmarion-bartoli
p458
tp459
Rp460
ag3
(g4
g5
Vgael-monfils
p461
tp462
Rp463
ag3
(g4
g5
Veugenie-bouchard
p464
tp465
Rp466
ag3
(g4
g5
Vgulbis
p467
tp468
Rp469
ag3
(g4
g5
Vmy-million
p470
tp471
Rp472
ag3
(g4
g5
Vregion-de-france
p473
tp474
Rp475
ag3
(g4
g5
Vreal-steel
p476
tp477
Rp478
ag3
(g4
g5
Vgwendoline-christie
p479
tp480
Rp481
ag3
(g4
g5
Vregion
p482
tp483
Rp484
ag3
(g4
g5
Vsignes
p485
tp486
Rp487
ag3
(g4
g5
Vaudrey-dana
p488
tp489
Rp490
ag3
(g4
g5
Vapple
p491
tp492
Rp493
ag3
(g4
g5
Vfrance-paraguay
p494
tp495
Rp496
ag3
(g4
g5
Vjuan-carlos
p497
tp498
Rp499
as.