(dp0
S'Brazil'
p1
(lp2
ccopy_reg
_reconstructor
p3
(cdjango.utils.safestring
SafeText
p4
c__builtin__
unicode
p5
Vbetty-lago
p6
tp7
Rp8
ag3
(g4
g5
Vlotofacil-1175
p9
tp10
Rp11
ag3
(g4
g5
Vhouse-of-cards
p12
tp13
Rp14
ag3
(g4
g5
Vleonard-nimoy
p15
tp16
Rp17
ag3
(g4
g5
Vtelegram
p18
tp19
Rp20
ag3
(g4
g5
Vjose-mauro-de-vasconcelos
p21
tp22
Rp23
ag3
(g4
g5
Vbem-estar
p24
tp25
Rp26
ag3
(g4
g5
Vwsl
p27
tp28
Rp29
ag3
(g4
g5
Vinternacional
p30
tp31
Rp32
ag3
(g4
g5
Vsilvio-santos-netflix
p33
tp34
Rp35
ag3
(g4
g5
Vsuzane-von-richthofen
p36
tp37
Rp38
ag3
(g4
g5
Vmohammed-emwazi
p39
tp40
Rp41
ag3
(g4
g5
Vwhatsapp-vai-sair-do-ar
p42
tp43
Rp44
ag3
(g4
g5
Vrock-in-rio
p45
tp46
Rp47
ag3
(g4
g5
Vjornal-hoje
p48
tp49
Rp50
ag3
(g4
g5
Vmark-zuckerberg
p51
tp52
Rp53
ag3
(g4
g5
Vwhatsapp
p54
tp55
Rp56
ag3
(g4
g5
Vflorinda-meza
p57
tp58
Rp59
ag3
(g4
g5
Vvestido-azul-e-preto
p60
tp61
Rp62
ag3
(g4
g5
Vrecord
p63
tp64
Rp65
asS'Australia'
p66
(lp67
g3
(g4
g5
Vfuture-music
p68
tp69
Rp70
ag3
(g4
g5
Vv8-supercars
p71
tp72
Rp73
ag3
(g4
g5
Vin-time
p74
tp75
Rp76
ag3
(g4
g5
Vboris-nemtsov
p77
tp78
Rp79
ag3
(g4
g5
Vhouse-of-cards
p80
tp81
Rp82
ag3
(g4
g5
Vleonard-nimoy
p83
tp84
Rp85
ag3
(g4
g5
Vaustralia-cricket-team
p86
tp87
Rp88
ag3
(g4
g5
Vwhite-and-gold-dress
p89
tp90
Rp91
ag3
(g4
g5
Vwsl
p92
tp93
Rp94
ag3
(g4
g5
Vkhloe-kardashian
p95
tp96
Rp97
ag3
(g4
g5
Vgary-glitter
p98
tp99
Rp100
ag3
(g4
g5
Vab-de-villiers
p101
tp102
Rp103
ag3
(g4
g5
Vaustralia-vs-new-zealand
p104
tp105
Rp106
ag3
(g4
g5
Vindia-vs-uae
p107
tp108
Rp109
ag3
(g4
g5
Vmohammed-emwazi
p110
tp111
Rp112
ag3
(g4
g5
Vwyrmwood
p113
tp114
Rp115
ag3
(g4
g5
Vashley-harrison
p116
tp117
Rp118
ag3
(g4
g5
Vryan-gosling
p119
tp120
Rp121
ag3
(g4
g5
Vfinding-nemo
p122
tp123
Rp124
ag3
(g4
g5
Vjess-ainscough
p125
tp126
Rp127
asS'Italy'
p128
(lp129
g3
(g4
g5
Vprobabili-formazioni
p130
tp131
Rp132
ag3
(g4
g5
Vvestito-bianco-e-oro
p133
tp134
Rp135
ag3
(g4
g5
Vpasquale-barra
p136
tp137
Rp138
ag3
(g4
g5
Vmara-venier
p139
tp140
Rp141
ag3
(g4
g5
Vhouse-of-cards
p142
tp143
Rp144
ag3
(g4
g5
Vleonard-nimoy
p145
tp146
Rp147
ag3
(g4
g5
Vrosy-maggiulli
p148
tp149
Rp150
ag3
(g4
g5
Vantonello-venditti
p151
tp152
Rp153
ag3
(g4
g5
Vthedress
p154
tp155
Rp156
ag3
(g4
g5
Vtorino
p157
tp158
Rp159
ag3
(g4
g5
Vmilly-carlucci
p160
tp161
Rp162
ag3
(g4
g5
Vtorino-fc
p163
tp164
Rp165
ag3
(g4
g5
Vclassifica-serie-b
p166
tp167
Rp168
ag3
(g4
g5
Vmanifestazione-roma
p169
tp170
Rp171
ag3
(g4
g5
Vboris-nemtsov
p172
tp173
Rp174
ag3
(g4
g5
Vthe-dress
p175
tp176
Rp177
ag3
(g4
g5
Vserie-b
p178
tp179
Rp180
ag3
(g4
g5
Vronin
p181
tp182
Rp183
ag3
(g4
g5
Vingv
p184
tp185
Rp186
ag3
(g4
g5
Vranking-uefa
p187
tp188
Rp189
asS'Spain'
p190
(lp191
g3
(g4
g5
Vmarta-sanchez
p192
tp193
Rp194
ag3
(g4
g5
Vvestido-blanco-y-dorado
p195
tp196
Rp197
ag3
(g4
g5
Vchris-kyle
p198
tp199
Rp200
ag3
(g4
g5
Vhouse-of-cards
p201
tp202
Rp203
ag3
(g4
g5
Vleonard-nimoy
p204
tp205
Rp206
ag3
(g4
g5
Vblanco-y-dorado
p207
tp208
Rp209
ag3
(g4
g5
Vfibrosis-quistica
p210
tp211
Rp212
ag3
(g4
g5
Vthedress
p213
tp214
Rp215
ag3
(g4
g5
Vvestido-azul
p216
tp217
Rp218
ag3
(g4
g5
Vvestido-color
p219
tp220
Rp221
ag3
(g4
g5
Vvestido-azul-o-blanco
p222
tp223
Rp224
ag3
(g4
g5
Vilusiones-opticas
p225
tp226
Rp227
ag3
(g4
g5
Vboris-nemtsov
p228
tp229
Rp230
ag3
(g4
g5
Vgranada-barcelona
p231
tp232
Rp233
ag3
(g4
g5
Vkingsman
p234
tp235
Rp236
ag3
(g4
g5
Vmadonna
p237
tp238
Rp239
ag3
(g4
g5
Vthe-pelayos
p240
tp241
Rp242
ag3
(g4
g5
Vathletic-torino
p243
tp244
Rp245
ag3
(g4
g5
Vcarmen-jorda
p246
tp247
Rp248
ag3
(g4
g5
Vuefa
p249
tp250
Rp251
asS'UK'
p252
(lp253
g3
(g4
g5
Vsix-nations
p254
tp255
Rp256
ag3
(g4
g5
Veuropa-league-draw
p257
tp258
Rp259
ag3
(g4
g5
Vjameela-jamil
p260
tp261
Rp262
ag3
(g4
g5
Vgary-glitter
p263
tp264
Rp265
ag3
(g4
g5
Veddie-redmayne
p266
tp267
Rp268
ag3
(g4
g5
Vhouse-of-cards
p269
tp270
Rp271
ag3
(g4
g5
Vleonard-nimoy
p272
tp273
Rp274
ag3
(g4
g5
Vlloyds-share-price
p275
tp276
Rp277
ag3
(g4
g5
Vmargot-robbie
p278
tp279
Rp280
ag3
(g4
g5
Vwill-smith
p281
tp282
Rp283
ag3
(g4
g5
Vlouise-thompson
p284
tp285
Rp286
ag3
(g4
g5
Vnoel-gallagher
p287
tp288
Rp289
ag3
(g4
g5
Vboris-nemtsov
p290
tp291
Rp292
ag3
(g4
g5
Vcucumber
p293
tp294
Rp295
ag3
(g4
g5
V6-nations
p296
tp297
Rp298
ag3
(g4
g5
Vfearne-cotton
p299
tp300
Rp301
ag3
(g4
g5
Vcolour-changing-dress
p302
tp303
Rp304
ag3
(g4
g5
Vcage
p305
tp306
Rp307
ag3
(g4
g5
Vdavid-beckham
p308
tp309
Rp310
ag3
(g4
g5
Vthe-dress
p311
tp312
Rp313
asS'India'
p314
(lp315
g3
(g4
g5
Vsouth-africa-cricket-team
p316
tp317
Rp318
ag3
(g4
g5
Vbudget-2015
p319
tp320
Rp321
ag3
(g4
g5
Vscience-day
p322
tp323
Rp324
ag3
(g4
g5
Vhouse-of-cards
p325
tp326
Rp327
ag3
(g4
g5
Vleonard-nimoy
p328
tp329
Rp330
ag3
(g4
g5
Vkaaki-sattai
p331
tp332
Rp333
ag3
(g4
g5
Vstar-sports-live
p334
tp335
Rp336
ag3
(g4
g5
Vdum-laga-ke-haisha
p337
tp338
Rp339
ag3
(g4
g5
Vab-tak-chappan-2
p340
tp341
Rp342
ag3
(g4
g5
Varsenal
p343
tp344
Rp345
ag3
(g4
g5
Vmnrega
p346
tp347
Rp348
ag3
(g4
g5
Vab-de-villiers
p349
tp350
Rp351
ag3
(g4
g5
Vlive-cricket-score
p352
tp353
Rp354
ag3
(g4
g5
Vjntu-results
p355
tp356
Rp357
ag3
(g4
g5
Vbarcelona
p358
tp359
Rp360
ag3
(g4
g5
Vrail-budget-2015
p361
tp362
Rp363
ag3
(g4
g5
Vserial-actor-sarath-kumar
p364
tp365
Rp366
ag3
(g4
g5
Vindia-cricket-team
p367
tp368
Rp369
ag3
(g4
g5
Vsonam-kapoor
p370
tp371
Rp372
ag3
(g4
g5
Vthe-dress
p373
tp374
Rp375
asS'US'
p376
(lp377
g3
(g4
g5
Vdallas-weather
p378
tp379
Rp380
ag3
(g4
g5
Vcleveland-cavaliers
p381
tp382
Rp383
ag3
(g4
g5
Vthe-lazarus-effect
p384
tp385
Rp386
ag3
(g4
g5
Vllama
p387
tp388
Rp389
ag3
(g4
g5
Vhouse-of-cards
p390
tp391
Rp392
ag3
(g4
g5
Vleonard-nimoy
p393
tp394
Rp395
ag3
(g4
g5
Vkelly-osbourne
p396
tp397
Rp398
ag3
(g4
g5
Vronda-rousey
p399
tp400
Rp401
ag3
(g4
g5
Vkhloe-kardashian
p402
tp403
Rp404
ag3
(g4
g5
Vblue-black-white-gold-dress
p405
tp406
Rp407
ag3
(g4
g5
Vsodomy
p408
tp409
Rp410
ag3
(g4
g5
Vboris-nemtsov
p411
tp412
Rp413
ag3
(g4
g5
Vfocus-movie
p414
tp415
Rp416
ag3
(g4
g5
Vmohammed-emwazi
p417
tp418
Rp419
ag3
(g4
g5
Vscandal
p420
tp421
Rp422
ag3
(g4
g5
Vtyrone-mo
p423
tp424
Rp425
ag3
(g4
g5
Vhow-to-get-away-with-murder
p426
tp427
Rp428
ag3
(g4
g5
Vnet-neutrality
p429
tp430
Rp431
ag3
(g4
g5
Vthe-dress
p432
tp433
Rp434
ag3
(g4
g5
Vanthony-mason
p435
tp436
Rp437
asS'France'
p438
(lp439
g3
(g4
g5
Vval-thorens
p440
tp441
Rp442
ag3
(g4
g5
Vapple-watch
p443
tp444
Rp445
ag3
(g4
g5
Vom
p446
tp447
Rp448
ag3
(g4
g5
Vguingamp-kiev
p449
tp450
Rp451
ag3
(g4
g5
Vrayane-bensetti
p452
tp453
Rp454
ag3
(g4
g5
Vhouse-of-cards
p455
tp456
Rp457
ag3
(g4
g5
Vleonard-nimoy
p458
tp459
Rp460
ag3
(g4
g5
Vla-guerre-des-mondes
p461
tp462
Rp463
ag3
(g4
g5
Vlaury-thilleman
p464
tp465
Rp466
ag3
(g4
g5
Varsenal-monaco
p467
tp468
Rp469
ag3
(g4
g5
Vrobe-bleu-et-noir
p470
tp471
Rp472
ag3
(g4
g5
Vpascal-brunner
p473
tp474
Rp475
ag3
(g4
g5
Vles-enfoires
p476
tp477
Rp478
ag3
(g4
g5
Vemmanuel-macron
p479
tp480
Rp481
ag3
(g4
g5
Vboris-nemtsov
p482
tp483
Rp484
ag3
(g4
g5
Vmohammed-emwazi
p485
tp486
Rp487
ag3
(g4
g5
Vluce
p488
tp489
Rp490
ag3
(g4
g5
Vmarion-cotillard
p491
tp492
Rp493
ag3
(g4
g5
Vmadonna
p494
tp495
Rp496
ag3
(g4
g5
Vmartin-bouygues
p497
tp498
Rp499
as.