(dp0
S'Brazil'
p1
(lp2
ccopy_reg
_reconstructor
p3
(cdjango.utils.safestring
SafeText
p4
c__builtin__
unicode
p5
Vmax-nunes
p6
tp7
Rp8
ag3
(g4
g5
Vdia-dos-namorados-2014
p9
tp10
Rp11
ag3
(g4
g5
Vandressa-urach
p12
tp13
Rp14
ag3
(g4
g5
Vprouni
p15
tp16
Rp17
ag3
(g4
g5
Vmetro
p18
tp19
Rp20
ag3
(g4
g5
Vmetro-sp
p21
tp22
Rp23
ag3
(g4
g5
Vrestituicao-imposto-de-renda-2014
p24
tp25
Rp26
ag3
(g4
g5
Ve3-2014
p27
tp28
Rp29
ag3
(g4
g5
Vabertura-da-copa-2014
p30
tp31
Rp32
ag3
(g4
g5
Vbrasil-vs-croacia
p33
tp34
Rp35
ag3
(g4
g5
Ve3
p36
tp37
Rp38
ag3
(g4
g5
Vtransito-agora
p39
tp40
Rp41
ag3
(g4
g5
Vwhatsapp
p42
tp43
Rp44
ag3
(g4
g5
Vgreve-metro
p45
tp46
Rp47
ag3
(g4
g5
Vformula-1
p48
tp49
Rp50
ag3
(g4
g5
Vhino-nacional
p51
tp52
Rp53
ag3
(g4
g5
Vfernandao
p54
tp55
Rp56
ag3
(g4
g5
Vmarcha-para-jesus-2014
p57
tp58
Rp59
ag3
(g4
g5
Vjogo-do-brasil
p60
tp61
Rp62
ag3
(g4
g5
Venem-2013
p63
tp64
Rp65
asS'Australia'
p66
(lp67
g3
(g4
g5
V22-jump-street
p68
tp69
Rp70
ag3
(g4
g5
Vdumb-and-dumber-2
p71
tp72
Rp73
ag3
(g4
g5
Vnba
p74
tp75
Rp76
ag3
(g4
g5
Vpretty-little-liars-season-5
p77
tp78
Rp79
ag3
(g4
g5
Vfifa-world-cup
p80
tp81
Rp82
ag3
(g4
g5
Vrik-mayall
p83
tp84
Rp85
ag3
(g4
g5
Vworld-cup-2014
p86
tp87
Rp88
ag3
(g4
g5
Vrevenge
p89
tp90
Rp91
ag3
(g4
g5
Vsamantha-jade
p92
tp93
Rp94
ag3
(g4
g5
Vpeter-coleman
p95
tp96
Rp97
ag3
(g4
g5
Vassassins-creed-unity
p98
tp99
Rp100
ag3
(g4
g5
Vbattlefield-hardline
p101
tp102
Rp103
ag3
(g4
g5
Vmichael-schumacher
p104
tp105
Rp106
ag3
(g4
g5
Vhouse-rules-competition
p107
tp108
Rp109
ag3
(g4
g5
Vf1
p110
tp111
Rp112
ag3
(g4
g5
Ve3
p113
tp114
Rp115
ag3
(g4
g5
Vnba
p116
tp117
Rp118
ag3
(g4
g5
Vnadal
p119
tp120
Rp121
ag3
(g4
g5
Vfrench-open-2014
p122
tp123
Rp124
ag3
(g4
g5
Vkeeping-up-with-the-kardashians
p125
tp126
Rp127
asS'Italy'
p128
(lp129
g3
(g4
g5
Vberlinguer
p130
tp131
Rp132
ag3
(g4
g5
Vpaolo-ruffini
p133
tp134
Rp135
ag3
(g4
g5
Vchi-l-ha-visto
p136
tp137
Rp138
ag3
(g4
g5
Vlatina-bari
p139
tp140
Rp141
ag3
(g4
g5
Vnba
p142
tp143
Rp144
ag3
(g4
g5
Vuber
p145
tp146
Rp147
ag3
(g4
g5
Vl-immortale
p148
tp149
Rp150
ag3
(g4
g5
Vgomorra-la-serie-streaming
p151
tp152
Rp153
ag3
(g4
g5
Vfanny-neguesha
p154
tp155
Rp156
ag3
(g4
g5
Vmeteo-napoli
p157
tp158
Rp159
ag3
(g4
g5
Vcaos-calmo
p160
tp161
Rp162
ag3
(g4
g5
Vassassin-s-creed-unity
p163
tp164
Rp165
ag3
(g4
g5
Vlibero
p166
tp167
Rp168
ag3
(g4
g5
Vunicredit
p169
tp170
Rp171
ag3
(g4
g5
Vtasi
p172
tp173
Rp174
ag3
(g4
g5
Vinps
p175
tp176
Rp177
ag3
(g4
g5
Vmiur
p178
tp179
Rp180
ag3
(g4
g5
Vballottaggio
p181
tp182
Rp183
ag3
(g4
g5
Vmps
p184
tp185
Rp186
ag3
(g4
g5
Vintesa-san-paolo
p187
tp188
Rp189
asS'Spain'
p190
(lp191
g3
(g4
g5
Velsa-pataky
p192
tp193
Rp194
ag3
(g4
g5
Vnba
p195
tp196
Rp197
ag3
(g4
g5
Vcastle
p198
tp199
Rp200
ag3
(g4
g5
Vuber
p201
tp202
Rp203
ag3
(g4
g5
Vblablacar
p204
tp205
Rp206
ag3
(g4
g5
Vricky-martin
p207
tp208
Rp209
ag3
(g4
g5
Vleague-of-legends
p210
tp211
Rp212
ag3
(g4
g5
Vangelica-rivera
p213
tp214
Rp215
ag3
(g4
g5
Vel-chiringuito-de-pepe
p216
tp217
Rp218
ag3
(g4
g5
Vrik-mayall
p219
tp220
Rp221
ag3
(g4
g5
Ve3
p222
tp223
Rp224
ag3
(g4
g5
Vrakitic
p225
tp226
Rp227
ag3
(g4
g5
Veurofighter
p228
tp229
Rp230
ag3
(g4
g5
Vl-equipe
p231
tp232
Rp233
ag3
(g4
g5
Vlaura-manzanedo
p234
tp235
Rp236
ag3
(g4
g5
Vslenderman
p237
tp238
Rp239
ag3
(g4
g5
Vrafa-nadal
p240
tp241
Rp242
ag3
(g4
g5
Vwhatsapp
p243
tp244
Rp245
ag3
(g4
g5
Vricky-martin
p246
tp247
Rp248
ag3
(g4
g5
Vcuatro
p249
tp250
Rp251
asS'UK'
p252
(lp253
g3
(g4
g5
Vuber
p254
tp255
Rp256
ag3
(g4
g5
Vdumb-and-dumber-2
p257
tp258
Rp259
ag3
(g4
g5
Veuro-millions
p260
tp261
Rp262
ag3
(g4
g5
Vpassport-office
p263
tp264
Rp265
ag3
(g4
g5
Vjk-rowling
p266
tp267
Rp268
ag3
(g4
g5
Ve3
p269
tp270
Rp271
ag3
(g4
g5
Veastenders
p272
tp273
Rp274
ag3
(g4
g5
Veastenders-to-be-axed
p275
tp276
Rp277
ag3
(g4
g5
Vdanielle-big-brother
p278
tp279
Rp280
ag3
(g4
g5
Vtesco-bank
p281
tp282
Rp283
ag3
(g4
g5
Veuro-millions-results
p284
tp285
Rp286
ag3
(g4
g5
Vronaldo
p287
tp288
Rp289
ag3
(g4
g5
Vsepp-blatter
p290
tp291
Rp292
ag3
(g4
g5
Vgta-5
p293
tp294
Rp295
ag3
(g4
g5
Vworld-cup-fixtures-2014
p296
tp297
Rp298
ag3
(g4
g5
Vlorde
p299
tp300
Rp301
ag3
(g4
g5
Vjoe-cole
p302
tp303
Rp304
ag3
(g4
g5
Vrik-mayall
p305
tp306
Rp307
ag3
(g4
g5
Vdavid-beckham
p308
tp309
Rp310
ag3
(g4
g5
Vfifa
p311
tp312
Rp313
asS'India'
p314
(lp315
g3
(g4
g5
Vfifa
p316
tp317
Rp318
ag3
(g4
g5
Vwhatsapp
p319
tp320
Rp321
ag3
(g4
g5
Vnadal
p322
tp323
Rp324
ag3
(g4
g5
Veamcet
p325
tp326
Rp327
ag3
(g4
g5
Vwhats-app
p328
tp329
Rp330
ag3
(g4
g5
Vbrazil
p331
tp332
Rp333
ag3
(g4
g5
Vfrench-open
p334
tp335
Rp336
ag3
(g4
g5
Vvijay-pandit
p337
tp338
Rp339
ag3
(g4
g5
Vfrench-open
p340
tp341
Rp342
ag3
(g4
g5
Vnadal
p343
tp344
Rp345
ag3
(g4
g5
Vaipmt-results
p346
tp347
Rp348
ag3
(g4
g5
Vmaria-sharapova
p349
tp350
Rp351
ag3
(g4
g5
Vmumbai-metro
p352
tp353
Rp354
ag3
(g4
g5
Vdu
p355
tp356
Rp357
ag3
(g4
g5
Vholiday
p358
tp359
Rp360
ag3
(g4
g5
Vhate-story-2
p361
tp362
Rp363
ag3
(g4
g5
Vongc
p364
tp365
Rp366
ag3
(g4
g5
Vrbse-10th-result-2014
p367
tp368
Rp369
ag3
(g4
g5
Vmhcet-2014-result
p370
tp371
Rp372
ag3
(g4
g5
Voperation-blue-star
p373
tp374
Rp375
asS'US'
p376
(lp377
g3
(g4
g5
Vdumb-and-dumber-2
p378
tp379
Rp380
ag3
(g4
g5
Vnba
p381
tp382
Rp383
ag3
(g4
g5
Veric-cantor
p384
tp385
Rp386
ag3
(g4
g5
Vreynolds-high-school
p387
tp388
Rp389
ag3
(g4
g5
Vnintendo-e3
p390
tp391
Rp392
ag3
(g4
g5
Vpretty-little-liars
p393
tp394
Rp395
ag3
(g4
g5
Vnhl
p396
tp397
Rp398
ag3
(g4
g5
Vmiss-indiana
p399
tp400
Rp401
ag3
(g4
g5
Vbob-welch
p402
tp403
Rp404
ag3
(g4
g5
Vtracy-morgan-dead
p405
tp406
Rp407
ag3
(g4
g5
Vrangers
p408
tp409
Rp410
ag3
(g4
g5
V21-jump-street
p411
tp412
Rp413
ag3
(g4
g5
Ve3
p414
tp415
Rp416
ag3
(g4
g5
Vrik-mayall
p417
tp418
Rp419
ag3
(g4
g5
Vamy-van-dyken
p420
tp421
Rp422
ag3
(g4
g5
Vworld-cup-schedule
p423
tp424
Rp425
ag3
(g4
g5
Vderek-fisher
p426
tp427
Rp428
ag3
(g4
g5
Vaapl
p429
tp430
Rp431
ag3
(g4
g5
Vbattlefield-hardline
p432
tp433
Rp434
ag3
(g4
g5
Vhillary-clinton
p435
tp436
Rp437
asS'France'
p438
(lp439
g3
(g4
g5
Vnba
p440
tp441
Rp442
ag3
(g4
g5
V24h-du-mans
p443
tp444
Rp445
ag3
(g4
g5
Vgreve-sncf-10-juin-2014
p446
tp447
Rp448
ag3
(g4
g5
Vamerican-pie
p449
tp450
Rp451
ag3
(g4
g5
Vlaurence-boone
p452
tp453
Rp454
ag3
(g4
g5
Vuber
p455
tp456
Rp457
ag3
(g4
g5
Vbalkany
p458
tp459
Rp460
ag3
(g4
g5
Vump
p461
tp462
Rp463
ag3
(g4
g5
Vnathalie-iannetta
p464
tp465
Rp466
ag3
(g4
g5
Vresultat-euromillions
p467
tp468
Rp469
ag3
(g4
g5
Vray-charles
p470
tp471
Rp472
ag3
(g4
g5
Vlaury-thilleman
p473
tp474
Rp475
ag3
(g4
g5
Vpretty-little-liars-saison-5
p476
tp477
Rp478
ag3
(g4
g5
Vgreve-sncf
p479
tp480
Rp481
ag3
(g4
g5
Ve3
p482
tp483
Rp484
ag3
(g4
g5
Vgrele
p485
tp486
Rp487
ag3
(g4
g5
Vpont-des-arts
p488
tp489
Rp490
ag3
(g4
g5
Vassassins-creed-unity
p491
tp492
Rp493
ag3
(g4
g5
Ve3-2014
p494
tp495
Rp496
ag3
(g4
g5
Vfifa-15
p497
tp498
Rp499
as.