(dp0
S'Brazil'
p1
(lp2
ccopy_reg
_reconstructor
p3
(cdjango.utils.safestring
SafeText
p4
c__builtin__
unicode
p5
Vteleton
p6
tp7
Rp8
ag3
(g4
g5
Vdi-ferrero
p9
tp10
Rp11
ag3
(g4
g5
Vsophia-abrahao
p12
tp13
Rp14
ag3
(g4
g5
Vsandra-annenberg
p15
tp16
Rp17
ag3
(g4
g5
Vdupla-identidade
p18
tp19
Rp20
ag3
(g4
g5
Vmaria-casadevall
p21
tp22
Rp23
ag3
(g4
g5
Vsimulado-enem
p24
tp25
Rp26
ag3
(g4
g5
Vcampanha-de-vacinacao
p27
tp28
Rp29
ag3
(g4
g5
Vfiorella-mattheis
p30
tp31
Rp32
ag3
(g4
g5
Vnovembro-azul
p33
tp34
Rp35
ag3
(g4
g5
Vselena-gomez
p36
tp37
Rp38
ag3
(g4
g5
Vdonatella-versace
p39
tp40
Rp41
ag3
(g4
g5
Vcaixa-economica-federal
p42
tp43
Rp44
ag3
(g4
g5
Vcruzeiro
p45
tp46
Rp47
ag3
(g4
g5
Vmc-lello
p48
tp49
Rp50
ag3
(g4
g5
Valto-astral
p51
tp52
Rp53
ag3
(g4
g5
Venem
p54
tp55
Rp56
ag3
(g4
g5
Vserasa-consumidor
p57
tp58
Rp59
ag3
(g4
g5
Vdani-calabresa
p60
tp61
Rp62
ag3
(g4
g5
Vcecilia-meireles
p63
tp64
Rp65
asS'Australia'
p66
(lp67
g3
(g4
g5
Valex-from-target
p68
tp69
Rp70
ag3
(g4
g5
Voverwatch
p71
tp72
Rp73
ag3
(g4
g5
Vmacaulay-culkin
p74
tp75
Rp76
ag3
(g4
g5
Vkaty-perry
p77
tp78
Rp79
ag3
(g4
g5
Vfall-of-the-berlin-wall
p80
tp81
Rp82
ag3
(g4
g5
Vjulien-blanc
p83
tp84
Rp85
ag3
(g4
g5
Vup
p86
tp87
Rp88
ag3
(g4
g5
Vinterstellar
p89
tp90
Rp91
ag3
(g4
g5
Vfour-nations-rugby-league
p92
tp93
Rp94
ag3
(g4
g5
Vkeira-knightley
p95
tp96
Rp97
ag3
(g4
g5
Vtoy-story-4
p98
tp99
Rp100
ag3
(g4
g5
Vchanning-tatum
p101
tp102
Rp103
ag3
(g4
g5
Vnaruto
p104
tp105
Rp106
ag3
(g4
g5
Vrolling-stones
p107
tp108
Rp109
ag3
(g4
g5
Vanne-hathaway
p110
tp111
Rp112
ag3
(g4
g5
Vamanda-bynes
p113
tp114
Rp115
ag3
(g4
g5
Vchampions-league
p116
tp117
Rp118
ag3
(g4
g5
Vcall-of-duty-advanced-warfare
p119
tp120
Rp121
ag3
(g4
g5
Vgabi-grecko
p122
tp123
Rp124
ag3
(g4
g5
Vben-barba
p125
tp126
Rp127
asS'Italy'
p128
(lp129
g3
(g4
g5
Vandiamo-a-quel-paese
p130
tp131
Rp132
ag3
(g4
g5
Vinter
p133
tp134
Rp135
ag3
(g4
g5
Vgigi-riva
p136
tp137
Rp138
ag3
(g4
g5
Vmotogp
p139
tp140
Rp141
ag3
(g4
g5
Vpaola-barale
p142
tp143
Rp144
ag3
(g4
g5
Vl-arte-di-vincere
p145
tp146
Rp147
ag3
(g4
g5
Vhellboy
p148
tp149
Rp150
ag3
(g4
g5
Vpink-floyd
p151
tp152
Rp153
ag3
(g4
g5
Vnapoli-calcio
p154
tp155
Rp156
ag3
(g4
g5
Vpatto-del-nazareno
p157
tp158
Rp159
ag3
(g4
g5
Vjayne-mansfield
p160
tp161
Rp162
ag3
(g4
g5
Vanticipazioni-il-segreto
p163
tp164
Rp165
ag3
(g4
g5
Vdel-piero
p166
tp167
Rp168
ag3
(g4
g5
Vstampante-3d
p169
tp170
Rp171
ag3
(g4
g5
Vciclone-sicilia
p172
tp173
Rp174
ag3
(g4
g5
Vmuro-di-berlino
p175
tp176
Rp177
ag3
(g4
g5
Vveronica-maya
p178
tp179
Rp180
ag3
(g4
g5
Vbruce-springsteen
p181
tp182
Rp183
ag3
(g4
g5
Vjennifer-lopez
p184
tp185
Rp186
ag3
(g4
g5
Vsalvini
p187
tp188
Rp189
asS'Spain'
p190
(lp191
g3
(g4
g5
Valmudena-cid
p192
tp193
Rp194
ag3
(g4
g5
Voverwatch
p195
tp196
Rp197
ag3
(g4
g5
Vmonago
p198
tp199
Rp200
ag3
(g4
g5
Vmotogp
p201
tp202
Rp203
ag3
(g4
g5
Vinterestelar
p204
tp205
Rp206
ag3
(g4
g5
Vpilar-rubio
p207
tp208
Rp209
ag3
(g4
g5
Vsevilla-fc
p210
tp211
Rp212
ag3
(g4
g5
Vinterstellar
p213
tp214
Rp215
ag3
(g4
g5
Vtiempo-en-sevilla
p216
tp217
Rp218
ag3
(g4
g5
Vmiguel-bose
p219
tp220
Rp221
ag3
(g4
g5
Vtoy-story-4
p222
tp223
Rp224
ag3
(g4
g5
Vmiguel-angel-silvestre
p225
tp226
Rp227
ag3
(g4
g5
Vmakoke
p228
tp229
Rp230
ag3
(g4
g5
Vjonathan-cabeza-infante
p231
tp232
Rp233
ag3
(g4
g5
Vhelen-lindes
p234
tp235
Rp236
ag3
(g4
g5
Vdoctrina-botin
p237
tp238
Rp239
ag3
(g4
g5
Vbelen-esteban-embarazada
p240
tp241
Rp242
ag3
(g4
g5
Vclaudia-romani
p243
tp244
Rp245
ag3
(g4
g5
Vnominados-gran-hermano-15
p246
tp247
Rp248
ag3
(g4
g5
Vnolito
p249
tp250
Rp251
asS'UK'
p252
(lp253
g3
(g4
g5
Vchildren-in-need
p254
tp255
Rp256
ag3
(g4
g5
Valex-from-target
p257
tp258
Rp259
ag3
(g4
g5
Vphil-rudd
p260
tp261
Rp262
ag3
(g4
g5
Vmacaulay-culkin
p263
tp264
Rp265
ag3
(g4
g5
Vblue-ticks-on-whatsapp
p266
tp267
Rp268
ag3
(g4
g5
Vchampions-league
p269
tp270
Rp271
ag3
(g4
g5
Vengland-vs-new-zealand
p272
tp273
Rp274
ag3
(g4
g5
Vhm
p275
tp276
Rp277
ag3
(g4
g5
Vdapper-laughs
p278
tp279
Rp280
ag3
(g4
g5
Vinterstellar
p281
tp282
Rp283
ag3
(g4
g5
Vlynsey-pow
p284
tp285
Rp286
ag3
(g4
g5
Vkeira-knightley
p287
tp288
Rp289
ag3
(g4
g5
Vtoy-story-4
p290
tp291
Rp292
ag3
(g4
g5
Vjohn-lewis-christmas-advert-2014
p293
tp294
Rp295
ag3
(g4
g5
Vbenedict-cumberbatch
p296
tp297
Rp298
ag3
(g4
g5
Vcall-of-duty-advanced-warfare
p299
tp300
Rp301
ag3
(g4
g5
Vfootball-manager-2015
p302
tp303
Rp304
ag3
(g4
g5
Vannie-lennox
p305
tp306
Rp307
ag3
(g4
g5
Vshirley-bassey
p308
tp309
Rp310
ag3
(g4
g5
Vliverpool-vs-chelsea
p311
tp312
Rp313
asS'India'
p314
(lp315
g3
(g4
g5
Vcricket
p316
tp317
Rp318
ag3
(g4
g5
Vindia-vs-srilanka-live-score
p319
tp320
Rp321
ag3
(g4
g5
Vsadashiv-amrapurkar
p322
tp323
Rp324
ag3
(g4
g5
Vpulkit-samrat
p325
tp326
Rp327
ag3
(g4
g5
Vambati-rayudu
p328
tp329
Rp330
ag3
(g4
g5
Vguru-nanak-jayanti
p331
tp332
Rp333
ag3
(g4
g5
Vvirat-kohli
p334
tp335
Rp336
ag3
(g4
g5
Vblue-tick-in-whatsapp
p337
tp338
Rp339
ag3
(g4
g5
Vinterstellar
p340
tp341
Rp342
ag3
(g4
g5
Vindia-vs-srilanka
p343
tp344
Rp345
ag3
(g4
g5
Vguru-nanak
p346
tp347
Rp348
ag3
(g4
g5
Vthe-shaukeens
p349
tp350
Rp351
ag3
(g4
g5
Vreal-madrid
p352
tp353
Rp354
ag3
(g4
g5
Vrenee-dhyani
p355
tp356
Rp357
ag3
(g4
g5
Vgold-rate
p358
tp359
Rp360
ag3
(g4
g5
Vkarishma-tanna
p361
tp362
Rp363
ag3
(g4
g5
Vplaying-it-my-way
p364
tp365
Rp366
ag3
(g4
g5
Vrang-rasiya
p367
tp368
Rp369
ag3
(g4
g5
Vsophie-hunter
p370
tp371
Rp372
asS'US'
p373
(lp374
g3
(g4
g5
Voverwatch
p375
tp376
Rp377
ag3
(g4
g5
Velection-results
p378
tp379
Rp380
ag3
(g4
g5
Vamazon-echo
p381
tp382
Rp383
ag3
(g4
g5
Vblack-friday-2014
p384
tp385
Rp386
ag3
(g4
g5
Vcleveland-browns
p387
tp388
Rp389
ag3
(g4
g5
Vveterans-day-2014
p390
tp391
Rp392
ag3
(g4
g5
Vloretta-lynch
p393
tp394
Rp395
ag3
(g4
g5
Vkurt-busch
p396
tp397
Rp398
ag3
(g4
g5
Vinterstellar
p399
tp400
Rp401
ag3
(g4
g5
Vphil-rudd
p402
tp403
Rp404
ag3
(g4
g5
Vkeira-knightley
p405
tp406
Rp407
ag3
(g4
g5
Vtoo-many-cooks
p408
tp409
Rp410
ag3
(g4
g5
Vbig-hero-6
p411
tp412
Rp413
ag3
(g4
g5
Vhm
p414
tp415
Rp416
ag3
(g4
g5
Vstar-wars
p417
tp418
Rp419
ag3
(g4
g5
Vcall-of-duty-advanced-warfare
p420
tp421
Rp422
ag3
(g4
g5
Vjameis-winston
p423
tp424
Rp425
ag3
(g4
g5
Vsephora
p426
tp427
Rp428
ag3
(g4
g5
Vtoy-story-4
p429
tp430
Rp431
ag3
(g4
g5
Vselena-gomez
p432
tp433
Rp434
asS'France'
p435
(lp436
g3
(g4
g5
Vinterstellar
p437
tp438
Rp439
ag3
(g4
g5
Vroute-du-rhum-2014
p440
tp441
Rp442
ag3
(g4
g5
Voverwatch
p443
tp444
Rp445
ag3
(g4
g5
V11-novembre
p446
tp447
Rp448
ag3
(g4
g5
Vcyril-hanouna
p449
tp450
Rp451
ag3
(g4
g5
Vroute-du-rhum
p452
tp453
Rp454
ag3
(g4
g5
Vpsg-nicosie
p455
tp456
Rp457
ag3
(g4
g5
Vkarine-charbonnier
p458
tp459
Rp460
ag3
(g4
g5
Vhollande
p461
tp462
Rp463
ag3
(g4
g5
Vwilly-sagnol
p464
tp465
Rp466
ag3
(g4
g5
Vlucy
p467
tp468
Rp469
ag3
(g4
g5
Vmanitas-de-plata
p470
tp471
Rp472
ag3
(g4
g5
Vpsg
p473
tp474
Rp475
ag3
(g4
g5
Vmessi
p476
tp477
Rp478
ag3
(g4
g5
Vmystic-river
p479
tp480
Rp481
ag3
(g4
g5
Vwedding-cake
p482
tp483
Rp484
ag3
(g4
g5
Vligue-des-champions
p485
tp486
Rp487
ag3
(g4
g5
Venora-malagre
p488
tp489
Rp490
ag3
(g4
g5
Vphil-rudd
p491
tp492
Rp493
ag3
(g4
g5
Vnabilla
p494
tp495
Rp496
as.