(dp0
S'Brazil'
p1
(lp2
ccopy_reg
_reconstructor
p3
(cdjango.utils.safestring
SafeText
p4
c__builtin__
unicode
p5
Vdia-da-mulher
p6
tp7
Rp8
ag3
(g4
g5
Vmarco
p9
tp10
Rp11
ag3
(g4
g5
Vfantastico
p12
tp13
Rp14
ag3
(g4
g5
Vronda-rousey
p15
tp16
Rp17
ag3
(g4
g5
Vthiaguinho
p18
tp19
Rp20
ag3
(g4
g5
Vluana-piovani
p21
tp22
Rp23
ag3
(g4
g5
Vhouse-of-cards
p24
tp25
Rp26
ag3
(g4
g5
Vdia-internacional-da-mulher
p27
tp28
Rp29
ag3
(g4
g5
Vgalaxy-s6
p30
tp31
Rp32
ag3
(g4
g5
Vengeplus
p33
tp34
Rp35
ag3
(g4
g5
Vbem-estar
p36
tp37
Rp38
ag3
(g4
g5
Vinternacional
p39
tp40
Rp41
ag3
(g4
g5
Vreceita-federal
p42
tp43
Rp44
ag3
(g4
g5
Vbotafogo
p45
tp46
Rp47
ag3
(g4
g5
Vprograma-irpf-2015
p48
tp49
Rp50
ag3
(g4
g5
Vrio-de-janeiro
p51
tp52
Rp53
ag3
(g4
g5
Vrock-in-rio
p54
tp55
Rp56
ag3
(g4
g5
Vgrenal
p57
tp58
Rp59
ag3
(g4
g5
Vcristo-redentor
p60
tp61
Rp62
ag3
(g4
g5
Vleonard-nimoy
p63
tp64
Rp65
asS'Australia'
p66
(lp67
g3
(g4
g5
Vsamsung-galaxy-s6
p68
tp69
Rp70
ag3
(g4
g5
Vcricket
p71
tp72
Rp73
ag3
(g4
g5
Vboris-nemtsov
p74
tp75
Rp76
ag3
(g4
g5
Vronda-rousey
p77
tp78
Rp79
ag3
(g4
g5
Vleonard-nimoy
p80
tp81
Rp82
ag3
(g4
g5
Vhtc-one-m9
p83
tp84
Rp85
ag3
(g4
g5
Vgood-life
p86
tp87
Rp88
ag3
(g4
g5
Vin-time
p89
tp90
Rp91
ag3
(g4
g5
Vkhloe-kardashian
p92
tp93
Rp94
ag3
(g4
g5
Vthe-last-man-on-earth
p95
tp96
Rp97
ag3
(g4
g5
Vaustralia-vs-new-zealand
p98
tp99
Rp100
ag3
(g4
g5
Vwilliam-tyrell
p101
tp102
Rp103
ag3
(g4
g5
Vmiriam-margolyes
p104
tp105
Rp106
ag3
(g4
g5
Vmartin-crowe
p107
tp108
Rp109
ag3
(g4
g5
Vbattle-creek
p110
tp111
Rp112
ag3
(g4
g5
Vlove-rosie
p113
tp114
Rp115
ag3
(g4
g5
Vchelsea
p116
tp117
Rp118
ag3
(g4
g5
Vindia-vs-uae
p119
tp120
Rp121
ag3
(g4
g5
Vliverpool-vs-man-city
p122
tp123
Rp124
ag3
(g4
g5
Vanthony-mason
p125
tp126
Rp127
asS'Italy'
p128
(lp129
g3
(g4
g5
Vpompei
p130
tp131
Rp132
ag3
(g4
g5
Vjovanotti
p133
tp134
Rp135
ag3
(g4
g5
Vtransformers-3
p136
tp137
Rp138
ag3
(g4
g5
Vgalaxy-s6
p139
tp140
Rp141
ag3
(g4
g5
Vmara-venier
p142
tp143
Rp144
ag3
(g4
g5
Vtutta-la-vita-davanti
p145
tp146
Rp147
ag3
(g4
g5
Vloretta-goggi
p148
tp149
Rp150
ag3
(g4
g5
Vprimarie-pd-campania
p151
tp152
Rp153
ag3
(g4
g5
Vpino-daniele
p154
tp155
Rp156
ag3
(g4
g5
Vtelepass
p157
tp158
Rp159
ag3
(g4
g5
Vinter-fiorentina
p160
tp161
Rp162
ag3
(g4
g5
Vhdblog
p163
tp164
Rp165
ag3
(g4
g5
Vhtc-one-m9
p166
tp167
Rp168
ag3
(g4
g5
Vcagliari-verona
p169
tp170
Rp171
ag3
(g4
g5
Vlucio-dalla
p172
tp173
Rp174
ag3
(g4
g5
Vacapulco
p175
tp176
Rp177
ag3
(g4
g5
Vvestito-blu-e-nero
p178
tp179
Rp180
ag3
(g4
g5
Vnon-ci-resta-che-piangere
p181
tp182
Rp183
ag3
(g4
g5
Vroma-juventus
p184
tp185
Rp186
ag3
(g4
g5
Vtorino-napoli
p187
tp188
Rp189
asS'Spain'
p190
(lp191
g3
(g4
g5
Vmwc-2015
p192
tp193
Rp194
ag3
(g4
g5
Vsamsung-galaxy-s6
p195
tp196
Rp197
ag3
(g4
g5
Vel-cuerpo
p198
tp199
Rp200
ag3
(g4
g5
Vmarzo
p201
tp202
Rp203
ag3
(g4
g5
Vhouse-of-cards
p204
tp205
Rp206
ag3
(g4
g5
Valejandro-sanz
p207
tp208
Rp209
ag3
(g4
g5
Valberto-bueno
p210
tp211
Rp212
ag3
(g4
g5
Vreal-madrid-villarreal
p213
tp214
Rp215
ag3
(g4
g5
Vatletico-de-madrid
p216
tp217
Rp218
ag3
(g4
g5
Vgranada-barcelona
p219
tp220
Rp221
ag3
(g4
g5
Vvestido-blanco-y-dorado
p222
tp223
Rp224
ag3
(g4
g5
Vilusiones-opticas
p225
tp226
Rp227
ag3
(g4
g5
Valberto-garzon
p228
tp229
Rp230
ag3
(g4
g5
Vboris-nemtsov
p231
tp232
Rp233
ag3
(g4
g5
Vamanecer-edurne
p234
tp235
Rp236
ag3
(g4
g5
Vhector-colome
p237
tp238
Rp239
ag3
(g4
g5
Vvestido-azul
p240
tp241
Rp242
ag3
(g4
g5
Vthe-pelayos
p243
tp244
Rp245
ag3
(g4
g5
Vanna-allen
p246
tp247
Rp248
ag3
(g4
g5
Vanthony-mason
p249
tp250
Rp251
asS'UK'
p252
(lp253
g3
(g4
g5
Vsamsung-galaxy-s6
p254
tp255
Rp256
ag3
(g4
g5
Vsix-nations
p257
tp258
Rp259
ag3
(g4
g5
Vboris-nemtsov
p260
tp261
Rp262
ag3
(g4
g5
Vrugby
p263
tp264
Rp265
ag3
(g4
g5
Vronda-rousey
p266
tp267
Rp268
ag3
(g4
g5
Vthierry-henry
p269
tp270
Rp271
ag3
(g4
g5
Vsigourney-weaver
p272
tp273
Rp274
ag3
(g4
g5
Vkwame-ferreira
p275
tp276
Rp277
ag3
(g4
g5
Vnoel-gallagher
p278
tp279
Rp280
ag3
(g4
g5
Vricky-wilson
p281
tp282
Rp283
ag3
(g4
g5
Vcharlotte-hawkins
p284
tp285
Rp286
ag3
(g4
g5
Vst-david-s-day-2015
p287
tp288
Rp289
ag3
(g4
g5
Vtyson-fury
p290
tp291
Rp292
ag3
(g4
g5
Vjulia-roberts
p293
tp294
Rp295
ag3
(g4
g5
Varsenal-vs-everton
p296
tp297
Rp298
ag3
(g4
g5
Vjustin-bieber
p299
tp300
Rp301
ag3
(g4
g5
Vcarl-frampton
p302
tp303
Rp304
ag3
(g4
g5
Vchelsea
p305
tp306
Rp307
ag3
(g4
g5
Vliverpool-vs-man-city
p308
tp309
Rp310
ag3
(g4
g5
Vspandau-ballet
p311
tp312
Rp313
asS'India'
p314
(lp315
g3
(g4
g5
Vsamsung-galaxy-s6
p316
tp317
Rp318
ag3
(g4
g5
Vgaar
p319
tp320
Rp321
ag3
(g4
g5
Vpetrol-price
p322
tp323
Rp324
ag3
(g4
g5
Vscience-day
p325
tp326
Rp327
ag3
(g4
g5
Vpak-vs-zim
p328
tp329
Rp330
ag3
(g4
g5
Vok-kanmani
p331
tp332
Rp333
ag3
(g4
g5
Vbudget-2015
p334
tp335
Rp336
ag3
(g4
g5
Vcricket
p337
tp338
Rp339
ag3
(g4
g5
Vweather-forecast
p340
tp341
Rp342
ag3
(g4
g5
Vaustralia-vs-new-zealand
p343
tp344
Rp345
ag3
(g4
g5
Vab-de-villiers
p346
tp347
Rp348
ag3
(g4
g5
Vaccuweather
p349
tp350
Rp351
ag3
(g4
g5
Vuthama-villain
p352
tp353
Rp354
ag3
(g4
g5
Vweather-in-delhi
p355
tp356
Rp357
ag3
(g4
g5
Vdilip-kumar
p358
tp359
Rp360
ag3
(g4
g5
Vsonam-kapoor
p361
tp362
Rp363
ag3
(g4
g5
Vchelsea
p364
tp365
Rp366
ag3
(g4
g5
Vindia-vs-uae
p367
tp368
Rp369
ag3
(g4
g5
Vdum-laga-ke-haisha
p370
tp371
Rp372
ag3
(g4
g5
Vstar-sports
p373
tp374
Rp375
asS'US'
p376
(lp377
g3
(g4
g5
Vdr-seuss
p378
tp379
Rp380
ag3
(g4
g5
Vlumber-liquidators
p381
tp382
Rp383
ag3
(g4
g5
Vrussell-westbrook
p384
tp385
Rp386
ag3
(g4
g5
Vronda-rousey
p387
tp388
Rp389
ag3
(g4
g5
Vleonard-nimoy
p390
tp391
Rp392
ag3
(g4
g5
Vgalaxy-s6
p393
tp394
Rp395
ag3
(g4
g5
Vconstable
p396
tp397
Rp398
ag3
(g4
g5
Vdon-johnson
p399
tp400
Rp401
ag3
(g4
g5
Vkhloe-kardashian
p402
tp403
Rp404
ag3
(g4
g5
Vonce-upon-a-time
p405
tp406
Rp407
ag3
(g4
g5
Vufc-184
p408
tp409
Rp410
ag3
(g4
g5
Vfocus-movie
p411
tp412
Rp413
ag3
(g4
g5
Vlast-man-on-earth
p414
tp415
Rp416
ag3
(g4
g5
Vdakota-johnson
p417
tp418
Rp419
ag3
(g4
g5
Vcharmayne-maxwell
p420
tp421
Rp422
ag3
(g4
g5
Vsecrets-and-lies
p423
tp424
Rp425
ag3
(g4
g5
Vjustin-bieber
p426
tp427
Rp428
ag3
(g4
g5
Vdaylight-savings
p429
tp430
Rp431
ag3
(g4
g5
Vanthony-mason
p432
tp433
Rp434
asS'France'
p435
(lp436
g3
(g4
g5
Vfete-des-grands-mere
p437
tp438
Rp439
ag3
(g4
g5
Vfete-des-grand-mere-2015
p440
tp441
Rp442
ag3
(g4
g5
Vblanche-neige-et-le-chasseur
p443
tp444
Rp445
ag3
(g4
g5
Vrugby
p446
tp447
Rp448
ag3
(g4
g5
Vune-vie-meilleure
p449
tp450
Rp451
ag3
(g4
g5
Vlouane
p452
tp453
Rp454
ag3
(g4
g5
Vsylvie-pialat
p455
tp456
Rp457
ag3
(g4
g5
Vmonaco-psg
p458
tp459
Rp460
ag3
(g4
g5
Vgalaxy-s6
p461
tp462
Rp463
ag3
(g4
g5
Vbeauval
p464
tp465
Rp466
ag3
(g4
g5
Vjulien-clerc
p467
tp468
Rp469
ag3
(g4
g5
Vlaetitia-casta
p470
tp471
Rp472
ag3
(g4
g5
Vmichel-fugain
p473
tp474
Rp475
ag3
(g4
g5
Vboris-nemtsov
p476
tp477
Rp478
ag3
(g4
g5
Vphilippe-seguin
p479
tp480
Rp481
ag3
(g4
g5
Vdetecteur-de-fumee
p482
tp483
Rp484
ag3
(g4
g5
Vmaurane
p485
tp486
Rp487
ag3
(g4
g5
Vrichard-dewitte
p488
tp489
Rp490
ag3
(g4
g5
Vsleepers
p491
tp492
Rp493
ag3
(g4
g5
Vmartin-bouygues
p494
tp495
Rp496
as.