(dp0
S'Brazil'
p1
(lp2
ccopy_reg
_reconstructor
p3
(cdjango.utils.safestring
SafeText
p4
c__builtin__
unicode
p5
Vbruna-marquezine
p6
tp7
Rp8
ag3
(g4
g5
Vsanto-antonio
p9
tp10
Rp11
ag3
(g4
g5
Vcopa-do-mundo
p12
tp13
Rp14
ag3
(g4
g5
Vmusica-da-copa-2014
p15
tp16
Rp17
ag3
(g4
g5
Vbandeira-do-brasil
p18
tp19
Rp20
ag3
(g4
g5
Vbrasil-e-croacia
p21
tp22
Rp23
ag3
(g4
g5
Vdavid-luiz
p24
tp25
Rp26
ag3
(g4
g5
Vhulk
p27
tp28
Rp29
ag3
(g4
g5
Vhorario-abertura-da-copa-2014
p30
tp31
Rp32
ag3
(g4
g5
Vcnn
p33
tp34
Rp35
ag3
(g4
g5
Vhino-nacional
p36
tp37
Rp38
ag3
(g4
g5
Vole
p39
tp40
Rp41
ag3
(g4
g5
Vdeclaracao-de-amor
p42
tp43
Rp44
ag3
(g4
g5
Vkaka
p45
tp46
Rp47
ag3
(g4
g5
Vthiago-silva
p48
tp49
Rp50
ag3
(g4
g5
Vvuvuzela
p51
tp52
Rp53
ag3
(g4
g5
Vcopa-do-mundo-2014
p54
tp55
Rp56
ag3
(g4
g5
Vmensagem-dia-dos-namorados
p57
tp58
Rp59
ag3
(g4
g5
Vabertura-da-copa-2014
p60
tp61
Rp62
ag3
(g4
g5
Vbrasil
p63
tp64
Rp65
asS'Australia'
p66
(lp67
g3
(g4
g5
Vi-wanna-marry-harry
p68
tp69
Rp70
ag3
(g4
g5
Vnba
p71
tp72
Rp73
ag3
(g4
g5
Vjim-keays
p74
tp75
Rp76
ag3
(g4
g5
Vmexico-vs-cameroon
p77
tp78
Rp79
ag3
(g4
g5
Vus-open-golf-2014
p80
tp81
Rp82
ag3
(g4
g5
Vjennifer-lopez
p83
tp84
Rp85
ag3
(g4
g5
Vhow-to-train-your-dragon-2
p86
tp87
Rp88
ag3
(g4
g5
Vsoccer-world-cup
p89
tp90
Rp91
ag3
(g4
g5
Vfabregas
p92
tp93
Rp94
ag3
(g4
g5
Vmasterchef
p95
tp96
Rp97
ag3
(g4
g5
Vfriday-the-13th
p98
tp99
Rp100
ag3
(g4
g5
Viraq
p101
tp102
Rp103
ag3
(g4
g5
Vfox-sports
p104
tp105
Rp106
ag3
(g4
g5
Vsuits
p107
tp108
Rp109
ag3
(g4
g5
Vspain-vs-netherlands
p110
tp111
Rp112
ag3
(g4
g5
Vgreen-lantern
p113
tp114
Rp115
ag3
(g4
g5
Vfargo
p116
tp117
Rp118
ag3
(g4
g5
Vworld-cup
p119
tp120
Rp121
ag3
(g4
g5
Vsocceroos
p122
tp123
Rp124
ag3
(g4
g5
Vpowerball
p125
tp126
Rp127
asS'Italy'
p128
(lp129
g3
(g4
g5
Vwind
p130
tp131
Rp132
ag3
(g4
g5
Vmessico-camerun
p133
tp134
Rp135
ag3
(g4
g5
Vmondiale-2014
p136
tp137
Rp138
ag3
(g4
g5
Vspagna-olanda
p139
tp140
Rp141
ag3
(g4
g5
Vmandzukic
p142
tp143
Rp144
ag3
(g4
g5
Vsant-antonio
p145
tp146
Rp147
ag3
(g4
g5
Vmondiali-di-calcio
p148
tp149
Rp150
ag3
(g4
g5
Vcoppa-del-mondo-2014
p151
tp152
Rp153
ag3
(g4
g5
Vjennifer-lopez
p154
tp155
Rp156
ag3
(g4
g5
Vrai-tv
p157
tp158
Rp159
ag3
(g4
g5
Vmassimo-ferrero
p160
tp161
Rp162
ag3
(g4
g5
Vworld-cup-2014
p163
tp164
Rp165
ag3
(g4
g5
Vcanzone-mondiali-2014
p166
tp167
Rp168
ag3
(g4
g5
Vinghilterra-italia
p169
tp170
Rp171
ag3
(g4
g5
Vthe-perfect-man
p172
tp173
Rp174
ag3
(g4
g5
Vhulk
p175
tp176
Rp177
ag3
(g4
g5
Vfabregas
p178
tp179
Rp180
ag3
(g4
g5
Vjulio-cesar
p181
tp182
Rp183
ag3
(g4
g5
Vquel-che-resta-del-giorno
p184
tp185
Rp186
ag3
(g4
g5
Vlatina-calcio
p187
tp188
Rp189
asS'Spain'
p190
(lp191
g3
(g4
g5
Vmexico-contra-camerun
p192
tp193
Rp194
ag3
(g4
g5
Vsan-antonio
p195
tp196
Rp197
ag3
(g4
g5
Vespana-holanda
p198
tp199
Rp200
ag3
(g4
g5
Vfifa
p201
tp202
Rp203
ag3
(g4
g5
Vcandice-swanepoel
p204
tp205
Rp206
ag3
(g4
g5
Vhulk
p207
tp208
Rp209
ag3
(g4
g5
Vmediaset
p210
tp211
Rp212
ag3
(g4
g5
Vcopa-del-mundo-2014
p213
tp214
Rp215
ag3
(g4
g5
Vmundial-2014
p216
tp217
Rp218
ag3
(g4
g5
Vfrank-dela-jungla
p219
tp220
Rp221
ag3
(g4
g5
Vjennifer-lopez
p222
tp223
Rp224
ag3
(g4
g5
Vuber
p225
tp226
Rp227
ag3
(g4
g5
Vcuatro
p228
tp229
Rp230
ag3
(g4
g5
Vadriana-lima
p231
tp232
Rp233
ag3
(g4
g5
Vespana-contra-paises-bajos
p234
tp235
Rp236
ag3
(g4
g5
Vinauguracion-mundial-2014
p237
tp238
Rp239
ag3
(g4
g5
Vcopa-mundial
p240
tp241
Rp242
ag3
(g4
g5
Vandressa-urach
p243
tp244
Rp245
ag3
(g4
g5
Valberto-sotillos
p246
tp247
Rp248
ag3
(g4
g5
Velsa-pataky
p249
tp250
Rp251
asS'UK'
p252
(lp253
g3
(g4
g5
Vkefee
p254
tp255
Rp256
ag3
(g4
g5
Vdavid-luiz
p257
tp258
Rp259
ag3
(g4
g5
Vdavid-bentley
p260
tp261
Rp262
ag3
(g4
g5
Vnba
p263
tp264
Rp265
ag3
(g4
g5
Vworld-cup-fixtures-2014
p266
tp267
Rp268
ag3
(g4
g5
Vdiego-costa
p269
tp270
Rp271
ag3
(g4
g5
Vspain-vs-netherlands
p272
tp273
Rp274
ag3
(g4
g5
Vitv-player
p275
tp276
Rp277
ag3
(g4
g5
Vfabregas
p278
tp279
Rp280
ag3
(g4
g5
Vjennifer-lopez
p281
tp282
Rp283
ag3
(g4
g5
Vcoral
p284
tp285
Rp286
ag3
(g4
g5
Vus-open-2014
p287
tp288
Rp289
ag3
(g4
g5
Vengland
p290
tp291
Rp292
ag3
(g4
g5
Vmexico-vs-cameroon
p293
tp294
Rp295
ag3
(g4
g5
Vharrison-ford
p296
tp297
Rp298
ag3
(g4
g5
Vbetfair
p299
tp300
Rp301
ag3
(g4
g5
Vronaldinho
p302
tp303
Rp304
ag3
(g4
g5
Vneymar-girlfriend
p305
tp306
Rp307
ag3
(g4
g5
Vted-baker
p308
tp309
Rp310
ag3
(g4
g5
Vkaka
p311
tp312
Rp313
asS'India'
p314
(lp315
g3
(g4
g5
Vfabregas
p316
tp317
Rp318
ag3
(g4
g5
Vshab-e-barat
p319
tp320
Rp321
ag3
(g4
g5
Vkaka
p322
tp323
Rp324
ag3
(g4
g5
Vbrazil-vs-croatia
p325
tp326
Rp327
ag3
(g4
g5
Vjennifer-lopez
p328
tp329
Rp330
ag3
(g4
g5
Vvishal-sikka
p331
tp332
Rp333
ag3
(g4
g5
Vgoalcom
p334
tp335
Rp336
ag3
(g4
g5
Vmexico-vs-cameroon
p337
tp338
Rp339
ag3
(g4
g5
Vamala-paul
p340
tp341
Rp342
ag3
(g4
g5
Vlionel-messi
p343
tp344
Rp345
ag3
(g4
g5
Vbbc-hausa
p346
tp347
Rp348
ag3
(g4
g5
Vworld-cup-2014
p349
tp350
Rp351
ag3
(g4
g5
Vfifa
p352
tp353
Rp354
ag3
(g4
g5
Vronaldo
p355
tp356
Rp357
ag3
(g4
g5
Vwhatsapp
p358
tp359
Rp360
ag3
(g4
g5
Vnadal
p361
tp362
Rp363
ag3
(g4
g5
Veamcet
p364
tp365
Rp366
ag3
(g4
g5
Vwhats-app
p367
tp368
Rp369
ag3
(g4
g5
Vbrazil
p370
tp371
Rp372
ag3
(g4
g5
Vfrench-open
p373
tp374
Rp375
asS'US'
p376
(lp377
g3
(g4
g5
V22-jump-street
p378
tp379
Rp380
ag3
(g4
g5
Vkawhi-leonard
p381
tp382
Rp383
ag3
(g4
g5
Vfriday-the-13th
p384
tp385
Rp386
ag3
(g4
g5
Vtesla
p387
tp388
Rp389
ag3
(g4
g5
Vruby-dee
p390
tp391
Rp392
ag3
(g4
g5
Vpowerball
p393
tp394
Rp395
ag3
(g4
g5
Vus-open
p396
tp397
Rp398
ag3
(g4
g5
Vmexico-vs-cameroon
p399
tp400
Rp401
ag3
(g4
g5
Vnhl
p402
tp403
Rp404
ag3
(g4
g5
Vunivision
p405
tp406
Rp407
ag3
(g4
g5
Vcristiano-ronaldo
p408
tp409
Rp410
ag3
(g4
g5
Vwatch-espn
p411
tp412
Rp413
ag3
(g4
g5
Vsoylent
p414
tp415
Rp416
ag3
(g4
g5
Vharrison-ford
p417
tp418
Rp419
ag3
(g4
g5
Vtim-duncan
p420
tp421
Rp422
ag3
(g4
g5
Vronaldinho
p423
tp424
Rp425
ag3
(g4
g5
Vcarmelo-anthony
p426
tp427
Rp428
ag3
(g4
g5
Vblue-ivy-hair
p429
tp430
Rp431
ag3
(g4
g5
Vworld-cup-2014
p432
tp433
Rp434
ag3
(g4
g5
Vnba
p435
tp436
Rp437
asS'France'
p438
(lp439
g3
(g4
g5
Vmexique-cameroun
p440
tp441
Rp442
ag3
(g4
g5
Vniko-kovac
p443
tp444
Rp445
ag3
(g4
g5
Vjennifer-lopez
p446
tp447
Rp448
ag3
(g4
g5
Vtf1
p449
tp450
Rp451
ag3
(g4
g5
Vfred
p452
tp453
Rp454
ag3
(g4
g5
Vfifa
p455
tp456
Rp457
ag3
(g4
g5
Vmatch-en-direct
p458
tp459
Rp460
ag3
(g4
g5
Vprogramme-coupe-du-monde
p461
tp462
Rp463
ag3
(g4
g5
Vbein
p464
tp465
Rp466
ag3
(g4
g5
Vpekin-express
p467
tp468
Rp469
ag3
(g4
g5
Vmandzukic
p470
tp471
Rp472
ag3
(g4
g5
Vgroupe-coupe-du-monde-2014
p473
tp474
Rp475
ag3
(g4
g5
Vthiago-silva
p476
tp477
Rp478
ag3
(g4
g5
Vmodric
p479
tp480
Rp481
ag3
(g4
g5
Vscolari
p482
tp483
Rp484
ag3
(g4
g5
Vespagne-pays-bas
p485
tp486
Rp487
ag3
(g4
g5
Vfabregas
p488
tp489
Rp490
ag3
(g4
g5
Vpaulinho
p491
tp492
Rp493
ag3
(g4
g5
Vbce
p494
tp495
Rp496
ag3
(g4
g5
Vcoupe-du-monde-2014
p497
tp498
Rp499
as.