(dp0
S'Brazil'
p1
(lp2
ccopy_reg
_reconstructor
p3
(cdjango.utils.safestring
SafeText
p4
c__builtin__
unicode
p5
Valine-bbb15
p6
tp7
Rp8
ag3
(g4
g5
Vpronatec-2015
p9
tp10
Rp11
ag3
(g4
g5
Vprouni
p12
tp13
Rp14
ag3
(g4
g5
Vlucas-silva
p15
tp16
Rp17
ag3
(g4
g5
Vatletico-mineiro
p18
tp19
Rp20
ag3
(g4
g5
Vapuracao-carnaval-2015
p21
tp22
Rp23
ag3
(g4
g5
Vmorena-baccarin
p24
tp25
Rp26
ag3
(g4
g5
Vufpe
p27
tp28
Rp29
ag3
(g4
g5
Vlotofacil-1172
p30
tp31
Rp32
ag3
(g4
g5
Vreal-madrid
p33
tp34
Rp35
ag3
(g4
g5
Vboyhood
p36
tp37
Rp38
ag3
(g4
g5
Vsao-paulo
p39
tp40
Rp41
ag3
(g4
g5
Vhoroscopo-chines
p42
tp43
Rp44
ag3
(g4
g5
Vendometriose
p45
tp46
Rp47
ag3
(g4
g5
Vbeija-flor
p48
tp49
Rp50
ag3
(g4
g5
Vanderson-silva
p51
tp52
Rp53
ag3
(g4
g5
Vbruce-dickinson
p54
tp55
Rp56
ag3
(g4
g5
Vcorinthians-x-sao-paulo
p57
tp58
Rp59
ag3
(g4
g5
Vellen-page
p60
tp61
Rp62
ag3
(g4
g5
Vbbb-15
p63
tp64
Rp65
asS'Australia'
p66
(lp67
g3
(g4
g5
Vschool-closures
p68
tp69
Rp70
ag3
(g4
g5
Veuropa-league
p71
tp72
Rp73
ag3
(g4
g5
Vnicki-minaj
p74
tp75
Rp76
ag3
(g4
g5
Viggy-azalea
p77
tp78
Rp79
ag3
(g4
g5
Veastenders
p80
tp81
Rp82
ag3
(g4
g5
Vharris-wittels
p83
tp84
Rp85
ag3
(g4
g5
Vlady-gaga
p86
tp87
Rp88
ag3
(g4
g5
Vnine-news
p89
tp90
Rp91
ag3
(g4
g5
Varound-the-world-in-80-days
p92
tp93
Rp94
ag3
(g4
g5
Vseven-news
p95
tp96
Rp97
ag3
(g4
g5
Vone-direction-perth
p98
tp99
Rp100
ag3
(g4
g5
Vdepartment-of-education
p101
tp102
Rp103
ag3
(g4
g5
Vsunshine-coast-daily
p104
tp105
Rp106
ag3
(g4
g5
Vnba-trades
p107
tp108
Rp109
ag3
(g4
g5
Vjason-momoa
p110
tp111
Rp112
ag3
(g4
g5
Vcyclone-lam
p113
tp114
Rp115
ag3
(g4
g5
Vkarmichael-hunt
p116
tp117
Rp118
ag3
(g4
g5
Vtwo-and-a-half-men
p119
tp120
Rp121
ag3
(g4
g5
Vwhite-night-melbourne
p122
tp123
Rp124
ag3
(g4
g5
Vbeyonce
p125
tp126
Rp127
asS'Italy'
p128
(lp129
g3
(g4
g5
Vbuoni-sconto
p130
tp131
Rp132
ag3
(g4
g5
Vprobabili-formazioni
p133
tp134
Rp135
ag3
(g4
g5
Vpolimeri
p136
tp137
Rp138
ag3
(g4
g5
Vtrabzonspor-napoli
p139
tp140
Rp141
ag3
(g4
g5
Vun-passo-dal-cielo-3
p142
tp143
Rp144
ag3
(g4
g5
Vcoupon
p145
tp146
Rp147
ag3
(g4
g5
Vroma-feyenoord
p148
tp149
Rp150
ag3
(g4
g5
Vtorino-athletic-bilbao
p151
tp152
Rp153
ag3
(g4
g5
Vparma-udinese
p154
tp155
Rp156
ag3
(g4
g5
Vjobs-act
p157
tp158
Rp159
ag3
(g4
g5
Vmilf
p160
tp161
Rp162
ag3
(g4
g5
Vleghe-fantagazzetta
p163
tp164
Rp165
ag3
(g4
g5
Vsolo-per-amore
p166
tp167
Rp168
ag3
(g4
g5
Vrojadirecta
p169
tp170
Rp171
ag3
(g4
g5
Vl-amore-infedele
p172
tp173
Rp174
ag3
(g4
g5
Vlodovica-comello
p175
tp176
Rp177
ag3
(g4
g5
Vinter
p178
tp179
Rp180
ag3
(g4
g5
Vle-iene
p181
tp182
Rp183
ag3
(g4
g5
Vfiorentina
p184
tp185
Rp186
ag3
(g4
g5
Vrisultati-europa-league
p187
tp188
Rp189
asS'Spain'
p190
(lp191
g3
(g4
g5
Vteresa-rodriguez
p192
tp193
Rp194
ag3
(g4
g5
Veuropa-league
p195
tp196
Rp197
ag3
(g4
g5
Vsindrome-de-asperger
p198
tp199
Rp200
ag3
(g4
g5
Vkaty-perry
p201
tp202
Rp203
ag3
(g4
g5
Vlucas-silva
p204
tp205
Rp206
ag3
(g4
g5
Vella-baila-sola
p207
tp208
Rp209
ag3
(g4
g5
Vtaylor-kinney
p210
tp211
Rp212
ag3
(g4
g5
Vbeyonce
p213
tp214
Rp215
ag3
(g4
g5
Vhoroscopo-chino-2015
p216
tp217
Rp218
ag3
(g4
g5
Vcienfuegos
p219
tp220
Rp221
ag3
(g4
g5
Valessandro-volta
p222
tp223
Rp224
ag3
(g4
g5
Vbajo-sospecha
p225
tp226
Rp227
ag3
(g4
g5
Vjulio-iglesias
p228
tp229
Rp230
ag3
(g4
g5
Vreal-madrid
p231
tp232
Rp233
ag3
(g4
g5
Vhoroscopo-chino
p234
tp235
Rp236
ag3
(g4
g5
Vapple-watch
p237
tp238
Rp239
ag3
(g4
g5
Vbruce-dickinson
p240
tp241
Rp242
ag3
(g4
g5
Vano-nuevo-chino
p243
tp244
Rp245
ag3
(g4
g5
Vmiercoles-de-ceniza
p246
tp247
Rp248
ag3
(g4
g5
Voliver-sacks
p249
tp250
Rp251
asS'UK'
p252
(lp253
g3
(g4
g5
Vwho-killed-lucy
p254
tp255
Rp256
ag3
(g4
g5
Vbt-sport
p257
tp258
Rp259
ag3
(g4
g5
Vcindy-crawford
p260
tp261
Rp262
ag3
(g4
g5
Vkathy-beale
p263
tp264
Rp265
ag3
(g4
g5
Vlady-gaga
p266
tp267
Rp268
ag3
(g4
g5
Veastenders
p269
tp270
Rp271
ag3
(g4
g5
Vbeyonce
p272
tp273
Rp274
ag3
(g4
g5
Valessandro-volta
p275
tp276
Rp277
ag3
(g4
g5
Vabbey-clancy
p278
tp279
Rp280
ag3
(g4
g5
Vzlatan-ibrahimovic
p281
tp282
Rp283
ag3
(g4
g5
Vliverpool
p284
tp285
Rp286
ag3
(g4
g5
Vafroman
p287
tp288
Rp289
ag3
(g4
g5
Vglastonbury-2015
p290
tp291
Rp292
ag3
(g4
g5
Vt-in-the-park
p293
tp294
Rp295
ag3
(g4
g5
Veuromillions-results
p296
tp297
Rp298
ag3
(g4
g5
Vjen-selter
p299
tp300
Rp301
ag3
(g4
g5
Vreal-madrid
p302
tp303
Rp304
ag3
(g4
g5
Vdeath-in-paradise
p305
tp306
Rp307
ag3
(g4
g5
Vburger-king-delivery
p308
tp309
Rp310
ag3
(g4
g5
Vlunar-new-year
p311
tp312
Rp313
asS'India'
p314
(lp315
g3
(g4
g5
Vunited-arab-emirates-cricket-team
p316
tp317
Rp318
ag3
(g4
g5
Vashraful-haque
p319
tp320
Rp321
ag3
(g4
g5
Vash-wednesday
p322
tp323
Rp324
ag3
(g4
g5
Vpsg-vs-chelsea
p325
tp326
Rp327
ag3
(g4
g5
Vvijay-tv
p328
tp329
Rp330
ag3
(g4
g5
Valessandro-volta
p331
tp332
Rp333
ag3
(g4
g5
Vnew-zealand-vs-england
p334
tp335
Rp336
ag3
(g4
g5
Vbandipotu-review
p337
tp338
Rp339
ag3
(g4
g5
Vengland-cricket-team
p340
tp341
Rp342
ag3
(g4
g5
Vbadlapur
p343
tp344
Rp345
ag3
(g4
g5
Vbmw-i8
p346
tp347
Rp348
ag3
(g4
g5
Vreal-madrid
p349
tp350
Rp351
ag3
(g4
g5
Vbihar-news
p352
tp353
Rp354
ag3
(g4
g5
Vaero-india-2015
p355
tp356
Rp357
ag3
(g4
g5
Vmahashivratri
p358
tp359
Rp360
ag3
(g4
g5
Vlorena-rojas
p361
tp362
Rp363
ag3
(g4
g5
Vramanaidu
p364
tp365
Rp366
ag3
(g4
g5
Vchelsea
p367
tp368
Rp369
ag3
(g4
g5
Vtaylor-kinney
p370
tp371
Rp372
ag3
(g4
g5
Vlunar-new-year
p373
tp374
Rp375
asS'US'
p376
(lp377
g3
(g4
g5
Vmichael-carter-williams
p378
tp379
Rp380
ag3
(g4
g5
Vjerome-kersey
p381
tp382
Rp383
ag3
(g4
g5
Vduke-basketball
p384
tp385
Rp386
ag3
(g4
g5
Vlunar-new-year
p387
tp388
Rp389
ag3
(g4
g5
Vkevin-garnett
p390
tp391
Rp392
ag3
(g4
g5
Vnba-trades
p393
tp394
Rp395
ag3
(g4
g5
Vharris-wittels
p396
tp397
Rp398
ag3
(g4
g5
Vnascar
p399
tp400
Rp401
ag3
(g4
g5
Vthe-odd-couple
p402
tp403
Rp404
ag3
(g4
g5
Vafroman
p405
tp406
Rp407
ag3
(g4
g5
Vchris-bosh
p408
tp409
Rp410
ag3
(g4
g5
Vniagara-falls-frozen
p411
tp412
Rp413
ag3
(g4
g5
Veddie-murphy
p414
tp415
Rp416
ag3
(g4
g5
Vmcfarland-usa
p417
tp418
Rp419
ag3
(g4
g5
Vjason-momoa
p420
tp421
Rp422
ag3
(g4
g5
Vcarol-ann-susi
p423
tp424
Rp425
ag3
(g4
g5
Viggy-azalea
p426
tp427
Rp428
ag3
(g4
g5
Vtwo-and-a-half-men
p429
tp430
Rp431
ag3
(g4
g5
Vreggie-jackson
p432
tp433
Rp434
ag3
(g4
g5
Voliver-sacks
p435
tp436
Rp437
asS'France'
p438
(lp439
g3
(g4
g5
Vnouvel-an-chinois
p440
tp441
Rp442
ag3
(g4
g5
Vcatherine-damesin
p443
tp444
Rp445
ag3
(g4
g5
Vnoma
p446
tp447
Rp448
ag3
(g4
g5
Vbein-sport
p449
tp450
Rp451
ag3
(g4
g5
Vmarc-lavoine
p452
tp453
Rp454
ag3
(g4
g5
Vayem
p455
tp456
Rp457
ag3
(g4
g5
Veuromillions
p458
tp459
Rp460
ag3
(g4
g5
V21-jump-street
p461
tp462
Rp463
ag3
(g4
g5
Vthe-strain
p464
tp465
Rp466
ag3
(g4
g5
Vbeyonce
p467
tp468
Rp469
ag3
(g4
g5
Valessandro-volta
p470
tp471
Rp472
ag3
(g4
g5
Vpsg
p473
tp474
Rp475
ag3
(g4
g5
V49-3
p476
tp477
Rp478
ag3
(g4
g5
Vgleeden
p479
tp480
Rp481
ag3
(g4
g5
Vreal-madrid
p482
tp483
Rp484
ag3
(g4
g5
Vtaylor-kinney
p485
tp486
Rp487
ag3
(g4
g5
Vkingsman
p488
tp489
Rp490
ag3
(g4
g5
Vguingamp
p491
tp492
Rp493
ag3
(g4
g5
Vtan
p494
tp495
Rp496
ag3
(g4
g5
Vparlez-moi-de-vous
p497
tp498
Rp499
as.