(dp0
S'Brazil'
p1
(lp2
ccopy_reg
_reconstructor
p3
(cdjango.utils.safestring
SafeText
p4
c__builtin__
unicode
p5
Vesposa
p6
tp7
Rp8
ag3
(g4
g5
Vdia-do-orgasmo
p9
tp10
Rp11
ag3
(g4
g5
Vfausto-fanti
p12
tp13
Rp14
ag3
(g4
g5
Vorlando-bloom
p15
tp16
Rp17
ag3
(g4
g5
Vcircuito-banco-do-brasil
p18
tp19
Rp20
ag3
(g4
g5
Vcopa-euroamericana
p21
tp22
Rp23
ag3
(g4
g5
Vfifa-15
p24
tp25
Rp26
ag3
(g4
g5
Vnick-diaz
p27
tp28
Rp29
ag3
(g4
g5
Vmc-bruninha
p30
tp31
Rp32
ag3
(g4
g5
Vdrew-barrymore
p33
tp34
Rp35
ag3
(g4
g5
Vamericanas
p36
tp37
Rp38
ag3
(g4
g5
Vchuva-de-meteoros
p39
tp40
Rp41
ag3
(g4
g5
Vluana-piovani
p42
tp43
Rp44
ag3
(g4
g5
Vmussum
p45
tp46
Rp47
ag3
(g4
g5
Vpituxita
p48
tp49
Rp50
ag3
(g4
g5
Vgnar
p51
tp52
Rp53
ag3
(g4
g5
Vronaldinho-gaucho
p54
tp55
Rp56
ag3
(g4
g5
Vjo-soares
p57
tp58
Rp59
ag3
(g4
g5
Vebola
p60
tp61
Rp62
ag3
(g4
g5
Vfolha-de-pagamento
p63
tp64
Rp65
asS'Australia'
p66
(lp67
g3
(g4
g5
Vliverpool
p68
tp69
Rp70
ag3
(g4
g5
Vsally-pearson
p71
tp72
Rp73
ag3
(g4
g5
Vlucy
p74
tp75
Rp76
ag3
(g4
g5
Vguardians-of-the-galaxy
p77
tp78
Rp79
ag3
(g4
g5
Vlily-allen
p80
tp81
Rp82
ag3
(g4
g5
Vnicki-minaj
p83
tp84
Rp85
ag3
(g4
g5
Vorlando-bloom
p86
tp87
Rp88
ag3
(g4
g5
Vthe-bachelor-australia
p89
tp90
Rp91
ag3
(g4
g5
Vwikileaks
p92
tp93
Rp94
ag3
(g4
g5
Vebola-virus
p95
tp96
Rp97
ag3
(g4
g5
Vgaza
p98
tp99
Rp100
ag3
(g4
g5
Vhamish-and-andy
p101
tp102
Rp103
ag3
(g4
g5
Vdeadpool
p104
tp105
Rp106
ag3
(g4
g5
Vpaleo-diet
p107
tp108
Rp109
ag3
(g4
g5
Vjesinta-campbell
p110
tp111
Rp112
ag3
(g4
g5
Vstereosonic
p113
tp114
Rp115
ag3
(g4
g5
Vrobyn-lawley
p116
tp117
Rp118
ag3
(g4
g5
Vsabina-altynbekova
p119
tp120
Rp121
ag3
(g4
g5
Vpaloma-faith
p122
tp123
Rp124
ag3
(g4
g5
Vffa-cup
p125
tp126
Rp127
asS'Italy'
p128
(lp129
g3
(g4
g5
Vebola
p130
tp131
Rp132
ag3
(g4
g5
Vargentina
p133
tp134
Rp135
ag3
(g4
g5
Vosvaldo
p136
tp137
Rp138
ag3
(g4
g5
Vselena-gomez
p139
tp140
Rp141
ag3
(g4
g5
Vemma-marrone
p142
tp143
Rp144
ag3
(g4
g5
Vevra
p145
tp146
Rp147
ag3
(g4
g5
Vbehrami
p148
tp149
Rp150
ag3
(g4
g5
Vorlando-bloom
p151
tp152
Rp153
ag3
(g4
g5
Vbear-grylls
p154
tp155
Rp156
ag3
(g4
g5
Vcesena-juventus
p157
tp158
Rp159
ag3
(g4
g5
Valessandra-amoroso
p160
tp161
Rp162
ag3
(g4
g5
Vapes-revolution
p163
tp164
Rp165
ag3
(g4
g5
Vvaresenews
p166
tp167
Rp168
ag3
(g4
g5
Vstar-trek
p169
tp170
Rp171
ag3
(g4
g5
Vmarco-e-beatrice
p172
tp173
Rp174
ag3
(g4
g5
Vil-dolce-e-l-amaro
p175
tp176
Rp177
ag3
(g4
g5
Vlaura-pausini
p178
tp179
Rp180
ag3
(g4
g5
Vroma-real-madrid
p181
tp182
Rp183
ag3
(g4
g5
Vebola
p184
tp185
Rp186
ag3
(g4
g5
Vcoca-cola-summer-festival-2014
p187
tp188
Rp189
asS'Spain'
p190
(lp191
g3
(g4
g5
Vpodemos
p192
tp193
Rp194
ag3
(g4
g5
Vclarin
p195
tp196
Rp197
ag3
(g4
g5
Vmiguel-angel-perez
p198
tp199
Rp200
ag3
(g4
g5
Vhuelga-renfe
p201
tp202
Rp203
ag3
(g4
g5
Vargentina
p204
tp205
Rp206
ag3
(g4
g5
Vorlando-bloom
p207
tp208
Rp209
ag3
(g4
g5
Vmaria-antonia-iglesias
p210
tp211
Rp212
ag3
(g4
g5
Vlaura-pausini
p213
tp214
Rp215
ag3
(g4
g5
Vla-ninera-magica
p216
tp217
Rp218
ag3
(g4
g5
Vreal-madrid-roma
p219
tp220
Rp221
ag3
(g4
g5
Vebola
p222
tp223
Rp224
ag3
(g4
g5
Vel-mexicano
p225
tp226
Rp227
ag3
(g4
g5
Vmetro-malaga
p228
tp229
Rp230
ag3
(g4
g5
Vsexting
p231
tp232
Rp233
ag3
(g4
g5
Vperet
p234
tp235
Rp236
ag3
(g4
g5
Vbakkali
p237
tp238
Rp239
ag3
(g4
g5
Vcarmen-janeiro
p240
tp241
Rp242
ag3
(g4
g5
Vbeatriz-montanez
p243
tp244
Rp245
ag3
(g4
g5
Vbear-grylls
p246
tp247
Rp248
ag3
(g4
g5
Vsanta-marta
p249
tp250
Rp251
asS'UK'
p252
(lp253
g3
(g4
g5
Vkenny-ireland
p254
tp255
Rp256
ag3
(g4
g5
Vusain-bolt
p257
tp258
Rp259
ag3
(g4
g5
Vravel-morrison
p260
tp261
Rp262
ag3
(g4
g5
Vorlando-bloom
p263
tp264
Rp265
ag3
(g4
g5
Veastbourne-pier
p266
tp267
Rp268
ag3
(g4
g5
Vlukaku
p269
tp270
Rp271
ag3
(g4
g5
Vclaudia-fragapane
p272
tp273
Rp274
ag3
(g4
g5
Vgreg-rutherford
p275
tp276
Rp277
ag3
(g4
g5
Vinternational-champions-cup
p278
tp279
Rp280
ag3
(g4
g5
Vadrienne-bailon
p281
tp282
Rp283
ag3
(g4
g5
Vleroy-fer
p284
tp285
Rp286
ag3
(g4
g5
Vebola
p287
tp288
Rp289
ag3
(g4
g5
Vmorgan-schneiderlin
p290
tp291
Rp292
ag3
(g4
g5
Vkick
p293
tp294
Rp295
ag3
(g4
g5
Vhamas
p296
tp297
Rp298
ag3
(g4
g5
Vcricket-score
p299
tp300
Rp301
ag3
(g4
g5
Vdivock-origi
p302
tp303
Rp304
ag3
(g4
g5
Vman-utd-vs-inter-milan
p305
tp306
Rp307
ag3
(g4
g5
Vross-burden
p308
tp309
Rp310
ag3
(g4
g5
Vmeow-chat
p311
tp312
Rp313
asS'India'
p314
(lp315
g3
(g4
g5
Vbangalore-bandh
p316
tp317
Rp318
ag3
(g4
g5
Veid-mubarak
p319
tp320
Rp321
ag3
(g4
g5
Veid
p322
tp323
Rp324
ag3
(g4
g5
Vkick-1st-day-collection
p325
tp326
Rp327
ag3
(g4
g5
Vmygov
p328
tp329
Rp330
ag3
(g4
g5
Vsaharanpur-news
p331
tp332
Rp333
ag3
(g4
g5
Vkick
p334
tp335
Rp336
ag3
(g4
g5
Vkick-box-office-collection
p337
tp338
Rp339
ag3
(g4
g5
Vfifty-shades-of-grey
p340
tp341
Rp342
ag3
(g4
g5
Valludu-seenu-review
p343
tp344
Rp345
ag3
(g4
g5
Vgenital-mutilation
p346
tp347
Rp348
ag3
(g4
g5
Vair-algerie
p349
tp350
Rp351
ag3
(g4
g5
Vcommonwealth-games-2014
p352
tp353
Rp354
ag3
(g4
g5
Vindia-vs-england
p355
tp356
Rp357
ag3
(g4
g5
Vwwe-battleground-2014
p358
tp359
Rp360
ag3
(g4
g5
Vvirat-kohli
p361
tp362
Rp363
ag3
(g4
g5
Vnelson-mandela
p364
tp365
Rp366
ag3
(g4
g5
Vhate-story-2
p367
tp368
Rp369
ag3
(g4
g5
Vvyapam
p370
tp371
Rp372
ag3
(g4
g5
Vmalaysian-airline
p373
tp374
Rp375
asS'US'
p376
(lp377
g3
(g4
g5
Vallen-craig
p378
tp379
Rp380
ag3
(g4
g5
Vdavid-price
p381
tp382
Rp383
ag3
(g4
g5
Vorlando-bloom
p384
tp385
Rp386
ag3
(g4
g5
Vsharknado-2
p387
tp388
Rp389
ag3
(g4
g5
Vyoenis-cespedes
p390
tp391
Rp392
ag3
(g4
g5
Vstephen-a-smith
p393
tp394
Rp395
ag3
(g4
g5
Vadrienne-bailon
p396
tp397
Rp398
ag3
(g4
g5
Vucla
p399
tp400
Rp401
ag3
(g4
g5
Vjessica-barrymore
p402
tp403
Rp404
ag3
(g4
g5
Vdeadpool
p405
tp406
Rp407
ag3
(g4
g5
Vcheesecake-factory
p408
tp409
Rp410
ag3
(g4
g5
Venrique-iglesias
p411
tp412
Rp413
ag3
(g4
g5
Vjesse-ventura
p414
tp415
Rp416
ag3
(g4
g5
Vagt
p417
tp418
Rp419
ag3
(g4
g5
Vhilary-duff
p420
tp421
Rp422
ag3
(g4
g5
Vrobyn-lawley
p423
tp424
Rp425
ag3
(g4
g5
Vamericas-got-talent
p426
tp427
Rp428
ag3
(g4
g5
Vmaggie-gyllenhaal
p429
tp430
Rp431
ag3
(g4
g5
Vbachelorette
p432
tp433
Rp434
ag3
(g4
g5
Vstephen-a-smith
p435
tp436
Rp437
asS'France'
p438
(lp439
g3
(g4
g5
Vldj
p440
tp441
Rp442
ag3
(g4
g5
Vjean-jaures
p443
tp444
Rp445
ag3
(g4
g5
Vmiranda-kerr
p446
tp447
Rp448
ag3
(g4
g5
Vlouis-de-funes
p449
tp450
Rp451
ag3
(g4
g5
Vlaura-pausini
p452
tp453
Rp454
ag3
(g4
g5
Vbooba-3g
p455
tp456
Rp457
ag3
(g4
g5
Vebola
p458
tp459
Rp460
ag3
(g4
g5
Vla-planete-des-singes
p461
tp462
Rp463
ag3
(g4
g5
Vthe-truman-show
p464
tp465
Rp466
ag3
(g4
g5
Vnathalie-pechalat
p467
tp468
Rp469
ag3
(g4
g5
Veva-green
p470
tp471
Rp472
ag3
(g4
g5
Vthierry-redler
p473
tp474
Rp475
ag3
(g4
g5
Vla-mome
p476
tp477
Rp478
ag3
(g4
g5
Vdemain-ne-meurt-jamais
p479
tp480
Rp481
ag3
(g4
g5
Vnibali
p482
tp483
Rp484
ag3
(g4
g5
Vgal-gadot
p485
tp486
Rp487
ag3
(g4
g5
Vgood-bye-lenin
p488
tp489
Rp490
ag3
(g4
g5
Vaid-el-fitr-2014
p491
tp492
Rp493
ag3
(g4
g5
Vlaid-2014
p494
tp495
Rp496
ag3
(g4
g5
Velodie-gossuin
p497
tp498
Rp499
as.