(dp0
S'Brazil'
p1
(lp2
ccopy_reg
_reconstructor
p3
(cdjango.utils.safestring
SafeText
p4
c__builtin__
unicode
p5
Vcorinthians-x-bayer-leverkusen
p6
tp7
Rp8
ag3
(g4
g5
Vresumo-da-novela-alto-astral
p9
tp10
Rp11
ag3
(g4
g5
Vprouni
p12
tp13
Rp14
ag3
(g4
g5
Vmarlon-teixeira
p15
tp16
Rp17
ag3
(g4
g5
Vflamengo-e-shakhtar
p18
tp19
Rp20
ag3
(g4
g5
Vthaeme-e-thiago
p21
tp22
Rp23
ag3
(g4
g5
Vbrasileiro-executado-na-indonesia
p24
tp25
Rp26
ag3
(g4
g5
Vsorriso-maroto
p27
tp28
Rp29
ag3
(g4
g5
Vchay-suede
p30
tp31
Rp32
ag3
(g4
g5
Vons
p33
tp34
Rp35
ag3
(g4
g5
Vconor-mcgregor
p36
tp37
Rp38
ag3
(g4
g5
Vfies-inscricao
p39
tp40
Rp41
ag3
(g4
g5
Vricardo-dos-santos
p42
tp43
Rp44
ag3
(g4
g5
Vsao-sebastiao
p45
tp46
Rp47
ag3
(g4
g5
Vcapitao-america
p48
tp49
Rp50
ag3
(g4
g5
Vsisu
p51
tp52
Rp53
ag3
(g4
g5
Vnotas-de-corte-sisu-2015
p54
tp55
Rp56
ag3
(g4
g5
Vfantastico
p57
tp58
Rp59
ag3
(g4
g5
Vsisu-2015
p60
tp61
Rp62
ag3
(g4
g5
Vvitor-belfort
p63
tp64
Rp65
asS'Australia'
p66
(lp67
g3
(g4
g5
Vsam-stosur
p68
tp69
Rp70
ag3
(g4
g5
Vanne-kirkbride
p71
tp72
Rp73
ag3
(g4
g5
Vaustralian-open
p74
tp75
Rp76
ag3
(g4
g5
Vyolanda-foster
p77
tp78
Rp79
ag3
(g4
g5
Vabbie-cornish
p80
tp81
Rp82
ag3
(g4
g5
Vlindsey-vonn
p83
tp84
Rp85
ag3
(g4
g5
Va-current-affair
p86
tp87
Rp88
ag3
(g4
g5
Vtennis
p89
tp90
Rp91
ag3
(g4
g5
Vnicole-kidman
p92
tp93
Rp94
ag3
(g4
g5
Vlleyton-hewitt
p95
tp96
Rp97
ag3
(g4
g5
Vmaria-sharapova
p98
tp99
Rp100
ag3
(g4
g5
Vmartin-luther-king
p101
tp102
Rp103
ag3
(g4
g5
Vtennis-australia
p104
tp105
Rp106
ag3
(g4
g5
Vaustralian-open-2015
p107
tp108
Rp109
ag3
(g4
g5
Vindia-vs-england
p110
tp111
Rp112
ag3
(g4
g5
Vwilliam-tyrell
p113
tp114
Rp115
ag3
(g4
g5
Vvenus-williams
p116
tp117
Rp118
ag3
(g4
g5
Vnick-kyrgios
p119
tp120
Rp121
ag3
(g4
g5
Vmonfils
p122
tp123
Rp124
ag3
(g4
g5
Vsuperbowl-2015
p125
tp126
Rp127
asS'Italy'
p128
(lp129
g3
(g4
g5
Vbruno-barbieri
p130
tp131
Rp132
ag3
(g4
g5
Vokaka
p133
tp134
Rp135
ag3
(g4
g5
Vnina-moric
p136
tp137
Rp138
ag3
(g4
g5
Vcharlotte-caniggia
p139
tp140
Rp141
ag3
(g4
g5
Vaustralian-open
p142
tp143
Rp144
ag3
(g4
g5
Vbologna-perugia
p145
tp146
Rp147
ag3
(g4
g5
Vcarmen-consoli
p148
tp149
Rp150
ag3
(g4
g5
Vwanda-nara
p151
tp152
Rp153
ag3
(g4
g5
Vtiger-woods
p154
tp155
Rp156
ag3
(g4
g5
Vscherzi-a-parte
p157
tp158
Rp159
ag3
(g4
g5
Vsuso
p160
tp161
Rp162
ag3
(g4
g5
Vroma-empoli-coppa-italia
p163
tp164
Rp165
ag3
(g4
g5
Vveronica-maya
p166
tp167
Rp168
ag3
(g4
g5
Vterremoto
p169
tp170
Rp171
ag3
(g4
g5
Vlucia-villalon
p172
tp173
Rp174
ag3
(g4
g5
Vblue-monday
p175
tp176
Rp177
ag3
(g4
g5
Vrama-lila
p178
tp179
Rp180
ag3
(g4
g5
Vmelita-toniolo
p181
tp182
Rp183
ag3
(g4
g5
Vlegge-fornero
p184
tp185
Rp186
ag3
(g4
g5
Vpaolo-brosio
p187
tp188
Rp189
asS'Spain'
p190
(lp191
g3
(g4
g5
Vandrea-janeiro
p192
tp193
Rp194
ag3
(g4
g5
Vantonio-banderas
p195
tp196
Rp197
ag3
(g4
g5
Vlara-alvarez
p198
tp199
Rp200
ag3
(g4
g5
Vsusana-diaz
p201
tp202
Rp203
ag3
(g4
g5
Vanastacia
p204
tp205
Rp206
ag3
(g4
g5
Vel-lector
p207
tp208
Rp209
ag3
(g4
g5
Vbarbie
p210
tp211
Rp212
ag3
(g4
g5
Vlindsey-vonn
p213
tp214
Rp215
ag3
(g4
g5
Vclarin
p216
tp217
Rp218
ag3
(g4
g5
Vbarcenas
p219
tp220
Rp221
ag3
(g4
g5
Vsan-sebastian
p222
tp223
Rp224
ag3
(g4
g5
Vmartin-luther-king
p225
tp226
Rp227
ag3
(g4
g5
Vlucia-villalon
p228
tp229
Rp230
ag3
(g4
g5
Vclub-nintendo
p231
tp232
Rp233
ag3
(g4
g5
Vdavid-munoz
p234
tp235
Rp236
ag3
(g4
g5
Vmonedero
p237
tp238
Rp239
ag3
(g4
g5
Vcanserbero
p240
tp241
Rp242
ag3
(g4
g5
Vjake-gyllenhaal
p243
tp244
Rp245
ag3
(g4
g5
Vodegaard
p246
tp247
Rp248
ag3
(g4
g5
Vvina-rock-2015
p249
tp250
Rp251
asS'UK'
p252
(lp253
g3
(g4
g5
Vconor-mcgregor
p254
tp255
Rp256
ag3
(g4
g5
Vanne-kirkbride
p257
tp258
Rp259
ag3
(g4
g5
Vman-city-vs-arsenal
p260
tp261
Rp262
ag3
(g4
g5
Vaustralian-open
p263
tp264
Rp265
ag3
(g4
g5
Vamber-rose
p266
tp267
Rp268
ag3
(g4
g5
Veverton
p269
tp270
Rp271
ag3
(g4
g5
Vthe-sun
p272
tp273
Rp274
ag3
(g4
g5
Valexander-o-neal
p275
tp276
Rp277
ag3
(g4
g5
Veurostar
p278
tp279
Rp280
ag3
(g4
g5
Vblue-monday
p281
tp282
Rp283
ag3
(g4
g5
Vmartin-luther-king
p284
tp285
Rp286
ag3
(g4
g5
Vfgm
p287
tp288
Rp289
ag3
(g4
g5
Vjames-blunt
p290
tp291
Rp292
ag3
(g4
g5
Vasap-yams
p293
tp294
Rp295
ag3
(g4
g5
Vitv
p296
tp297
Rp298
ag3
(g4
g5
Vitv-news
p299
tp300
Rp301
ag3
(g4
g5
Vmuna-obiekwe
p302
tp303
Rp304
ag3
(g4
g5
Vsuperbowl-2015
p305
tp306
Rp307
ag3
(g4
g5
Vkatie-redford
p308
tp309
Rp310
ag3
(g4
g5
Vgreg-plitt
p311
tp312
Rp313
asS'India'
p314
(lp315
g3
(g4
g5
Vrun-kerala-run
p316
tp317
Rp318
ag3
(g4
g5
Vthe-theory-of-everything
p319
tp320
Rp321
ag3
(g4
g5
Vcricket
p322
tp323
Rp324
ag3
(g4
g5
Vaustralian-open
p325
tp326
Rp327
ag3
(g4
g5
Vamerican-sniper
p328
tp329
Rp330
ag3
(g4
g5
Vkiran-bedi
p331
tp332
Rp333
ag3
(g4
g5
Vthe-imitation-game
p334
tp335
Rp336
ag3
(g4
g5
Vlenovo-a6000
p337
tp338
Rp339
ag3
(g4
g5
Vnupur-sharma
p340
tp341
Rp342
ag3
(g4
g5
Vmi-note
p343
tp344
Rp345
ag3
(g4
g5
Vmsg
p346
tp347
Rp348
ag3
(g4
g5
Vab-de-villiers
p349
tp350
Rp351
ag3
(g4
g5
Vindia-vs-england
p352
tp353
Rp354
ag3
(g4
g5
Vreal-madrid
p355
tp356
Rp357
ag3
(g4
g5
Valone
p358
tp359
Rp360
ag3
(g4
g5
Vbank-strike
p361
tp362
Rp363
ag3
(g4
g5
Vmartin-luther-king-jr-day
p364
tp365
Rp366
ag3
(g4
g5
Vbirdman
p367
tp368
Rp369
ag3
(g4
g5
Vgreg-plitt
p370
tp371
Rp372
asS'US'
p373
(lp374
g3
(g4
g5
Vclay-matthews
p375
tp376
Rp377
ag3
(g4
g5
Vconor-mcgregor
p378
tp379
Rp380
ag3
(g4
g5
Vaustralian-open
p381
tp382
Rp383
ag3
(g4
g5
Vlindsey-vonn
p384
tp385
Rp386
ag3
(g4
g5
Vmichael-moore
p387
tp388
Rp389
ag3
(g4
g5
Vpitch-perfect
p390
tp391
Rp392
ag3
(g4
g5
Vchristina-milian
p393
tp394
Rp395
ag3
(g4
g5
Vjustin-bieber-calvin-klein
p396
tp397
Rp398
ag3
(g4
g5
Vmalcolm-x
p399
tp400
Rp401
ag3
(g4
g5
Vgreg-plitt
p402
tp403
Rp404
ag3
(g4
g5
Vcoretta-scott-king
p405
tp406
Rp407
ag3
(g4
g5
Vgary-kubiak
p408
tp409
Rp410
ag3
(g4
g5
Vsuper-bowl-2015
p411
tp412
Rp413
ag3
(g4
g5
Vseahawks
p414
tp415
Rp416
ag3
(g4
g5
Vmarshawn-lynch
p417
tp418
Rp419
ag3
(g4
g5
Vrussell-wilson
p420
tp421
Rp422
ag3
(g4
g5
Vlyme-disease
p423
tp424
Rp425
ag3
(g4
g5
Vmartin-luther-king-jr-day
p426
tp427
Rp428
ag3
(g4
g5
Vstate-of-the-union
p429
tp430
Rp431
ag3
(g4
g5
Vasap-yams
p432
tp433
Rp434
asS'France'
p435
(lp436
g3
(g4
g5
Vgomorra
p437
tp438
Rp439
ag3
(g4
g5
Vdaniel-guichard
p440
tp441
Rp442
ag3
(g4
g5
Vgreve-routier
p443
tp444
Rp445
ag3
(g4
g5
Voceane-dodin
p446
tp447
Rp448
ag3
(g4
g5
Vphilippe-tesson
p449
tp450
Rp451
ag3
(g4
g5
Vlindsey-vonn
p452
tp453
Rp454
ag3
(g4
g5
Vmichel-sardou
p455
tp456
Rp457
ag3
(g4
g5
Vmarseille-guingamp
p458
tp459
Rp460
ag3
(g4
g5
Vnantes
p461
tp462
Rp463
ag3
(g4
g5
Vcastle-saison-7
p464
tp465
Rp466
ag3
(g4
g5
Vchandeleur
p467
tp468
Rp469
ag3
(g4
g5
Valgerie-afrique-du-sud
p470
tp471
Rp472
ag3
(g4
g5
Vtaken
p473
tp474
Rp475
ag3
(g4
g5
Vmeteo
p476
tp477
Rp478
ag3
(g4
g5
Vhandball
p479
tp480
Rp481
ag3
(g4
g5
Vapb
p482
tp483
Rp484
ag3
(g4
g5
Vmeteo-france
p485
tp486
Rp487
ag3
(g4
g5
Vpatrice-alegre
p488
tp489
Rp490
ag3
(g4
g5
Vriss
p491
tp492
Rp493
ag3
(g4
g5
Vcoupe-de-france
p494
tp495
Rp496
as.