(dp0
S'Brazil'
p1
(lp2
ccopy_reg
_reconstructor
p3
(cdjango.utils.safestring
SafeText
p4
c__builtin__
unicode
p5
Vf1
p6
tp7
Rp8
ag3
(g4
g5
Vnovembro
p9
tp10
Rp11
ag3
(g4
g5
Vdia-de-finados
p12
tp13
Rp14
ag3
(g4
g5
Vnovembro-azul
p15
tp16
Rp17
ag3
(g4
g5
Vjogos-de-halloween
p18
tp19
Rp20
ag3
(g4
g5
Vperola-faria
p21
tp22
Rp23
ag3
(g4
g5
Vmega-sena
p24
tp25
Rp26
ag3
(g4
g5
Vbarcelona
p27
tp28
Rp29
ag3
(g4
g5
Vvelozes-e-furiosos-7
p30
tp31
Rp32
ag3
(g4
g5
Vfilho-do-jo-soares
p33
tp34
Rp35
ag3
(g4
g5
Vhalloween-filme
p36
tp37
Rp38
ag3
(g4
g5
Vgremio
p39
tp40
Rp41
ag3
(g4
g5
Vtabela-brasileirao-2014
p42
tp43
Rp44
ag3
(g4
g5
Vserie-a
p45
tp46
Rp47
ag3
(g4
g5
Vjennifer-lawrence
p48
tp49
Rp50
ag3
(g4
g5
Vcorinthians
p51
tp52
Rp53
ag3
(g4
g5
Vformula-1
p54
tp55
Rp56
ag3
(g4
g5
Vmaquiagem-halloween
p57
tp58
Rp59
ag3
(g4
g5
Vfluminense
p60
tp61
Rp62
ag3
(g4
g5
Vparamore
p63
tp64
Rp65
asS'Australia'
p66
(lp67
g3
(g4
g5
Vf1
p68
tp69
Rp70
ag3
(g4
g5
Vliverpool
p71
tp72
Rp73
ag3
(g4
g5
Vlena-dunham
p74
tp75
Rp76
ag3
(g4
g5
Vderby-day-2014
p77
tp78
Rp79
ag3
(g4
g5
Vwestern-sydney-wanderers
p80
tp81
Rp82
ag3
(g4
g5
Vmelbourne-cup-field
p83
tp84
Rp85
ag3
(g4
g5
Vnoosa-triathlon
p86
tp87
Rp88
ag3
(g4
g5
Vderrick-rose
p89
tp90
Rp91
ag3
(g4
g5
Vwayne-static
p92
tp93
Rp94
ag3
(g4
g5
Valex-leapai
p95
tp96
Rp97
ag3
(g4
g5
Vtaylor-kitsch
p98
tp99
Rp100
ag3
(g4
g5
Vdoctor-who
p101
tp102
Rp103
ag3
(g4
g5
Vepl
p104
tp105
Rp106
ag3
(g4
g5
Vreal-madrid
p107
tp108
Rp109
ag3
(g4
g5
Vwallabies
p110
tp111
Rp112
ag3
(g4
g5
Vfast-and-furious-7
p113
tp114
Rp115
ag3
(g4
g5
Vchelsea
p116
tp117
Rp118
ag3
(g4
g5
Vall-blacks
p119
tp120
Rp121
ag3
(g4
g5
Vtorrent
p122
tp123
Rp124
ag3
(g4
g5
Vpottermore
p125
tp126
Rp127
asS'Italy'
p128
(lp129
g3
(g4
g5
Vi-cesaroni-6
p130
tp131
Rp132
ag3
(g4
g5
Vballando-con-le-stelle
p133
tp134
Rp135
ag3
(g4
g5
Vtu-si-que-vales
p136
tp137
Rp138
ag3
(g4
g5
Vdiretta-calcio
p139
tp140
Rp141
ag3
(g4
g5
Vas-roma
p142
tp143
Rp144
ag3
(g4
g5
Vognissanti
p145
tp146
Rp147
ag3
(g4
g5
Vvoti-fantacalcio
p148
tp149
Rp150
ag3
(g4
g5
Vrisultati-in-tempo-reale
p151
tp152
Rp153
ag3
(g4
g5
Vdiretta-it
p154
tp155
Rp156
ag3
(g4
g5
Vle-voci-di-dentro
p157
tp158
Rp159
ag3
(g4
g5
Vdiretta
p160
tp161
Rp162
ag3
(g4
g5
Vvalerio-aspromonte
p163
tp164
Rp165
ag3
(g4
g5
Vserie-a
p166
tp167
Rp168
ag3
(g4
g5
Vserie-b
p169
tp170
Rp171
ag3
(g4
g5
Vnapoli-roma-2014
p172
tp173
Rp174
ag3
(g4
g5
Vrisultati
p175
tp176
Rp177
ag3
(g4
g5
Vlive-tv
p178
tp179
Rp180
ag3
(g4
g5
Vnapoli-roma-streaming
p181
tp182
Rp183
ag3
(g4
g5
Vdayane-mello
p184
tp185
Rp186
ag3
(g4
g5
V2-novembre
p187
tp188
Rp189
asS'Spain'
p190
(lp191
g3
(g4
g5
Vliga-bbva
p192
tp193
Rp194
ag3
(g4
g5
Vacb
p195
tp196
Rp197
ag3
(g4
g5
Vteresa-romero
p198
tp199
Rp200
ag3
(g4
g5
Velton-john
p201
tp202
Rp203
ag3
(g4
g5
Vpaul-walker
p204
tp205
Rp206
ag3
(g4
g5
Vlos-chichos
p207
tp208
Rp209
ag3
(g4
g5
Vseries
p210
tp211
Rp212
ag3
(g4
g5
Vterelu-campos
p213
tp214
Rp215
ag3
(g4
g5
Vmarca
p216
tp217
Rp218
ag3
(g4
g5
Vfutbol
p219
tp220
Rp221
ag3
(g4
g5
Vatletico-de-madrid
p222
tp223
Rp224
ag3
(g4
g5
Vjames-rodriguez
p225
tp226
Rp227
ag3
(g4
g5
Vmanchester-united
p228
tp229
Rp230
ag3
(g4
g5
Vbarcelona
p231
tp232
Rp233
ag3
(g4
g5
Vcaparros
p234
tp235
Rp236
ag3
(g4
g5
Vsport
p237
tp238
Rp239
ag3
(g4
g5
Vjake-gyllenhaal
p240
tp241
Rp242
ag3
(g4
g5
Vformula-1
p243
tp244
Rp245
ag3
(g4
g5
Vpedro-sanchez
p246
tp247
Rp248
ag3
(g4
g5
Vmundo-deportivo
p249
tp250
Rp251
asS'UK'
p252
(lp253
g3
(g4
g5
Vpremier-league
p254
tp255
Rp256
ag3
(g4
g5
Vbt-sport
p257
tp258
Rp259
ag3
(g4
g5
Vcaroline-flack
p260
tp261
Rp262
ag3
(g4
g5
Vclaudia-winkleman
p263
tp264
Rp265
ag3
(g4
g5
Vliverpool
p266
tp267
Rp268
ag3
(g4
g5
Vhalloween
p269
tp270
Rp271
ag3
(g4
g5
Vstrictly-come-dancing
p272
tp273
Rp274
ag3
(g4
g5
Vfast-and-furious-7
p275
tp276
Rp277
ag3
(g4
g5
Vwayne-static
p278
tp279
Rp280
ag3
(g4
g5
Vdoctor-who
p281
tp282
Rp283
ag3
(g4
g5
Vmanchester-united
p284
tp285
Rp286
ag3
(g4
g5
Vanne-hathaway
p287
tp288
Rp289
ag3
(g4
g5
Vx-factor
p290
tp291
Rp292
ag3
(g4
g5
Valexis-sanchez
p293
tp294
Rp295
ag3
(g4
g5
Viggy-azalea
p296
tp297
Rp298
ag3
(g4
g5
Vsimon-webbe
p299
tp300
Rp301
ag3
(g4
g5
Vchelsea
p302
tp303
Rp304
ag3
(g4
g5
Vfleur-east
p305
tp306
Rp307
ag3
(g4
g5
Vlena-dunham
p308
tp309
Rp310
ag3
(g4
g5
Vpottermore
p311
tp312
Rp313
asS'India'
p314
(lp315
g3
(g4
g5
Vcricket-score
p316
tp317
Rp318
ag3
(g4
g5
Vcricket
p319
tp320
Rp321
ag3
(g4
g5
Vaishwarya-rai
p322
tp323
Rp324
ag3
(g4
g5
Vhalloween-party
p325
tp326
Rp327
ag3
(g4
g5
Vbjp-membership
p328
tp329
Rp330
ag3
(g4
g5
Vroar
p331
tp332
Rp333
ag3
(g4
g5
Vlingaa
p334
tp335
Rp336
ag3
(g4
g5
Vpetrol-price
p337
tp338
Rp339
ag3
(g4
g5
Vgold-price
p340
tp341
Rp342
ag3
(g4
g5
Vbhopal-gas-tragedy
p343
tp344
Rp345
ag3
(g4
g5
Vshahrukh-khan
p346
tp347
Rp348
ag3
(g4
g5
Vepl
p349
tp350
Rp351
ag3
(g4
g5
Vcurrent-teega
p352
tp353
Rp354
ag3
(g4
g5
Vreal-madrid
p355
tp356
Rp357
ag3
(g4
g5
Vbjp
p358
tp359
Rp360
ag3
(g4
g5
Vfast-and-furious-7
p361
tp362
Rp363
ag3
(g4
g5
Vwasim-akram
p364
tp365
Rp366
ag3
(g4
g5
Vhappy-halloween
p367
tp368
Rp369
ag3
(g4
g5
Vrobert-vadra
p370
tp371
Rp372
ag3
(g4
g5
Vpankaja-munde
p373
tp374
Rp375
asS'US'
p376
(lp377
g3
(g4
g5
Vday-of-the-dead
p378
tp379
Rp380
ag3
(g4
g5
Vgeorgia-bulldogs
p381
tp382
Rp383
ag3
(g4
g5
Vinterstellar
p384
tp385
Rp386
ag3
(g4
g5
Vtexas-am-football
p387
tp388
Rp389
ag3
(g4
g5
Vcollege-football
p390
tp391
Rp392
ag3
(g4
g5
Vfury
p393
tp394
Rp395
ag3
(g4
g5
Vprince
p396
tp397
Rp398
ag3
(g4
g5
Vmichigan-football
p399
tp400
Rp401
ag3
(g4
g5
Vole-miss-football
p402
tp403
Rp404
ag3
(g4
g5
Vwayne-static
p405
tp406
Rp407
ag3
(g4
g5
Vcollege-football-rankings
p408
tp409
Rp410
ag3
(g4
g5
Vtcu-football
p411
tp412
Rp413
ag3
(g4
g5
Vjessa-duggar
p414
tp415
Rp416
ag3
(g4
g5
Vnyc-marathon
p417
tp418
Rp419
ag3
(g4
g5
Vfast-and-furious-7
p420
tp421
Rp422
ag3
(g4
g5
Vbreeders-cup
p423
tp424
Rp425
ag3
(g4
g5
Viggy-azalea
p426
tp427
Rp428
ag3
(g4
g5
Vdallas-cowboys
p429
tp430
Rp431
ag3
(g4
g5
Vohio-state-football
p432
tp433
Rp434
ag3
(g4
g5
Vauburn-football
p435
tp436
Rp437
asS'France'
p438
(lp439
g3
(g4
g5
Vtop-14
p440
tp441
Rp442
ag3
(g4
g5
Vremi-fraisse
p443
tp444
Rp445
ag3
(g4
g5
Vdals
p446
tp447
Rp448
ag3
(g4
g5
Vsoizic-corne
p449
tp450
Rp451
ag3
(g4
g5
Vchantal-ladesou
p452
tp453
Rp454
ag3
(g4
g5
V1er-novembre
p455
tp456
Rp457
ag3
(g4
g5
Vincendie-maison-de-la-radio
p458
tp459
Rp460
ag3
(g4
g5
Vroute-du-rhum
p461
tp462
Rp463
ag3
(g4
g5
Vgregoire-lyonnet
p464
tp465
Rp466
ag3
(g4
g5
Vgravity
p467
tp468
Rp469
ag3
(g4
g5
Vjean-dujardin
p470
tp471
Rp472
ag3
(g4
g5
Vmaquillage-halloween
p473
tp474
Rp475
ag3
(g4
g5
Vsia
p476
tp477
Rp478
ag3
(g4
g5
Vlaurent-gerra
p479
tp480
Rp481
ag3
(g4
g5
Vlouisy-joseph
p482
tp483
Rp484
ag3
(g4
g5
Vtoussaint
p485
tp486
Rp487
ag3
(g4
g5
Vfast-and-furious-7
p488
tp489
Rp490
ag3
(g4
g5
Vc-est-quand-halloween
p491
tp492
Rp493
ag3
(g4
g5
Vremi-gaillard
p494
tp495
Rp496
ag3
(g4
g5
Vligue-1
p497
tp498
Rp499
as.