(dp0
S'Brazil'
p1
(lp2
ccopy_reg
_reconstructor
p3
(cdjango.utils.safestring
SafeText
p4
c__builtin__
unicode
p5
Vchelsea
p6
tp7
Rp8
ag3
(g4
g5
Vtiago-iorc
p9
tp10
Rp11
ag3
(g4
g5
Vcruzeiro
p12
tp13
Rp14
ag3
(g4
g5
Vayrton-senna
p15
tp16
Rp17
ag3
(g4
g5
Vesporte-interativo
p18
tp19
Rp20
ag3
(g4
g5
Vbob-hoskins
p21
tp22
Rp23
ag3
(g4
g5
Vdia-do-trabalhador
p24
tp25
Rp26
ag3
(g4
g5
Vreal-madrid
p27
tp28
Rp29
ag3
(g4
g5
Vcristiano-ronaldo
p30
tp31
Rp32
ag3
(g4
g5
Verick-silva
p33
tp34
Rp35
ag3
(g4
g5
Vmais-voce
p36
tp37
Rp38
ag3
(g4
g5
Vbom-dia
p39
tp40
Rp41
ag3
(g4
g5
Vcalma-jorge-e-mateus
p42
tp43
Rp44
ag3
(g4
g5
Vrafael-almeida
p45
tp46
Rp47
ag3
(g4
g5
Vmaguila
p48
tp49
Rp50
ag3
(g4
g5
Vitau
p51
tp52
Rp53
ag3
(g4
g5
Vbanco-do-brasil
p54
tp55
Rp56
ag3
(g4
g5
Vcaixa
p57
tp58
Rp59
ag3
(g4
g5
Vsantander
p60
tp61
Rp62
ag3
(g4
g5
Vdia-da-sogra
p63
tp64
Rp65
asS'Australia'
p66
(lp67
g3
(g4
g5
Vbom
p68
tp69
Rp70
ag3
(g4
g5
Vsplendour-in-the-grass-2014
p71
tp72
Rp73
ag3
(g4
g5
Variana-grande
p74
tp75
Rp76
ag3
(g4
g5
Vbad-neighbours
p77
tp78
Rp79
ag3
(g4
g5
Vayrton-senna
p80
tp81
Rp82
ag3
(g4
g5
Ved-sheeran
p83
tp84
Rp85
ag3
(g4
g5
Vflying-high
p86
tp87
Rp88
ag3
(g4
g5
Vbob-hoskins
p89
tp90
Rp91
ag3
(g4
g5
Vangela-white
p92
tp93
Rp94
ag3
(g4
g5
Vpeaches-geldof
p95
tp96
Rp97
ag3
(g4
g5
Vcommission-of-audit
p98
tp99
Rp100
ag3
(g4
g5
Vso-you-think-you-can-dance-australia
p101
tp102
Rp103
ag3
(g4
g5
Vfargo
p104
tp105
Rp106
ag3
(g4
g5
Vchelsea
p107
tp108
Rp109
ag3
(g4
g5
Vbenji-marshall
p110
tp111
Rp112
ag3
(g4
g5
Vsnapchat
p113
tp114
Rp115
ag3
(g4
g5
Vjennifer-lawrence
p116
tp117
Rp118
ag3
(g4
g5
Vpaula-abdul
p119
tp120
Rp121
ag3
(g4
g5
Vmean-girls
p122
tp123
Rp124
ag3
(g4
g5
V5-seconds-of-summer
p125
tp126
Rp127
asS'Italy'
p128
(lp129
g3
(g4
g5
Vchelsea-atletico-madrid
p130
tp131
Rp132
ag3
(g4
g5
Vbob-hoskins
p133
tp134
Rp135
ag3
(g4
g5
Vhachiko
p136
tp137
Rp138
ag3
(g4
g5
V1-maggio
p139
tp140
Rp141
ag3
(g4
g5
Vtromba-d-aria
p142
tp143
Rp144
ag3
(g4
g5
Vprimo-maggio
p145
tp146
Rp147
ag3
(g4
g5
Vdonald-sterling
p148
tp149
Rp150
ag3
(g4
g5
V99-posse
p151
tp152
Rp153
ag3
(g4
g5
Vsodinha
p154
tp155
Rp156
ag3
(g4
g5
Vriccardo-magherini
p157
tp158
Rp159
ag3
(g4
g5
Vconcerto-primo-maggio-2014
p160
tp161
Rp162
ag3
(g4
g5
Vemilio-riva
p163
tp164
Rp165
ag3
(g4
g5
Vexpo-2015
p166
tp167
Rp168
ag3
(g4
g5
V1-maggio-2014
p169
tp170
Rp171
ag3
(g4
g5
Vcomicon
p172
tp173
Rp174
ag3
(g4
g5
Vgazzetta-di-modena
p175
tp176
Rp177
ag3
(g4
g5
Vtorres
p178
tp179
Rp180
ag3
(g4
g5
Vkate-upton
p181
tp182
Rp183
ag3
(g4
g5
Vprimo-maggio-2014
p184
tp185
Rp186
ag3
(g4
g5
Voliver-twist
p187
tp188
Rp189
asS'Spain'
p190
(lp191
g3
(g4
g5
Vdivergente
p192
tp193
Rp194
ag3
(g4
g5
Vmonkey-black
p195
tp196
Rp197
ag3
(g4
g5
Vfernando-torres
p198
tp199
Rp200
ag3
(g4
g5
Vdia-del-trabajador
p201
tp202
Rp203
ag3
(g4
g5
Vatletico-de-madrid
p204
tp205
Rp206
ag3
(g4
g5
Vmundo-deportivo
p207
tp208
Rp209
ag3
(g4
g5
Vbob-hoskins
p210
tp211
Rp212
ag3
(g4
g5
Ventradas-final-champions-2014
p213
tp214
Rp215
ag3
(g4
g5
Voscar-isaac
p216
tp217
Rp218
ag3
(g4
g5
Vpep-guardiola
p219
tp220
Rp221
ag3
(g4
g5
Vslaughter
p222
tp223
Rp224
ag3
(g4
g5
Vcourtois
p225
tp226
Rp227
ag3
(g4
g5
Vcadena-cope
p228
tp229
Rp230
ag3
(g4
g5
Vuefa
p231
tp232
Rp233
ag3
(g4
g5
Vdavid-campayo-lleo
p234
tp235
Rp236
ag3
(g4
g5
Vyolanda-ramos
p237
tp238
Rp239
ag3
(g4
g5
Vxabi-alonso
p240
tp241
Rp242
ag3
(g4
g5
Vmario-casas
p243
tp244
Rp245
ag3
(g4
g5
Vreal-madrid
p246
tp247
Rp248
ag3
(g4
g5
Vpaco-leon
p249
tp250
Rp251
asS'UK'
p252
(lp253
g3
(g4
g5
Vjuventus
p254
tp255
Rp256
ag3
(g4
g5
Vpeaches-geldof
p257
tp258
Rp259
ag3
(g4
g5
Vjeremy-clarkson
p260
tp261
Rp262
ag3
(g4
g5
Vjennifer-lawrence
p263
tp264
Rp265
ag3
(g4
g5
Vgerry-adams
p266
tp267
Rp268
ag3
(g4
g5
Vsnapchat
p269
tp270
Rp271
ag3
(g4
g5
Vsize
p272
tp273
Rp274
ag3
(g4
g5
Vsnooker
p275
tp276
Rp277
ag3
(g4
g5
Vanaface
p278
tp279
Rp280
ag3
(g4
g5
Vcanary-wharf
p281
tp282
Rp283
ag3
(g4
g5
Vjeremy-paxman
p284
tp285
Rp286
ag3
(g4
g5
Vmarcus-wareing
p287
tp288
Rp289
ag3
(g4
g5
Vmay-day
p290
tp291
Rp292
ag3
(g4
g5
Vconstance-briscoe
p293
tp294
Rp295
ag3
(g4
g5
Vthe-times
p296
tp297
Rp298
ag3
(g4
g5
Vpremier-league
p299
tp300
Rp301
ag3
(g4
g5
Voncology
p302
tp303
Rp304
ag3
(g4
g5
Vbad-neighbours
p305
tp306
Rp307
ag3
(g4
g5
Vbob-hoskins
p308
tp309
Rp310
ag3
(g4
g5
Vchelsea
p311
tp312
Rp313
asS'India'
p314
(lp315
g3
(g4
g5
Vakshaya-tritiya
p316
tp317
Rp318
ag3
(g4
g5
Vchennai-bomb-blast
p319
tp320
Rp321
ag3
(g4
g5
Vchelsea
p322
tp323
Rp324
ag3
(g4
g5
Vamazing-spider-man-2
p325
tp326
Rp327
ag3
(g4
g5
Vmaharashtra-day
p328
tp329
Rp330
ag3
(g4
g5
Vlabour-day
p331
tp332
Rp333
ag3
(g4
g5
Vamrita-rai
p334
tp335
Rp336
ag3
(g4
g5
Vreal-madrid
p337
tp338
Rp339
ag3
(g4
g5
V10th-result
p340
tp341
Rp342
ag3
(g4
g5
Vmay-day
p343
tp344
Rp345
ag3
(g4
g5
Vkkr-vs-rr
p346
tp347
Rp348
ag3
(g4
g5
Valla-rakha
p349
tp350
Rp351
ag3
(g4
g5
Vintermediate-results
p352
tp353
Rp354
ag3
(g4
g5
Vrobert-vadra
p355
tp356
Rp357
ag3
(g4
g5
Vsingh-is-bling
p358
tp359
Rp360
ag3
(g4
g5
Vchelsea
p361
tp362
Rp363
ag3
(g4
g5
Vamal-alamuddin
p364
tp365
Rp366
ag3
(g4
g5
Vpreity-zinta
p367
tp368
Rp369
ag3
(g4
g5
Vtito-vilanova
p370
tp371
Rp372
ag3
(g4
g5
Vrevolver-rani
p373
tp374
Rp375
asS'US'
p376
(lp377
g3
(g4
g5
Vmay-day
p378
tp379
Rp380
ag3
(g4
g5
Vsnapchat
p381
tp382
Rp383
ag3
(g4
g5
Vrob-ford
p384
tp385
Rp386
ag3
(g4
g5
Vmike-dantoni
p387
tp388
Rp389
ag3
(g4
g5
Vshantel-jackson
p390
tp391
Rp392
ag3
(g4
g5
Vnational-day-of-prayer
p393
tp394
Rp395
ag3
(g4
g5
Vayrton-senna
p396
tp397
Rp398
ag3
(g4
g5
Vbeltane
p399
tp400
Rp401
ag3
(g4
g5
Vbob-hoskins
p402
tp403
Rp404
ag3
(g4
g5
Vjameis-winston
p405
tp406
Rp407
ag3
(g4
g5
Vpeaches-geldof
p408
tp409
Rp410
ag3
(g4
g5
Vminnesota-wild
p411
tp412
Rp413
ag3
(g4
g5
Vla-kings
p414
tp415
Rp416
ag3
(g4
g5
Vflyers
p417
tp418
Rp419
ag3
(g4
g5
Vkurt-cobain
p420
tp421
Rp422
ag3
(g4
g5
Vchelsea
p423
tp424
Rp425
ag3
(g4
g5
Vclayton-lockett
p426
tp427
Rp428
ag3
(g4
g5
Vcressida-bonas
p429
tp430
Rp431
ag3
(g4
g5
Vsophia-bush
p432
tp433
Rp434
ag3
(g4
g5
Vits-gonna-be-may
p435
tp436
Rp437
asS'France'
p438
(lp439
g3
(g4
g5
Vblack-mirror
p440
tp441
Rp442
ag3
(g4
g5
Vjuventus-benfica
p443
tp444
Rp445
ag3
(g4
g5
Vsnapchat
p446
tp447
Rp448
ag3
(g4
g5
Vrose
p449
tp450
Rp451
ag3
(g4
g5
Vpeaches-geldof
p452
tp453
Rp454
ag3
(g4
g5
Vtony-parker
p455
tp456
Rp457
ag3
(g4
g5
Vjennifer-lawrence
p458
tp459
Rp460
ag3
(g4
g5
Vdalida
p461
tp462
Rp463
ag3
(g4
g5
Vlouis-de-funes
p464
tp465
Rp466
ag3
(g4
g5
Vdiego-costa
p467
tp468
Rp469
ag3
(g4
g5
Vmuguet-1er-mai
p470
tp471
Rp472
ag3
(g4
g5
Varda-turan
p473
tp474
Rp475
ag3
(g4
g5
Vorelsan
p476
tp477
Rp478
ag3
(g4
g5
Vprogramme-tv-ce-soir
p479
tp480
Rp481
ag3
(g4
g5
Vx-men
p482
tp483
Rp484
ag3
(g4
g5
Vgerard-palaprat
p485
tp486
Rp487
ag3
(g4
g5
Vzabou-breitman
p488
tp489
Rp490
ag3
(g4
g5
Vmuguet
p491
tp492
Rp493
ag3
(g4
g5
Vchelsea-atletico
p494
tp495
Rp496
ag3
(g4
g5
Vbob-hoskins
p497
tp498
Rp499
as.