(dp0
S'Brazil'
p1
(lp2
ccopy_reg
_reconstructor
p3
(cdjango.utils.safestring
SafeText
p4
c__builtin__
unicode
p5
Vmarcha-para-jesus-2015
p6
tp7
Rp8
ag3
(g4
g5
Vqualquer-gato-vira-lata-2
p9
tp10
Rp11
ag3
(g4
g5
Vangelina-jolie
p12
tp13
Rp14
ag3
(g4
g5
Vgreve-da-cptm
p15
tp16
Rp17
ag3
(g4
g5
Vmega-sena-1710
p18
tp19
Rp20
ag3
(g4
g5
Vbrasileirao-2015
p21
tp22
Rp23
ag3
(g4
g5
Vcorpus-christi-2015
p24
tp25
Rp26
ag3
(g4
g5
Vcorpus-christi
p27
tp28
Rp29
ag3
(g4
g5
Vhoje-e-dia-de-maria
p30
tp31
Rp32
ag3
(g4
g5
Vken-humano
p33
tp34
Rp35
ag3
(g4
g5
Vpalmeiras-x-internacional
p36
tp37
Rp38
ag3
(g4
g5
Vfluminense
p39
tp40
Rp41
ag3
(g4
g5
Vcampeonato-brasileiro
p42
tp43
Rp44
ag3
(g4
g5
Vcptm
p45
tp46
Rp47
ag3
(g4
g5
Vtomorrowland
p48
tp49
Rp50
ag3
(g4
g5
Vcartola
p51
tp52
Rp53
ag3
(g4
g5
Vnba
p54
tp55
Rp56
ag3
(g4
g5
Vzuzu-angel
p57
tp58
Rp59
ag3
(g4
g5
Vgremio-x-corinthians
p60
tp61
Rp62
asS'Australia'
p63
(lp64
g3
(g4
g5
Vchris-pratt
p65
tp66
Rp67
ag3
(g4
g5
Voarfish
p68
tp69
Rp70
ag3
(g4
g5
Vdil-dhadakne-do
p71
tp72
Rp73
ag3
(g4
g5
Vespn
p74
tp75
Rp76
ag3
(g4
g5
Vfallout-4-release-date
p77
tp78
Rp79
ag3
(g4
g5
Vsense8
p80
tp81
Rp82
ag3
(g4
g5
Vfremantle-dockers
p83
tp84
Rp85
ag3
(g4
g5
Vjerry-collins
p86
tp87
Rp88
ag3
(g4
g5
Vwomen-s-world-cup
p89
tp90
Rp91
ag3
(g4
g5
Ventourage-movie
p92
tp93
Rp94
ag3
(g4
g5
Valan-bond
p95
tp96
Rp97
ag3
(g4
g5
Vcpa-australia
p98
tp99
Rp100
ag3
(g4
g5
Vjoan-kirner
p101
tp102
Rp103
ag3
(g4
g5
Varnold-schwarzenegger
p104
tp105
Rp106
ag3
(g4
g5
Vfreezemnd
p107
tp108
Rp109
ag3
(g4
g5
Vubble
p110
tp111
Rp112
ag3
(g4
g5
Vnba
p113
tp114
Rp115
ag3
(g4
g5
Vsally-pearson
p116
tp117
Rp118
ag3
(g4
g5
Vtony-lockett
p119
tp120
Rp121
ag3
(g4
g5
Vkyrie-irving
p122
tp123
Rp124
asS'Italy'
p125
(lp126
g3
(g4
g5
Vcommissioni-esami-di-stato-2015
p127
tp128
Rp129
ag3
(g4
g5
Vligabue
p130
tp131
Rp132
ag3
(g4
g5
Vangelina-jolie
p133
tp134
Rp135
ag3
(g4
g5
Vlorenzo-fragola
p136
tp137
Rp138
ag3
(g4
g5
Veros-ramazzotti
p139
tp140
Rp141
ag3
(g4
g5
Vgianni-morandi
p142
tp143
Rp144
ag3
(g4
g5
Vvan-persie
p145
tp146
Rp147
ag3
(g4
g5
Vjerry-collins
p148
tp149
Rp150
ag3
(g4
g5
Vsleepers
p151
tp152
Rp153
ag3
(g4
g5
Vcomune-di-milano
p154
tp155
Rp156
ag3
(g4
g5
Vfedez
p157
tp158
Rp159
ag3
(g4
g5
Vandrea-dipre
p160
tp161
Rp162
ag3
(g4
g5
Vvanessa-incontrada
p163
tp164
Rp165
ag3
(g4
g5
Vsuperenalotto
p166
tp167
Rp168
ag3
(g4
g5
Vtiziano-ferro
p169
tp170
Rp171
ag3
(g4
g5
Vmafia-capitale
p172
tp173
Rp174
ag3
(g4
g5
Vcarlo-conti
p175
tp176
Rp177
ag3
(g4
g5
Vnba
p178
tp179
Rp180
ag3
(g4
g5
Vestrazioni-del-lotto
p181
tp182
Rp183
ag3
(g4
g5
Vincidente-metro-roma
p184
tp185
Rp186
asS'Spain'
p187
(lp188
g3
(g4
g5
Veurosport
p189
tp190
Rp191
ag3
(g4
g5
Vque-es-la-difteria
p192
tp193
Rp194
ag3
(g4
g5
Vcan-roca
p195
tp196
Rp197
ag3
(g4
g5
Vnadal-djokovic
p198
tp199
Rp200
ag3
(g4
g5
Vnetflix
p201
tp202
Rp203
ag3
(g4
g5
Vdifteria
p204
tp205
Rp206
ag3
(g4
g5
Vroberto-carlos
p207
tp208
Rp209
ag3
(g4
g5
Vangelina-jolie
p210
tp211
Rp212
ag3
(g4
g5
Vcopa-del-rey
p213
tp214
Rp215
ag3
(g4
g5
Vcorpus-christi
p216
tp217
Rp218
ag3
(g4
g5
Vpitada-al-himno
p219
tp220
Rp221
ag3
(g4
g5
Vcopa-mundial-femenina
p222
tp223
Rp224
ag3
(g4
g5
Vblatter
p225
tp226
Rp227
ag3
(g4
g5
Vrubius
p228
tp229
Rp230
ag3
(g4
g5
Vheroes-of-the-storm
p231
tp232
Rp233
ag3
(g4
g5
Vrafa-benitez
p234
tp235
Rp236
ag3
(g4
g5
Vbruce-jenner
p237
tp238
Rp239
ag3
(g4
g5
Vnba
p240
tp241
Rp242
ag3
(g4
g5
Vxavi-hernandez
p243
tp244
Rp245
ag3
(g4
g5
Vfallout-4
p246
tp247
Rp248
asS'UK'
p249
(lp250
g3
(g4
g5
Vone-direction
p251
tp252
Rp253
ag3
(g4
g5
Vandy-murray
p254
tp255
Rp256
ag3
(g4
g5
Vchrissy-chambers
p257
tp258
Rp259
ag3
(g4
g5
Vjames-milner
p260
tp261
Rp262
ag3
(g4
g5
Vchuck-blazer
p263
tp264
Rp265
ag3
(g4
g5
Vkelly-clarkson
p266
tp267
Rp268
ag3
(g4
g5
Vangelina-jolie
p269
tp270
Rp271
ag3
(g4
g5
Vjerry-collins
p272
tp273
Rp274
ag3
(g4
g5
Vwomen-s-world-cup
p275
tp276
Rp277
ag3
(g4
g5
Vana-ivanovic
p278
tp279
Rp280
ag3
(g4
g5
Vfallout-4-release-date
p281
tp282
Rp283
ag3
(g4
g5
Vserena-williams
p284
tp285
Rp286
ag3
(g4
g5
Vjeremy-corbyn
p287
tp288
Rp289
ag3
(g4
g5
Vdeliveroo
p290
tp291
Rp292
ag3
(g4
g5
Vcharley-webb
p293
tp294
Rp295
ag3
(g4
g5
Vubble
p296
tp297
Rp298
ag3
(g4
g5
Vnba
p299
tp300
Rp301
ag3
(g4
g5
Vedexcel-maths
p302
tp303
Rp304
ag3
(g4
g5
Valton-towers-accident
p305
tp306
Rp307
ag3
(g4
g5
Vglastonbury-2015
p308
tp309
Rp310
asS'India'
p311
(lp312
g3
(g4
g5
Vmaggi
p313
tp314
Rp315
ag3
(g4
g5
Vnadal
p316
tp317
Rp318
ag3
(g4
g5
Vtop-10-criminals
p319
tp320
Rp321
ag3
(g4
g5
Vmhcet-2015-result
p322
tp323
Rp324
ag3
(g4
g5
Vmhcet-result-2015
p325
tp326
Rp327
ag3
(g4
g5
Vworld-environment-day-2015
p328
tp329
Rp330
ag3
(g4
g5
Vtilt
p331
tp332
Rp333
ag3
(g4
g5
Vssc-result
p334
tp335
Rp336
ag3
(g4
g5
Vbruce-jenner
p337
tp338
Rp339
ag3
(g4
g5
Vgseb
p340
tp341
Rp342
ag3
(g4
g5
Vdil-dhadakne-do-review
p343
tp344
Rp345
ag3
(g4
g5
Vwbjee-result-2015
p346
tp347
Rp348
ag3
(g4
g5
Vwww-google
p349
tp350
Rp351
ag3
(g4
g5
Vdrishyam
p352
tp353
Rp354
ag3
(g4
g5
Vcelerio-diesel
p355
tp356
Rp357
ag3
(g4
g5
Vjaipur-metro
p358
tp359
Rp360
ag3
(g4
g5
Vworld-environment-day
p361
tp362
Rp363
ag3
(g4
g5
V10th-result-2015
p364
tp365
Rp366
ag3
(g4
g5
Vmanabadi
p367
tp368
Rp369
ag3
(g4
g5
Vadani-enterprises
p370
tp371
Rp372
asS'US'
p373
(lp374
g3
(g4
g5
Vspy
p375
tp376
Rp377
ag3
(g4
g5
Vrick-perry
p378
tp379
Rp380
ag3
(g4
g5
Vangelina-jolie
p381
tp382
Rp383
ag3
(g4
g5
Vstephen-curry
p384
tp385
Rp386
ag3
(g4
g5
Vwomen-s-world-cup-2015
p387
tp388
Rp389
ag3
(g4
g5
Vbindi-irwin
p390
tp391
Rp392
ag3
(g4
g5
Vamy-schumer
p393
tp394
Rp395
ag3
(g4
g5
Vnba-2k16
p396
tp397
Rp398
ag3
(g4
g5
Vcoachella
p399
tp400
Rp401
ag3
(g4
g5
Vbeau-biden
p402
tp403
Rp404
ag3
(g4
g5
Vlena-dunham
p405
tp406
Rp407
ag3
(g4
g5
Vnational-donut-day
p408
tp409
Rp410
ag3
(g4
g5
Vserena-williams
p411
tp412
Rp413
ag3
(g4
g5
Vstuart-scott
p414
tp415
Rp416
ag3
(g4
g5
Vnba-finals
p417
tp418
Rp419
ag3
(g4
g5
Vcomedians-in-cars-getting-coffee
p420
tp421
Rp422
ag3
(g4
g5
Vcheyenne-woods
p423
tp424
Rp425
ag3
(g4
g5
Vhannibal
p426
tp427
Rp428
ag3
(g4
g5
Vcavs
p429
tp430
Rp431
ag3
(g4
g5
Vkyrie-irving
p432
tp433
Rp434
asS'France'
p435
(lp436
g3
(g4
g5
Vana-ivanovic
p437
tp438
Rp439
ag3
(g4
g5
Vnadal
p440
tp441
Rp442
ag3
(g4
g5
Vsylvain-jouanneau
p443
tp444
Rp445
ag3
(g4
g5
Vstephane-plaza
p446
tp447
Rp448
ag3
(g4
g5
Vlaurent-ournac
p449
tp450
Rp451
ag3
(g4
g5
Vprison-break
p452
tp453
Rp454
ag3
(g4
g5
Vjerry-collins
p455
tp456
Rp457
ag3
(g4
g5
Vcecile-de-france
p458
tp459
Rp460
ag3
(g4
g5
Vroland-garros-direct
p461
tp462
Rp463
ag3
(g4
g5
Vtsonga
p464
tp465
Rp466
ag3
(g4
g5
Vvincent-lambert
p467
tp468
Rp469
ag3
(g4
g5
Vgad-elmaleh
p470
tp471
Rp472
ag3
(g4
g5
Vserena-williams
p473
tp474
Rp475
ag3
(g4
g5
Vcoupe-du-monde-feminine
p476
tp477
Rp478
ag3
(g4
g5
Vinto-the-wild
p479
tp480
Rp481
ag3
(g4
g5
Vfrance-2
p482
tp483
Rp484
ag3
(g4
g5
Vnba
p485
tp486
Rp487
ag3
(g4
g5
Vanna-mouglalis
p488
tp489
Rp490
ag3
(g4
g5
Vfrance-tv
p491
tp492
Rp493
ag3
(g4
g5
Vivanovic
p494
tp495
Rp496
as.