(dp0
S'Brazil'
p1
(lp2
ccopy_reg
_reconstructor
p3
(cdjango.utils.safestring
SafeText
p4
c__builtin__
unicode
p5
Vimposto-de-renda
p6
tp7
Rp8
ag3
(g4
g5
Vluis-ricardo
p9
tp10
Rp11
ag3
(g4
g5
Vwalter-rabello
p12
tp13
Rp14
ag3
(g4
g5
Vdia-do-engenheiro
p15
tp16
Rp17
ag3
(g4
g5
Vdh
p18
tp19
Rp20
ag3
(g4
g5
Vcaso-nardoni
p21
tp22
Rp23
ag3
(g4
g5
Vudesc
p24
tp25
Rp26
ag3
(g4
g5
Vbolsonaro
p27
tp28
Rp29
ag3
(g4
g5
Vbarcelona
p30
tp31
Rp32
ag3
(g4
g5
Vthe-pirate-bay
p33
tp34
Rp35
ag3
(g4
g5
Vlola-melnick
p36
tp37
Rp38
ag3
(g4
g5
Vasp
p39
tp40
Rp41
ag3
(g4
g5
Vpucrs
p42
tp43
Rp44
ag3
(g4
g5
Vfluminense
p45
tp46
Rp47
ag3
(g4
g5
Va-fazenda
p48
tp49
Rp50
ag3
(g4
g5
Vbarcelona-x-psg
p51
tp52
Rp53
ag3
(g4
g5
Vpvc
p54
tp55
Rp56
ag3
(g4
g5
Vstephanie-moseley
p57
tp58
Rp59
ag3
(g4
g5
Vnossa-senhora-da-conceicao
p60
tp61
Rp62
asS'Australia'
p63
(lp64
g3
(g4
g5
Vstephanie-moseley
p65
tp66
Rp67
ag3
(g4
g5
Vinside-out
p68
tp69
Rp70
ag3
(g4
g5
Vjamil-hopoate
p71
tp72
Rp73
ag3
(g4
g5
Vperth-now
p74
tp75
Rp76
ag3
(g4
g5
Vsteve-smith
p77
tp78
Rp79
ag3
(g4
g5
Vhome-and-away
p80
tp81
Rp82
ag3
(g4
g5
Vsam-trott
p83
tp84
Rp85
ag3
(g4
g5
Vcricinfo
p86
tp87
Rp88
ag3
(g4
g5
Vpretty-little-liars
p89
tp90
Rp91
ag3
(g4
g5
Vperth-news
p92
tp93
Rp94
ag3
(g4
g5
Vchampions-league
p95
tp96
Rp97
ag3
(g4
g5
Vcricket-australia
p98
tp99
Rp100
ag3
(g4
g5
Vyumi-stynes
p101
tp102
Rp103
ag3
(g4
g5
Varrow
p104
tp105
Rp106
ag3
(g4
g5
Vperthnow
p107
tp108
Rp109
ag3
(g4
g5
Vaustralian-pga
p110
tp111
Rp112
ag3
(g4
g5
Vpirate-bay
p113
tp114
Rp115
ag3
(g4
g5
Vdavid-hicks
p116
tp117
Rp118
ag3
(g4
g5
Viggy-azalea
p119
tp120
Rp121
ag3
(g4
g5
Vdan-bilzerian
p122
tp123
Rp124
asS'Italy'
p125
(lp126
g3
(g4
g5
Vsalvatore-di-carlo
p127
tp128
Rp129
ag3
(g4
g5
Vboodigo
p130
tp131
Rp132
ag3
(g4
g5
Vloris
p133
tp134
Rp135
ag3
(g4
g5
Vavril-lavigne
p136
tp137
Rp138
ag3
(g4
g5
Veuropa-league
p139
tp140
Rp141
ag3
(g4
g5
Vchampions-league
p142
tp143
Rp144
ag3
(g4
g5
Vtilt
p145
tp146
Rp147
ag3
(g4
g5
Vmean-girls
p148
tp149
Rp150
ag3
(g4
g5
Vsciopero-12-dicembre
p151
tp152
Rp153
ag3
(g4
g5
Vclassifica-europa-league
p154
tp155
Rp156
ag3
(g4
g5
Vroma-manchester-city
p157
tp158
Rp159
ag3
(g4
g5
Vtelethon
p160
tp161
Rp162
ag3
(g4
g5
Vfratello-di-mango
p163
tp164
Rp165
ag3
(g4
g5
Vramsey
p166
tp167
Rp168
ag3
(g4
g5
Vjuventus
p169
tp170
Rp171
ag3
(g4
g5
Vfunerali-mango
p172
tp173
Rp174
ag3
(g4
g5
Vcharlene-di-monaco
p175
tp176
Rp177
ag3
(g4
g5
Vgilberta-palleschi
p178
tp179
Rp180
ag3
(g4
g5
Vroma-calcio
p181
tp182
Rp183
ag3
(g4
g5
Vdan-bilzerian
p184
tp185
Rp186
asS'Spain'
p187
(lp188
g3
(g4
g5
Valyson-eckmann
p189
tp190
Rp191
ag3
(g4
g5
Vabadino
p192
tp193
Rp194
ag3
(g4
g5
Vkramer
p195
tp196
Rp197
ag3
(g4
g5
Vmandanga-style
p198
tp199
Rp200
ag3
(g4
g5
Vlaura-barriales
p201
tp202
Rp203
ag3
(g4
g5
Virene-villa
p204
tp205
Rp206
ag3
(g4
g5
Vbarca
p207
tp208
Rp209
ag3
(g4
g5
Vathletic
p210
tp211
Rp212
ag3
(g4
g5
Vnoche-y-dia
p213
tp214
Rp215
ag3
(g4
g5
Vley-mordaza
p216
tp217
Rp218
ag3
(g4
g5
Vmclaren
p219
tp220
Rp221
ag3
(g4
g5
Vthe-pirate-bay
p222
tp223
Rp224
ag3
(g4
g5
Vsons-of-anarchy
p225
tp226
Rp227
ag3
(g4
g5
Vtransparencia
p228
tp229
Rp230
ag3
(g4
g5
Vterrassa
p231
tp232
Rp233
ag3
(g4
g5
Vchampions-league
p234
tp235
Rp236
ag3
(g4
g5
Vgoogle-news
p237
tp238
Rp239
ag3
(g4
g5
Vbarca-psg
p240
tp241
Rp242
ag3
(g4
g5
Vgema-ruiz
p243
tp244
Rp245
ag3
(g4
g5
Vjose-maria-michavila
p246
tp247
Rp248
asS'UK'
p249
(lp250
g3
(g4
g5
Vweather-bomb
p251
tp252
Rp253
ag3
(g4
g5
Vasmr
p254
tp255
Rp256
ag3
(g4
g5
Vbeard-baubles
p257
tp258
Rp259
ag3
(g4
g5
Vzoella
p260
tp261
Rp262
ag3
(g4
g5
Vjohn-lennon
p263
tp264
Rp265
ag3
(g4
g5
Vaaron-ramsey-goal
p266
tp267
Rp268
ag3
(g4
g5
Vnatasha-bolter
p269
tp270
Rp271
ag3
(g4
g5
Vm25-crash
p272
tp273
Rp274
ag3
(g4
g5
Vpirate-bay
p275
tp276
Rp277
ag3
(g4
g5
Vlisa-ann
p278
tp279
Rp280
ag3
(g4
g5
Vkylie-jenner
p281
tp282
Rp283
ag3
(g4
g5
Ved-sheeran
p284
tp285
Rp286
ag3
(g4
g5
Vchampions-league
p287
tp288
Rp289
ag3
(g4
g5
Vroyal-variety-performance-2014
p290
tp291
Rp292
ag3
(g4
g5
Vitv
p293
tp294
Rp295
ag3
(g4
g5
Vtesco-share-price
p296
tp297
Rp298
ag3
(g4
g5
Vchristopher-jefferies
p299
tp300
Rp301
ag3
(g4
g5
Vjenson-button
p302
tp303
Rp304
ag3
(g4
g5
Vstephanie-moseley
p305
tp306
Rp307
ag3
(g4
g5
Vdan-bilzerian
p308
tp309
Rp310
asS'India'
p311
(lp312
g3
(g4
g5
Vcricket
p313
tp314
Rp315
ag3
(g4
g5
Vcricinfo
p316
tp317
Rp318
ag3
(g4
g5
Vuefa-champions-league
p319
tp320
Rp321
ag3
(g4
g5
Vgosf-2014
p322
tp323
Rp324
ag3
(g4
g5
Vshenaz-treasurywala
p325
tp326
Rp327
ag3
(g4
g5
Vind-vs-aus
p328
tp329
Rp330
ag3
(g4
g5
Vvirat-kohli
p331
tp332
Rp333
ag3
(g4
g5
Vxiaomi
p334
tp335
Rp336
ag3
(g4
g5
Vpriyanka-gandhi
p337
tp338
Rp339
ag3
(g4
g5
Vgoogle-online-shopping-festival
p340
tp341
Rp342
ag3
(g4
g5
Vlive-cricket-score
p343
tp344
Rp345
ag3
(g4
g5
Vindian-super-league
p346
tp347
Rp348
ag3
(g4
g5
Vgosf
p349
tp350
Rp351
ag3
(g4
g5
Vkaran-singh-grover
p352
tp353
Rp354
ag3
(g4
g5
Visl
p355
tp356
Rp357
ag3
(g4
g5
Vdilip-kumar
p358
tp359
Rp360
ag3
(g4
g5
Vrahul-mahajan
p361
tp362
Rp363
ag3
(g4
g5
Vmalala-yousafzai
p364
tp365
Rp366
ag3
(g4
g5
Vshweta-basu-prasad
p367
tp368
Rp369
asS'US'
p370
(lp371
g3
(g4
g5
Vrudolph-the-red-nosed-reindeer
p372
tp373
Rp374
ag3
(g4
g5
Vvictoria-s-secret-fashion-show-2014
p375
tp376
Rp377
ag3
(g4
g5
Vjudy-baar-topinka
p378
tp379
Rp380
ag3
(g4
g5
Vthe-voice
p381
tp382
Rp383
ag3
(g4
g5
Vguardians-of-the-galaxy
p384
tp385
Rp386
ag3
(g4
g5
Vjimmy-rollins
p387
tp388
Rp389
ag3
(g4
g5
Vinside-out
p390
tp391
Rp392
ag3
(g4
g5
Vcharlie-hunnam
p393
tp394
Rp395
ag3
(g4
g5
Vcolbert-report
p396
tp397
Rp398
ag3
(g4
g5
Vcam-newton
p399
tp400
Rp401
ag3
(g4
g5
Vdonna-goudeau
p402
tp403
Rp404
ag3
(g4
g5
Variana-grande
p405
tp406
Rp407
ag3
(g4
g5
Vbirdman
p408
tp409
Rp410
ag3
(g4
g5
Vmary-ann-mobley
p411
tp412
Rp413
ag3
(g4
g5
Vsan-francisco-weather
p414
tp415
Rp416
ag3
(g4
g5
Vannie-jump-cannon
p417
tp418
Rp419
ag3
(g4
g5
Vpirate-bay
p420
tp421
Rp422
ag3
(g4
g5
Vgary-anderson
p423
tp424
Rp425
ag3
(g4
g5
Vj-cole
p426
tp427
Rp428
ag3
(g4
g5
Vdan-bilzerian
p429
tp430
Rp431
asS'France'
p432
(lp433
g3
(g4
g5
Vlending-club
p434
tp435
Rp436
ag3
(g4
g5
Vpsg-barcelone
p437
tp438
Rp439
ag3
(g4
g5
Vcoupe-de-france
p440
tp441
Rp442
ag3
(g4
g5
Vhearthstone
p443
tp444
Rp445
ag3
(g4
g5
Vloi-macron
p446
tp447
Rp448
ag3
(g4
g5
Vthe-tree-of-life
p449
tp450
Rp451
ag3
(g4
g5
Vguillaume-peltier
p452
tp453
Rp454
ag3
(g4
g5
Vneymar
p455
tp456
Rp457
ag3
(g4
g5
Vingrid-chauvin
p458
tp459
Rp460
ag3
(g4
g5
Vlorie
p461
tp462
Rp463
ag3
(g4
g5
Vun-village-francais
p464
tp465
Rp466
ag3
(g4
g5
Vserge-lazarevic
p467
tp468
Rp469
ag3
(g4
g5
Vcharlene-de-monaco
p470
tp471
Rp472
ag3
(g4
g5
Vfrance-gall
p473
tp474
Rp475
ag3
(g4
g5
Vnolwenn-leroy
p476
tp477
Rp478
ag3
(g4
g5
Vpirate-bay
p479
tp480
Rp481
ag3
(g4
g5
Vdubsmash
p482
tp483
Rp484
ag3
(g4
g5
Vstephanie-moseley
p485
tp486
Rp487
ag3
(g4
g5
Vthe-last-ship-saison-2
p488
tp489
Rp490
as.