(dp0
S'Brazil'
p1
(lp2
ccopy_reg
_reconstructor
p3
(cdjango.utils.safestring
SafeText
p4
c__builtin__
unicode
p5
Vbrett-rossi
p6
tp7
Rp8
ag3
(g4
g5
Vmiley-cyrus
p9
tp10
Rp11
ag3
(g4
g5
Vbig-brother
p12
tp13
Rp14
ag3
(g4
g5
Vvenezuela
p15
tp16
Rp17
ag3
(g4
g5
Vellen-page
p18
tp19
Rp20
asS'Australia'
p21
(lp22
g3
(g4
g5
Vukraine
p23
tp24
Rp25
ag3
(g4
g5
Vcurling
p26
tp27
Rp28
ag3
(g4
g5
Vharry-styles
p29
tp30
Rp31
ag3
(g4
g5
Veminem
p32
tp33
Rp34
ag3
(g4
g5
Vsarah-hyland
p35
tp36
Rp37
ag3
(g4
g5
Vchampions-league
p38
tp39
Rp40
ag3
(g4
g5
Vwhatsapp
p41
tp42
Rp43
asS'Italy'
p44
(lp45
g3
(g4
g5
Vrenzi
p46
tp47
Rp48
asS'India'
p49
(lp50
g3
(g4
g5
Vgeetika-tyagi
p51
tp52
Rp53
ag3
(g4
g5
Vtelangana
p54
tp55
Rp56
ag3
(g4
g5
Vvalentines-day
p57
tp58
Rp59
ag3
(g4
g5
Vbudget-2014
p60
tp61
Rp62
ag3
(g4
g5
Varsenal
p63
tp64
Rp65
ag3
(g4
g5
Vshivaji
p66
tp67
Rp68
ag3
(g4
g5
Vbrian-acton
p69
tp70
Rp71
ag3
(g4
g5
Vellen-page
p72
tp73
Rp74
ag3
(g4
g5
Vchampions-league
p75
tp76
Rp77
ag3
(g4
g5
Vwhatsapp
p78
tp79
Rp80
ag3
(g4
g5
Vvalentine
p81
tp82
Rp83
ag3
(g4
g5
Vhighway
p84
tp85
Rp86
ag3
(g4
g5
Varvind-kejriwal
p87
tp88
Rp89
asS'US'
p90
(lp91
g3
(g4
g5
Vpowerball
p92
tp93
Rp94
ag3
(g4
g5
Vwhatsapp
p95
tp96
Rp97
ag3
(g4
g5
Vyulia-lipnitskaya
p98
tp99
Rp100
ag3
(g4
g5
Vvenezuela
p101
tp102
Rp103
ag3
(g4
g5
Vusa-hockey
p104
tp105
Rp106
ag3
(g4
g5
Vsarah-burke
p107
tp108
Rp109
ag3
(g4
g5
Vsarah-hyland
p110
tp111
Rp112
ag3
(g4
g5
Vnascar
p113
tp114
Rp115
ag3
(g4
g5
Vbree-walker
p116
tp117
Rp118
ag3
(g4
g5
Vmao-asada
p119
tp120
Rp121
ag3
(g4
g5
Vbryan-stow
p122
tp123
Rp124
ag3
(g4
g5
Vgracie-gold
p125
tp126
Rp127
ag3
(g4
g5
Vkurt-cobain
p128
tp129
Rp130
ag3
(g4
g5
Vkate-mara
p131
tp132
Rp133
asS'France'
p134
(lp135
g3
(g4
g5
Vukraine
p136
tp137
Rp138
ag3
(g4
g5
Vmartin-fourcade
p139
tp140
Rp141
ag3
(g4
g5
Vbrit-awards
p142
tp143
Rp144
ag3
(g4
g5
Vyulia-lipnitskaya
p145
tp146
Rp147
ag3
(g4
g5
Vski-cross
p148
tp149
Rp150
ag3
(g4
g5
Vcurling
p151
tp152
Rp153
ag3
(g4
g5
Vpussy-riot
p154
tp155
Rp156
ag3
(g4
g5
Vkate-mara
p157
tp158
Rp159
ag3
(g4
g5
Vadelina-sotnikova
p160
tp161
Rp162
ag3
(g4
g5
Vwhatsapp
p163
tp164
Rp165
ag3
(g4
g5
Vodessa
p166
tp167
Rp168
asS'UK'
p169
(lp170
g3
(g4
g5
Volivier-giroud
p171
tp172
Rp173
ag3
(g4
g5
Vsam-smith
p174
tp175
Rp176
ag3
(g4
g5
Vwhatsapp
p177
tp178
Rp179
ag3
(g4
g5
Vkiev
p180
tp181
Rp182
ag3
(g4
g5
Vbeyonce
p183
tp184
Rp185
ag3
(g4
g5
Vsnapchat
p186
tp187
Rp188
ag3
(g4
g5
Vbrian-acton
p189
tp190
Rp191
ag3
(g4
g5
Vpussy-riot
p192
tp193
Rp194
ag3
(g4
g5
Vdaft-punk
p195
tp196
Rp197
ag3
(g4
g5
Vkurt-cobain
p198
tp199
Rp200
ag3
(g4
g5
Vkate-mara
p201
tp202
Rp203
asS'Spain'
p204
(lp205
g3
(g4
g5
Vbafta
p206
tp207
Rp208
ag3
(g4
g5
Vbrett-rossi
p209
tp210
Rp211
ag3
(g4
g5
Vangelina-jolie
p212
tp213
Rp214
ag3
(g4
g5
Vsalt
p215
tp216
Rp217
ag3
(g4
g5
Vellen-page
p218
tp219
Rp220
as.