(dp0
S'Brazil'
p1
(lp2
ccopy_reg
_reconstructor
p3
(cdjango.utils.safestring
SafeText
p4
c__builtin__
unicode
p5
Venem
p6
tp7
Rp8
ag3
(g4
g5
Vsuperstar
p9
tp10
Rp11
ag3
(g4
g5
Vdia-das-maes
p12
tp13
Rp14
ag3
(g4
g5
Vmae
p15
tp16
Rp17
ag3
(g4
g5
Vmae
p18
tp19
Rp20
ag3
(g4
g5
Vufc
p21
tp22
Rp23
ag3
(g4
g5
Verick-silva
p24
tp25
Rp26
ag3
(g4
g5
Vdia-das-maes
p27
tp28
Rp29
ag3
(g4
g5
Vmensagem-dia-das-maes
p30
tp31
Rp32
ag3
(g4
g5
Vfeliz-dia-das-maes
p33
tp34
Rp35
ag3
(g4
g5
Vfeliz-dia-das-maes
p36
tp37
Rp38
ag3
(g4
g5
Vmensagens-do-dia-das-maes
p39
tp40
Rp41
ag3
(g4
g5
Vmensagem-dia-das-maes
p42
tp43
Rp44
ag3
(g4
g5
Vmensagem-dia-das-maes
p45
tp46
Rp47
ag3
(g4
g5
Vnoticias
p48
tp49
Rp50
ag3
(g4
g5
Vquina
p51
tp52
Rp53
ag3
(g4
g5
Vmarisa
p54
tp55
Rp56
ag3
(g4
g5
Vjair-rodrigues
p57
tp58
Rp59
ag3
(g4
g5
Vg1
p60
tp61
Rp62
ag3
(g4
g5
Vmsn
p63
tp64
Rp65
asS'Australia'
p66
(lp67
g3
(g4
g5
Vtom-hafey
p68
tp69
Rp70
ag3
(g4
g5
Vman-city
p71
tp72
Rp73
ag3
(g4
g5
Vrevenge
p74
tp75
Rp76
ag3
(g4
g5
Vreg-gasnier
p77
tp78
Rp79
ag3
(g4
g5
Vnaplan
p80
tp81
Rp82
ag3
(g4
g5
Vmasters
p83
tp84
Rp85
ag3
(g4
g5
Vmasterchef
p86
tp87
Rp88
ag3
(g4
g5
Vonce-upon-a-time
p89
tp90
Rp91
ag3
(g4
g5
Vmila-kunis
p92
tp93
Rp94
ag3
(g4
g5
Vgame-of-thrones-season-4-episode-6
p95
tp96
Rp97
ag3
(g4
g5
Vliverpool-fc
p98
tp99
Rp100
ag3
(g4
g5
Vconjoined-twins
p101
tp102
Rp103
ag3
(g4
g5
Vmanchester-united
p104
tp105
Rp106
ag3
(g4
g5
Vconchita-wurst
p107
tp108
Rp109
ag3
(g4
g5
Veurovision-2014
p110
tp111
Rp112
ag3
(g4
g5
Vmothers-day
p113
tp114
Rp115
ag3
(g4
g5
Vthe-voice
p116
tp117
Rp118
ag3
(g4
g5
Vf1
p119
tp120
Rp121
ag3
(g4
g5
Vcharlotte-dawson
p122
tp123
Rp124
ag3
(g4
g5
Vmitchell-pearce
p125
tp126
Rp127
asS'Italy'
p128
(lp129
g3
(g4
g5
Vquanto-e-alto-un-nano
p130
tp131
Rp132
ag3
(g4
g5
Vmiur
p133
tp134
Rp135
ag3
(g4
g5
Vfrancesco-nuti
p136
tp137
Rp138
ag3
(g4
g5
Vinail
p139
tp140
Rp141
ag3
(g4
g5
Vfesta-della-mamma
p142
tp143
Rp144
ag3
(g4
g5
Vconchita-wurst
p145
tp146
Rp147
ag3
(g4
g5
Vroma-juventus
p148
tp149
Rp150
ag3
(g4
g5
Vrojadirecta
p151
tp152
Rp153
ag3
(g4
g5
Vchiara-rizzo
p154
tp155
Rp156
ag3
(g4
g5
Vatalanta-milan
p157
tp158
Rp159
ag3
(g4
g5
Vauguri-mamma
p160
tp161
Rp162
ag3
(g4
g5
Vemma-marrone
p163
tp164
Rp165
ag3
(g4
g5
Vfrasi-festa-della-mamma
p166
tp167
Rp168
ag3
(g4
g5
Vgiorgio-albertazzi
p169
tp170
Rp171
ag3
(g4
g5
Vgabry-ponte
p172
tp173
Rp174
ag3
(g4
g5
Vmamma
p175
tp176
Rp177
ag3
(g4
g5
Vserie-a-classifica
p178
tp179
Rp180
ag3
(g4
g5
Vclassifica-serie-a
p181
tp182
Rp183
ag3
(g4
g5
Vzanetti
p184
tp185
Rp186
ag3
(g4
g5
Vamici-2014
p187
tp188
Rp189
asS'Spain'
p190
(lp191
g3
(g4
g5
Vdorothy-hodgkin
p192
tp193
Rp194
ag3
(g4
g5
Visabel-carrasco
p195
tp196
Rp197
ag3
(g4
g5
Vatletico-de-madrid
p198
tp199
Rp200
ag3
(g4
g5
Vcuatro
p201
tp202
Rp203
ag3
(g4
g5
Vcatastro
p204
tp205
Rp206
ag3
(g4
g5
Vvelvet
p207
tp208
Rp209
ag3
(g4
g5
Vrac1
p210
tp211
Rp212
ag3
(g4
g5
Vselena-gomez
p213
tp214
Rp215
ag3
(g4
g5
Vresultados-liga-bbva
p216
tp217
Rp218
ag3
(g4
g5
Vrafa-nadal
p219
tp220
Rp221
ag3
(g4
g5
Vrtve
p222
tp223
Rp224
ag3
(g4
g5
Vraphael
p225
tp226
Rp227
ag3
(g4
g5
Vpolonia-eurovision-2014
p228
tp229
Rp230
ag3
(g4
g5
Vcope
p231
tp232
Rp233
ag3
(g4
g5
Vcarolina-casado
p234
tp235
Rp236
ag3
(g4
g5
Vacb
p237
tp238
Rp239
ag3
(g4
g5
Valibaba
p240
tp241
Rp242
ag3
(g4
g5
Vfutbol
p243
tp244
Rp245
ag3
(g4
g5
Vtransvulcania-2014
p246
tp247
Rp248
ag3
(g4
g5
Veurovision-2014
p249
tp250
Rp251
asS'UK'
p252
(lp253
g3
(g4
g5
Vskysports
p254
tp255
Rp256
ag3
(g4
g5
Vcommonwealth-games
p257
tp258
Rp259
ag3
(g4
g5
Vfantasy-premier-league
p260
tp261
Rp262
ag3
(g4
g5
Vdorothy-hodgkin
p263
tp264
Rp265
ag3
(g4
g5
Vgodzilla
p266
tp267
Rp268
ag3
(g4
g5
Vairbnb
p269
tp270
Rp271
ag3
(g4
g5
Vfreddie-starr
p272
tp273
Rp274
ag3
(g4
g5
Vaston-villa
p275
tp276
Rp277
ag3
(g4
g5
Vgoogle-docs
p278
tp279
Rp280
ag3
(g4
g5
Vplayers-championship
p281
tp282
Rp283
ag3
(g4
g5
Vboko-haram
p284
tp285
Rp286
ag3
(g4
g5
Vengland-world-cup-squad
p287
tp288
Rp289
ag3
(g4
g5
Vman-city
p290
tp291
Rp292
ag3
(g4
g5
Vaustria-eurovision
p293
tp294
Rp295
ag3
(g4
g5
Vsky-go
p296
tp297
Rp298
ag3
(g4
g5
Vliverpool-fc
p299
tp300
Rp301
ag3
(g4
g5
Vadam-lallana
p302
tp303
Rp304
ag3
(g4
g5
Vpocahontas
p305
tp306
Rp307
ag3
(g4
g5
Vthe-sun-has-got-his-hat-on
p308
tp309
Rp310
ag3
(g4
g5
Vla-liga
p311
tp312
Rp313
asS'India'
p314
(lp315
g3
(g4
g5
Vsslc-result-2014
p316
tp317
Rp318
ag3
(g4
g5
Vexit-poll-2014
p319
tp320
Rp321
ag3
(g4
g5
Vdorothy-hodgkin
p322
tp323
Rp324
ag3
(g4
g5
Vabp-news
p325
tp326
Rp327
ag3
(g4
g5
Vrcb-vs-rr
p328
tp329
Rp330
ag3
(g4
g5
Vconchita-wurst
p331
tp332
Rp333
ag3
(g4
g5
Vmunicipal-elections-in-andhra-pradesh-2014
p334
tp335
Rp336
ag3
(g4
g5
Vmothers-day
p337
tp338
Rp339
ag3
(g4
g5
Vmothers-day-quotes
p340
tp341
Rp342
ag3
(g4
g5
Vpseb
p343
tp344
Rp345
ag3
(g4
g5
Vtiger-shroff
p346
tp347
Rp348
ag3
(g4
g5
Vheropanti
p349
tp350
Rp351
ag3
(g4
g5
Vhappy-mothers-day-quotes
p352
tp353
Rp354
ag3
(g4
g5
Vmanchester-city
p355
tp356
Rp357
ag3
(g4
g5
Vmothers-day-wishes
p358
tp359
Rp360
ag3
(g4
g5
Vjadiel
p361
tp362
Rp363
ag3
(g4
g5
Vcsk-vs-mi
p364
tp365
Rp366
ag3
(g4
g5
Vmothers-day-poems
p367
tp368
Rp369
ag3
(g4
g5
Vmothers-day-pic
p370
tp371
Rp372
ag3
(g4
g5
Vmothers-day-photos
p373
tp374
Rp375
asS'US'
p376
(lp377
g3
(g4
g5
Vsolange-knowles
p378
tp379
Rp380
ag3
(g4
g5
Vrevenge
p381
tp382
Rp383
ag3
(g4
g5
Vpacers
p384
tp385
Rp386
ag3
(g4
g5
Vminnesota-wild
p387
tp388
Rp389
ag3
(g4
g5
Vhappy-mothers-day
p390
tp391
Rp392
ag3
(g4
g5
Vaj-mccarron
p393
tp394
Rp395
ag3
(g4
g5
Vbruins
p396
tp397
Rp398
ag3
(g4
g5
Vpenny-dreadful
p399
tp400
Rp401
ag3
(g4
g5
Vrosemarys-baby
p402
tp403
Rp404
ag3
(g4
g5
Vdorothy-hodgkin
p405
tp406
Rp407
ag3
(g4
g5
Vnfl-draft-grades
p408
tp409
Rp410
ag3
(g4
g5
Vnfl-draft-grades-2014
p411
tp412
Rp413
ag3
(g4
g5
Vmichael-sam
p414
tp415
Rp416
ag3
(g4
g5
Vmothers-day
p417
tp418
Rp419
ag3
(g4
g5
Vconchita-wurst
p420
tp421
Rp422
ag3
(g4
g5
Vmothers-day
p423
tp424
Rp425
ag3
(g4
g5
Vmono-mono-twins
p426
tp427
Rp428
ag3
(g4
g5
Vcharlize-theron
p429
tp430
Rp431
ag3
(g4
g5
Vmiami-heat
p432
tp433
Rp434
ag3
(g4
g5
Vclippers
p435
tp436
Rp437
asS'France'
p438
(lp439
g3
(g4
g5
Vvanessa-paradis
p440
tp441
Rp442
ag3
(g4
g5
Vdorothy-hodgkin
p443
tp444
Rp445
ag3
(g4
g5
Vboko-haram
p446
tp447
Rp448
ag3
(g4
g5
Vhannibal
p449
tp450
Rp451
ag3
(g4
g5
Vthe-voice
p452
tp453
Rp454
ag3
(g4
g5
Vfete-des-meres
p455
tp456
Rp457
ag3
(g4
g5
Vfete-des-meres-2014
p458
tp459
Rp460
ag3
(g4
g5
Vlargo-winch
p461
tp462
Rp463
ag3
(g4
g5
Vimpot-2014
p464
tp465
Rp466
ag3
(g4
g5
Vphiladelphia
p467
tp468
Rp469
ag3
(g4
g5
Vfrance-3
p470
tp471
Rp472
ag3
(g4
g5
Vpatrick-fiori
p473
tp474
Rp475
ag3
(g4
g5
Vfete-des-mere
p476
tp477
Rp478
ag3
(g4
g5
Vmon-petit-doigt-ma-dit
p479
tp480
Rp481
ag3
(g4
g5
Vtom-neuwirth
p482
tp483
Rp484
ag3
(g4
g5
Vtomer-sisley
p485
tp486
Rp487
ag3
(g4
g5
Vv-pour-vendetta
p488
tp489
Rp490
ag3
(g4
g5
Vmanchester-city
p491
tp492
Rp493
ag3
(g4
g5
Vnasri
p494
tp495
Rp496
ag3
(g4
g5
Vtaubira
p497
tp498
Rp499
as.