(dp0
S'Brazil'
p1
(lp2
ccopy_reg
_reconstructor
p3
(cdjango.utils.safestring
SafeText
p4
c__builtin__
unicode
p5
Vpalmeiras
p6
tp7
Rp8
ag3
(g4
g5
Vmc-daleste
p9
tp10
Rp11
ag3
(g4
g5
Vtom-veiga
p12
tp13
Rp14
ag3
(g4
g5
Vgrenal
p15
tp16
Rp17
ag3
(g4
g5
Vmega-sena-1586
p18
tp19
Rp20
ag3
(g4
g5
Vsantos
p21
tp22
Rp23
ag3
(g4
g5
Vinternacional
p24
tp25
Rp26
ag3
(g4
g5
Vnathalia-timberg
p27
tp28
Rp29
ag3
(g4
g5
Vacidente-em-manaus
p30
tp31
Rp32
ag3
(g4
g5
Vformula-1
p33
tp34
Rp35
ag3
(g4
g5
Vandressa-urach
p36
tp37
Rp38
ag3
(g4
g5
Vg1-amazonas
p39
tp40
Rp41
ag3
(g4
g5
Vbig-brother
p42
tp43
Rp44
ag3
(g4
g5
Vvasco
p45
tp46
Rp47
ag3
(g4
g5
Vbig-brother-brasil
p48
tp49
Rp50
ag3
(g4
g5
Vnucepe
p51
tp52
Rp53
ag3
(g4
g5
Vquem-ganhou-a-prova-do-lider
p54
tp55
Rp56
ag3
(g4
g5
Vdia-do-circo
p57
tp58
Rp59
ag3
(g4
g5
Vrenato-russo
p60
tp61
Rp62
ag3
(g4
g5
Vcampeonato-carioca
p63
tp64
Rp65
asS'Australia'
p66
(lp67
g3
(g4
g5
Vliverpool
p68
tp69
Rp70
ag3
(g4
g5
Vbbc-sport
p71
tp72
Rp73
ag3
(g4
g5
Voffice-365
p74
tp75
Rp76
ag3
(g4
g5
Valex-mckinnon
p77
tp78
Rp79
ag3
(g4
g5
Vmothers-day
p80
tp81
Rp82
ag3
(g4
g5
Vformula-1
p83
tp84
Rp85
ag3
(g4
g5
Vnoah
p86
tp87
Rp88
ag3
(g4
g5
Vsunday-night
p89
tp90
Rp91
ag3
(g4
g5
Vthe-walking-dead
p92
tp93
Rp94
ag3
(g4
g5
Vgame-of-thrones
p95
tp96
Rp97
ag3
(g4
g5
Vgoat-simulator
p98
tp99
Rp100
ag3
(g4
g5
Vqantas-frequent-flyer
p101
tp102
Rp103
ag3
(g4
g5
Vhow-i-met-your-mother
p104
tp105
Rp106
ag3
(g4
g5
Vmichael-schumacher
p107
tp108
Rp109
ag3
(g4
g5
Vdivergent
p110
tp111
Rp112
ag3
(g4
g5
Vthe-terminal
p113
tp114
Rp115
ag3
(g4
g5
Veaster-dates-2014
p116
tp117
Rp118
ag3
(g4
g5
Vprince-george
p119
tp120
Rp121
ag3
(g4
g5
Vemma-watson
p122
tp123
Rp124
ag3
(g4
g5
Vgame-of-thrones-season-4
p125
tp126
Rp127
asS'Italy'
p128
(lp129
g3
(g4
g5
Vnapoli-juve
p130
tp131
Rp132
ag3
(g4
g5
Vora-legale
p133
tp134
Rp135
ag3
(g4
g5
Vsassuolo-roma
p136
tp137
Rp138
ag3
(g4
g5
Vclaudio-villa
p139
tp140
Rp141
ag3
(g4
g5
Vavanti-un-altro
p142
tp143
Rp144
ag3
(g4
g5
Vora
p145
tp146
Rp147
ag3
(g4
g5
Vgerardo-d-ambrosio
p148
tp149
Rp150
ag3
(g4
g5
Vstromae
p151
tp152
Rp153
ag3
(g4
g5
Vmatthew-mcconaughey
p154
tp155
Rp156
ag3
(g4
g5
Vformula-1
p157
tp158
Rp159
ag3
(g4
g5
Vmilan-chievo
p160
tp161
Rp162
ag3
(g4
g5
Vanna-marchesini
p163
tp164
Rp165
ag3
(g4
g5
Vorario
p166
tp167
Rp168
ag3
(g4
g5
Vlucia-annibali
p169
tp170
Rp171
ag3
(g4
g5
Vle-cronache-di-narnia
p172
tp173
Rp174
ag3
(g4
g5
Vsabrina-ferilli
p175
tp176
Rp177
ag3
(g4
g5
Vgoat-simulator
p178
tp179
Rp180
ag3
(g4
g5
Vbologna-atalanta
p181
tp182
Rp183
ag3
(g4
g5
Vora-legale
p184
tp185
Rp186
ag3
(g4
g5
Vformula-1
p187
tp188
Rp189
asS'Spain'
p190
(lp191
g3
(g4
g5
Voctavio-paz
p192
tp193
Rp194
ag3
(g4
g5
Vnadal
p195
tp196
Rp197
ag3
(g4
g5
Vanne-hidalgo
p198
tp199
Rp200
ag3
(g4
g5
Vrenta-2013
p201
tp202
Rp203
ag3
(g4
g5
Vkate-o-mara
p204
tp205
Rp206
ag3
(g4
g5
Vhacienda
p207
tp208
Rp209
ag3
(g4
g5
Vla-isla
p210
tp211
Rp212
ag3
(g4
g5
Vrosa-rodero
p213
tp214
Rp215
ag3
(g4
g5
Vfiesta-del-cine
p216
tp217
Rp218
ag3
(g4
g5
Vla-sombra-del-poder
p219
tp220
Rp221
ag3
(g4
g5
Virene-villa
p222
tp223
Rp224
ag3
(g4
g5
Vpilar-urbano
p225
tp226
Rp227
ag3
(g4
g5
Vfutbol
p228
tp229
Rp230
ag3
(g4
g5
Vla-terminal
p231
tp232
Rp233
ag3
(g4
g5
Vhora-espana
p234
tp235
Rp236
ag3
(g4
g5
Vmorata
p237
tp238
Rp239
ag3
(g4
g5
Vnadal-djokovic
p240
tp241
Rp242
ag3
(g4
g5
Vhorario-formula-1
p243
tp244
Rp245
ag3
(g4
g5
Vsergio-ramos
p246
tp247
Rp248
ag3
(g4
g5
Vla-liga
p249
tp250
Rp251
asS'UK'
p252
(lp253
g3
(g4
g5
Vthe-walking-dead
p254
tp255
Rp256
ag3
(g4
g5
Vorphan
p257
tp258
Rp259
ag3
(g4
g5
Vjaba-kankava
p260
tp261
Rp262
ag3
(g4
g5
Vradio-1-big-weekend
p263
tp264
Rp265
ag3
(g4
g5
Vnoah
p266
tp267
Rp268
ag3
(g4
g5
V5-seconds-of-summer
p269
tp270
Rp271
ag3
(g4
g5
Vtim-sherwood
p272
tp273
Rp274
ag3
(g4
g5
Vtime
p275
tp276
Rp277
ag3
(g4
g5
Vkate-omara
p278
tp279
Rp280
ag3
(g4
g5
Vuk-time
p281
tp282
Rp283
ag3
(g4
g5
Vmothers-day
p284
tp285
Rp286
ag3
(g4
g5
Vgmt
p287
tp288
Rp289
ag3
(g4
g5
Vprince-george
p290
tp291
Rp292
ag3
(g4
g5
Vmark-menzies
p293
tp294
Rp295
ag3
(g4
g5
Veverton
p296
tp297
Rp298
ag3
(g4
g5
Vlisa-stansfield
p299
tp300
Rp301
ag3
(g4
g5
Vreal-madrid
p302
tp303
Rp304
ag3
(g4
g5
Vricky-norwood
p305
tp306
Rp307
ag3
(g4
g5
Vendeavour
p308
tp309
Rp310
ag3
(g4
g5
Vbst
p311
tp312
Rp313
asS'India'
p314
(lp315
g3
(g4
g5
Vind-vs-aus
p316
tp317
Rp318
ag3
(g4
g5
Vgudi-padwa
p319
tp320
Rp321
ag3
(g4
g5
Vugadi
p322
tp323
Rp324
ag3
(g4
g5
Vnavratri-2014
p325
tp326
Rp327
ag3
(g4
g5
Vvarun-dhawan
p328
tp329
Rp330
ag3
(g4
g5
Vepl-table
p331
tp332
Rp333
ag3
(g4
g5
Vliverpool
p334
tp335
Rp336
ag3
(g4
g5
Vyami-gautam
p337
tp338
Rp339
ag3
(g4
g5
Vearth-hour
p340
tp341
Rp342
ag3
(g4
g5
Vileana-dcruz
p343
tp344
Rp345
ag3
(g4
g5
Vsabir-ali
p346
tp347
Rp348
ag3
(g4
g5
Vlegend-review
p349
tp350
Rp351
ag3
(g4
g5
Vnagma
p352
tp353
Rp354
ag3
(g4
g5
Vnoah
p355
tp356
Rp357
ag3
(g4
g5
Vqueen
p358
tp359
Rp360
ag3
(g4
g5
Vcric-buzz
p361
tp362
Rp363
ag3
(g4
g5
Vo-teri
p364
tp365
Rp366
ag3
(g4
g5
Vlegend
p367
tp368
Rp369
ag3
(g4
g5
Vgate-2014
p370
tp371
Rp372
ag3
(g4
g5
Vlive-cricket-score
p373
tp374
Rp375
asS'US'
p376
(lp377
g3
(g4
g5
Vwalking-dead
p378
tp379
Rp380
ag3
(g4
g5
Vtesla
p381
tp382
Rp383
ag3
(g4
g5
Vkate-omara
p384
tp385
Rp386
ag3
(g4
g5
Vlouis-ck
p387
tp388
Rp389
ag3
(g4
g5
Vcaptain-america
p390
tp391
Rp392
ag3
(g4
g5
Vfinal-four
p393
tp394
Rp395
ag3
(g4
g5
Vbenzino
p396
tp397
Rp398
ag3
(g4
g5
Vwisconsin-basketball
p399
tp400
Rp401
ag3
(g4
g5
Vkevin-ollie
p402
tp403
Rp404
ag3
(g4
g5
Vkids-choice-awards-2014
p405
tp406
Rp407
ag3
(g4
g5
Vsam-smith
p408
tp409
Rp410
ag3
(g4
g5
Vkatherine-webb
p411
tp412
Rp413
ag3
(g4
g5
Vnick
p414
tp415
Rp416
ag3
(g4
g5
Vla-times
p417
tp418
Rp419
ag3
(g4
g5
Vdan-schneider
p420
tp421
Rp422
ag3
(g4
g5
Vpiers-morgan
p423
tp424
Rp425
ag3
(g4
g5
Vmike-trout
p426
tp427
Rp428
ag3
(g4
g5
Vearthquake-today
p429
tp430
Rp431
ag3
(g4
g5
Vdesean-jackson
p432
tp433
Rp434
ag3
(g4
g5
Vnoah
p435
tp436
Rp437
asS'France'
p438
(lp439
g3
(g4
g5
Vlyon-saint-etienne
p440
tp441
Rp442
ag3
(g4
g5
Vpau
p443
tp444
Rp445
ag3
(g4
g5
Vmantes-la-ville
p446
tp447
Rp448
ag3
(g4
g5
Vanne-hidalgo
p449
tp450
Rp451
ag3
(g4
g5
Vheure
p452
tp453
Rp454
ag3
(g4
g5
Vmesrine
p455
tp456
Rp457
ag3
(g4
g5
Vnathalie-pechalat
p458
tp459
Rp460
ag3
(g4
g5
Vresultat-municipales-2014
p461
tp462
Rp463
ag3
(g4
g5
Velections-municipales
p464
tp465
Rp466
ag3
(g4
g5
Vtoulouse
p467
tp468
Rp469
ag3
(g4
g5
Vnabilla
p470
tp471
Rp472
ag3
(g4
g5
Vrobert-menard
p473
tp474
Rp475
ag3
(g4
g5
Vfrejus
p476
tp477
Rp478
ag3
(g4
g5
Vfete-des-meres
p479
tp480
Rp481
ag3
(g4
g5
Vheure-dete
p482
tp483
Rp484
ag3
(g4
g5
Vgrenoble
p485
tp486
Rp487
ag3
(g4
g5
Vbali
p488
tp489
Rp490
ag3
(g4
g5
Vmichel-dinet
p491
tp492
Rp493
ag3
(g4
g5
Vle-soir
p494
tp495
Rp496
ag3
(g4
g5
Vremi-gaillard
p497
tp498
Rp499
as.