(dp0
S'Brazil'
p1
(lp2
ccopy_reg
_reconstructor
p3
(cdjango.utils.safestring
SafeText
p4
c__builtin__
unicode
p5
Vmae
p6
tp7
Rp8
ag3
(g4
g5
Vufc
p9
tp10
Rp11
ag3
(g4
g5
Vdia-das-maes
p12
tp13
Rp14
ag3
(g4
g5
Vfeliz-dia-das-maes
p15
tp16
Rp17
ag3
(g4
g5
Vnoticias
p18
tp19
Rp20
ag3
(g4
g5
Vquina
p21
tp22
Rp23
ag3
(g4
g5
Vmarisa
p24
tp25
Rp26
ag3
(g4
g5
Vluciana-mello
p27
tp28
Rp29
ag3
(g4
g5
Vjair-rodrigues
p30
tp31
Rp32
ag3
(g4
g5
Vg1
p33
tp34
Rp35
ag3
(g4
g5
Vmsn
p36
tp37
Rp38
ag3
(g4
g5
Vcorreios
p39
tp40
Rp41
ag3
(g4
g5
Vreceita-federal
p42
tp43
Rp44
ag3
(g4
g5
Vdia-das-maes
p45
tp46
Rp47
ag3
(g4
g5
Vvivo
p48
tp49
Rp50
ag3
(g4
g5
Venem-2014
p51
tp52
Rp53
ag3
(g4
g5
Vpalmeiras
p54
tp55
Rp56
ag3
(g4
g5
Vone-direction
p57
tp58
Rp59
ag3
(g4
g5
Vciee
p60
tp61
Rp62
ag3
(g4
g5
Vo-globo
p63
tp64
Rp65
asS'Australia'
p66
(lp67
g3
(g4
g5
Vmothers-day
p68
tp69
Rp70
ag3
(g4
g5
Vmothers-day
p71
tp72
Rp73
ag3
(g4
g5
Vmothers-day-poems
p74
tp75
Rp76
ag3
(g4
g5
Vmothers-day-classic
p77
tp78
Rp79
ag3
(g4
g5
Vgiro-ditalia
p80
tp81
Rp82
ag3
(g4
g5
Vrolf-harris
p83
tp84
Rp85
ag3
(g4
g5
Vmothers-day-cards
p86
tp87
Rp88
ag3
(g4
g5
Vmothers-day-messages
p89
tp90
Rp91
ag3
(g4
g5
Vwolverine
p92
tp93
Rp94
ag3
(g4
g5
Vhappy-mothers-day-quotes
p95
tp96
Rp97
ag3
(g4
g5
Vnrl
p98
tp99
Rp100
ag3
(g4
g5
Vmarie-kojzar
p101
tp102
Rp103
ag3
(g4
g5
Vmothers-day-quotes
p104
tp105
Rp106
ag3
(g4
g5
Viphone-6
p107
tp108
Rp109
ag3
(g4
g5
Vcanberra-times
p110
tp111
Rp112
ag3
(g4
g5
Vwill-i-am
p113
tp114
Rp115
ag3
(g4
g5
Vzac-efron
p116
tp117
Rp118
ag3
(g4
g5
Vrick-springfield
p119
tp120
Rp121
ag3
(g4
g5
Vconchita-wurst
p122
tp123
Rp124
ag3
(g4
g5
Veurovision-2014
p125
tp126
Rp127
asS'Italy'
p128
(lp129
g3
(g4
g5
Vfesta-della-mamma
p130
tp131
Rp132
ag3
(g4
g5
Vconchita-wurst
p133
tp134
Rp135
ag3
(g4
g5
Vamici-2014
p136
tp137
Rp138
ag3
(g4
g5
Vauguri-mamma
p139
tp140
Rp141
ag3
(g4
g5
Vzanetti
p142
tp143
Rp144
ag3
(g4
g5
Vfantagazzetta
p145
tp146
Rp147
ag3
(g4
g5
Vclassifica-serie-a
p148
tp149
Rp150
ag3
(g4
g5
Vserie-a
p151
tp152
Rp153
ag3
(g4
g5
Vmassimo-ranieri
p154
tp155
Rp156
ag3
(g4
g5
Vrisultati-serie-a
p157
tp158
Rp159
ag3
(g4
g5
Vformula-1
p160
tp161
Rp162
ag3
(g4
g5
Vsuperenalotto
p163
tp164
Rp165
ag3
(g4
g5
Vprogrammi-tv
p166
tp167
Rp168
ag3
(g4
g5
Vagenzia-delle-entrate
p169
tp170
Rp171
ag3
(g4
g5
Vpeppino-impastato
p172
tp173
Rp174
ag3
(g4
g5
Vriccardo-viti
p175
tp176
Rp177
ag3
(g4
g5
Vgiro-d-italia
p178
tp179
Rp180
ag3
(g4
g5
Vfesta-della-mamma
p181
tp182
Rp183
ag3
(g4
g5
Vthe-voice
p184
tp185
Rp186
ag3
(g4
g5
Vscajola
p187
tp188
Rp189
asS'Spain'
p190
(lp191
g3
(g4
g5
Vpolonia-eurovision-2014
p192
tp193
Rp194
ag3
(g4
g5
Vacb
p195
tp196
Rp197
ag3
(g4
g5
Vtransvulcania-2014
p198
tp199
Rp200
ag3
(g4
g5
Veurovision-2014
p201
tp202
Rp203
ag3
(g4
g5
Vsan-marino
p204
tp205
Rp206
ag3
(g4
g5
Veurovision-2014
p207
tp208
Rp209
ag3
(g4
g5
Vmira-quien-salta
p210
tp211
Rp212
ag3
(g4
g5
Vconchita-wurst
p213
tp214
Rp215
ag3
(g4
g5
Vantonio-tejado
p216
tp217
Rp218
ag3
(g4
g5
Vformula-1
p219
tp220
Rp221
ag3
(g4
g5
Vhoy
p222
tp223
Rp224
ag3
(g4
g5
Vlaura-manzanedo
p225
tp226
Rp227
ag3
(g4
g5
Vla-nueva-espana
p228
tp229
Rp230
ag3
(g4
g5
Vf1
p231
tp232
Rp233
ag3
(g4
g5
Vmujeres-y-hombres
p234
tp235
Rp236
ag3
(g4
g5
Vsandro-rey
p237
tp238
Rp239
ag3
(g4
g5
Vmonterrubio-de-la-serena
p240
tp241
Rp242
ag3
(g4
g5
Vmiriam-sanchez
p243
tp244
Rp245
ag3
(g4
g5
Vel-secreto-de-puente-viejo
p246
tp247
Rp248
ag3
(g4
g5
Vlne
p249
tp250
Rp251
asS'UK'
p252
(lp253
g3
(g4
g5
Veurovision-2014-results
p254
tp255
Rp256
ag3
(g4
g5
Vabba
p257
tp258
Rp259
ag3
(g4
g5
Viceland
p260
tp261
Rp262
ag3
(g4
g5
Vwiggle
p263
tp264
Rp265
ag3
(g4
g5
Vbarry-manilow
p266
tp267
Rp268
ag3
(g4
g5
Vcourtney-love
p269
tp270
Rp271
ag3
(g4
g5
Varmenia
p272
tp273
Rp274
ag3
(g4
g5
Vgraham-norton
p275
tp276
Rp277
ag3
(g4
g5
Vgary-barlow
p278
tp279
Rp280
ag3
(g4
g5
Vmothers-day
p281
tp282
Rp283
ag3
(g4
g5
Vmothers-day-2014
p284
tp285
Rp286
ag3
(g4
g5
Vclaudia-winkleman
p287
tp288
Rp289
ag3
(g4
g5
Vbars-and-melody
p290
tp291
Rp292
ag3
(g4
g5
Vmalta
p293
tp294
Rp295
ag3
(g4
g5
Vmothers-day
p296
tp297
Rp298
ag3
(g4
g5
Vcommunity
p299
tp300
Rp301
ag3
(g4
g5
Vchris-brown
p302
tp303
Rp304
ag3
(g4
g5
Vbelarus
p305
tp306
Rp307
ag3
(g4
g5
Vsteve-coogan
p308
tp309
Rp310
ag3
(g4
g5
Vcoy
p311
tp312
Rp313
asS'India'
p314
(lp315
g3
(g4
g5
Vtiger-shroff
p316
tp317
Rp318
ag3
(g4
g5
Vcsk-vs-mi
p319
tp320
Rp321
ag3
(g4
g5
Vmothers-day-messages
p322
tp323
Rp324
ag3
(g4
g5
Vmothers-day-poems
p325
tp326
Rp327
ag3
(g4
g5
Vjadiel
p328
tp329
Rp330
ag3
(g4
g5
Vmothers-day-image
p331
tp332
Rp333
ag3
(g4
g5
Vhappy-mothers-day-2014
p334
tp335
Rp336
ag3
(g4
g5
Vmothers-day
p337
tp338
Rp339
ag3
(g4
g5
Vmothers-day
p340
tp341
Rp342
ag3
(g4
g5
Vmothers-day-quotes
p343
tp344
Rp345
ag3
(g4
g5
Vmothers-day-2014
p346
tp347
Rp348
ag3
(g4
g5
Vdia-de-las-madres
p349
tp350
Rp351
ag3
(g4
g5
Vsslc-results-2014
p352
tp353
Rp354
ag3
(g4
g5
Vmothers-day
p355
tp356
Rp357
ag3
(g4
g5
Vmastram
p358
tp359
Rp360
ag3
(g4
g5
V12-result
p361
tp362
Rp363
ag3
(g4
g5
Vmillion-dollar-arm
p364
tp365
Rp366
ag3
(g4
g5
Vrhea-pillai
p367
tp368
Rp369
ag3
(g4
g5
V12-results
p370
tp371
Rp372
ag3
(g4
g5
V12th-result
p373
tp374
Rp375
asS'US'
p376
(lp377
g3
(g4
g5
Vconchita-wurst
p378
tp379
Rp380
ag3
(g4
g5
Vmothers-day
p381
tp382
Rp383
ag3
(g4
g5
Vmono-mono-twins
p384
tp385
Rp386
ag3
(g4
g5
Vmiami-heat
p387
tp388
Rp389
ag3
(g4
g5
Vclippers
p390
tp391
Rp392
ag3
(g4
g5
Vcharlize-theron
p393
tp394
Rp395
ag3
(g4
g5
Vgarden-state-plaza
p396
tp397
Rp398
ag3
(g4
g5
Vaaron-murray
p399
tp400
Rp401
ag3
(g4
g5
Vamy-schumer
p402
tp403
Rp404
ag3
(g4
g5
Vspurs
p405
tp406
Rp407
ag3
(g4
g5
Vpierre-desir
p408
tp409
Rp410
ag3
(g4
g5
Vtom-savage
p411
tp412
Rp413
ag3
(g4
g5
Vdeanthony-thomas
p414
tp415
Rp416
ag3
(g4
g5
Vdemarcus-lawrence
p417
tp418
Rp419
ag3
(g4
g5
Vtajh-boyd
p420
tp421
Rp422
ag3
(g4
g5
Vmichael-sam
p423
tp424
Rp425
ag3
(g4
g5
Vdr-dre
p426
tp427
Rp428
ag3
(g4
g5
Vhappy-mothers-day
p429
tp430
Rp431
ag3
(g4
g5
Vneighbors
p432
tp433
Rp434
ag3
(g4
g5
Vjosh-gordon
p435
tp436
Rp437
asS'France'
p438
(lp439
g3
(g4
g5
Vfete-des-meres
p440
tp441
Rp442
ag3
(g4
g5
Vfrance-3
p443
tp444
Rp445
ag3
(g4
g5
Vyannick-noah
p446
tp447
Rp448
ag3
(g4
g5
Vligue-1
p449
tp450
Rp451
ag3
(g4
g5
Vkylie-minogue
p452
tp453
Rp454
ag3
(g4
g5
Vd8
p455
tp456
Rp457
ag3
(g4
g5
Vpalmashow
p458
tp459
Rp460
ag3
(g4
g5
Vgodzilla
p461
tp462
Rp463
ag3
(g4
g5
Vhelene-pastor
p464
tp465
Rp466
ag3
(g4
g5
Vcabaye
p467
tp468
Rp469
ag3
(g4
g5
Vjorge-jesus
p470
tp471
Rp472
ag3
(g4
g5
Vlille-psg
p473
tp474
Rp475
ag3
(g4
g5
Veurovision-2014
p476
tp477
Rp478
ag3
(g4
g5
Vthe-voice
p479
tp480
Rp481
ag3
(g4
g5
Vtwin-twin
p482
tp483
Rp484
ag3
(g4
g5
Valice-nevers
p485
tp486
Rp487
ag3
(g4
g5
Vfetes-des-meres-2014
p488
tp489
Rp490
ag3
(g4
g5
Vrc-lens
p491
tp492
Rp493
ag3
(g4
g5
Vkarine-ferri
p494
tp495
Rp496
ag3
(g4
g5
Vstade-toulousain
p497
tp498
Rp499
as.