(dp0
S'Brazil'
p1
(lp2
ccopy_reg
_reconstructor
p3
(cdjango.utils.safestring
SafeText
p4
c__builtin__
unicode
p5
Vdia-das-criancas
p6
tp7
Rp8
ag3
(g4
g5
Vnossa-senhora-aparecida
p9
tp10
Rp11
ag3
(g4
g5
Vpalmeiras
p12
tp13
Rp14
ag3
(g4
g5
Vfeliz-dia-das-criancas
p15
tp16
Rp17
ag3
(g4
g5
Vmensagem-dia-das-criancas
p18
tp19
Rp20
ag3
(g4
g5
Vimagem-de-nossa-senhora-aparecida
p21
tp22
Rp23
ag3
(g4
g5
Vbrasil-e-argentina
p24
tp25
Rp26
ag3
(g4
g5
Vlaura-neiva
p27
tp28
Rp29
ag3
(g4
g5
Vcaio-nabuco
p30
tp31
Rp32
ag3
(g4
g5
Vbrasil
p33
tp34
Rp35
ag3
(g4
g5
Visto-e
p36
tp37
Rp38
ag3
(g4
g5
Vselecao-brasileira
p39
tp40
Rp41
ag3
(g4
g5
Vsnapchat
p42
tp43
Rp44
ag3
(g4
g5
Vmalala
p45
tp46
Rp47
ag3
(g4
g5
Vthe-voice-brasil-2014
p48
tp49
Rp50
ag3
(g4
g5
Vaustin-mahone
p51
tp52
Rp53
ag3
(g4
g5
Vvirus-ebola-no-brasil
p54
tp55
Rp56
ag3
(g4
g5
Vamanda-bynes
p57
tp58
Rp59
ag3
(g4
g5
Vcazaquistao
p60
tp61
Rp62
ag3
(g4
g5
Vamor-e-sexo
p63
tp64
Rp65
asS'Australia'
p66
(lp67
g3
(g4
g5
Vthe-block
p68
tp69
Rp70
ag3
(g4
g5
Vben-flower
p71
tp72
Rp73
ag3
(g4
g5
Vroger-federer
p74
tp75
Rp76
ag3
(g4
g5
Vbig-brother-australia
p77
tp78
Rp79
ag3
(g4
g5
Viggy-azalea
p80
tp81
Rp82
ag3
(g4
g5
Vmotogp
p83
tp84
Rp85
ag3
(g4
g5
Vbathurst-2014
p86
tp87
Rp88
ag3
(g4
g5
V4chan
p89
tp90
Rp91
ag3
(g4
g5
Vmelbourne-marathon
p92
tp93
Rp94
ag3
(g4
g5
Vamanda-bynes
p95
tp96
Rp97
ag3
(g4
g5
Vshooter
p98
tp99
Rp100
ag3
(g4
g5
Vdavid-villa
p101
tp102
Rp103
ag3
(g4
g5
Vangelina-jolie
p104
tp105
Rp106
ag3
(g4
g5
Vbathurst-2014
p107
tp108
Rp109
ag3
(g4
g5
Vblake-and-louise
p110
tp111
Rp112
ag3
(g4
g5
Vbathurst-1000
p113
tp114
Rp115
ag3
(g4
g5
Vthe-block
p116
tp117
Rp118
ag3
(g4
g5
Va-league
p119
tp120
Rp121
ag3
(g4
g5
Vjules-bianchi
p122
tp123
Rp124
ag3
(g4
g5
Vmelbourne-victory
p125
tp126
Rp127
asS'Italy'
p128
(lp129
g3
(g4
g5
Vserie-b
p130
tp131
Rp132
ag3
(g4
g5
Vbarcolana-2014
p133
tp134
Rp135
ag3
(g4
g5
Vrisultati-serie-b
p136
tp137
Rp138
ag3
(g4
g5
Veva-henger
p139
tp140
Rp141
ag3
(g4
g5
Vgotham
p142
tp143
Rp144
ag3
(g4
g5
Vrosa-della-corte
p145
tp146
Rp147
ag3
(g4
g5
Vmotogp
p148
tp149
Rp150
ag3
(g4
g5
Vemma-marrone
p151
tp152
Rp153
ag3
(g4
g5
Vsimona-ventura
p154
tp155
Rp156
ag3
(g4
g5
Vrai-sport
p157
tp158
Rp159
ag3
(g4
g5
Vfederer
p160
tp161
Rp162
ag3
(g4
g5
Vitalia-cina-pallavolo-femminile
p163
tp164
Rp165
ag3
(g4
g5
Vgenova
p166
tp167
Rp168
ag3
(g4
g5
Vazerbaijan
p169
tp170
Rp171
ag3
(g4
g5
Vmatrimonio-hunziker
p172
tp173
Rp174
ag3
(g4
g5
Vil-secolo-xix
p175
tp176
Rp177
ag3
(g4
g5
Vmotogp
p178
tp179
Rp180
ag3
(g4
g5
Vpirati-dei-caraibi
p181
tp182
Rp183
ag3
(g4
g5
Vmeteo-genova
p184
tp185
Rp186
ag3
(g4
g5
Vmalala
p187
tp188
Rp189
asS'Spain'
p190
(lp191
g3
(g4
g5
Vdia-de-la-hispanidad
p192
tp193
Rp194
ag3
(g4
g5
Vhudhud
p195
tp196
Rp197
ag3
(g4
g5
Vdesfile-12-octubre-2014
p198
tp199
Rp200
ag3
(g4
g5
Vbatman
p201
tp202
Rp203
ag3
(g4
g5
Vbandera-de-espana
p204
tp205
Rp206
ag3
(g4
g5
Vespana-luxemburgo
p207
tp208
Rp209
ag3
(g4
g5
Vmotogp
p210
tp211
Rp212
ag3
(g4
g5
Vcristina-pedroche
p213
tp214
Rp215
ag3
(g4
g5
Ventre-las-piernas
p216
tp217
Rp218
ag3
(g4
g5
Vtardelli
p219
tp220
Rp221
ag3
(g4
g5
Vraphael
p222
tp223
Rp224
ag3
(g4
g5
Vlos-viernes-al-show
p225
tp226
Rp227
ag3
(g4
g5
Vvolvo-ocean-race
p228
tp229
Rp230
ag3
(g4
g5
Vsnapchat
p231
tp232
Rp233
ag3
(g4
g5
Vfrancisco-giner-de-los-rios
p234
tp235
Rp236
ag3
(g4
g5
Vultimas-noticias
p237
tp238
Rp239
ag3
(g4
g5
Vkailash-satyarthi
p240
tp241
Rp242
ag3
(g4
g5
Vmotogp
p243
tp244
Rp245
ag3
(g4
g5
Volvido-hormigos
p246
tp247
Rp248
ag3
(g4
g5
Vperdida
p249
tp250
Rp251
asS'UK'
p252
(lp253
g3
(g4
g5
Vestonia
p254
tp255
Rp256
ag3
(g4
g5
Vmeghan-trainor
p257
tp258
Rp259
ag3
(g4
g5
Vsimon-hirst
p260
tp261
Rp262
ag3
(g4
g5
Vx-factor-2014
p263
tp264
Rp265
ag3
(g4
g5
Vchloe-jasmine-x-factor
p266
tp267
Rp268
ag3
(g4
g5
Vben-flower
p269
tp270
Rp271
ag3
(g4
g5
Vandrea-faustini
p272
tp273
Rp274
ag3
(g4
g5
Vall-about-that-bass
p275
tp276
Rp277
ag3
(g4
g5
Vanthony-joshua
p278
tp279
Rp280
ag3
(g4
g5
Vamanda-bynes
p281
tp282
Rp283
ag3
(g4
g5
Vneil-diamond
p284
tp285
Rp286
ag3
(g4
g5
Variana-grande
p287
tp288
Rp289
ag3
(g4
g5
Vtaylor-swift
p290
tp291
Rp292
ag3
(g4
g5
Vwalking-dead-season-5
p293
tp294
Rp295
ag3
(g4
g5
Vrussian-grand-prix
p296
tp297
Rp298
ag3
(g4
g5
Vkevin-pietersen
p299
tp300
Rp301
ag3
(g4
g5
Vrobbie-keane
p302
tp303
Rp304
ag3
(g4
g5
Vdiego-tardelli
p305
tp306
Rp307
ag3
(g4
g5
Vadam-levine
p308
tp309
Rp310
ag3
(g4
g5
Vblonde-electra
p311
tp312
Rp313
asS'India'
p314
(lp315
g3
(g4
g5
Vhudhud
p316
tp317
Rp318
ag3
(g4
g5
Visl
p319
tp320
Rp321
ag3
(g4
g5
Vamitabh-bachchan
p322
tp323
Rp324
ag3
(g4
g5
Vamazon
p325
tp326
Rp327
ag3
(g4
g5
Vamazon-india
p328
tp329
Rp330
ag3
(g4
g5
Vlive-cricket-score
p331
tp332
Rp333
ag3
(g4
g5
Vkailash-satyarthi
p334
tp335
Rp336
ag3
(g4
g5
Vlive-cricket
p337
tp338
Rp339
ag3
(g4
g5
Vamazoncom
p340
tp341
Rp342
ag3
(g4
g5
Vkarwa-chauth
p343
tp344
Rp345
ag3
(g4
g5
Vkarva-chauth
p346
tp347
Rp348
ag3
(g4
g5
Vrk-narayan
p349
tp350
Rp351
ag3
(g4
g5
Vannabelle
p352
tp353
Rp354
ag3
(g4
g5
Vhtc-desire-eye
p355
tp356
Rp357
ag3
(g4
g5
Vcricinfo
p358
tp359
Rp360
ag3
(g4
g5
Vcricket
p361
tp362
Rp363
ag3
(g4
g5
Vind-vs-wi
p364
tp365
Rp366
ag3
(g4
g5
Vhudhud-cyclone
p367
tp368
Rp369
ag3
(g4
g5
Vjayalalitha
p370
tp371
Rp372
ag3
(g4
g5
Vlunar-eclipse
p373
tp374
Rp375
asS'US'
p376
(lp377
g3
(g4
g5
Vchicago-marathon
p378
tp379
Rp380
ag3
(g4
g5
Vorioles
p381
tp382
Rp383
ag3
(g4
g5
Vauburn-football
p384
tp385
Rp386
ag3
(g4
g5
Vnascar
p387
tp388
Rp389
ag3
(g4
g5
Vpenn-state-football
p390
tp391
Rp392
ag3
(g4
g5
Vhozier
p393
tp394
Rp395
ag3
(g4
g5
Vjameis-winston
p396
tp397
Rp398
ag3
(g4
g5
Vucla-football
p399
tp400
Rp401
ag3
(g4
g5
Vamanda-bynes
p402
tp403
Rp404
ag3
(g4
g5
V4chan
p405
tp406
Rp407
ag3
(g4
g5
Vmalala-yousafzai
p408
tp409
Rp410
ag3
(g4
g5
Vadrian-peterson
p411
tp412
Rp413
ag3
(g4
g5
Vdracula-untold
p414
tp415
Rp416
ag3
(g4
g5
Vkeke-palmer
p417
tp418
Rp419
ag3
(g4
g5
Vthe-judge
p420
tp421
Rp422
ag3
(g4
g5
Vlandon-donovan
p423
tp424
Rp425
ag3
(g4
g5
Vtrigz
p426
tp427
Rp428
ag3
(g4
g5
Vjan-hooks
p429
tp430
Rp431
ag3
(g4
g5
Vjj-watt
p432
tp433
Rp434
ag3
(g4
g5
Vtodd-gurley
p435
tp436
Rp437
asS'France'
p438
(lp439
g3
(g4
g5
Vmireille-mathieu
p440
tp441
Rp442
ag3
(g4
g5
Velsa-zylberstein
p443
tp444
Rp445
ag3
(g4
g5
Vfederer
p446
tp447
Rp448
ag3
(g4
g5
Vthe-walking-dead-saison-5
p449
tp450
Rp451
ag3
(g4
g5
Vfrance-portugal
p452
tp453
Rp454
ag3
(g4
g5
V20-km-de-paris
p455
tp456
Rp457
ag3
(g4
g5
Vsnapchat
p458
tp459
Rp460
ag3
(g4
g5
Vtardelli
p461
tp462
Rp463
ag3
(g4
g5
Vtout-rennes-court
p464
tp465
Rp466
ag3
(g4
g5
Vbenzema
p467
tp468
Rp469
ag3
(g4
g5
Valgerie-malawi
p470
tp471
Rp472
ag3
(g4
g5
Vdanse-avec-les-stars
p473
tp474
Rp475
ag3
(g4
g5
Vmireille-mathieu
p476
tp477
Rp478
ag3
(g4
g5
Vtonya-kinzinger
p479
tp480
Rp481
ag3
(g4
g5
Vmalala
p482
tp483
Rp484
ag3
(g4
g5
Vmiguel-angel-munoz
p485
tp486
Rp487
ag3
(g4
g5
Vlea-seydoux
p488
tp489
Rp490
ag3
(g4
g5
Vnathalie-pechalat
p491
tp492
Rp493
ag3
(g4
g5
Vfrance-inter
p494
tp495
Rp496
ag3
(g4
g5
Vcrossing-lines
p497
tp498
Rp499
as.