(dp0
S'Brazil'
p1
(lp2
ccopy_reg
_reconstructor
p3
(cdjango.utils.safestring
SafeText
p4
c__builtin__
unicode
p5
Vdia-do-circo
p6
tp7
Rp8
ag3
(g4
g5
Vbarcelona
p9
tp10
Rp11
ag3
(g4
g5
Vrenato-russo
p12
tp13
Rp14
ag3
(g4
g5
Vlei-100
p15
tp16
Rp17
ag3
(g4
g5
Vpenapolense
p18
tp19
Rp20
ag3
(g4
g5
Vschumacher
p21
tp22
Rp23
ag3
(g4
g5
Vmarco-civil-da-internet
p24
tp25
Rp26
ag3
(g4
g5
Vjames-franco
p27
tp28
Rp29
ag3
(g4
g5
Vbitcoin
p30
tp31
Rp32
ag3
(g4
g5
Vjornal-nacional
p33
tp34
Rp35
ag3
(g4
g5
Vlg-g-flex
p36
tp37
Rp38
ag3
(g4
g5
Vlouise-d-tuani
p39
tp40
Rp41
ag3
(g4
g5
Vmalaysia-airlines
p42
tp43
Rp44
ag3
(g4
g5
Vbarcelona
p45
tp46
Rp47
ag3
(g4
g5
Vpaulo-schroeber
p48
tp49
Rp50
ag3
(g4
g5
Vmila-kunis
p51
tp52
Rp53
ag3
(g4
g5
Vtuf-brasil-3
p54
tp55
Rp56
ag3
(g4
g5
Vlais-souza
p57
tp58
Rp59
ag3
(g4
g5
Vanitta-depois-da-cirurgia
p60
tp61
Rp62
ag3
(g4
g5
Veliana
p63
tp64
Rp65
asS'Australia'
p66
(lp67
g3
(g4
g5
Vsupercoach
p68
tp69
Rp70
ag3
(g4
g5
Voscar-pistorius
p71
tp72
Rp73
ag3
(g4
g5
Vnoah
p74
tp75
Rp76
ag3
(g4
g5
Vfreedom
p77
tp78
Rp79
ag3
(g4
g5
Vliverpool
p80
tp81
Rp82
ag3
(g4
g5
Vresurrection
p83
tp84
Rp85
ag3
(g4
g5
Vgwyneth-paltrow
p86
tp87
Rp88
ag3
(g4
g5
Voculus-rift
p89
tp90
Rp91
ag3
(g4
g5
Vmissing-plane-found
p92
tp93
Rp94
ag3
(g4
g5
Vharry-kewell
p95
tp96
Rp97
ag3
(g4
g5
Vmedibank
p98
tp99
Rp100
ag3
(g4
g5
Vmanchester-united
p101
tp102
Rp103
ag3
(g4
g5
Vcanberra-times
p104
tp105
Rp106
ag3
(g4
g5
Vkim-kardashian
p107
tp108
Rp109
ag3
(g4
g5
Varsenal
p110
tp111
Rp112
ag3
(g4
g5
Vmichael-schumacher
p113
tp114
Rp115
ag3
(g4
g5
Vgames
p116
tp117
Rp118
ag3
(g4
g5
Vsamsung-galaxy-s5
p119
tp120
Rp121
ag3
(g4
g5
Vscholar
p122
tp123
Rp124
ag3
(g4
g5
Vpuberty-blues
p125
tp126
Rp127
asS'Italy'
p128
(lp129
g3
(g4
g5
Vthe-voice-of-italy
p130
tp131
Rp132
ag3
(g4
g5
Vana-damian
p133
tp134
Rp135
ag3
(g4
g5
Vnuovo-stadio-roma
p136
tp137
Rp138
ag3
(g4
g5
Vschumacher
p139
tp140
Rp141
ag3
(g4
g5
Vebay-auto-blu
p142
tp143
Rp144
ag3
(g4
g5
Vserie-a
p145
tp146
Rp147
ag3
(g4
g5
Vla-scelta-di-tommaso
p148
tp149
Rp150
ag3
(g4
g5
Vbeatrice-uomini-e-donne
p151
tp152
Rp153
ag3
(g4
g5
Vjuventus-parma
p154
tp155
Rp156
ag3
(g4
g5
Vmilan
p157
tp158
Rp159
ag3
(g4
g5
V2048
p160
tp161
Rp162
ag3
(g4
g5
Vlivescore
p163
tp164
Rp165
ag3
(g4
g5
Vnoemi
p166
tp167
Rp168
ag3
(g4
g5
Vgwyneth-paltrow
p169
tp170
Rp171
ag3
(g4
g5
Vclaudio-lippi
p172
tp173
Rp174
ag3
(g4
g5
Vpiero-pelu
p175
tp176
Rp177
ag3
(g4
g5
Vraffaella-carra
p178
tp179
Rp180
ag3
(g4
g5
Vmaria-elena-boschi
p181
tp182
Rp183
ag3
(g4
g5
Voculus-rift
p184
tp185
Rp186
ag3
(g4
g5
Vserie-a-tim
p187
tp188
Rp189
asS'Spain'
p190
(lp191
g3
(g4
g5
Vluis-rajoy-brey
p192
tp193
Rp194
ag3
(g4
g5
Vaguasantas
p195
tp196
Rp197
ag3
(g4
g5
Vatletico-de-madrid
p198
tp199
Rp200
ag3
(g4
g5
Vresultados-liga-bbva
p201
tp202
Rp203
ag3
(g4
g5
Vradio-marca
p204
tp205
Rp206
ag3
(g4
g5
Vantonio-tejado
p207
tp208
Rp209
ag3
(g4
g5
Vrojadirecta
p210
tp211
Rp212
ag3
(g4
g5
Vliga-bbva
p213
tp214
Rp215
ag3
(g4
g5
Vvictor-valdes
p216
tp217
Rp218
ag3
(g4
g5
Vresultados-futbol
p219
tp220
Rp221
ag3
(g4
g5
Vcope
p222
tp223
Rp224
ag3
(g4
g5
Vgwyneth-paltrow
p225
tp226
Rp227
ag3
(g4
g5
Vel-confesionario-de-kiko
p228
tp229
Rp230
ag3
(g4
g5
Vcayetano-rivera
p231
tp232
Rp233
ag3
(g4
g5
Voculus-rift
p234
tp235
Rp236
ag3
(g4
g5
Vun-principe-para-laura
p237
tp238
Rp239
ag3
(g4
g5
Vjordi-alba
p240
tp241
Rp242
ag3
(g4
g5
Vmaria-elena-boschi
p243
tp244
Rp245
ag3
(g4
g5
Vanatomia-de-grey
p246
tp247
Rp248
ag3
(g4
g5
Vjordi-cruz
p249
tp250
Rp251
asS'UK'
p252
(lp253
g3
(g4
g5
Vliverpool-fc
p254
tp255
Rp256
ag3
(g4
g5
Vreal-madrid
p257
tp258
Rp259
ag3
(g4
g5
Vliverpool-vs-sunderland
p260
tp261
Rp262
ag3
(g4
g5
Vvictor-valdes
p263
tp264
Rp265
ag3
(g4
g5
Vplane-crash
p266
tp267
Rp268
ag3
(g4
g5
Vnhs-direct
p269
tp270
Rp271
ag3
(g4
g5
Vkris-hallenga
p272
tp273
Rp274
ag3
(g4
g5
Vgame-of-thrones-season-4
p275
tp276
Rp277
ag3
(g4
g5
Vbbc-sport
p278
tp279
Rp280
ag3
(g4
g5
Vgwyneth-paltrow
p281
tp282
Rp283
ag3
(g4
g5
Vsky-sports
p284
tp285
Rp286
ag3
(g4
g5
Vlbc
p287
tp288
Rp289
ag3
(g4
g5
Voculus-rift
p290
tp291
Rp292
ag3
(g4
g5
Vfootball-results
p293
tp294
Rp295
ag3
(g4
g5
Vkate-bush
p296
tp297
Rp298
ag3
(g4
g5
Vcaptain-america-2
p299
tp300
Rp301
ag3
(g4
g5
Vsize
p302
tp303
Rp304
ag3
(g4
g5
Veverton
p305
tp306
Rp307
ag3
(g4
g5
Vthree
p308
tp309
Rp310
ag3
(g4
g5
Vsse
p311
tp312
Rp313
asS'India'
p314
(lp315
g3
(g4
g5
Vgate-2014
p316
tp317
Rp318
ag3
(g4
g5
Vcricbuzz
p319
tp320
Rp321
ag3
(g4
g5
Vlive-cricket-score
p322
tp323
Rp324
ag3
(g4
g5
Vreal-madrid
p325
tp326
Rp327
ag3
(g4
g5
Vlata-mangeshkar
p328
tp329
Rp330
ag3
(g4
g5
Vhtc-one-m8
p331
tp332
Rp333
ag3
(g4
g5
Vaap
p334
tp335
Rp336
ag3
(g4
g5
Vkuldeep-pawar
p337
tp338
Rp339
ag3
(g4
g5
Vmh370
p340
tp341
Rp342
ag3
(g4
g5
Vreal-madrid-vs-barcelona
p343
tp344
Rp345
ag3
(g4
g5
Vnanda
p346
tp347
Rp348
ag3
(g4
g5
Vcricket-score
p349
tp350
Rp351
ag3
(g4
g5
Vindia-vs-west-indies
p352
tp353
Rp354
ag3
(g4
g5
Vcric-info
p355
tp356
Rp357
ag3
(g4
g5
Vnagma
p358
tp359
Rp360
ag3
(g4
g5
Vcricket-score
p361
tp362
Rp363
ag3
(g4
g5
Vlive-cricket
p364
tp365
Rp366
ag3
(g4
g5
Vbhagat-singh
p367
tp368
Rp369
ag3
(g4
g5
Vchelsea
p370
tp371
Rp372
ag3
(g4
g5
Vcricket-live-streaming
p373
tp374
Rp375
asS'US'
p376
(lp377
g3
(g4
g5
Vtaco-bell-breakfast
p378
tp379
Rp380
ag3
(g4
g5
Vpsych
p381
tp382
Rp383
ag3
(g4
g5
Vboston-fire
p384
tp385
Rp386
ag3
(g4
g5
Vjared-allen
p387
tp388
Rp389
ag3
(g4
g5
Vleland-yee
p390
tp391
Rp392
ag3
(g4
g5
Vpopeyes
p393
tp394
Rp395
ag3
(g4
g5
Vare-you-the-one
p396
tp397
Rp398
ag3
(g4
g5
Vchief-keef
p399
tp400
Rp401
ag3
(g4
g5
Vmiami-heat
p402
tp403
Rp404
ag3
(g4
g5
Vreal-madrid
p405
tp406
Rp407
ag3
(g4
g5
Vgwyneth-paltrow
p408
tp409
Rp410
ag3
(g4
g5
Voculus-rift
p411
tp412
Rp413
ag3
(g4
g5
Vjeff-gordon
p414
tp415
Rp416
ag3
(g4
g5
Vdancing-with-the-stars
p417
tp418
Rp419
ag3
(g4
g5
Vhow-i-met-your-mother
p420
tp421
Rp422
ag3
(g4
g5
Vhtc-one-m8
p423
tp424
Rp425
ag3
(g4
g5
Vralph-wilson
p426
tp427
Rp428
ag3
(g4
g5
Vshakira
p429
tp430
Rp431
ag3
(g4
g5
Vthe-voice
p432
tp433
Rp434
ag3
(g4
g5
Vsean-avery
p435
tp436
Rp437
asS'France'
p438
(lp439
g3
(g4
g5
Vmarion-game
p440
tp441
Rp442
ag3
(g4
g5
Vanne-hidalgo
p443
tp444
Rp445
ag3
(g4
g5
Vvictor-valdes
p446
tp447
Rp448
ag3
(g4
g5
Vtop-chef
p449
tp450
Rp451
ag3
(g4
g5
Vamanda-lear
p452
tp453
Rp454
ag3
(g4
g5
Voculus-rift
p455
tp456
Rp457
ag3
(g4
g5
Vlittle-odessa
p458
tp459
Rp460
ag3
(g4
g5
Vgwyneth-paltrow
p461
tp462
Rp463
ag3
(g4
g5
Vseul-au-monde
p464
tp465
Rp466
ag3
(g4
g5
Veuromillions
p467
tp468
Rp469
ag3
(g4
g5
Vdysmorphophobie
p470
tp471
Rp472
ag3
(g4
g5
Vles-visiteurs
p473
tp474
Rp475
ag3
(g4
g5
Vles-gazelles
p476
tp477
Rp478
ag3
(g4
g5
Vhow-i-met-your-mother
p479
tp480
Rp481
ag3
(g4
g5
Vallo-cine
p482
tp483
Rp484
ag3
(g4
g5
Vcaptain-america-2
p485
tp486
Rp487
ag3
(g4
g5
Vkeanu-reeves
p488
tp489
Rp490
ag3
(g4
g5
Vmes-copines
p491
tp492
Rp493
ag3
(g4
g5
Vpresident-americain
p494
tp495
Rp496
ag3
(g4
g5
Vcolette
p497
tp498
Rp499
as.