(dp0
S'Brazil'
p1
(lp2
ccopy_reg
_reconstructor
p3
(cdjango.utils.safestring
SafeText
p4
c__builtin__
unicode
p5
Vprefeitura
p6
tp7
Rp8
ag3
(g4
g5
Vbrasil-x-alemanha
p9
tp10
Rp11
ag3
(g4
g5
Vcopa-do-mundo-semifinal
p12
tp13
Rp14
ag3
(g4
g5
Vicq
p15
tp16
Rp17
ag3
(g4
g5
Vmichelle-rodriguez
p18
tp19
Rp20
ag3
(g4
g5
Vhorario-do-jogo-do-brasil
p21
tp22
Rp23
ag3
(g4
g5
Vmc-daleste
p24
tp25
Rp26
ag3
(g4
g5
Vdi-stefano
p27
tp28
Rp29
ag3
(g4
g5
Vcazuza
p30
tp31
Rp32
ag3
(g4
g5
Vhorario-do-jogo-brasil-e-alemanha
p33
tp34
Rp35
ag3
(g4
g5
Vkid-bengala
p36
tp37
Rp38
ag3
(g4
g5
Vcara-delevingne
p39
tp40
Rp41
ag3
(g4
g5
Vsuperstar
p42
tp43
Rp44
ag3
(g4
g5
Vronda-rousey
p45
tp46
Rp47
ag3
(g4
g5
Vprogramacao-globo
p48
tp49
Rp50
ag3
(g4
g5
Vcombate
p51
tp52
Rp53
ag3
(g4
g5
Vformula-1
p54
tp55
Rp56
ag3
(g4
g5
Vlugano
p57
tp58
Rp59
ag3
(g4
g5
Vluta-ufc
p60
tp61
Rp62
ag3
(g4
g5
Vargentina-x-belgica
p63
tp64
Rp65
asS'Australia'
p66
(lp67
g3
(g4
g5
Vzac-efron
p68
tp69
Rp70
ag3
(g4
g5
Vlebron-james
p71
tp72
Rp73
ag3
(g4
g5
Vwimbledon-2014
p74
tp75
Rp76
ag3
(g4
g5
Vfederer
p77
tp78
Rp79
ag3
(g4
g5
Vgelato-messina
p80
tp81
Rp82
ag3
(g4
g5
Vf1
p83
tp84
Rp85
ag3
(g4
g5
Vwimbledon-results
p86
tp87
Rp88
ag3
(g4
g5
Vmy-gov
p89
tp90
Rp91
ag3
(g4
g5
Vformula-1
p92
tp93
Rp94
ag3
(g4
g5
Vjumper
p95
tp96
Rp97
ag3
(g4
g5
Vparramatta-stabbing
p98
tp99
Rp100
ag3
(g4
g5
Vharry-styles
p101
tp102
Rp103
ag3
(g4
g5
Vmiley-cyrus
p104
tp105
Rp106
ag3
(g4
g5
Vcaitlin-stasey
p107
tp108
Rp109
ag3
(g4
g5
Vhouse-rules
p110
tp111
Rp112
ag3
(g4
g5
Voscar-pistorius
p113
tp114
Rp115
ag3
(g4
g5
Vufc
p116
tp117
Rp118
ag3
(g4
g5
Vroger-federer
p119
tp120
Rp121
ag3
(g4
g5
Vmark-cavendish
p122
tp123
Rp124
ag3
(g4
g5
Vargentina
p125
tp126
Rp127
asS'Italy'
p128
(lp129
g3
(g4
g5
Vdodo
p130
tp131
Rp132
ag3
(g4
g5
Vinail
p133
tp134
Rp135
ag3
(g4
g5
Vagenzia-entrate
p136
tp137
Rp138
ag3
(g4
g5
Vashley-cole
p139
tp140
Rp141
ag3
(g4
g5
Vanna-tatangelo
p142
tp143
Rp144
ag3
(g4
g5
Vistanze-on-line
p145
tp146
Rp147
ag3
(g4
g5
Vcoca-cola-summer-festival-2014
p148
tp149
Rp150
ag3
(g4
g5
Vbrasile-germania
p151
tp152
Rp153
ag3
(g4
g5
Valessandra-amoroso
p154
tp155
Rp156
ag3
(g4
g5
Vlaura-pausini
p157
tp158
Rp159
ag3
(g4
g5
Vil-patriota
p160
tp161
Rp162
ag3
(g4
g5
Voppido-mamertina
p163
tp164
Rp165
ag3
(g4
g5
Vpink-floyd
p166
tp167
Rp168
ag3
(g4
g5
Vquesto-nostro-amore
p169
tp170
Rp171
ag3
(g4
g5
Valessia-marcuzzi
p172
tp173
Rp174
ag3
(g4
g5
Vperson-of-interest
p175
tp176
Rp177
ag3
(g4
g5
Vpato-inter
p178
tp179
Rp180
ag3
(g4
g5
Vsesso-e-potere
p181
tp182
Rp183
ag3
(g4
g5
Vachille
p184
tp185
Rp186
ag3
(g4
g5
Vmorata
p187
tp188
Rp189
asS'Spain'
p190
(lp191
g3
(g4
g5
Vbrasil-contra-alemania
p192
tp193
Rp194
ag3
(g4
g5
Vbeatriz-montanez
p195
tp196
Rp197
ag3
(g4
g5
Vbrasil-alemania
p198
tp199
Rp200
ag3
(g4
g5
Vdi-stefano
p201
tp202
Rp203
ag3
(g4
g5
Vterra-mitica
p204
tp205
Rp206
ag3
(g4
g5
Vtve
p207
tp208
Rp209
ag3
(g4
g5
Vmarilyn-monroe
p210
tp211
Rp212
ag3
(g4
g5
Volvido-hormigos
p213
tp214
Rp215
ag3
(g4
g5
Vtiempo-barcelona
p216
tp217
Rp218
ag3
(g4
g5
Vmichelle-rodriguez
p219
tp220
Rp221
ag3
(g4
g5
Vprimera-guerra-mundial
p222
tp223
Rp224
ag3
(g4
g5
Vnuria-roca
p225
tp226
Rp227
ag3
(g4
g5
Vcameron-diaz
p228
tp229
Rp230
ag3
(g4
g5
Vdi-estefano
p231
tp232
Rp233
ag3
(g4
g5
Vrosie-jones
p234
tp235
Rp236
ag3
(g4
g5
Vouka-leele
p237
tp238
Rp239
ag3
(g4
g5
Vjuan-bernat
p240
tp241
Rp242
ag3
(g4
g5
Vedurne
p243
tp244
Rp245
ag3
(g4
g5
Vpsoe
p246
tp247
Rp248
ag3
(g4
g5
Vangela-salvadores
p249
tp250
Rp251
asS'UK'
p252
(lp253
g3
(g4
g5
Vthe-100
p254
tp255
Rp256
ag3
(g4
g5
Vandy-murray
p257
tp258
Rp259
ag3
(g4
g5
Vjoint-enterprise
p260
tp261
Rp262
ag3
(g4
g5
Vzac-efron
p263
tp264
Rp265
ag3
(g4
g5
Vroger-federer
p266
tp267
Rp268
ag3
(g4
g5
Vtour-de-france-london-route
p269
tp270
Rp271
ag3
(g4
g5
Vlazar-markovic
p272
tp273
Rp274
ag3
(g4
g5
Vlance-armstrong
p275
tp276
Rp277
ag3
(g4
g5
Vufc
p278
tp279
Rp280
ag3
(g4
g5
Vtour-de-france-london
p281
tp282
Rp283
ag3
(g4
g5
Vdjokovic-girlfriend
p284
tp285
Rp286
ag3
(g4
g5
Vbbc-tennis
p287
tp288
Rp289
ag3
(g4
g5
Vvanessa-feltz
p290
tp291
Rp292
ag3
(g4
g5
Vlibertines-hyde-park
p293
tp294
Rp295
ag3
(g4
g5
Vhugh-jackman
p296
tp297
Rp298
ag3
(g4
g5
Vcastro
p299
tp300
Rp301
ag3
(g4
g5
Vcommon
p302
tp303
Rp304
ag3
(g4
g5
Vcommon-bbc-drama
p305
tp306
Rp307
ag3
(g4
g5
Vformula-1
p308
tp309
Rp310
ag3
(g4
g5
Vvictoria-beckham
p311
tp312
Rp313
asS'India'
p314
(lp315
g3
(g4
g5
Vhoney-singh
p316
tp317
Rp318
ag3
(g4
g5
Vdhoni
p319
tp320
Rp321
ag3
(g4
g5
Vwimbledon-2014
p322
tp323
Rp324
ag3
(g4
g5
Vjee-main
p325
tp326
Rp327
ag3
(g4
g5
Vwimbledon
p328
tp329
Rp330
ag3
(g4
g5
Vnetherland-vs-costa-rica
p331
tp332
Rp333
ag3
(g4
g5
Vargentina-vs-belgium
p334
tp335
Rp336
ag3
(g4
g5
Vwimbledon-2014
p337
tp338
Rp339
ag3
(g4
g5
Vwimbledon
p340
tp341
Rp342
ag3
(g4
g5
Vargentina
p343
tp344
Rp345
ag3
(g4
g5
Vfederer
p346
tp347
Rp348
ag3
(g4
g5
Vroger-federer
p349
tp350
Rp351
ag3
(g4
g5
Vrajasthan-university
p352
tp353
Rp354
ag3
(g4
g5
Vlive-score
p355
tp356
Rp357
ag3
(g4
g5
Vvijay-awards-2014
p358
tp359
Rp360
ag3
(g4
g5
Vfootball
p361
tp362
Rp363
ag3
(g4
g5
Vfifa
p364
tp365
Rp366
ag3
(g4
g5
Vmcc-vs-row
p367
tp368
Rp369
ag3
(g4
g5
Vbobby-jasoos
p370
tp371
Rp372
ag3
(g4
g5
Vlekar-hum-deewana-dil
p373
tp374
Rp375
asS'US'
p376
(lp377
g3
(g4
g5
Veric-hill
p378
tp379
Rp380
ag3
(g4
g5
Vjosh-mcroberts
p381
tp382
Rp383
ag3
(g4
g5
Vmiley-cyrus
p384
tp385
Rp386
ag3
(g4
g5
Vwimbledon-2014
p387
tp388
Rp389
ag3
(g4
g5
Vnascar
p390
tp391
Rp392
ag3
(g4
g5
Vdjokovic
p393
tp394
Rp395
ag3
(g4
g5
Vzac-efron
p396
tp397
Rp398
ag3
(g4
g5
Vbj-penn
p399
tp400
Rp401
ag3
(g4
g5
Vwitches-of-east-end
p402
tp403
Rp404
ag3
(g4
g5
Vronda-rousey
p405
tp406
Rp407
ag3
(g4
g5
Veugenie-bouchard
p408
tp409
Rp410
ag3
(g4
g5
Vtour-de-france
p411
tp412
Rp413
ag3
(g4
g5
Vtim-krul
p414
tp415
Rp416
ag3
(g4
g5
Vjosh-gordon
p417
tp418
Rp419
ag3
(g4
g5
Vjessica-simpson
p420
tp421
Rp422
ag3
(g4
g5
Vaddison-russell
p423
tp424
Rp425
ag3
(g4
g5
Vworld-cup
p426
tp427
Rp428
ag3
(g4
g5
Vnetherlands-vs-costa-rica
p429
tp430
Rp431
ag3
(g4
g5
Vargentina-vs-belgium
p432
tp433
Rp434
ag3
(g4
g5
Vhurricane-arthur
p435
tp436
Rp437
asS'France'
p438
(lp439
g3
(g4
g5
Vresultat-brevet-2014
p440
tp441
Rp442
ag3
(g4
g5
Vbilly-elliot
p443
tp444
Rp445
ag3
(g4
g5
Vnabilla
p446
tp447
Rp448
ag3
(g4
g5
Vresultat-bac
p449
tp450
Rp451
ag3
(g4
g5
Vwimbledon
p452
tp453
Rp454
ag3
(g4
g5
Vnadia-cope
p455
tp456
Rp457
ag3
(g4
g5
Vrio
p458
tp459
Rp460
ag3
(g4
g5
Vpays-bas-costa-rica
p461
tp462
Rp463
ag3
(g4
g5
Vargentine-belgique
p464
tp465
Rp466
ag3
(g4
g5
Vtour-de-france-2014
p467
tp468
Rp469
ag3
(g4
g5
Vfifa
p470
tp471
Rp472
ag3
(g4
g5
Vtour-de-france
p473
tp474
Rp475
ag3
(g4
g5
Vfoot
p476
tp477
Rp478
ag3
(g4
g5
Vfederer
p479
tp480
Rp481
ag3
(g4
g5
Veugenie-bouchard
p482
tp483
Rp484
ag3
(g4
g5
Vzuniga
p485
tp486
Rp487
ag3
(g4
g5
Vroger-federer
p488
tp489
Rp490
ag3
(g4
g5
Vrmc-sport
p491
tp492
Rp493
ag3
(g4
g5
Vcoupe-du-monde-2014
p494
tp495
Rp496
ag3
(g4
g5
Vfrance-allemagne
p497
tp498
Rp499
as.