(dp0
S'Brazil'
p1
(lp2
ccopy_reg
_reconstructor
p3
(cdjango.utils.safestring
SafeText
p4
c__builtin__
unicode
p5
Vencerramento-da-copa-2014
p6
tp7
Rp8
ag3
(g4
g5
Vshakira
p9
tp10
Rp11
ag3
(g4
g5
Vmessi
p12
tp13
Rp14
ag3
(g4
g5
Vbandeira-da-alemanha
p15
tp16
Rp17
ag3
(g4
g5
Vschweinsteiger
p18
tp19
Rp20
ag3
(g4
g5
Vmario-gotze
p21
tp22
Rp23
ag3
(g4
g5
Vole
p24
tp25
Rp26
ag3
(g4
g5
Vmanuel-neuer
p27
tp28
Rp29
ag3
(g4
g5
Vbrasil
p30
tp31
Rp32
ag3
(g4
g5
Vgotze
p33
tp34
Rp35
ag3
(g4
g5
Vdia-do-rock
p36
tp37
Rp38
ag3
(g4
g5
Vselecao-brasileira
p39
tp40
Rp41
ag3
(g4
g5
Vneuer
p42
tp43
Rp44
ag3
(g4
g5
Vmick-jagger
p45
tp46
Rp47
ag3
(g4
g5
Vgermany
p48
tp49
Rp50
ag3
(g4
g5
Vgisele-bundchen
p51
tp52
Rp53
ag3
(g4
g5
Vdia-mundial-do-rock
p54
tp55
Rp56
ag3
(g4
g5
Vmiroslav-klose
p57
tp58
Rp59
ag3
(g4
g5
Vklose
p60
tp61
Rp62
ag3
(g4
g5
Vmaradona
p63
tp64
Rp65
asS'Australia'
p66
(lp67
g3
(g4
g5
Vsbs
p68
tp69
Rp70
ag3
(g4
g5
Vbastille-day
p71
tp72
Rp73
ag3
(g4
g5
Vworld-cup-results
p74
tp75
Rp76
ag3
(g4
g5
Vmario-gotze-girlfriend
p77
tp78
Rp79
ag3
(g4
g5
Vsbs-world-cup
p80
tp81
Rp82
ag3
(g4
g5
Vchanning-tatum
p83
tp84
Rp85
ag3
(g4
g5
Vbaden-clay
p86
tp87
Rp88
ag3
(g4
g5
Vworld-cup-live
p89
tp90
Rp91
ag3
(g4
g5
Vworld-cup-2014
p92
tp93
Rp94
ag3
(g4
g5
Vian-thorpe
p95
tp96
Rp97
ag3
(g4
g5
Vgaza
p98
tp99
Rp100
ag3
(g4
g5
Vkylie-minogue
p101
tp102
Rp103
ag3
(g4
g5
Vheston-blumenthal
p104
tp105
Rp106
ag3
(g4
g5
Vwww-google
p107
tp108
Rp109
ag3
(g4
g5
Vgabi-grecko
p110
tp111
Rp112
ag3
(g4
g5
Vmotogp
p113
tp114
Rp115
ag3
(g4
g5
Vdante-exum
p116
tp117
Rp118
ag3
(g4
g5
Vthe-voice-kids
p119
tp120
Rp121
ag3
(g4
g5
Vsunday-night
p122
tp123
Rp124
ag3
(g4
g5
Vlebron-james
p125
tp126
Rp127
asS'Italy'
p128
(lp129
g3
(g4
g5
Vmerkel
p130
tp131
Rp132
ag3
(g4
g5
Vmondiali-di-calcio
p133
tp134
Rp135
ag3
(g4
g5
Vrizzoli
p136
tp137
Rp138
ag3
(g4
g5
Vcoppa-del-mondo-2014
p139
tp140
Rp141
ag3
(g4
g5
Vfinale-della-coppa-del-mondo-2014
p142
tp143
Rp144
ag3
(g4
g5
Vgianluca-grignani
p145
tp146
Rp147
ag3
(g4
g5
Vklose
p148
tp149
Rp150
ag3
(g4
g5
Vneuer
p151
tp152
Rp153
ag3
(g4
g5
Vmondiali-germania
p154
tp155
Rp156
ag3
(g4
g5
Vargentina-olanda
p157
tp158
Rp159
ag3
(g4
g5
Vshakira
p160
tp161
Rp162
ag3
(g4
g5
Vhiguain
p163
tp164
Rp165
ag3
(g4
g5
Vkramer
p166
tp167
Rp168
ag3
(g4
g5
Vdisturbia
p169
tp170
Rp171
ag3
(g4
g5
Vdiretta-rai
p172
tp173
Rp174
ag3
(g4
g5
Vthomas-muller
p175
tp176
Rp177
ag3
(g4
g5
Vlahm
p178
tp179
Rp180
ag3
(g4
g5
Vmotogp-streaming
p181
tp182
Rp183
ag3
(g4
g5
Vmascherano
p184
tp185
Rp186
ag3
(g4
g5
Vleo-messi
p187
tp188
Rp189
asS'Spain'
p190
(lp191
g3
(g4
g5
Vcopa-mundial
p192
tp193
Rp194
ag3
(g4
g5
Vschweinsteiger
p195
tp196
Rp197
ag3
(g4
g5
Vtarjeta-roja
p198
tp199
Rp200
ag3
(g4
g5
Vole
p201
tp202
Rp203
ag3
(g4
g5
Vmundial-de-futbol
p204
tp205
Rp206
ag3
(g4
g5
Vcampeones-del-mundo-de-futbol
p207
tp208
Rp209
ag3
(g4
g5
Vmaradona
p210
tp211
Rp212
ag3
(g4
g5
Vkun-aguero
p213
tp214
Rp215
ag3
(g4
g5
Vhummels
p216
tp217
Rp218
ag3
(g4
g5
Vgoetze
p219
tp220
Rp221
ag3
(g4
g5
Vboateng
p222
tp223
Rp224
ag3
(g4
g5
Vcristo-redentor
p225
tp226
Rp227
ag3
(g4
g5
Vphilipp-lahm
p228
tp229
Rp230
ag3
(g4
g5
Vtodos-estan-bien
p231
tp232
Rp233
ag3
(g4
g5
Vbiglia
p234
tp235
Rp236
ag3
(g4
g5
Velecciones-psoe-2014
p237
tp238
Rp239
ag3
(g4
g5
Vsergio-romero
p240
tp241
Rp242
ag3
(g4
g5
Vrio-de-janeiro
p243
tp244
Rp245
ag3
(g4
g5
Vcopa-del-mundo-2014
p246
tp247
Rp248
ag3
(g4
g5
Vpedro-sanchez
p249
tp250
Rp251
asS'UK'
p252
(lp253
g3
(g4
g5
Vcheryl-cole
p254
tp255
Rp256
ag3
(g4
g5
Valan-hansen
p257
tp258
Rp259
ag3
(g4
g5
Vfootball-results
p260
tp261
Rp262
ag3
(g4
g5
Vkramer
p263
tp264
Rp265
ag3
(g4
g5
Vgerman-flag
p266
tp267
Rp268
ag3
(g4
g5
Vpaolo-nutini
p269
tp270
Rp271
ag3
(g4
g5
Vpalacio
p272
tp273
Rp274
ag3
(g4
g5
Vnorth-korea
p275
tp276
Rp277
ag3
(g4
g5
Vnorth-korea-world-cup
p278
tp279
Rp280
ag3
(g4
g5
Vmotogp
p281
tp282
Rp283
ag3
(g4
g5
Vrio-ferdinand
p284
tp285
Rp286
ag3
(g4
g5
Vworld-cup-2014
p287
tp288
Rp289
ag3
(g4
g5
Vbrazil-vs-holland
p290
tp291
Rp292
ag3
(g4
g5
Vtommy-ramone
p293
tp294
Rp295
ag3
(g4
g5
Vian-thorpe
p296
tp297
Rp298
ag3
(g4
g5
Valan-hansen
p299
tp300
Rp301
ag3
(g4
g5
Vbiffy-clyro
p302
tp303
Rp304
ag3
(g4
g5
Vanthony-joshua
p305
tp306
Rp307
ag3
(g4
g5
Vshakira
p308
tp309
Rp310
ag3
(g4
g5
Vdave-legeno
p311
tp312
Rp313
asS'India'
p314
(lp315
g3
(g4
g5
Vshakira
p316
tp317
Rp318
ag3
(g4
g5
Vfifa-world-cup
p319
tp320
Rp321
ag3
(g4
g5
Vhumpty-sharma-ki-dulhania
p322
tp323
Rp324
ag3
(g4
g5
Vguru-purnima
p325
tp326
Rp327
ag3
(g4
g5
Visrael
p328
tp329
Rp330
ag3
(g4
g5
Vsingham-returns
p331
tp332
Rp333
ag3
(g4
g5
Vbudget-2014
p334
tp335
Rp336
ag3
(g4
g5
Vzohra-sehgal
p337
tp338
Rp339
ag3
(g4
g5
Vargentina
p340
tp341
Rp342
ag3
(g4
g5
Vgaza
p343
tp344
Rp345
ag3
(g4
g5
Vbrazil-vs-netherlands
p346
tp347
Rp348
ag3
(g4
g5
Vdawn-of-the-planet-of-the-apes
p349
tp350
Rp351
ag3
(g4
g5
Vlai-bhari
p352
tp353
Rp354
ag3
(g4
g5
Vpune-blast
p355
tp356
Rp357
ag3
(g4
g5
Vnetherlands-vs-argentina
p358
tp359
Rp360
ag3
(g4
g5
Vlive-cricket-score
p361
tp362
Rp363
ag3
(g4
g5
Vsbi
p364
tp365
Rp366
ag3
(g4
g5
Vespncricinfo
p367
tp368
Rp369
ag3
(g4
g5
Vespn
p370
tp371
Rp372
ag3
(g4
g5
Vbrazil
p373
tp374
Rp375
asS'US'
p376
(lp377
g3
(g4
g5
Vworld-cup-2018
p378
tp379
Rp380
ag3
(g4
g5
Vthe-strain
p381
tp382
Rp383
ag3
(g4
g5
Vshakira
p384
tp385
Rp386
ag3
(g4
g5
Vjennette-mccurdy
p387
tp388
Rp389
ag3
(g4
g5
Vdavid-beckham
p390
tp391
Rp392
ag3
(g4
g5
Vlilit-avagyan
p393
tp394
Rp395
ag3
(g4
g5
Vgerman-flag
p396
tp397
Rp398
ag3
(g4
g5
Vsami-khedira
p399
tp400
Rp401
ag3
(g4
g5
Vcristiano-ronaldo
p402
tp403
Rp404
ag3
(g4
g5
Vpele
p405
tp406
Rp407
ag3
(g4
g5
Vdashcon
p408
tp409
Rp410
ag3
(g4
g5
Vabc
p411
tp412
Rp413
ag3
(g4
g5
Vworld-cup
p414
tp415
Rp416
ag3
(g4
g5
Vtommy-ramone
p417
tp418
Rp419
ag3
(g4
g5
Vbrazil-vs-netherlands
p420
tp421
Rp422
ag3
(g4
g5
Vcanelo-vs-lara
p423
tp424
Rp425
ag3
(g4
g5
Vorange-is-the-new-black
p426
tp427
Rp428
ag3
(g4
g5
Vian-thorpe
p429
tp430
Rp431
ag3
(g4
g5
Vpaul-pierce
p432
tp433
Rp434
ag3
(g4
g5
Vjean-segura
p435
tp436
Rp437
asS'France'
p438
(lp439
g3
(g4
g5
Vcoupe-du-monde-2014
p440
tp441
Rp442
ag3
(g4
g5
Vfifa
p443
tp444
Rp445
ag3
(g4
g5
Vtf1-direct
p446
tp447
Rp448
ag3
(g4
g5
V14-juillet
p449
tp450
Rp451
ag3
(g4
g5
Vneuer
p452
tp453
Rp454
ag3
(g4
g5
Vshakira
p455
tp456
Rp457
ag3
(g4
g5
Vdi-maria
p458
tp459
Rp460
ag3
(g4
g5
Vmuller
p461
tp462
Rp463
ag3
(g4
g5
Vtony-gallopin
p464
tp465
Rp466
ag3
(g4
g5
Vdavid-luiz
p467
tp468
Rp469
ag3
(g4
g5
Vschweinsteiger
p470
tp471
Rp472
ag3
(g4
g5
Vle-grand-pardon
p473
tp474
Rp475
ag3
(g4
g5
Vscolari
p476
tp477
Rp478
ag3
(g4
g5
Vmaradona
p479
tp480
Rp481
ag3
(g4
g5
Vmaracana
p482
tp483
Rp484
ag3
(g4
g5
Vgisele-bundchen
p485
tp486
Rp487
ag3
(g4
g5
Vlavezzi
p488
tp489
Rp490
ag3
(g4
g5
Vkramer
p491
tp492
Rp493
ag3
(g4
g5
Vmascherano
p494
tp495
Rp496
ag3
(g4
g5
Vbresil-2014
p497
tp498
Rp499
as.