(dp0
S'Brazil'
p1
(lp2
ccopy_reg
_reconstructor
p3
(cdjango.utils.safestring
SafeText
p4
c__builtin__
unicode
p5
Vresumo-da-novela-imperio
p6
tp7
Rp8
ag3
(g4
g5
Vwhatsapp
p9
tp10
Rp11
ag3
(g4
g5
Vgoogle-play
p12
tp13
Rp14
ag3
(g4
g5
Vmenino-atacado-por-tigre
p15
tp16
Rp17
ag3
(g4
g5
Vdaniel-cormier
p18
tp19
Rp20
ag3
(g4
g5
Vboogie-oogie
p21
tp22
Rp23
ag3
(g4
g5
Vinternet-banking
p24
tp25
Rp26
ag3
(g4
g5
Vedir-macedo
p27
tp28
Rp29
ag3
(g4
g5
Vjohn-venn
p30
tp31
Rp32
ag3
(g4
g5
Vtele-sena
p33
tp34
Rp35
ag3
(g4
g5
Vluana-piovani
p36
tp37
Rp38
ag3
(g4
g5
Vfgv
p39
tp40
Rp41
ag3
(g4
g5
Vhp
p42
tp43
Rp44
ag3
(g4
g5
Voab
p45
tp46
Rp47
ag3
(g4
g5
Vclaudia-abreu
p48
tp49
Rp50
ag3
(g4
g5
Vparis-hilton
p51
tp52
Rp53
ag3
(g4
g5
Vesposa
p54
tp55
Rp56
ag3
(g4
g5
Vlaura-neiva
p57
tp58
Rp59
ag3
(g4
g5
Vpaul-george
p60
tp61
Rp62
ag3
(g4
g5
Vroberto-carlos
p63
tp64
Rp65
asS'Australia'
p66
(lp67
g3
(g4
g5
Vmike-carlton
p68
tp69
Rp70
ag3
(g4
g5
Vliverpool
p71
tp72
Rp73
ag3
(g4
g5
Vairbnb
p74
tp75
Rp76
ag3
(g4
g5
Variana-grande
p77
tp78
Rp79
ag3
(g4
g5
Vmarlon-wayans
p80
tp81
Rp82
ag3
(g4
g5
Vgenevieve-lacaze
p83
tp84
Rp85
ag3
(g4
g5
Vjohn-venn
p86
tp87
Rp88
ag3
(g4
g5
Vx-factor
p89
tp90
Rp91
ag3
(g4
g5
Vgammy
p92
tp93
Rp94
ag3
(g4
g5
Vmichael-johns
p95
tp96
Rp97
ag3
(g4
g5
Vstudio-ghibli
p98
tp99
Rp100
ag3
(g4
g5
Vjohn-legend
p101
tp102
Rp103
ag3
(g4
g5
Vsoundwave-2015
p104
tp105
Rp106
ag3
(g4
g5
Vthe-voice-kids
p107
tp108
Rp109
ag3
(g4
g5
Vekka
p110
tp111
Rp112
ag3
(g4
g5
Vpradaxa
p113
tp114
Rp115
ag3
(g4
g5
Vnicole-scherzinger
p116
tp117
Rp118
ag3
(g4
g5
Vpga-tour
p119
tp120
Rp121
ag3
(g4
g5
Vhockeyroos
p122
tp123
Rp124
ag3
(g4
g5
Vmeningococcal
p125
tp126
Rp127
asS'Italy'
p128
(lp129
g3
(g4
g5
Vanticipazioni-beautiful
p130
tp131
Rp132
ag3
(g4
g5
Valessandra-moretti
p133
tp134
Rp135
ag3
(g4
g5
Vtempesta-solare
p136
tp137
Rp138
ag3
(g4
g5
Vjohn-venn
p139
tp140
Rp141
ag3
(g4
g5
Vgrease
p142
tp143
Rp144
ag3
(g4
g5
Vwhatsapp
p145
tp146
Rp147
ag3
(g4
g5
Vpiano-giovani-sicilia
p148
tp149
Rp150
ag3
(g4
g5
Vosvaldo
p151
tp152
Rp153
ag3
(g4
g5
Vanna-munafo
p154
tp155
Rp156
ag3
(g4
g5
Vrafa-marquez
p157
tp158
Rp159
ag3
(g4
g5
Vmarilyn-monroe
p160
tp161
Rp162
ag3
(g4
g5
Vlega-pro
p163
tp164
Rp165
ag3
(g4
g5
Vsan-domenico
p166
tp167
Rp168
ag3
(g4
g5
Vstefano-bonilli
p169
tp170
Rp171
ag3
(g4
g5
Vrefrontolo
p172
tp173
Rp174
ag3
(g4
g5
Vla-cosa
p175
tp176
Rp177
ag3
(g4
g5
Vla-tribuna-di-treviso
p178
tp179
Rp180
ag3
(g4
g5
Vl-uomo-nell-ombra
p181
tp182
Rp183
ag3
(g4
g5
Vviaggi-di-nozze
p184
tp185
Rp186
ag3
(g4
g5
Vla-cosa-film
p187
tp188
Rp189
asS'Spain'
p190
(lp191
g3
(g4
g5
Vnorma-duval
p192
tp193
Rp194
ag3
(g4
g5
Vkaley-cuoco
p195
tp196
Rp197
ag3
(g4
g5
Vjohn-venn
p198
tp199
Rp200
ag3
(g4
g5
Vwhatsapp
p201
tp202
Rp203
ag3
(g4
g5
Vnatalia-sanchez
p204
tp205
Rp206
ag3
(g4
g5
Vwhatsapp-plus
p207
tp208
Rp209
ag3
(g4
g5
Vgoogle-play
p210
tp211
Rp212
ag3
(g4
g5
Vpodemos
p213
tp214
Rp215
ag3
(g4
g5
Vgwyneth-paltrow
p216
tp217
Rp218
ag3
(g4
g5
Vlos-padres-de-el
p219
tp220
Rp221
ag3
(g4
g5
Vvermaelen
p222
tp223
Rp224
ag3
(g4
g5
Vmadame-de-rosa
p225
tp226
Rp227
ag3
(g4
g5
Vauryn
p228
tp229
Rp230
ag3
(g4
g5
Vparis-hilton
p231
tp232
Rp233
ag3
(g4
g5
Vstudio-ghibli
p234
tp235
Rp236
ag3
(g4
g5
Vkeylor-navas
p237
tp238
Rp239
ag3
(g4
g5
Vmegan-fox
p240
tp241
Rp242
ag3
(g4
g5
Vtransformers
p243
tp244
Rp245
ag3
(g4
g5
Vjesus-calleja
p246
tp247
Rp248
ag3
(g4
g5
Vnino-bravo
p249
tp250
Rp251
asS'UK'
p252
(lp253
g3
(g4
g5
Vstv
p254
tp255
Rp256
ag3
(g4
g5
Vmanchester-airport
p257
tp258
Rp259
ag3
(g4
g5
Vbaroness-warsi
p260
tp261
Rp262
ag3
(g4
g5
Vceramic-poppies-tower-of-london
p263
tp264
Rp265
ag3
(g4
g5
Vin-the-club
p266
tp267
Rp268
ag3
(g4
g5
Vbernie-ecclestone
p269
tp270
Rp271
ag3
(g4
g5
Vinbetweeners
p272
tp273
Rp274
ag3
(g4
g5
Vhurricane-bertha
p275
tp276
Rp277
ag3
(g4
g5
Vtower-of-london
p278
tp279
Rp280
ag3
(g4
g5
Vlights-out
p281
tp282
Rp283
ag3
(g4
g5
Vman-utd-vs-liverpool
p284
tp285
Rp286
ag3
(g4
g5
Vkatie-price
p287
tp288
Rp289
ag3
(g4
g5
Vworld-war-1
p290
tp291
Rp292
ag3
(g4
g5
Vjohn-venn
p293
tp294
Rp295
ag3
(g4
g5
Vhulk-hogan
p296
tp297
Rp298
ag3
(g4
g5
Vww1
p299
tp300
Rp301
ag3
(g4
g5
Vjamie-moore
p302
tp303
Rp304
ag3
(g4
g5
Vkaley-cuoco
p305
tp306
Rp307
ag3
(g4
g5
Vkylie-minogue
p308
tp309
Rp310
ag3
(g4
g5
Vemma-pooley
p311
tp312
Rp313
asS'India'
p314
(lp315
g3
(g4
g5
Vsmita-talwalkar
p316
tp317
Rp318
ag3
(g4
g5
Vhalf-girlfriend
p319
tp320
Rp321
ag3
(g4
g5
Vebola
p322
tp323
Rp324
ag3
(g4
g5
Vwhatsapp
p325
tp326
Rp327
ag3
(g4
g5
Vkishore-kumar
p328
tp329
Rp330
ag3
(g4
g5
Vfriendship-day
p331
tp332
Rp333
ag3
(g4
g5
Vfriendship
p334
tp335
Rp336
ag3
(g4
g5
Vhappy-friendship-day-2014
p337
tp338
Rp339
ag3
(g4
g5
Vfriend-ship-day
p340
tp341
Rp342
ag3
(g4
g5
Vfriendship-band
p343
tp344
Rp345
ag3
(g4
g5
Vfriends
p346
tp347
Rp348
ag3
(g4
g5
Vebola
p349
tp350
Rp351
ag3
(g4
g5
Vdipika-pallikal
p352
tp353
Rp354
ag3
(g4
g5
Vfriendship-day
p355
tp356
Rp357
ag3
(g4
g5
Vhappy-friendship-day
p358
tp359
Rp360
ag3
(g4
g5
Vfriendship-day-quotes
p361
tp362
Rp363
ag3
(g4
g5
Vfriendship-day-2014
p364
tp365
Rp366
ag3
(g4
g5
Vpk
p367
tp368
Rp369
ag3
(g4
g5
Vfriendship
p370
tp371
Rp372
ag3
(g4
g5
Vfriendship-day-date
p373
tp374
Rp375
asS'US'
p376
(lp377
g3
(g4
g5
Vbecky-hammon
p378
tp379
Rp380
ag3
(g4
g5
Vkate-upton
p381
tp382
Rp383
ag3
(g4
g5
Volivia-wilde
p384
tp385
Rp386
ag3
(g4
g5
Vdivergent
p387
tp388
Rp389
ag3
(g4
g5
Vjerry-jones
p390
tp391
Rp392
ag3
(g4
g5
Vjennifer-huston
p393
tp394
Rp395
ag3
(g4
g5
Vjon-jones
p396
tp397
Rp398
ag3
(g4
g5
Vjames-brady
p399
tp400
Rp401
ag3
(g4
g5
Vbachelor-in-paradise
p402
tp403
Rp404
ag3
(g4
g5
Vdavid-wilson
p405
tp406
Rp407
ag3
(g4
g5
Vbig-bang-theory
p408
tp409
Rp410
ag3
(g4
g5
Vflawless-remix
p411
tp412
Rp413
ag3
(g4
g5
Vtiger-woods
p414
tp415
Rp416
ag3
(g4
g5
Vhall-of-fame-game-2014
p417
tp418
Rp419
ag3
(g4
g5
Vjohn-venn
p420
tp421
Rp422
ag3
(g4
g5
Vjim-kelly
p423
tp424
Rp425
ag3
(g4
g5
Vanwan-glover
p426
tp427
Rp428
ag3
(g4
g5
Vjim-kelly-cancer
p429
tp430
Rp431
ag3
(g4
g5
Valexandria-chery
p432
tp433
Rp434
ag3
(g4
g5
Vmichael-johns
p435
tp436
Rp437
asS'France'
p438
(lp439
g3
(g4
g5
Vlavezzi
p440
tp441
Rp442
ag3
(g4
g5
Vjohn-venn
p443
tp444
Rp445
ag3
(g4
g5
Vaxelle-francine
p446
tp447
Rp448
ag3
(g4
g5
Vcorinne-diacre
p449
tp450
Rp451
ag3
(g4
g5
Vle-fils-a-jo
p452
tp453
Rp454
ag3
(g4
g5
Vyvette-lebon
p455
tp456
Rp457
ag3
(g4
g5
Vluc-besson
p458
tp459
Rp460
ag3
(g4
g5
Vpaul-george
p461
tp462
Rp463
ag3
(g4
g5
Vtrophee-des-champions
p464
tp465
Rp466
ag3
(g4
g5
Vemirates-cup
p467
tp468
Rp469
ag3
(g4
g5
Vluzenac
p470
tp471
Rp472
ag3
(g4
g5
Vcomtesse-de-segur
p473
tp474
Rp475
ag3
(g4
g5
Vfauve-hautot
p476
tp477
Rp478
ag3
(g4
g5
Vbison-fute
p479
tp480
Rp481
ag3
(g4
g5
Vtrafic-info
p482
tp483
Rp484
ag3
(g4
g5
Vldj
p485
tp486
Rp487
ag3
(g4
g5
Vaudrey-lamy
p488
tp489
Rp490
ag3
(g4
g5
Vtocsin
p491
tp492
Rp493
ag3
(g4
g5
Vjean-jaures
p494
tp495
Rp496
ag3
(g4
g5
Vlouis-de-funes
p497
tp498
Rp499
as.