(dp0
S'Brazil'
p1
(lp2
ccopy_reg
_reconstructor
p3
(cdjango.utils.safestring
SafeText
p4
c__builtin__
unicode
p5
Venem
p6
tp7
Rp8
ag3
(g4
g5
Vayrton-senna
p9
tp10
Rp11
ag3
(g4
g5
Vparada-gay
p12
tp13
Rp14
ag3
(g4
g5
Vthiaguinho
p15
tp16
Rp17
ag3
(g4
g5
Vstar-wars
p18
tp19
Rp20
ag3
(g4
g5
Vvalesca-popozuda
p21
tp22
Rp23
ag3
(g4
g5
Vaudrey-hepburn
p24
tp25
Rp26
ag3
(g4
g5
Vmae-dinah
p27
tp28
Rp29
ag3
(g4
g5
Vfeirao-da-caixa
p30
tp31
Rp32
ag3
(g4
g5
Vatletico-mineiro
p33
tp34
Rp35
ag3
(g4
g5
Vjames-franco
p36
tp37
Rp38
ag3
(g4
g5
Vtitanic
p39
tp40
Rp41
ag3
(g4
g5
Vdia-do-trabalho
p42
tp43
Rp44
ag3
(g4
g5
Vo-espetacular-homem-aranha-2
p45
tp46
Rp47
ag3
(g4
g5
Vayrton-senna
p48
tp49
Rp50
ag3
(g4
g5
Vchelsea
p51
tp52
Rp53
ag3
(g4
g5
Vcruzeiro
p54
tp55
Rp56
ag3
(g4
g5
Vdia-do-trabalhador
p57
tp58
Rp59
ag3
(g4
g5
Vesporte-interativo
p60
tp61
Rp62
ag3
(g4
g5
Vbob-hoskins
p63
tp64
Rp65
asS'Australia'
p66
(lp67
g3
(g4
g5
Vmasterchef-australia
p68
tp69
Rp70
ag3
(g4
g5
Vkatie-price
p71
tp72
Rp73
ag3
(g4
g5
Vzac-efron
p74
tp75
Rp76
ag3
(g4
g5
Vroger-federer
p77
tp78
Rp79
ag3
(g4
g5
Vmiranda-fugate
p80
tp81
Rp82
ag3
(g4
g5
Vmonica-lewinsky
p83
tp84
Rp85
ag3
(g4
g5
Vkylie-minogue
p86
tp87
Rp88
ag3
(g4
g5
Vresurrection
p89
tp90
Rp91
ag3
(g4
g5
Vkate-upton
p92
tp93
Rp94
ag3
(g4
g5
Vblake-lively
p95
tp96
Rp97
ag3
(g4
g5
Veurovision-2014
p98
tp99
Rp100
ag3
(g4
g5
Vmanchester-united
p101
tp102
Rp103
ag3
(g4
g5
Vmiley-cyrus
p104
tp105
Rp106
ag3
(g4
g5
Vmauritius
p107
tp108
Rp109
ag3
(g4
g5
Vmet-gala-2014
p110
tp111
Rp112
ag3
(g4
g5
Vliverpool
p113
tp114
Rp115
ag3
(g4
g5
Vcinco-de-mayo
p116
tp117
Rp118
ag3
(g4
g5
Vrevenge
p119
tp120
Rp121
ag3
(g4
g5
Vato
p122
tp123
Rp124
ag3
(g4
g5
Vliverpool-fc
p125
tp126
Rp127
asS'Italy'
p128
(lp129
g3
(g4
g5
Vpaola-bacchiddu
p130
tp131
Rp132
ag3
(g4
g5
V5-maggio
p133
tp134
Rp135
ag3
(g4
g5
Vmoreno
p136
tp137
Rp138
ag3
(g4
g5
Vantonello-venditti
p139
tp140
Rp141
ag3
(g4
g5
Vreal-madrid
p142
tp143
Rp144
ag3
(g4
g5
Vluca-argentero
p145
tp146
Rp147
ag3
(g4
g5
Vmilan-inter
p148
tp149
Rp150
ag3
(g4
g5
Vcoppa-italia
p151
tp152
Rp153
ag3
(g4
g5
Vjuventus
p154
tp155
Rp156
ag3
(g4
g5
Vornella-vanoni
p157
tp158
Rp159
ag3
(g4
g5
Vdaniele-de-santis
p160
tp161
Rp162
ag3
(g4
g5
Vnapoli-calcio
p163
tp164
Rp165
ag3
(g4
g5
Vcatania-roma
p166
tp167
Rp168
ag3
(g4
g5
Vamici
p169
tp170
Rp171
ag3
(g4
g5
Vspeziale-libero
p172
tp173
Rp174
ag3
(g4
g5
Vlucia-annibali
p175
tp176
Rp177
ag3
(g4
g5
Vnani
p178
tp179
Rp180
ag3
(g4
g5
Vaudrey-hepburn
p181
tp182
Rp183
ag3
(g4
g5
Vperugia-calcio
p184
tp185
Rp186
ag3
(g4
g5
Vdaspo
p187
tp188
Rp189
asS'Spain'
p190
(lp191
g3
(g4
g5
Vagencia-tributaria
p192
tp193
Rp194
ag3
(g4
g5
Vonce
p195
tp196
Rp197
ag3
(g4
g5
Vcita-previa-renta-2013
p198
tp199
Rp200
ag3
(g4
g5
Vdeclaracion-de-la-renta
p201
tp202
Rp203
ag3
(g4
g5
Vemilio-aragon
p204
tp205
Rp206
ag3
(g4
g5
Vgoogle-glass
p207
tp208
Rp209
ag3
(g4
g5
Velena-baltacha
p210
tp211
Rp212
ag3
(g4
g5
Vaudrey-hepburn
p213
tp214
Rp215
ag3
(g4
g5
Vreal-madrid
p216
tp217
Rp218
ag3
(g4
g5
Vdia-de-la-madre
p219
tp220
Rp221
ag3
(g4
g5
Vclasificacion-liga
p222
tp223
Rp224
ag3
(g4
g5
Vsorteo-once
p225
tp226
Rp227
ag3
(g4
g5
Vonce-sorteos
p228
tp229
Rp230
ag3
(g4
g5
Vhacienda
p231
tp232
Rp233
ag3
(g4
g5
Vsara-carbonero
p234
tp235
Rp236
ag3
(g4
g5
Vmarc-marquez
p237
tp238
Rp239
ag3
(g4
g5
Vfelicitaciones-dia-de-la-madre
p240
tp241
Rp242
ag3
(g4
g5
Vmartina-stoessel
p243
tp244
Rp245
ag3
(g4
g5
Vtrafico
p246
tp247
Rp248
ag3
(g4
g5
Vkeylor-navas
p249
tp250
Rp251
asS'UK'
p252
(lp253
g3
(g4
g5
Vkatie-price
p254
tp255
Rp256
ag3
(g4
g5
Vroger-federer
p257
tp258
Rp259
ag3
(g4
g5
Vmonica-lewinsky
p260
tp261
Rp262
ag3
(g4
g5
Vpizza-express
p263
tp264
Rp265
ag3
(g4
g5
Vgoblin-shark
p266
tp267
Rp268
ag3
(g4
g5
Vhelena-costa
p269
tp270
Rp271
ag3
(g4
g5
Valibaba
p272
tp273
Rp274
ag3
(g4
g5
Vipl
p275
tp276
Rp277
ag3
(g4
g5
Vmanchester-evening-news
p278
tp279
Rp280
ag3
(g4
g5
Vlipsy
p281
tp282
Rp283
ag3
(g4
g5
Vgotham
p284
tp285
Rp286
ag3
(g4
g5
Vdomenyk-noonan
p287
tp288
Rp289
ag3
(g4
g5
Vskull-cracker
p290
tp291
Rp292
ag3
(g4
g5
Vjames-wilson
p293
tp294
Rp295
ag3
(g4
g5
Veurovision-2014
p296
tp297
Rp298
ag3
(g4
g5
Vmark-selby
p299
tp300
Rp301
ag3
(g4
g5
Vliverpool-fc
p302
tp303
Rp304
ag3
(g4
g5
Vmiranda-fugate
p305
tp306
Rp307
ag3
(g4
g5
Vmet-gala-2014
p308
tp309
Rp310
ag3
(g4
g5
Veminem-wembley
p311
tp312
Rp313
asS'India'
p314
(lp315
g3
(g4
g5
Vpollard-vs-starc
p316
tp317
Rp318
ag3
(g4
g5
Vlive-cricket
p319
tp320
Rp321
ag3
(g4
g5
Vmonica-lewinsky
p322
tp323
Rp324
ag3
(g4
g5
Vmothers-day
p325
tp326
Rp327
ag3
(g4
g5
Vroger-federer
p328
tp329
Rp330
ag3
(g4
g5
Vipl-live-score
p331
tp332
Rp333
ag3
(g4
g5
Vliverpool
p334
tp335
Rp336
ag3
(g4
g5
Vmoto-e
p337
tp338
Rp339
ag3
(g4
g5
Vepl
p340
tp341
Rp342
ag3
(g4
g5
Vicici
p343
tp344
Rp345
ag3
(g4
g5
Vreal-madrid
p346
tp347
Rp348
ag3
(g4
g5
Vab-de-villiers
p349
tp350
Rp351
ag3
(g4
g5
Vla-liga-standings
p352
tp353
Rp354
ag3
(g4
g5
Vkkr-vs-rr
p355
tp356
Rp357
ag3
(g4
g5
Vrhea-pillai
p358
tp359
Rp360
ag3
(g4
g5
Vpuc-results
p361
tp362
Rp363
ag3
(g4
g5
Vcsk-vs-dd
p364
tp365
Rp366
ag3
(g4
g5
Vaudrey-hepburn
p367
tp368
Rp369
ag3
(g4
g5
Vwwe-extreme-rules-2014
p370
tp371
Rp372
ag3
(g4
g5
Vmothers-day
p373
tp374
Rp375
asS'US'
p376
(lp377
g3
(g4
g5
Vmoises-arias
p378
tp379
Rp380
ag3
(g4
g5
Vroger-federer
p381
tp382
Rp383
ag3
(g4
g5
Vrich-homie-quan
p384
tp385
Rp386
ag3
(g4
g5
Vapollo-nida
p387
tp388
Rp389
ag3
(g4
g5
Vmonica-lewinsky
p390
tp391
Rp392
ag3
(g4
g5
Vmiranda-fugate
p393
tp394
Rp395
ag3
(g4
g5
Vkevin-durant
p396
tp397
Rp398
ag3
(g4
g5
Vblackhawks
p399
tp400
Rp401
ag3
(g4
g5
Vmark-jackson
p402
tp403
Rp404
ag3
(g4
g5
Valibaba
p405
tp406
Rp407
ag3
(g4
g5
Vbruins
p408
tp409
Rp410
ag3
(g4
g5
Vmiami-heat
p411
tp412
Rp413
ag3
(g4
g5
Vroy-hibbert
p414
tp415
Rp416
ag3
(g4
g5
Vspurs
p417
tp418
Rp419
ag3
(g4
g5
Vmegan-fox
p420
tp421
Rp422
ag3
(g4
g5
Vabby-lee-miller
p423
tp424
Rp425
ag3
(g4
g5
Vblake-lively
p426
tp427
Rp428
ag3
(g4
g5
Vmet-ball-2014
p429
tp430
Rp431
ag3
(g4
g5
Vboston-bruins
p432
tp433
Rp434
ag3
(g4
g5
Vgoblin-shark
p435
tp436
Rp437
asS'France'
p438
(lp439
g3
(g4
g5
Vhelena-costa
p440
tp441
Rp442
ag3
(g4
g5
Vhelene-pastor
p443
tp444
Rp445
ag3
(g4
g5
Volympe-de-gouges
p446
tp447
Rp448
ag3
(g4
g5
V8-mai
p449
tp450
Rp451
ag3
(g4
g5
Vmonica-lewinsky
p452
tp453
Rp454
ag3
(g4
g5
Vclooney
p455
tp456
Rp457
ag3
(g4
g5
Vryan-giggs
p458
tp459
Rp460
ag3
(g4
g5
Vrc-lens
p461
tp462
Rp463
ag3
(g4
g5
Valibaba
p464
tp465
Rp466
ag3
(g4
g5
Vdia
p467
tp468
Rp469
ag3
(g4
g5
V40-ans-mode-demploi
p470
tp471
Rp472
ag3
(g4
g5
Vkevin-durant
p473
tp474
Rp475
ag3
(g4
g5
Vfc-metz
p476
tp477
Rp478
ag3
(g4
g5
Veurovision-2014
p479
tp480
Rp481
ag3
(g4
g5
Vfederer
p482
tp483
Rp484
ag3
(g4
g5
Vvincent-lambert
p485
tp486
Rp487
ag3
(g4
g5
Vbfmtv
p488
tp489
Rp490
ag3
(g4
g5
Vdamon-albarn
p491
tp492
Rp493
ag3
(g4
g5
Vrf8
p494
tp495
Rp496
ag3
(g4
g5
Vpaul
p497
tp498
Rp499
as.