(dp0
S'Brazil'
p1
(lp2
ccopy_reg
_reconstructor
p3
(cdjango.utils.safestring
SafeText
p4
c__builtin__
unicode
p5
Vufc
p6
tp7
Rp8
ag3
(g4
g5
V5
p9
tp10
Rp11
ag3
(g4
g5
Vmulher-melancia
p12
tp13
Rp14
ag3
(g4
g5
Vcarol-francischini
p15
tp16
Rp17
ag3
(g4
g5
Vsasha
p18
tp19
Rp20
ag3
(g4
g5
Vmarcos-oliver
p21
tp22
Rp23
ag3
(g4
g5
Vfluminense
p24
tp25
Rp26
ag3
(g4
g5
Vmarcos-paulo
p27
tp28
Rp29
ag3
(g4
g5
Vflamengo
p30
tp31
Rp32
ag3
(g4
g5
Vlibertadores
p33
tp34
Rp35
ag3
(g4
g5
Vbarcelona
p36
tp37
Rp38
ag3
(g4
g5
Vcruzeiro
p39
tp40
Rp41
ag3
(g4
g5
Vfox-sports
p42
tp43
Rp44
ag3
(g4
g5
Vsharon-stone
p45
tp46
Rp47
ag3
(g4
g5
Vdemi-lovato
p48
tp49
Rp50
ag3
(g4
g5
Vmarte
p51
tp52
Rp53
ag3
(g4
g5
Vfuncab
p54
tp55
Rp56
ag3
(g4
g5
Vpaparazzo
p57
tp58
Rp59
ag3
(g4
g5
Vkim-kardashian
p60
tp61
Rp62
ag3
(g4
g5
Vvalesca-popozuda
p63
tp64
Rp65
asS'Australia'
p66
(lp67
g3
(g4
g5
Vcoachella
p68
tp69
Rp70
ag3
(g4
g5
Vcyclone-ita-update
p71
tp72
Rp73
ag3
(g4
g5
Vchloe-campbell
p74
tp75
Rp76
ag3
(g4
g5
Vsamsung-galaxy-s5
p77
tp78
Rp79
ag3
(g4
g5
Vnine-news
p80
tp81
Rp82
ag3
(g4
g5
Vus-masters-2014
p83
tp84
Rp85
ag3
(g4
g5
Vnbl
p86
tp87
Rp88
ag3
(g4
g5
Vfrozen
p89
tp90
Rp91
ag3
(g4
g5
Voscar-pistorius-trial
p92
tp93
Rp94
ag3
(g4
g5
Vkaty-perry
p95
tp96
Rp97
ag3
(g4
g5
Vscarlett-johansson
p98
tp99
Rp100
ag3
(g4
g5
Vkate-upton
p101
tp102
Rp103
ag3
(g4
g5
Vcyclone-ita
p104
tp105
Rp106
ag3
(g4
g5
Vanthony-mundine
p107
tp108
Rp109
ag3
(g4
g5
Vdivergent
p110
tp111
Rp112
ag3
(g4
g5
Vmanchester-united
p113
tp114
Rp115
ag3
(g4
g5
Vthe-block
p116
tp117
Rp118
ag3
(g4
g5
Vultimate-warrior
p119
tp120
Rp121
ag3
(g4
g5
Vcyclone-ita
p122
tp123
Rp124
ag3
(g4
g5
Vhey-dad
p125
tp126
Rp127
asS'Italy'
p128
(lp129
g3
(g4
g5
Vtest-medicina-2014
p130
tp131
Rp132
ag3
(g4
g5
Vibrahimovic
p133
tp134
Rp135
ag3
(g4
g5
Vsorteggi-champions
p136
tp137
Rp138
ag3
(g4
g5
Vdell-utri
p139
tp140
Rp141
ag3
(g4
g5
Vmotogp
p142
tp143
Rp144
ag3
(g4
g5
Vsilent-hill
p145
tp146
Rp147
ag3
(g4
g5
Vjolanda-de-rienzo
p148
tp149
Rp150
ag3
(g4
g5
Vjunior-masterchef-italia
p151
tp152
Rp153
ag3
(g4
g5
Vbud-spencer
p154
tp155
Rp156
ag3
(g4
g5
Vdon-matteo-10
p157
tp158
Rp159
ag3
(g4
g5
Vranking-uefa
p160
tp161
Rp162
ag3
(g4
g5
Vthe-iron-lady
p163
tp164
Rp165
ag3
(g4
g5
Vjuventus-lione
p166
tp167
Rp168
ag3
(g4
g5
Vyara-gambirasio
p169
tp170
Rp171
ag3
(g4
g5
Vberlusconi
p172
tp173
Rp174
ag3
(g4
g5
Vebola
p175
tp176
Rp177
ag3
(g4
g5
Vuefa
p178
tp179
Rp180
ag3
(g4
g5
Va-dangerous-method
p181
tp182
Rp183
ag3
(g4
g5
Vnoah
p184
tp185
Rp186
ag3
(g4
g5
Vsciopero-treni
p187
tp188
Rp189
asS'Spain'
p190
(lp191
g3
(g4
g5
Vel-mundo-today
p192
tp193
Rp194
ag3
(g4
g5
Vmoto-gp
p195
tp196
Rp197
ag3
(g4
g5
Vsorteo-champions
p198
tp199
Rp200
ag3
(g4
g5
Vsamsung-galaxy-s5
p201
tp202
Rp203
ag3
(g4
g5
Vmotogp
p204
tp205
Rp206
ag3
(g4
g5
Vteledeporte
p207
tp208
Rp209
ag3
(g4
g5
Veuropa-league
p210
tp211
Rp212
ag3
(g4
g5
Vvalencia
p213
tp214
Rp215
ag3
(g4
g5
Vgabriella-lenzi
p216
tp217
Rp218
ag3
(g4
g5
Vviernes-de-dolores
p219
tp220
Rp221
ag3
(g4
g5
Vmundo-deportivo
p222
tp223
Rp224
ag3
(g4
g5
Vvalencia-cf
p225
tp226
Rp227
ag3
(g4
g5
Vuefa
p228
tp229
Rp230
ag3
(g4
g5
Vdani-martin
p231
tp232
Rp233
ag3
(g4
g5
Vdiario-sport
p234
tp235
Rp236
ag3
(g4
g5
Vfc-barcelona
p237
tp238
Rp239
ag3
(g4
g5
Vcatalunya-radio
p240
tp241
Rp242
ag3
(g4
g5
Vsevilla-oporto
p243
tp244
Rp245
ag3
(g4
g5
Vbibiana-fernandez
p246
tp247
Rp248
ag3
(g4
g5
Vvegano
p249
tp250
Rp251
asS'UK'
p252
(lp253
g3
(g4
g5
Vjamie-foxx
p254
tp255
Rp256
ag3
(g4
g5
Vsue-townsend
p257
tp258
Rp259
ag3
(g4
g5
Vnational-sibling-day
p260
tp261
Rp262
ag3
(g4
g5
Vheartbleed
p263
tp264
Rp265
ag3
(g4
g5
Vemma-stone
p266
tp267
Rp268
ag3
(g4
g5
Vandrew-garfield
p269
tp270
Rp271
ag3
(g4
g5
Vpaolo-nutini
p272
tp273
Rp274
ag3
(g4
g5
Vkym-marsh
p275
tp276
Rp277
ag3
(g4
g5
Vcoachella
p278
tp279
Rp280
ag3
(g4
g5
Vkatie-hopkins
p281
tp282
Rp283
ag3
(g4
g5
Vgalaxy-s5
p284
tp285
Rp286
ag3
(g4
g5
Vwarwick-davis
p287
tp288
Rp289
ag3
(g4
g5
Vchampions-league-draw
p290
tp291
Rp292
ag3
(g4
g5
Vthe-masters
p293
tp294
Rp295
ag3
(g4
g5
Vmasters
p296
tp297
Rp298
ag3
(g4
g5
Vmanchester-united
p299
tp300
Rp301
ag3
(g4
g5
Vmesothelioma
p302
tp303
Rp304
ag3
(g4
g5
Vthe-vamps
p305
tp306
Rp307
ag3
(g4
g5
Vgerrie-nel
p308
tp309
Rp310
ag3
(g4
g5
Vdwayne-johnson
p311
tp312
Rp313
asS'India'
p314
(lp315
g3
(g4
g5
Vchelsea
p316
tp317
Rp318
ag3
(g4
g5
Vdwayne-johnson
p319
tp320
Rp321
ag3
(g4
g5
Vbhootnath-returns
p322
tp323
Rp324
ag3
(g4
g5
Vayesha-takia
p325
tp326
Rp327
ag3
(g4
g5
Vnaan-sigappu-manithan
p328
tp329
Rp330
ag3
(g4
g5
Vrio-2
p331
tp332
Rp333
ag3
(g4
g5
Vmumbai-university
p334
tp335
Rp336
ag3
(g4
g5
Vbarcelona
p337
tp338
Rp339
ag3
(g4
g5
Vjashodaben
p340
tp341
Rp342
ag3
(g4
g5
Vmulayam-singh-yadav
p343
tp344
Rp345
ag3
(g4
g5
Velection-2014
p346
tp347
Rp348
ag3
(g4
g5
Vultimate-warrior
p349
tp350
Rp351
ag3
(g4
g5
Vchelsea
p352
tp353
Rp354
ag3
(g4
g5
Vram-navmi
p355
tp356
Rp357
ag3
(g4
g5
Vpeaches-geldof
p358
tp359
Rp360
ag3
(g4
g5
Vkejriwal-slapped
p361
tp362
Rp363
ag3
(g4
g5
Vabki-baar-modi-sarkar
p364
tp365
Rp366
ag3
(g4
g5
Velection-commission
p367
tp368
Rp369
ag3
(g4
g5
Vundertaker
p370
tp371
Rp372
ag3
(g4
g5
Vbjp-manifesto
p373
tp374
Rp375
asS'US'
p376
(lp377
g3
(g4
g5
Vcoachella
p378
tp379
Rp380
ag3
(g4
g5
Voculus
p381
tp382
Rp383
ag3
(g4
g5
Vwonderlic-test
p384
tp385
Rp386
ag3
(g4
g5
Vcoldwater-creek
p387
tp388
Rp389
ag3
(g4
g5
Vrio-2
p390
tp391
Rp392
ag3
(g4
g5
Vgoogle-glass
p393
tp394
Rp395
ag3
(g4
g5
Vkathleen-sebelius
p396
tp397
Rp398
ag3
(g4
g5
Vfrozen-four
p399
tp400
Rp401
ag3
(g4
g5
Vfrench-montana
p402
tp403
Rp404
ag3
(g4
g5
Vdraft-day
p405
tp406
Rp407
ag3
(g4
g5
Vhillary-clinton
p408
tp409
Rp410
ag3
(g4
g5
Vcliven-bundy
p411
tp412
Rp413
ag3
(g4
g5
Vnational-sibling-day
p414
tp415
Rp416
ag3
(g4
g5
Vstephen-colbert
p417
tp418
Rp419
ag3
(g4
g5
Vmasters
p420
tp421
Rp422
ag3
(g4
g5
Vcolin-kaepernick
p423
tp424
Rp425
ag3
(g4
g5
Vmasters-2014
p426
tp427
Rp428
ag3
(g4
g5
Vpercy-julian
p429
tp430
Rp431
ag3
(g4
g5
Vgirl-meets-world
p432
tp433
Rp434
ag3
(g4
g5
Vbundy-ranch
p435
tp436
Rp437
asS'France'
p438
(lp439
g3
(g4
g5
Vcoachella
p440
tp441
Rp442
ag3
(g4
g5
Vvalerie-benaim
p443
tp444
Rp445
ag3
(g4
g5
Vtal
p446
tp447
Rp448
ag3
(g4
g5
Vtirage-ligue-des-champions
p449
tp450
Rp451
ag3
(g4
g5
Vyoupomm
p452
tp453
Rp454
ag3
(g4
g5
Vmaurice-agnelet
p455
tp456
Rp457
ag3
(g4
g5
Vrichard-bohringer
p458
tp459
Rp460
ag3
(g4
g5
Vagnelet
p461
tp462
Rp463
ag3
(g4
g5
Vuefa
p464
tp465
Rp466
ag3
(g4
g5
Vles-profs
p467
tp468
Rp469
ag3
(g4
g5
Vemma-stone
p470
tp471
Rp472
ag3
(g4
g5
Vmarcelo-bielsa
p473
tp474
Rp475
ag3
(g4
g5
Vdominique-baudis
p476
tp477
Rp478
ag3
(g4
g5
Valain-finkielkraut
p479
tp480
Rp481
ag3
(g4
g5
Vjuventus-lyon
p482
tp483
Rp484
ag3
(g4
g5
Vmarine-le-pen
p485
tp486
Rp487
ag3
(g4
g5
Vperception
p488
tp489
Rp490
ag3
(g4
g5
Vmaude-versini
p491
tp492
Rp493
ag3
(g4
g5
Vribery-evra
p494
tp495
Rp496
ag3
(g4
g5
Valice-nevers
p497
tp498
Rp499
as.