(dp0
S'Brazil'
p1
(lp2
ccopy_reg
_reconstructor
p3
(cdjango.utils.safestring
SafeText
p4
c__builtin__
unicode
p5
Vbrasil-x-argentina
p6
tp7
Rp8
ag3
(g4
g5
Vsnapchat
p9
tp10
Rp11
ag3
(g4
g5
Vmalala
p12
tp13
Rp14
ag3
(g4
g5
Vbrasil-e-argentina
p15
tp16
Rp17
ag3
(g4
g5
Vaustin-mahone
p18
tp19
Rp20
ag3
(g4
g5
Vebola-virus
p21
tp22
Rp23
ag3
(g4
g5
Vamanda-bynes
p24
tp25
Rp26
ag3
(g4
g5
Vamor-e-sexo
p27
tp28
Rp29
ag3
(g4
g5
Vchay-suede
p30
tp31
Rp32
ag3
(g4
g5
Vcazaquistao
p33
tp34
Rp35
ag3
(g4
g5
Vfluminense
p36
tp37
Rp38
ag3
(g4
g5
Vmanoel-carlos
p39
tp40
Rp41
ag3
(g4
g5
Vebola
p42
tp43
Rp44
ag3
(g4
g5
Vthe-voice-brasil-2014
p45
tp46
Rp47
ag3
(g4
g5
Vinternacional
p48
tp49
Rp50
ag3
(g4
g5
Varminio-fraga
p51
tp52
Rp53
ag3
(g4
g5
Vglobonews
p54
tp55
Rp56
ag3
(g4
g5
Vthor-batista
p57
tp58
Rp59
ag3
(g4
g5
Vserie-a
p60
tp61
Rp62
ag3
(g4
g5
Vfifth-harmony
p63
tp64
Rp65
asS'Australia'
p66
(lp67
g3
(g4
g5
V4chan
p68
tp69
Rp70
ag3
(g4
g5
Vamanda-bynes
p71
tp72
Rp73
ag3
(g4
g5
Vangelina-jolie
p74
tp75
Rp76
ag3
(g4
g5
Vbathurst-2014
p77
tp78
Rp79
ag3
(g4
g5
Va-league
p80
tp81
Rp82
ag3
(g4
g5
Vblake-and-louise
p83
tp84
Rp85
ag3
(g4
g5
Vthe-block
p86
tp87
Rp88
ag3
(g4
g5
Vmalala-yousafzai
p89
tp90
Rp91
ag3
(g4
g5
Vmiley-cyrus
p92
tp93
Rp94
ag3
(g4
g5
Vtaylor-swift
p95
tp96
Rp97
ag3
(g4
g5
Varrow
p98
tp99
Rp100
ag3
(g4
g5
Viggy-azalea
p101
tp102
Rp103
ag3
(g4
g5
Vbeauty-and-the-geek
p104
tp105
Rp106
ag3
(g4
g5
Vkim-jong-un
p107
tp108
Rp109
ag3
(g4
g5
Vebola
p110
tp111
Rp112
ag3
(g4
g5
Vebola-virus
p113
tp114
Rp115
ag3
(g4
g5
Vebola-australia
p116
tp117
Rp118
ag3
(g4
g5
Vdi-patston
p119
tp120
Rp121
ag3
(g4
g5
Vv8-supercars
p122
tp123
Rp124
ag3
(g4
g5
Vcricinfo
p125
tp126
Rp127
asS'Italy'
p128
(lp129
g3
(g4
g5
Vitalia-calcio
p130
tp131
Rp132
ag3
(g4
g5
Vrai-sport
p133
tp134
Rp135
ag3
(g4
g5
Vgenova
p136
tp137
Rp138
ag3
(g4
g5
Vazerbaijan
p139
tp140
Rp141
ag3
(g4
g5
Vpallavolo-femminile
p142
tp143
Rp144
ag3
(g4
g5
Vil-secolo-xix
p145
tp146
Rp147
ag3
(g4
g5
Vpirati-dei-caraibi
p148
tp149
Rp150
ag3
(g4
g5
Vsecolo-xix
p151
tp152
Rp153
ag3
(g4
g5
Vmeteo-genova
p154
tp155
Rp156
ag3
(g4
g5
Vmotogp
p157
tp158
Rp159
ag3
(g4
g5
Vmalala
p160
tp161
Rp162
ag3
(g4
g5
Varpal
p163
tp164
Rp165
ag3
(g4
g5
Vebola-italia
p166
tp167
Rp168
ag3
(g4
g5
Vfrangipane
p169
tp170
Rp171
ag3
(g4
g5
Vgenova-today
p172
tp173
Rp174
ag3
(g4
g5
Vcecco-e-cipo
p175
tp176
Rp177
ag3
(g4
g5
Vmichelle-hunziker
p178
tp179
Rp180
ag3
(g4
g5
Vprimocanale
p181
tp182
Rp183
ag3
(g4
g5
Vrama-lila
p184
tp185
Rp186
ag3
(g4
g5
Vjobs-act
p187
tp188
Rp189
asS'Spain'
p190
(lp191
g3
(g4
g5
Vlos-viernes-al-show
p192
tp193
Rp194
ag3
(g4
g5
Vsnapchat
p195
tp196
Rp197
ag3
(g4
g5
Vfrancisco-giner-de-los-rios
p198
tp199
Rp200
ag3
(g4
g5
Vkailash-satyarthi
p201
tp202
Rp203
ag3
(g4
g5
Vmotogp
p204
tp205
Rp206
ag3
(g4
g5
Volvido-hormigos
p207
tp208
Rp209
ag3
(g4
g5
Vmario-casas
p210
tp211
Rp212
ag3
(g4
g5
Vzmapp
p213
tp214
Rp215
ag3
(g4
g5
Vperdida
p216
tp217
Rp218
ag3
(g4
g5
Vjavier-rodriguez
p219
tp220
Rp221
ag3
(g4
g5
Vlegionela
p222
tp223
Rp224
ag3
(g4
g5
Vefe
p225
tp226
Rp227
ag3
(g4
g5
Vjohn-lennon
p228
tp229
Rp230
ag3
(g4
g5
Vteresa-romero
p231
tp232
Rp233
ag3
(g4
g5
Veslovaquia
p234
tp235
Rp236
ag3
(g4
g5
Vpatrick-modiano
p237
tp238
Rp239
ag3
(g4
g5
Vmarbelys
p240
tp241
Rp242
ag3
(g4
g5
Vvuelo-nocturno
p243
tp244
Rp245
ag3
(g4
g5
Vebola-en-barcelona
p246
tp247
Rp248
ag3
(g4
g5
Vseleccion-espanola
p249
tp250
Rp251
asS'UK'
p252
(lp253
g3
(g4
g5
Vtaylor-swift
p254
tp255
Rp256
ag3
(g4
g5
Vamanda-bynes
p257
tp258
Rp259
ag3
(g4
g5
Vkevin-pietersen
p260
tp261
Rp262
ag3
(g4
g5
Vjohn-cleese
p263
tp264
Rp265
ag3
(g4
g5
Vsnapchat
p266
tp267
Rp268
ag3
(g4
g5
Vmalala-yousafzai
p269
tp270
Rp271
ag3
(g4
g5
Vkevin-bridges-tickets
p272
tp273
Rp274
ag3
(g4
g5
Vangelina-jolie
p275
tp276
Rp277
ag3
(g4
g5
Vemmerdale
p278
tp279
Rp280
ag3
(g4
g5
Vbianchi
p281
tp282
Rp283
ag3
(g4
g5
Vsan-marino
p284
tp285
Rp286
ag3
(g4
g5
Vdaisy-lowe
p287
tp288
Rp289
ag3
(g4
g5
Vukip
p290
tp291
Rp292
ag3
(g4
g5
Vmacedonia
p293
tp294
Rp295
ag3
(g4
g5
Vamanda-bynes
p296
tp297
Rp298
ag3
(g4
g5
Vitv
p299
tp300
Rp301
ag3
(g4
g5
Vunison
p302
tp303
Rp304
ag3
(g4
g5
Vm56-crash
p305
tp306
Rp307
ag3
(g4
g5
Vkim-jong-un
p308
tp309
Rp310
ag3
(g4
g5
Vlorde
p311
tp312
Rp313
asS'India'
p314
(lp315
g3
(g4
g5
Vamitabh-bachchan
p316
tp317
Rp318
ag3
(g4
g5
Visl
p319
tp320
Rp321
ag3
(g4
g5
Vamazon
p322
tp323
Rp324
ag3
(g4
g5
Vamazon-india
p325
tp326
Rp327
ag3
(g4
g5
Vkailash-satyarthi
p328
tp329
Rp330
ag3
(g4
g5
Vkarva-chauth
p331
tp332
Rp333
ag3
(g4
g5
Vcricket
p334
tp335
Rp336
ag3
(g4
g5
Vrk-narayan
p337
tp338
Rp339
ag3
(g4
g5
Vannabelle
p340
tp341
Rp342
ag3
(g4
g5
Vhtc-desire-eye
p343
tp344
Rp345
ag3
(g4
g5
Vcricinfo
p346
tp347
Rp348
ag3
(g4
g5
Vcricket
p349
tp350
Rp351
ag3
(g4
g5
Vind-vs-wi
p352
tp353
Rp354
ag3
(g4
g5
Vhudhud-cyclone
p355
tp356
Rp357
ag3
(g4
g5
Vjayalalitha
p358
tp359
Rp360
ag3
(g4
g5
Vlunar-eclipse
p361
tp362
Rp363
ag3
(g4
g5
Vflipkart
p364
tp365
Rp366
ag3
(g4
g5
Vamazon-india
p367
tp368
Rp369
ag3
(g4
g5
Vthor-heyerdahl
p370
tp371
Rp372
ag3
(g4
g5
Vmaruti-ciaz
p373
tp374
Rp375
asS'US'
p376
(lp377
g3
(g4
g5
Vamanda-bynes
p378
tp379
Rp380
ag3
(g4
g5
V4chan
p381
tp382
Rp383
ag3
(g4
g5
Vmalala-yousafzai
p384
tp385
Rp386
ag3
(g4
g5
Vadrian-peterson
p387
tp388
Rp389
ag3
(g4
g5
Vdracula-untold
p390
tp391
Rp392
ag3
(g4
g5
Vkeke-palmer
p393
tp394
Rp395
ag3
(g4
g5
Vthe-judge
p396
tp397
Rp398
ag3
(g4
g5
Vlandon-donovan
p399
tp400
Rp401
ag3
(g4
g5
Vtrigz
p402
tp403
Rp404
ag3
(g4
g5
Vjan-hooks
p405
tp406
Rp407
ag3
(g4
g5
Vjj-watt
p408
tp409
Rp410
ag3
(g4
g5
Vtodd-gurley
p411
tp412
Rp413
ag3
(g4
g5
Vtesla
p414
tp415
Rp416
ag3
(g4
g5
Vred-bull
p417
tp418
Rp419
ag3
(g4
g5
Vfx
p420
tp421
Rp422
ag3
(g4
g5
Vpaula-patton
p423
tp424
Rp425
ag3
(g4
g5
Vfleetwood-mac
p426
tp427
Rp428
ag3
(g4
g5
Vmckamey-manor
p429
tp430
Rp431
ag3
(g4
g5
Vamerican-horror-story
p432
tp433
Rp434
ag3
(g4
g5
Vthomas-eric-duncan
p435
tp436
Rp437
asS'France'
p438
(lp439
g3
(g4
g5
Vdanse-avec-les-stars
p440
tp441
Rp442
ag3
(g4
g5
Vkoh-lanta
p443
tp444
Rp445
ag3
(g4
g5
Vtonya-kinzinger
p446
tp447
Rp448
ag3
(g4
g5
Vmalala
p449
tp450
Rp451
ag3
(g4
g5
Vmiguel-angel-munoz
p452
tp453
Rp454
ag3
(g4
g5
Vrayane-bensetti
p455
tp456
Rp457
ag3
(g4
g5
Vlea-seydoux
p458
tp459
Rp460
ag3
(g4
g5
Vnathalie-pechalat
p461
tp462
Rp463
ag3
(g4
g5
Vfrance-inter
p464
tp465
Rp466
ag3
(g4
g5
Vcrossing-lines
p467
tp468
Rp469
ag3
(g4
g5
Vbernadette-chirac
p470
tp471
Rp472
ag3
(g4
g5
Vbrian-joubert
p473
tp474
Rp475
ag3
(g4
g5
Vpatrick-modiano
p476
tp477
Rp478
ag3
(g4
g5
Vebola-france
p479
tp480
Rp481
ag3
(g4
g5
Vlaure-manaudou
p482
tp483
Rp484
ag3
(g4
g5
Vnimes
p485
tp486
Rp487
ag3
(g4
g5
Vray-charles
p488
tp489
Rp490
ag3
(g4
g5
Vles-rivieres-pourpres
p491
tp492
Rp493
ag3
(g4
g5
Vsymptome-ebola
p494
tp495
Rp496
ag3
(g4
g5
Vray-donovan
p497
tp498
Rp499
as.