(dp0
S'Brazil'
p1
(lp2
ccopy_reg
_reconstructor
p3
(cdjango.utils.safestring
SafeText
p4
c__builtin__
unicode
p5
Vpalmeiras-e-corinthians
p6
tp7
Rp8
ag3
(g4
g5
Vjoao-baldasserini
p9
tp10
Rp11
ag3
(g4
g5
Vvagner-love
p12
tp13
Rp14
ag3
(g4
g5
Veike-batista
p15
tp16
Rp17
ag3
(g4
g5
Vthais-fersoza
p18
tp19
Rp20
ag3
(g4
g5
Valdemir-bendine
p21
tp22
Rp23
ag3
(g4
g5
Vbruce-jenner
p24
tp25
Rp26
ag3
(g4
g5
Vcelina-locks
p27
tp28
Rp29
ag3
(g4
g5
Vcarnaval
p30
tp31
Rp32
ag3
(g4
g5
Vcarla-prata
p33
tp34
Rp35
ag3
(g4
g5
Vgrammy-2015
p36
tp37
Rp38
ag3
(g4
g5
Ved-sheeran
p39
tp40
Rp41
ag3
(g4
g5
Vgrammy-awards-2015
p42
tp43
Rp44
ag3
(g4
g5
Vserginho-groisman
p45
tp46
Rp47
ag3
(g4
g5
Vbob-marley
p48
tp49
Rp50
ag3
(g4
g5
Vnicole-bahls
p51
tp52
Rp53
ag3
(g4
g5
Vbaile-da-vogue
p54
tp55
Rp56
ag3
(g4
g5
Vval-marchiori
p57
tp58
Rp59
ag3
(g4
g5
Vorigami
p60
tp61
Rp62
ag3
(g4
g5
Vpalmeiras-x-corinthians
p63
tp64
Rp65
asS'Australia'
p66
(lp67
g3
(g4
g5
Vtaylor-swift-grammys
p68
tp69
Rp70
ag3
(g4
g5
Vtransformers
p71
tp72
Rp73
ag3
(g4
g5
Vgallipoli
p74
tp75
Rp76
ag3
(g4
g5
Vtony-abbott
p77
tp78
Rp79
ag3
(g4
g5
Vjason-day
p80
tp81
Rp82
ag3
(g4
g5
Vsherlock
p83
tp84
Rp85
ag3
(g4
g5
Vthe-walking-dead
p86
tp87
Rp88
ag3
(g4
g5
Vchannel-9
p89
tp90
Rp91
ag3
(g4
g5
Vkickass
p92
tp93
Rp94
ag3
(g4
g5
Vgrammys-2015
p95
tp96
Rp97
ag3
(g4
g5
Vbeck
p98
tp99
Rp100
ag3
(g4
g5
Vsia
p101
tp102
Rp103
ag3
(g4
g5
Vrihanna-grammys
p104
tp105
Rp106
ag3
(g4
g5
Vshark-attack-ballina
p107
tp108
Rp109
ag3
(g4
g5
Vkristen-wiig
p110
tp111
Rp112
ag3
(g4
g5
Vmadonna
p113
tp114
Rp115
ag3
(g4
g5
Vchinese-new-year
p116
tp117
Rp118
ag3
(g4
g5
Vhozier
p119
tp120
Rp121
ag3
(g4
g5
Vdarren-jolly
p122
tp123
Rp124
ag3
(g4
g5
Vnwa
p125
tp126
Rp127
asS'Italy'
p128
(lp129
g3
(g4
g5
Vmeteo-messina
p130
tp131
Rp132
ag3
(g4
g5
Vandrea-e-valentina
p133
tp134
Rp135
ag3
(g4
g5
Vcarlo-cracco
p136
tp137
Rp138
ag3
(g4
g5
Vfoibe
p139
tp140
Rp141
ag3
(g4
g5
Vlista-falciani
p142
tp143
Rp144
ag3
(g4
g5
Vthe-walking-dead
p145
tp146
Rp147
ag3
(g4
g5
Vcagliari-roma
p148
tp149
Rp150
ag3
(g4
g5
Vdora-moroni
p151
tp152
Rp153
ag3
(g4
g5
Vfiorentina-atalanta
p154
tp155
Rp156
ag3
(g4
g5
Vsanremo
p157
tp158
Rp159
ag3
(g4
g5
Vdario-fo
p160
tp161
Rp162
ag3
(g4
g5
Vtony-colombo
p163
tp164
Rp165
ag3
(g4
g5
Vmario-capanna
p166
tp167
Rp168
ag3
(g4
g5
Vgrammy-2015
p169
tp170
Rp171
ag3
(g4
g5
Vanonymous
p172
tp173
Rp174
ag3
(g4
g5
Vbetter-call-saul
p175
tp176
Rp177
ag3
(g4
g5
Vcoppa-d-africa
p178
tp179
Rp180
ag3
(g4
g5
Vbraccialetti-rossi-2
p181
tp182
Rp183
ag3
(g4
g5
Vinter-palermo
p184
tp185
Rp186
ag3
(g4
g5
Vviva-l-italia
p187
tp188
Rp189
asS'Spain'
p190
(lp191
g3
(g4
g5
Vantonio-banderas
p192
tp193
Rp194
ag3
(g4
g5
Vla-isla-minima
p195
tp196
Rp197
ag3
(g4
g5
Vbafta
p198
tp199
Rp200
ag3
(g4
g5
Valberto-garzon
p201
tp202
Rp203
ag3
(g4
g5
Valberto-rodriguez
p204
tp205
Rp206
ag3
(g4
g5
Vjohnny-depp
p207
tp208
Rp209
ag3
(g4
g5
Vlista-falciani
p210
tp211
Rp212
ag3
(g4
g5
Vrelatos-salvajes
p213
tp214
Rp215
ag3
(g4
g5
Vjuan-diego
p216
tp217
Rp218
ag3
(g4
g5
Vatletico-de-madrid
p219
tp220
Rp221
ag3
(g4
g5
Vnicolas-cage
p222
tp223
Rp224
ag3
(g4
g5
Vgrammy-2015
p225
tp226
Rp227
ag3
(g4
g5
Vpiratas-del-caribe-5
p228
tp229
Rp230
ag3
(g4
g5
Vel-nino
p231
tp232
Rp233
ag3
(g4
g5
Vbetter-call-saul
p234
tp235
Rp236
ag3
(g4
g5
Vkevin-roldan
p237
tp238
Rp239
ag3
(g4
g5
Vmadonna
p240
tp241
Rp242
ag3
(g4
g5
Vathletic-barcelona
p243
tp244
Rp245
ag3
(g4
g5
Vryan-gosling
p246
tp247
Rp248
ag3
(g4
g5
Vgrammys
p249
tp250
Rp251
asS'UK'
p252
(lp253
g3
(g4
g5
Vravel-morrison
p254
tp255
Rp256
ag3
(g4
g5
Vpancake-day
p257
tp258
Rp259
ag3
(g4
g5
Vafrican-cup-of-nations
p260
tp261
Rp262
ag3
(g4
g5
Vman-utd
p263
tp264
Rp265
ag3
(g4
g5
Vthe-walking-dead
p266
tp267
Rp268
ag3
(g4
g5
Vjack-o-connell
p269
tp270
Rp271
ag3
(g4
g5
Vbruce-jenner
p272
tp273
Rp274
ag3
(g4
g5
Vmargot-robbie
p275
tp276
Rp277
ag3
(g4
g5
Vstephen-hawking
p278
tp279
Rp280
ag3
(g4
g5
Vgrammys-2015
p281
tp282
Rp283
ag3
(g4
g5
Vmike-leigh
p284
tp285
Rp286
ag3
(g4
g5
Vbeck
p287
tp288
Rp289
ag3
(g4
g5
Vsia
p290
tp291
Rp292
ag3
(g4
g5
Vnigel-pearson
p293
tp294
Rp295
ag3
(g4
g5
Vjulianne-moore
p296
tp297
Rp298
ag3
(g4
g5
Vbetter-call-saul
p299
tp300
Rp301
ag3
(g4
g5
Vmadonna
p302
tp303
Rp304
ag3
(g4
g5
Vchinese-new-year
p305
tp306
Rp307
ag3
(g4
g5
Vpatricia-arquette
p308
tp309
Rp310
ag3
(g4
g5
Vbaftas-2015
p311
tp312
Rp313
asS'India'
p314
(lp315
g3
(g4
g5
Vcristiano-ronaldo
p316
tp317
Rp318
ag3
(g4
g5
Vlaura-ingalls-wilder
p319
tp320
Rp321
ag3
(g4
g5
Vradhika-apte
p322
tp323
Rp324
ag3
(g4
g5
Vdelhi-election-result
p325
tp326
Rp327
ag3
(g4
g5
Vchocolate-day
p328
tp329
Rp330
ag3
(g4
g5
Vek-paheli-leela
p331
tp332
Rp333
ag3
(g4
g5
Vshamitabh-review
p334
tp335
Rp336
ag3
(g4
g5
Vamber-heard
p337
tp338
Rp339
ag3
(g4
g5
Vsamsung-galaxy-a
p340
tp341
Rp342
ag3
(g4
g5
Vmalli-malli-idi-rani-roju
p343
tp344
Rp345
ag3
(g4
g5
Vgrammy-2015
p346
tp347
Rp348
ag3
(g4
g5
Vlive-cricket
p349
tp350
Rp351
ag3
(g4
g5
Vdelhi-elections
p352
tp353
Rp354
ag3
(g4
g5
Vrose
p355
tp356
Rp357
ag3
(g4
g5
Vindia-vs-australia
p358
tp359
Rp360
ag3
(g4
g5
Vvalentine-week
p361
tp362
Rp363
ag3
(g4
g5
Vteddy-day
p364
tp365
Rp366
ag3
(g4
g5
Vdhoni
p367
tp368
Rp369
ag3
(g4
g5
Vhappy-chocolate-day
p370
tp371
Rp372
ag3
(g4
g5
Vshreya-ghoshal
p373
tp374
Rp375
asS'US'
p376
(lp377
g3
(g4
g5
Vstevie-wonder
p378
tp379
Rp380
ag3
(g4
g5
Vkanye-west-grammys
p381
tp382
Rp383
ag3
(g4
g5
Vpharrell-williams
p384
tp385
Rp386
ag3
(g4
g5
Vamc
p387
tp388
Rp389
ag3
(g4
g5
Vdean-smith
p390
tp391
Rp392
ag3
(g4
g5
Variana-grande
p393
tp394
Rp395
ag3
(g4
g5
Vwalking-dead
p396
tp397
Rp398
ag3
(g4
g5
Vsia
p399
tp400
Rp401
ag3
(g4
g5
Vtom-jones
p402
tp403
Rp404
ag3
(g4
g5
Ved-sheeran
p405
tp406
Rp407
ag3
(g4
g5
Vstaph-infection
p408
tp409
Rp410
ag3
(g4
g5
Vbetter-call-saul
p411
tp412
Rp413
ag3
(g4
g5
Vmiranda-lambert
p414
tp415
Rp416
ag3
(g4
g5
Vmadonna
p417
tp418
Rp419
ag3
(g4
g5
Vgwen-stefani
p420
tp421
Rp422
ag3
(g4
g5
Vac-dc
p423
tp424
Rp425
ag3
(g4
g5
Vannie-lennox
p426
tp427
Rp428
ag3
(g4
g5
Viggy-azalea
p429
tp430
Rp431
ag3
(g4
g5
Vmeghan-trainor
p432
tp433
Rp434
ag3
(g4
g5
Vtony-bennett
p435
tp436
Rp437
asS'France'
p438
(lp439
g3
(g4
g5
Vsylvain-tesson
p440
tp441
Rp442
ag3
(g4
g5
Vcote-d-ivoire
p443
tp444
Rp445
ag3
(g4
g5
Vthe-walking-dead-saison-5
p446
tp447
Rp448
ag3
(g4
g5
Vrugby
p449
tp450
Rp451
ag3
(g4
g5
Vla-guerre-est-declaree
p452
tp453
Rp454
ag3
(g4
g5
Vkendra-sunderland
p455
tp456
Rp457
ag3
(g4
g5
Vbruce-jenner
p458
tp459
Rp460
ag3
(g4
g5
Velection-doubs
p461
tp462
Rp463
ag3
(g4
g5
Vhsbc
p464
tp465
Rp466
ag3
(g4
g5
Vfed-cup
p467
tp468
Rp469
ag3
(g4
g5
Vassia-djebar
p470
tp471
Rp472
ag3
(g4
g5
Vlyon-psg
p473
tp474
Rp475
ag3
(g4
g5
Vmargin-call
p476
tp477
Rp478
ag3
(g4
g5
Vgrammy-awards-2015
p479
tp480
Rp481
ag3
(g4
g5
Vthomas-piketty
p482
tp483
Rp484
ag3
(g4
g5
Vnouvelle-zelande
p485
tp486
Rp487
ag3
(g4
g5
Vpierre-niney
p488
tp489
Rp490
ag3
(g4
g5
Vmarseille
p491
tp492
Rp493
ag3
(g4
g5
Vmiou-miou
p494
tp495
Rp496
ag3
(g4
g5
Vles-bronzes-font-du-ski
p497
tp498
Rp499
as.