(dp0
S'Brazil'
p1
(lp2
ccopy_reg
_reconstructor
p3
(cdjango.utils.safestring
SafeText
p4
c__builtin__
unicode
p5
Vfatec
p6
tp7
Rp8
ag3
(g4
g5
Vdalva-de-oliveira
p9
tp10
Rp11
ag3
(g4
g5
Vrio-2016
p12
tp13
Rp14
ag3
(g4
g5
Vboyhood
p15
tp16
Rp17
ag3
(g4
g5
Vcomo-somar-a-nota-do-enem
p18
tp19
Rp20
ag3
(g4
g5
Vuel
p21
tp22
Rp23
ag3
(g4
g5
Vnestor-cervero
p24
tp25
Rp26
ag3
(g4
g5
Vlincoln-olivetti
p27
tp28
Rp29
ag3
(g4
g5
Vindonesia
p30
tp31
Rp32
ag3
(g4
g5
Vcorinthians-x-colonia
p33
tp34
Rp35
ag3
(g4
g5
Vcanabidiol
p36
tp37
Rp38
ag3
(g4
g5
Vufsc
p39
tp40
Rp41
ag3
(g4
g5
Vbirdman
p42
tp43
Rp44
ag3
(g4
g5
Vlotofacil-1158
p45
tp46
Rp47
ag3
(g4
g5
Vufrgs
p48
tp49
Rp50
ag3
(g4
g5
Vsniper-americano
p51
tp52
Rp53
ag3
(g4
g5
Vsugar-maroon-5
p54
tp55
Rp56
ag3
(g4
g5
Vuepg
p57
tp58
Rp59
ag3
(g4
g5
Vsisu-2014
p60
tp61
Rp62
ag3
(g4
g5
Vbella-falconi
p63
tp64
Rp65
asS'Australia'
p66
(lp67
g3
(g4
g5
Vadam-lambert
p68
tp69
Rp70
ag3
(g4
g5
Vbrett-lee
p71
tp72
Rp73
ag3
(g4
g5
Vtony-montana
p74
tp75
Rp76
ag3
(g4
g5
Vphenomenon
p77
tp78
Rp79
ag3
(g4
g5
Vdane-rampe
p80
tp81
Rp82
ag3
(g4
g5
Voscars
p83
tp84
Rp85
ag3
(g4
g5
Vbali-nine
p86
tp87
Rp88
ag3
(g4
g5
Voscar-nominations
p89
tp90
Rp91
ag3
(g4
g5
Vbruce-jenner
p92
tp93
Rp94
ag3
(g4
g5
Vbeat-the-drum
p95
tp96
Rp97
ag3
(g4
g5
Voscars-2015
p98
tp99
Rp100
ag3
(g4
g5
Veoin-morgan
p101
tp102
Rp103
ag3
(g4
g5
Vwhiplash
p104
tp105
Rp106
ag3
(g4
g5
Vfoxcatcher
p107
tp108
Rp109
ag3
(g4
g5
Vh1z1
p110
tp111
Rp112
ag3
(g4
g5
Vtriple-j-hottest-100
p113
tp114
Rp115
ag3
(g4
g5
Vaustralian-open
p116
tp117
Rp118
ag3
(g4
g5
Vbirdman-movie
p119
tp120
Rp121
ag3
(g4
g5
Vsimone-battle
p122
tp123
Rp124
ag3
(g4
g5
Vreal-madrid
p125
tp126
Rp127
asS'Italy'
p128
(lp129
g3
(g4
g5
Vtorres
p130
tp131
Rp132
ag3
(g4
g5
Vpapa-francesco
p133
tp134
Rp135
ag3
(g4
g5
Vjuventus-verona
p136
tp137
Rp138
ag3
(g4
g5
Vrosy-maggiulli
p139
tp140
Rp141
ag3
(g4
g5
Vfrancesco-sole
p142
tp143
Rp144
ag3
(g4
g5
Vsalah
p145
tp146
Rp147
ag3
(g4
g5
Viscrizioni-online
p148
tp149
Rp150
ag3
(g4
g5
Vbarbara-d-urso
p151
tp152
Rp153
ag3
(g4
g5
Vronaldo
p154
tp155
Rp156
ag3
(g4
g5
Virina-shayk
p157
tp158
Rp159
ag3
(g4
g5
Vbirdman
p160
tp161
Rp162
ag3
(g4
g5
Valdo-e-alessia
p163
tp164
Rp165
ag3
(g4
g5
Vgreta-e-vanessa
p166
tp167
Rp168
ag3
(g4
g5
Vreal-madrid-atletico
p169
tp170
Rp171
ag3
(g4
g5
Vkevin-ferrari
p172
tp173
Rp174
ag3
(g4
g5
Vsilvio-muccino
p175
tp176
Rp177
ag3
(g4
g5
Vbelgio
p178
tp179
Rp180
ag3
(g4
g5
Vaumento-sigarette
p181
tp182
Rp183
ag3
(g4
g5
Vcambio-euro-franco-svizzero
p184
tp185
Rp186
ag3
(g4
g5
Ve-nata-una-star
p187
tp188
Rp189
asS'Spain'
p190
(lp191
g3
(g4
g5
Vel-francotirador
p192
tp193
Rp194
ag3
(g4
g5
Velche-barcelona
p195
tp196
Rp197
ag3
(g4
g5
Vlaura-cuevas
p198
tp199
Rp200
ag3
(g4
g5
Vdani-benitez
p201
tp202
Rp203
ag3
(g4
g5
Veddie-redmayne
p204
tp205
Rp206
ag3
(g4
g5
Vbolinaga
p207
tp208
Rp209
ag3
(g4
g5
Vlorena-meritano
p210
tp211
Rp212
ag3
(g4
g5
Vghvip
p213
tp214
Rp215
ag3
(g4
g5
Vla-primitiva-jueves
p216
tp217
Rp218
ag3
(g4
g5
Vjose-luis-alvite
p219
tp220
Rp221
ag3
(g4
g5
Volvido-hormigos
p222
tp223
Rp224
ag3
(g4
g5
Vcarlota-corredera
p225
tp226
Rp227
ag3
(g4
g5
Vanabel-pantoja
p228
tp229
Rp230
ag3
(g4
g5
Vgran-hermano-vip
p231
tp232
Rp233
ag3
(g4
g5
Vh1z1
p234
tp235
Rp236
ag3
(g4
g5
Vmarta-torne
p237
tp238
Rp239
ag3
(g4
g5
Vaguasantas
p240
tp241
Rp242
ag3
(g4
g5
Vreal-madrid
p243
tp244
Rp245
ag3
(g4
g5
Vcristina-puig
p246
tp247
Rp248
ag3
(g4
g5
Vvictor-sandoval
p249
tp250
Rp251
asS'UK'
p252
(lp253
g3
(g4
g5
Vnsi
p254
tp255
Rp256
ag3
(g4
g5
Val-murray
p257
tp258
Rp259
ag3
(g4
g5
Vel-capitan
p260
tp261
Rp262
ag3
(g4
g5
Veddie-redmayne
p263
tp264
Rp265
ag3
(g4
g5
Vkatie-price
p266
tp267
Rp268
ag3
(g4
g5
Vronaldo
p269
tp270
Rp271
ag3
(g4
g5
Voscar-nominations
p272
tp273
Rp274
ag3
(g4
g5
Vbruce-jenner
p275
tp276
Rp277
ag3
(g4
g5
Vweather-forecast
p278
tp279
Rp280
ag3
(g4
g5
Voscars-2015
p281
tp282
Rp283
ag3
(g4
g5
Vdavid-starkey
p284
tp285
Rp286
ag3
(g4
g5
Vwhiplash
p287
tp288
Rp289
ag3
(g4
g5
Valicia-douvall
p290
tp291
Rp292
ag3
(g4
g5
Vreal-madrid
p293
tp294
Rp295
ag3
(g4
g5
Vh1z1
p296
tp297
Rp298
ag3
(g4
g5
Vcharlie-hebdo
p299
tp300
Rp301
ag3
(g4
g5
Valpari
p302
tp303
Rp304
ag3
(g4
g5
Vmiley-cyrus
p305
tp306
Rp307
ag3
(g4
g5
Vzooey-deschanel
p308
tp309
Rp310
ag3
(g4
g5
Vcyberbully
p311
tp312
Rp313
asS'India'
p314
(lp315
g3
(g4
g5
Vthe-theory-of-everything
p316
tp317
Rp318
ag3
(g4
g5
Voscar-nominations
p319
tp320
Rp321
ag3
(g4
g5
Vvikram
p322
tp323
Rp324
ag3
(g4
g5
Vi-movie-review
p325
tp326
Rp327
ag3
(g4
g5
Vi-review
p328
tp329
Rp330
ag3
(g4
g5
Vthe-imitation-game
p331
tp332
Rp333
ag3
(g4
g5
Vkiran-bedi
p334
tp335
Rp336
ag3
(g4
g5
Vi-movie
p337
tp338
Rp339
ag3
(g4
g5
Vamerican-sniper
p340
tp341
Rp342
ag3
(g4
g5
Vsamsung-z1
p343
tp344
Rp345
ag3
(g4
g5
Vlenovo-a6000
p346
tp347
Rp348
ag3
(g4
g5
Vmi-note
p349
tp350
Rp351
ag3
(g4
g5
Vbirdman
p352
tp353
Rp354
ag3
(g4
g5
Vmsg
p355
tp356
Rp357
ag3
(g4
g5
Vyu-yureka
p358
tp359
Rp360
ag3
(g4
g5
Vreal-madrid
p361
tp362
Rp363
ag3
(g4
g5
Valone
p364
tp365
Rp366
ag3
(g4
g5
Vrepo-rate
p367
tp368
Rp369
ag3
(g4
g5
Vpongal
p370
tp371
Rp372
ag3
(g4
g5
Vshazia-ilmi
p373
tp374
Rp375
asS'US'
p376
(lp377
g3
(g4
g5
Vashley-graham
p378
tp379
Rp380
ag3
(g4
g5
Vcardale-jones
p381
tp382
Rp383
ag3
(g4
g5
Vfoxcatcher
p384
tp385
Rp386
ag3
(g4
g5
Vadam-lambert
p387
tp388
Rp389
ag3
(g4
g5
Vmartin-luther-king-jr
p390
tp391
Rp392
ag3
(g4
g5
Vcritics-choice-awards
p393
tp394
Rp395
ag3
(g4
g5
Vmiley-cyrus
p396
tp397
Rp398
ag3
(g4
g5
Voscar-nominations
p399
tp400
Rp401
ag3
(g4
g5
Vbruce-jenner
p402
tp403
Rp404
ag3
(g4
g5
Vbirdman
p405
tp406
Rp407
ag3
(g4
g5
Vnikki-reed
p408
tp409
Rp410
ag3
(g4
g5
Vwhiplash
p411
tp412
Rp413
ag3
(g4
g5
Vjim-tomsula
p414
tp415
Rp416
ag3
(g4
g5
Vthe-theory-of-everything
p417
tp418
Rp419
ag3
(g4
g5
Vreal-madrid
p420
tp421
Rp422
ag3
(g4
g5
Vh1z1
p423
tp424
Rp425
ag3
(g4
g5
Vjohn-fox
p426
tp427
Rp428
ag3
(g4
g5
Vnintendo-direct
p429
tp430
Rp431
ag3
(g4
g5
Vnancy-grace
p432
tp433
Rp434
ag3
(g4
g5
Vmaroon-5-sugar
p435
tp436
Rp437
asS'France'
p438
(lp439
g3
(g4
g5
Vdieudonne
p440
tp441
Rp442
ag3
(g4
g5
Vgare-de-l-est
p443
tp444
Rp445
ag3
(g4
g5
Vben-arfa
p446
tp447
Rp448
ag3
(g4
g5
Vyves-saint-laurent
p449
tp450
Rp451
ag3
(g4
g5
Vdeux-jours-a-tuer
p452
tp453
Rp454
ag3
(g4
g5
Vnouvelle-star
p455
tp456
Rp457
ag3
(g4
g5
Vdelfeil-de-ton
p458
tp459
Rp460
ag3
(g4
g5
Vkev-adams
p461
tp462
Rp463
ag3
(g4
g5
Vdestination-finale-5
p464
tp465
Rp466
ag3
(g4
g5
Vcanard-enchaine
p467
tp468
Rp469
ag3
(g4
g5
Vcolombes
p470
tp471
Rp472
ag3
(g4
g5
Vlassana-bathily
p473
tp474
Rp475
ag3
(g4
g5
Vmarion-cotillard
p476
tp477
Rp478
ag3
(g4
g5
Vbelgique
p479
tp480
Rp481
ag3
(g4
g5
Vfox-news
p482
tp483
Rp484
ag3
(g4
g5
Vh1z1
p485
tp486
Rp487
ag3
(g4
g5
Vsophie-davant
p488
tp489
Rp490
ag3
(g4
g5
Vfranc-suisse
p491
tp492
Rp493
ag3
(g4
g5
Vjohn-kerry
p494
tp495
Rp496
ag3
(g4
g5
Vapologie
p497
tp498
Rp499
as.