(dp0
S'Brazil'
p1
(lp2
ccopy_reg
_reconstructor
p3
(cdjango.utils.safestring
SafeText
p4
c__builtin__
unicode
p5
Vnando-rodrigues
p6
tp7
Rp8
ag3
(g4
g5
Vcapivara
p9
tp10
Rp11
ag3
(g4
g5
Vneymar
p12
tp13
Rp14
ag3
(g4
g5
Vumbrella
p15
tp16
Rp17
ag3
(g4
g5
Vlulu-santos
p18
tp19
Rp20
ag3
(g4
g5
Vkaty-perry
p21
tp22
Rp23
ag3
(g4
g5
Vcosme-e-damiao
p24
tp25
Rp26
ag3
(g4
g5
Vkaty-perry-rock-in-rio
p27
tp28
Rp29
ag3
(g4
g5
Vcara-delevingne
p30
tp31
Rp32
ag3
(g4
g5
Vultimo-capitulo-de-verdades-secretas-completo
p33
tp34
Rp35
ag3
(g4
g5
Veclipse
p36
tp37
Rp38
ag3
(g4
g5
Vchimbinha
p39
tp40
Rp41
ag3
(g4
g5
Vrihanna
p42
tp43
Rp44
ag3
(g4
g5
Veclipse-lunar
p45
tp46
Rp47
ag3
(g4
g5
Vnicolas-prattes
p48
tp49
Rp50
ag3
(g4
g5
Vlua-de-sangue
p51
tp52
Rp53
ag3
(g4
g5
Vvocalista-slipknot
p54
tp55
Rp56
ag3
(g4
g5
Vgremio-x-avai
p57
tp58
Rp59
ag3
(g4
g5
Vmega-sena-1745
p60
tp61
Rp62
ag3
(g4
g5
Vsantos-x-internacional
p63
tp64
Rp65
asS'Australia'
p66
(lp67
g3
(g4
g5
Vblood-moon
p68
tp69
Rp70
ag3
(g4
g5
Vmoon-lantern-festival
p71
tp72
Rp73
ag3
(g4
g5
Vdannii-minogue
p74
tp75
Rp76
ag3
(g4
g5
Vmotogp
p77
tp78
Rp79
ag3
(g4
g5
Vuruguay
p80
tp81
Rp82
ag3
(g4
g5
Vf1-japan
p83
tp84
Rp85
ag3
(g4
g5
Vwhen-is-google-s-birthday
p86
tp87
Rp88
ag3
(g4
g5
Vbilly-brownless
p89
tp90
Rp91
ag3
(g4
g5
Vkylie-minogue
p92
tp93
Rp94
ag3
(g4
g5
Vthe-call
p95
tp96
Rp97
ag3
(g4
g5
Vbilly-dib
p98
tp99
Rp100
ag3
(g4
g5
Vpremier-league-table
p101
tp102
Rp103
ag3
(g4
g5
Vchris-brown
p104
tp105
Rp106
ag3
(g4
g5
Vfetty-wap
p107
tp108
Rp109
ag3
(g4
g5
Vmars
p110
tp111
Rp112
ag3
(g4
g5
Vengland-vs-wales
p113
tp114
Rp115
ag3
(g4
g5
Vmessi
p116
tp117
Rp118
ag3
(g4
g5
Vblood-moon-september-2015
p119
tp120
Rp121
ag3
(g4
g5
Vinskip-point
p122
tp123
Rp124
ag3
(g4
g5
Vbay-to-birdwood-2015
p125
tp126
Rp127
asS'Italy'
p128
(lp129
g3
(g4
g5
Veclissi-di-luna-2015
p130
tp131
Rp132
ag3
(g4
g5
Vpagelle-napoli-juve
p133
tp134
Rp135
ag3
(g4
g5
Vbologna-udinese
p136
tp137
Rp138
ag3
(g4
g5
Vverona-lazio
p139
tp140
Rp141
ag3
(g4
g5
Vroma-carpi
p142
tp143
Rp144
ag3
(g4
g5
Vcompleanno-google
p145
tp146
Rp147
ag3
(g4
g5
Vbarbara-d-urso
p148
tp149
Rp150
ag3
(g4
g5
Vatreju
p151
tp152
Rp153
ag3
(g4
g5
Vsassuolo-chievo
p154
tp155
Rp156
ag3
(g4
g5
Vserie-a-risultati
p157
tp158
Rp159
ag3
(g4
g5
Vgenoa-milan
p160
tp161
Rp162
ag3
(g4
g5
Vtorino-palermo
p163
tp164
Rp165
ag3
(g4
g5
Vgrande-fratello-2015
p166
tp167
Rp168
ag3
(g4
g5
Vbari-avellino
p169
tp170
Rp171
ag3
(g4
g5
Vcatalogna
p172
tp173
Rp174
ag3
(g4
g5
Vpietro-ingrao
p175
tp176
Rp177
ag3
(g4
g5
Vclassifica-serie-a
p178
tp179
Rp180
ag3
(g4
g5
Vveronica-maya
p181
tp182
Rp183
ag3
(g4
g5
Vrisultati-serie-a
p184
tp185
Rp186
ag3
(g4
g5
Vgp-giappone
p187
tp188
Rp189
asS'Spain'
p190
(lp191
g3
(g4
g5
Velecciones-catalanas
p192
tp193
Rp194
ag3
(g4
g5
Vreal-madrid-malaga
p195
tp196
Rp197
ag3
(g4
g5
Vmotogp
p198
tp199
Rp200
ag3
(g4
g5
Velecciones-cataluna
p201
tp202
Rp203
ag3
(g4
g5
Veclipse-lunar-2015
p204
tp205
Rp206
ag3
(g4
g5
Vthe-road
p207
tp208
Rp209
ag3
(g4
g5
Vsevilla-fc
p210
tp211
Rp212
ag3
(g4
g5
Vla-meca
p213
tp214
Rp215
ag3
(g4
g5
Vla-merce-2015
p216
tp217
Rp218
ag3
(g4
g5
Vmarc-marquez
p219
tp220
Rp221
ag3
(g4
g5
Vvillarreal
p222
tp223
Rp224
ag3
(g4
g5
Vjuan-gabriel
p225
tp226
Rp227
ag3
(g4
g5
Vemily-watson
p228
tp229
Rp230
ag3
(g4
g5
Vsporting-betis
p231
tp232
Rp233
ag3
(g4
g5
Vmadonna
p234
tp235
Rp236
ag3
(g4
g5
Vlos-otros
p237
tp238
Rp239
ag3
(g4
g5
Vdavid-bisbal
p240
tp241
Rp242
ag3
(g4
g5
Vmessi
p243
tp244
Rp245
ag3
(g4
g5
Vel-mensajero
p246
tp247
Rp248
ag3
(g4
g5
Vel-barrio
p249
tp250
Rp251
asS'UK'
p252
(lp253
g3
(g4
g5
Vengland-rugby
p254
tp255
Rp256
ag3
(g4
g5
Vblood-moon
p257
tp258
Rp259
ag3
(g4
g5
Vstevie-wonder
p260
tp261
Rp262
ag3
(g4
g5
Vmotogp
p263
tp264
Rp265
ag3
(g4
g5
Vfetty-wap
p266
tp267
Rp268
ag3
(g4
g5
Vgentrification
p269
tp270
Rp271
ag3
(g4
g5
Vowen-farrell
p272
tp273
Rp274
ag3
(g4
g5
Vman-utd
p275
tp276
Rp277
ag3
(g4
g5
Vwhen-is-google-s-birthday
p278
tp279
Rp280
ag3
(g4
g5
Vman-city
p281
tp282
Rp283
ag3
(g4
g5
Vnasa
p284
tp285
Rp286
ag3
(g4
g5
Vprince-william
p287
tp288
Rp289
ag3
(g4
g5
Vkatie-derham
p290
tp291
Rp292
ag3
(g4
g5
Vlunar-eclipse-2015-uk
p293
tp294
Rp295
ag3
(g4
g5
Vx-factor
p296
tp297
Rp298
ag3
(g4
g5
Viphone-6s
p299
tp300
Rp301
ag3
(g4
g5
Vgeorgia-may-foote
p302
tp303
Rp304
ag3
(g4
g5
Vjapanese-grand-prix
p305
tp306
Rp307
ag3
(g4
g5
Vchelsea
p308
tp309
Rp310
ag3
(g4
g5
Vkaley-cuoco
p311
tp312
Rp313
asS'India'
p314
(lp315
g3
(g4
g5
Vblood-moon
p316
tp317
Rp318
ag3
(g4
g5
V
p319
tp320
Rp321
ag3
(g4
g5
Vkis-kisko-pyaar-karoon
p322
tp323
Rp324
ag3
(g4
g5
Vepl-table
p325
tp326
Rp327
ag3
(g4
g5
Vrenault-kwid
p328
tp329
Rp330
ag3
(g4
g5
Vbhagat-singh
p331
tp332
Rp333
ag3
(g4
g5
Vsubramanyam-for-sale-review
p334
tp335
Rp336
ag3
(g4
g5
Vtesla-motors
p337
tp338
Rp339
ag3
(g4
g5
Vwhen-is-google-s-birthday
p340
tp341
Rp342
ag3
(g4
g5
Vdaughters-day
p343
tp344
Rp345
ag3
(g4
g5
Vcalendar-girls
p346
tp347
Rp348
ag3
(g4
g5
Vganesh-visarjan
p349
tp350
Rp351
ag3
(g4
g5
Vganpati-visarjan
p352
tp353
Rp354
ag3
(g4
g5
Vcho-ramaswamy
p355
tp356
Rp357
ag3
(g4
g5
Vmark-zuckerberg
p358
tp359
Rp360
ag3
(g4
g5
Vkarnataka-bandh
p361
tp362
Rp363
ag3
(g4
g5
Vmecca
p364
tp365
Rp366
ag3
(g4
g5
Vchelsea
p367
tp368
Rp369
ag3
(g4
g5
Vsplitsvilla-8-episode-15
p370
tp371
Rp372
asS'US'
p373
(lp374
g3
(g4
g5
Vmets
p375
tp376
Rp377
ag3
(g4
g5
Vtcu-football
p378
tp379
Rp380
ag3
(g4
g5
Vutah-football
p381
tp382
Rp383
ag3
(g4
g5
Vdeontay-wilder
p384
tp385
Rp386
ag3
(g4
g5
Vsouthern-university
p387
tp388
Rp389
ag3
(g4
g5
Vtennessee-football
p390
tp391
Rp392
ag3
(g4
g5
Vmessi
p393
tp394
Rp395
ag3
(g4
g5
Vdanny-pintauro
p396
tp397
Rp398
ag3
(g4
g5
Vglobal-citizen-festival
p399
tp400
Rp401
ag3
(g4
g5
Vbyu-football
p402
tp403
Rp404
ag3
(g4
g5
Veddie-lacy
p405
tp406
Rp407
ag3
(g4
g5
Vlunar-eclipse
p408
tp409
Rp410
ag3
(g4
g5
Vevan-murray
p411
tp412
Rp413
ag3
(g4
g5
Vbatman-day
p414
tp415
Rp416
ag3
(g4
g5
Vfetty-wap
p417
tp418
Rp419
ag3
(g4
g5
Vleonard-fournette
p420
tp421
Rp422
ag3
(g4
g5
Vdemarco-murray
p423
tp424
Rp425
ag3
(g4
g5
Vtexas-am
p426
tp427
Rp428
ag3
(g4
g5
Vmark-wahlberg
p429
tp430
Rp431
ag3
(g4
g5
Vchivas-vs-america
p432
tp433
Rp434
asS'France'
p435
(lp436
g3
(g4
g5
Vnadine-morano
p437
tp438
Rp439
ag3
(g4
g5
Vparis-versailles-2015
p440
tp441
Rp442
ag3
(g4
g5
Vgoogle
p443
tp444
Rp445
ag3
(g4
g5
Vsamoa
p446
tp447
Rp448
ag3
(g4
g5
Valexander-mcqueen
p449
tp450
Rp451
ag3
(g4
g5
Vparis-versailles
p452
tp453
Rp454
ag3
(g4
g5
Vfrance-gall
p455
tp456
Rp457
ag3
(g4
g5
Vom-angers
p458
tp459
Rp460
ag3
(g4
g5
Vmuriel-robin
p461
tp462
Rp463
ag3
(g4
g5
Vpays-de-galles
p464
tp465
Rp466
ag3
(g4
g5
Vnantes-psg
p467
tp468
Rp469
ag3
(g4
g5
Vfrederic-chau
p470
tp471
Rp472
ag3
(g4
g5
Vparis-sans-voiture
p473
tp474
Rp475
ag3
(g4
g5
Vprince-william
p476
tp477
Rp478
ag3
(g4
g5
Vmessi
p479
tp480
Rp481
ag3
(g4
g5
Vsqueezie-gaming-show
p482
tp483
Rp484
ag3
(g4
g5
Veclipse-lunaire
p485
tp486
Rp487
ag3
(g4
g5
Vlille-3000
p488
tp489
Rp490
ag3
(g4
g5
Vmoto-gp
p491
tp492
Rp493
ag3
(g4
g5
Vcatalogne
p494
tp495
Rp496
as.