(dp0
S'Brazil'
p1
(lp2
ccopy_reg
_reconstructor
p3
(cdjango.utils.safestring
SafeText
p4
c__builtin__
unicode
p5
Vufc-170
p6
tp7
Rp8
ag3
(g4
g5
Vrobocop
p9
tp10
Rp11
ag3
(g4
g5
Vdark-horse
p12
tp13
Rp14
ag3
(g4
g5
Vego
p15
tp16
Rp17
ag3
(g4
g5
Vwhatsapp
p18
tp19
Rp20
ag3
(g4
g5
Vpetrobras
p21
tp22
Rp23
asS'Australia'
p24
(lp25
g3
(g4
g5
Vufc-170
p26
tp27
Rp28
ag3
(g4
g5
Vukraine
p29
tp30
Rp31
ag3
(g4
g5
Viphone-6
p32
tp33
Rp34
ag3
(g4
g5
Vsamsung-galaxy-s5
p35
tp36
Rp37
ag3
(g4
g5
Vtom-cruise
p38
tp39
Rp40
ag3
(g4
g5
Vsam-worthington
p41
tp42
Rp43
ag3
(g4
g5
Vspace-jam-2
p44
tp45
Rp46
ag3
(g4
g5
Vdownton-abbey
p47
tp48
Rp49
ag3
(g4
g5
Vwwe
p50
tp51
Rp52
ag3
(g4
g5
Vtrue-detective
p53
tp54
Rp55
ag3
(g4
g5
Vharold-ramis
p56
tp57
Rp58
ag3
(g4
g5
Vpga-tour
p59
tp60
Rp61
ag3
(g4
g5
Vwhatsapp
p62
tp63
Rp64
asS'Italy'
p65
(lp66
g3
(g4
g5
Vron
p67
tp68
Rp69
ag3
(g4
g5
Vrai
p70
tp71
Rp72
ag3
(g4
g5
Vnoemi
p73
tp74
Rp75
ag3
(g4
g5
Vmaria-elena-boschi
p76
tp77
Rp78
ag3
(g4
g5
Vwhatsapp
p79
tp80
Rp81
ag3
(g4
g5
Vcarolina-kostner
p82
tp83
Rp84
asS'India'
p85
(lp86
g3
(g4
g5
Vgeetika-tyagi
p87
tp88
Rp89
ag3
(g4
g5
Vtelangana
p90
tp91
Rp92
ag3
(g4
g5
Vsamsung-galaxy-s5
p93
tp94
Rp95
ag3
(g4
g5
Vspicejet
p96
tp97
Rp98
ag3
(g4
g5
Vbudget-2014
p99
tp100
Rp101
ag3
(g4
g5
Vnokia-x
p102
tp103
Rp104
ag3
(g4
g5
Vaaha-kalyanam
p105
tp106
Rp107
ag3
(g4
g5
Vshivaji
p108
tp109
Rp110
ag3
(g4
g5
Vasia-cup-2014
p111
tp112
Rp113
ag3
(g4
g5
Vblackberry-z10
p114
tp115
Rp116
ag3
(g4
g5
Vchampions-league
p117
tp118
Rp119
ag3
(g4
g5
Vpompeii
p120
tp121
Rp122
ag3
(g4
g5
Vwhatsapp
p123
tp124
Rp125
ag3
(g4
g5
Vimtiaz-ali
p126
tp127
Rp128
asS'US'
p129
(lp130
g3
(g4
g5
Vpiers-morgan
p131
tp132
Rp133
ag3
(g4
g5
Vtaco-bell-breakfast
p134
tp135
Rp136
ag3
(g4
g5
Vnancy-kerrigan
p137
tp138
Rp139
ag3
(g4
g5
Vdrive
p140
tp141
Rp142
ag3
(g4
g5
Vtsla
p143
tp144
Rp145
ag3
(g4
g5
Vraymond-felton
p146
tp147
Rp148
ag3
(g4
g5
Vgalaxy-s5
p149
tp150
Rp151
ag3
(g4
g5
Vemma-coronel
p152
tp153
Rp154
ag3
(g4
g5
Vbitcoin
p155
tp156
Rp157
ag3
(g4
g5
Vseth-meyers
p158
tp159
Rp160
ag3
(g4
g5
Vwwe-network
p161
tp162
Rp163
ag3
(g4
g5
Vjadeveon-clowney
p164
tp165
Rp166
ag3
(g4
g5
Vwwe
p167
tp168
Rp169
ag3
(g4
g5
Vharold-ramis
p170
tp171
Rp172
ag3
(g4
g5
Verin-andrews
p173
tp174
Rp175
ag3
(g4
g5
Vdaytona-500
p176
tp177
Rp178
ag3
(g4
g5
Vpaula-patton
p179
tp180
Rp181
ag3
(g4
g5
Vliam-neeson
p182
tp183
Rp184
asS'France'
p185
(lp186
g3
(g4
g5
Vgalaxy-s5
p187
tp188
Rp189
ag3
(g4
g5
Vcharlotte-dawson
p190
tp191
Rp192
ag3
(g4
g5
Vnokia
p193
tp194
Rp195
ag3
(g4
g5
Vdrake
p196
tp197
Rp198
ag3
(g4
g5
Vbachelor
p199
tp200
Rp201
ag3
(g4
g5
Vvictor-dubuisson
p202
tp203
Rp204
ag3
(g4
g5
Vharold-ramis
p205
tp206
Rp207
ag3
(g4
g5
Vpaula-patton
p208
tp209
Rp210
asS'UK'
p211
(lp212
g3
(g4
g5
Vpiers-morgan
p213
tp214
Rp215
ag3
(g4
g5
Vsamsung-galaxy-s5
p216
tp217
Rp218
ag3
(g4
g5
Vjose-mourinho
p219
tp220
Rp221
ag3
(g4
g5
Vbitcoin
p222
tp223
Rp224
ag3
(g4
g5
Vwwe-network
p225
tp226
Rp227
ag3
(g4
g5
Vwwe
p228
tp229
Rp230
ag3
(g4
g5
Vtinder
p231
tp232
Rp233
ag3
(g4
g5
Vkristen-wiig
p234
tp235
Rp236
ag3
(g4
g5
Vharold-ramis
p237
tp238
Rp239
ag3
(g4
g5
Vpaula-patton
p240
tp241
Rp242
ag3
(g4
g5
Vliam-neeson
p243
tp244
Rp245
asS'Spain'
p246
(lp247
g3
(g4
g5
Vkiev
p248
tp249
Rp250
ag3
(g4
g5
Vgenesis-carmona
p251
tp252
Rp253
ag3
(g4
g5
Vline
p254
tp255
Rp256
ag3
(g4
g5
Vreal-sociedad
p257
tp258
Rp259
ag3
(g4
g5
Vreal-madrid
p260
tp261
Rp262
ag3
(g4
g5
Vpearl-harbor
p263
tp264
Rp265
ag3
(g4
g5
Vvenezuela
p266
tp267
Rp268
ag3
(g4
g5
Vwhatsapp
p269
tp270
Rp271
as.