(dp0
S'Brazil'
p1
(lp2
ccopy_reg
_reconstructor
p3
(cdjango.utils.safestring
SafeText
p4
c__builtin__
unicode
p5
Valine-bbb15
p6
tp7
Rp8
ag3
(g4
g5
Vapuracao-carnaval-2015
p9
tp10
Rp11
ag3
(g4
g5
Vprouni
p12
tp13
Rp14
ag3
(g4
g5
Vlucas-silva
p15
tp16
Rp17
ag3
(g4
g5
Vatletico-mineiro
p18
tp19
Rp20
ag3
(g4
g5
Vkurt-cobain
p21
tp22
Rp23
ag3
(g4
g5
Vmorena-baccarin
p24
tp25
Rp26
ag3
(g4
g5
Vsao-paulo-e-corinthians
p27
tp28
Rp29
ag3
(g4
g5
Vufpe
p30
tp31
Rp32
ag3
(g4
g5
Vlotofacil-1172
p33
tp34
Rp35
ag3
(g4
g5
Vboyhood
p36
tp37
Rp38
ag3
(g4
g5
Vhoroscopo-chines
p39
tp40
Rp41
ag3
(g4
g5
Vendometriose
p42
tp43
Rp44
ag3
(g4
g5
Vbeija-flor
p45
tp46
Rp47
ag3
(g4
g5
Vjason-momoa
p48
tp49
Rp50
ag3
(g4
g5
Vcorinthians
p51
tp52
Rp53
ag3
(g4
g5
Vbruce-dickinson
p54
tp55
Rp56
ag3
(g4
g5
Vufpi
p57
tp58
Rp59
ag3
(g4
g5
Vellen-page
p60
tp61
Rp62
ag3
(g4
g5
Vbbb-15
p63
tp64
Rp65
asS'Australia'
p66
(lp67
g3
(g4
g5
Vchris-o-dowd
p68
tp69
Rp70
ag3
(g4
g5
Vroad-closures
p71
tp72
Rp73
ag3
(g4
g5
Vfloyd-mayweather
p74
tp75
Rp76
ag3
(g4
g5
Vthe-sapphires
p77
tp78
Rp79
ag3
(g4
g5
Vwhite-night
p80
tp81
Rp82
ag3
(g4
g5
Vworld-cup-cricket
p83
tp84
Rp85
ag3
(g4
g5
Vemma-watson
p86
tp87
Rp88
ag3
(g4
g5
Varound-the-world-in-80-days
p89
tp90
Rp91
ag3
(g4
g5
Vnine-news
p92
tp93
Rp94
ag3
(g4
g5
Vamber-rose
p95
tp96
Rp97
ag3
(g4
g5
Vbom-weather
p98
tp99
Rp100
ag3
(g4
g5
Vchris-bosh
p101
tp102
Rp103
ag3
(g4
g5
Vpakistan-cricket-team
p104
tp105
Rp106
ag3
(g4
g5
Vjason-momoa
p107
tp108
Rp109
ag3
(g4
g5
Vcyclone-lam
p110
tp111
Rp112
ag3
(g4
g5
Vkarmichael-hunt
p113
tp114
Rp115
ag3
(g4
g5
Vaustralia-vs-bangladesh
p116
tp117
Rp118
ag3
(g4
g5
Vglenn-mcgrath
p119
tp120
Rp121
ag3
(g4
g5
Vwhite-night-melbourne
p122
tp123
Rp124
ag3
(g4
g5
Vdubai-fire
p125
tp126
Rp127
asS'Italy'
p128
(lp129
g3
(g4
g5
Vbuoni-sconto
p130
tp131
Rp132
ag3
(g4
g5
Vprobabili-formazioni
p133
tp134
Rp135
ag3
(g4
g5
Vdubai
p136
tp137
Rp138
ag3
(g4
g5
Vun-passo-dal-cielo-3
p139
tp140
Rp141
ag3
(g4
g5
Vjuventus-atalanta
p142
tp143
Rp144
ag3
(g4
g5
Vfantagazzetta
p145
tp146
Rp147
ag3
(g4
g5
Vcoupon
p148
tp149
Rp150
ag3
(g4
g5
Vbatman
p151
tp152
Rp153
ag3
(g4
g5
Vwanda-nara
p154
tp155
Rp156
ag3
(g4
g5
Vrisultati-serie-a
p157
tp158
Rp159
ag3
(g4
g5
Vparma-udinese
p160
tp161
Rp162
ag3
(g4
g5
Vjobs-act
p163
tp164
Rp165
ag3
(g4
g5
Vemma-watson
p166
tp167
Rp168
ag3
(g4
g5
Vtreno-di-notte-per-lisbona
p169
tp170
Rp171
ag3
(g4
g5
Vsbk
p172
tp173
Rp174
ag3
(g4
g5
Vforte-forte-forte
p175
tp176
Rp177
ag3
(g4
g5
Vle-iene
p178
tp179
Rp180
ag3
(g4
g5
Velisa
p181
tp182
Rp183
ag3
(g4
g5
Vil-bosco
p184
tp185
Rp186
ag3
(g4
g5
Vcolorado-2015
p187
tp188
Rp189
asS'Spain'
p190
(lp191
g3
(g4
g5
Vel-francotirador
p192
tp193
Rp194
ag3
(g4
g5
Veuropa-league
p195
tp196
Rp197
ag3
(g4
g5
Vsindrome-de-asperger
p198
tp199
Rp200
ag3
(g4
g5
Vlucas-silva
p201
tp202
Rp203
ag3
(g4
g5
Vjulio-iglesias
p204
tp205
Rp206
ag3
(g4
g5
Vathletic
p207
tp208
Rp209
ag3
(g4
g5
Vella-baila-sola
p210
tp211
Rp212
ag3
(g4
g5
Vbarcelona-malaga
p213
tp214
Rp215
ag3
(g4
g5
Vbeyonce
p216
tp217
Rp218
ag3
(g4
g5
Vhoroscopo-chino-2015
p219
tp220
Rp221
ag3
(g4
g5
Valessandro-volta
p222
tp223
Rp224
ag3
(g4
g5
Vbajo-sospecha
p225
tp226
Rp227
ag3
(g4
g5
Vsovaldi
p228
tp229
Rp230
ag3
(g4
g5
Vhoroscopo-chino
p231
tp232
Rp233
ag3
(g4
g5
Vmonedero
p234
tp235
Rp236
ag3
(g4
g5
Vjason-momoa
p237
tp238
Rp239
ag3
(g4
g5
Vbruce-dickinson
p240
tp241
Rp242
ag3
(g4
g5
Vano-nuevo-chino
p243
tp244
Rp245
ag3
(g4
g5
Vmiercoles-de-ceniza
p246
tp247
Rp248
ag3
(g4
g5
Voliver-sacks
p249
tp250
Rp251
asS'UK'
p252
(lp253
g3
(g4
g5
Vpremier-league
p254
tp255
Rp256
ag3
(g4
g5
Vfloyd-mayweather
p257
tp258
Rp259
ag3
(g4
g5
Vliverpool
p260
tp261
Rp262
ag3
(g4
g5
Vkathy-beale
p263
tp264
Rp265
ag3
(g4
g5
Vkelly-clarkson
p266
tp267
Rp268
ag3
(g4
g5
Vharris-wittels
p269
tp270
Rp271
ag3
(g4
g5
Veastenders
p272
tp273
Rp274
ag3
(g4
g5
Vpeter-beale
p275
tp276
Rp277
ag3
(g4
g5
Vbt-sport
p278
tp279
Rp280
ag3
(g4
g5
Vfantasy-football
p281
tp282
Rp283
ag3
(g4
g5
Vamber-rose
p284
tp285
Rp286
ag3
(g4
g5
Vemma-watson
p287
tp288
Rp289
ag3
(g4
g5
Vaquaman
p290
tp291
Rp292
ag3
(g4
g5
Vcelia-imrie
p293
tp294
Rp295
ag3
(g4
g5
Vben-hardy
p296
tp297
Rp298
ag3
(g4
g5
Vt-in-the-park
p299
tp300
Rp301
ag3
(g4
g5
Vsean-penn
p302
tp303
Rp304
ag3
(g4
g5
Vbear-grylls
p305
tp306
Rp307
ag3
(g4
g5
Vmark-rylance
p308
tp309
Rp310
ag3
(g4
g5
Vburger-king-delivery
p311
tp312
Rp313
asS'India'
p314
(lp315
g3
(g4
g5
Vunited-arab-emirates-cricket-team
p316
tp317
Rp318
ag3
(g4
g5
Vindia-vs-south-africa
p319
tp320
Rp321
ag3
(g4
g5
Vashraful-haque
p322
tp323
Rp324
ag3
(g4
g5
Vramanaidu
p325
tp326
Rp327
ag3
(g4
g5
Vpsg-vs-chelsea
p328
tp329
Rp330
ag3
(g4
g5
Vaero-india-2015
p331
tp332
Rp333
ag3
(g4
g5
Vnew-zealand-vs-england
p334
tp335
Rp336
ag3
(g4
g5
Vbandipotu-review
p337
tp338
Rp339
ag3
(g4
g5
Vengland-cricket-team
p340
tp341
Rp342
ag3
(g4
g5
Vbadlapur
p343
tp344
Rp345
ag3
(g4
g5
Vbmw-i8
p346
tp347
Rp348
ag3
(g4
g5
Vash-wednesday
p349
tp350
Rp351
ag3
(g4
g5
Vreal-madrid
p352
tp353
Rp354
ag3
(g4
g5
Vbihar-news
p355
tp356
Rp357
ag3
(g4
g5
Valessandro-volta
p358
tp359
Rp360
ag3
(g4
g5
Vlorena-rojas
p361
tp362
Rp363
ag3
(g4
g5
Vaustralia-vs-bangladesh
p364
tp365
Rp366
ag3
(g4
g5
Vchelsea
p367
tp368
Rp369
ag3
(g4
g5
Vpakistan-cricket-team
p370
tp371
Rp372
ag3
(g4
g5
Vlunar-new-year
p373
tp374
Rp375
asS'US'
p376
(lp377
g3
(g4
g5
Vslender-man
p378
tp379
Rp380
ag3
(g4
g5
Vfloyd-mayweather
p381
tp382
Rp383
ag3
(g4
g5
Vdanica-patrick
p384
tp385
Rp386
ag3
(g4
g5
Vmichael-carter-williams
p387
tp388
Rp389
ag3
(g4
g5
Vnba-trades
p390
tp391
Rp392
ag3
(g4
g5
Vharris-wittels
p393
tp394
Rp395
ag3
(g4
g5
Vkurt-busch
p396
tp397
Rp398
ag3
(g4
g5
Vdubai
p399
tp400
Rp401
ag3
(g4
g5
Vreggie-jackson
p402
tp403
Rp404
ag3
(g4
g5
Vbirdman
p405
tp406
Rp407
ag3
(g4
g5
Vamber-rose
p408
tp409
Rp410
ag3
(g4
g5
Vemma-watson
p411
tp412
Rp413
ag3
(g4
g5
Vchris-bosh
p414
tp415
Rp416
ag3
(g4
g5
Vniagara-falls-frozen
p417
tp418
Rp419
ag3
(g4
g5
Vmcfarland-usa
p420
tp421
Rp422
ag3
(g4
g5
Vjason-momoa
p423
tp424
Rp425
ag3
(g4
g5
Vben-woolf
p426
tp427
Rp428
ag3
(g4
g5
Vtwo-and-a-half-men
p429
tp430
Rp431
ag3
(g4
g5
Vkurt-cobain
p432
tp433
Rp434
ag3
(g4
g5
Viggy-azalea
p435
tp436
Rp437
asS'France'
p438
(lp439
g3
(g4
g5
Vkristen-stewart
p440
tp441
Rp442
ag3
(g4
g5
Vlouane-emera
p443
tp444
Rp445
ag3
(g4
g5
Vfanny-agostini
p446
tp447
Rp448
ag3
(g4
g5
Vsalon-de-l-agriculture-2015
p449
tp450
Rp451
ag3
(g4
g5
Vthe-strain
p452
tp453
Rp454
ag3
(g4
g5
Vyves-saint-laurent
p455
tp456
Rp457
ag3
(g4
g5
Vayem
p458
tp459
Rp460
ag3
(g4
g5
Vnouvel-an-chinois
p461
tp462
Rp463
ag3
(g4
g5
Vla-fouine
p464
tp465
Rp466
ag3
(g4
g5
Vbeyonce
p467
tp468
Rp469
ag3
(g4
g5
Valessandro-volta
p470
tp471
Rp472
ag3
(g4
g5
Vcecile-cassel
p473
tp474
Rp475
ag3
(g4
g5
Vgleeden
p476
tp477
Rp478
ag3
(g4
g5
Vcesar-2015
p479
tp480
Rp481
ag3
(g4
g5
Vsabine-azema
p482
tp483
Rp484
ag3
(g4
g5
Vnoma
p485
tp486
Rp487
ag3
(g4
g5
Vsean-penn
p488
tp489
Rp490
ag3
(g4
g5
Vzabou-breitman
p491
tp492
Rp493
ag3
(g4
g5
Vguingamp
p494
tp495
Rp496
ag3
(g4
g5
Vtan
p497
tp498
Rp499
as.