(dp0
S'Brazil'
p1
(lp2
ccopy_reg
_reconstructor
p3
(cdjango.utils.safestring
SafeText
p4
c__builtin__
unicode
p5
Vstyle-taylor-swift
p6
tp7
Rp8
ag3
(g4
g5
Vdia-dos-namorados
p9
tp10
Rp11
ag3
(g4
g5
V50-tons-de-cinza
p12
tp13
Rp14
ag3
(g4
g5
V50-tons-de-cinza-filme
p15
tp16
Rp17
ag3
(g4
g5
Vhorario-de-verao
p18
tp19
Rp20
ag3
(g4
g5
Vluma-de-oliveira
p21
tp22
Rp23
ag3
(g4
g5
Vmanu-gavassi
p24
tp25
Rp26
ag3
(g4
g5
Vblocos-de-carnaval-2015
p27
tp28
Rp29
ag3
(g4
g5
Vbig-brother-brasil-2015
p30
tp31
Rp32
ag3
(g4
g5
Vsexta-feira-13
p33
tp34
Rp35
ag3
(g4
g5
Vlula
p36
tp37
Rp38
ag3
(g4
g5
Venquete-bbb15
p39
tp40
Rp41
ag3
(g4
g5
Vmarcio-victor
p42
tp43
Rp44
ag3
(g4
g5
Vvalentines-day
p45
tp46
Rp47
ag3
(g4
g5
Vsisu
p48
tp49
Rp50
ag3
(g4
g5
Vovo-faberge
p51
tp52
Rp53
ag3
(g4
g5
Vwaze
p54
tp55
Rp56
ag3
(g4
g5
Vtomie-ohtake
p57
tp58
Rp59
ag3
(g4
g5
Vdesfile-das-escolas-de-samba-2015
p60
tp61
Rp62
asS'Australia'
p63
(lp64
g3
(g4
g5
Vreese-witherspoon
p65
tp66
Rp67
ag3
(g4
g5
Vearthquake-today
p68
tp69
Rp70
ag3
(g4
g5
Vcreative-gourmet-mixed-berries
p71
tp72
Rp73
ag3
(g4
g5
Vshrove-tuesday
p74
tp75
Rp76
ag3
(g4
g5
Vrob-hemsworth
p77
tp78
Rp79
ag3
(g4
g5
Vthe-block
p80
tp81
Rp82
ag3
(g4
g5
Vfa-cup
p83
tp84
Rp85
ag3
(g4
g5
Vsophie-delezio
p86
tp87
Rp88
ag3
(g4
g5
Vfreddie-flintoff
p89
tp90
Rp91
ag3
(g4
g5
Vipl-auction
p92
tp93
Rp94
ag3
(g4
g5
Vmadison-ashton
p95
tp96
Rp97
ag3
(g4
g5
Vkoo-stark
p98
tp99
Rp100
ag3
(g4
g5
Vcopenhagen
p101
tp102
Rp103
ag3
(g4
g5
Vlouis-tomlinson
p104
tp105
Rp106
ag3
(g4
g5
Vindia-vs-pakistan
p107
tp108
Rp109
ag3
(g4
g5
Vamanda-seyfried
p110
tp111
Rp112
ag3
(g4
g5
Vfrozen-berry-recall
p113
tp114
Rp115
ag3
(g4
g5
Vmichele-ferrero
p116
tp117
Rp118
ag3
(g4
g5
Vdarren-jolly
p119
tp120
Rp121
ag3
(g4
g5
Vbroadchurch
p122
tp123
Rp124
asS'Italy'
p125
(lp126
g3
(g4
g5
Vniang
p127
tp128
Rp129
ag3
(g4
g5
Vlara-fabian
p130
tp131
Rp132
ag3
(g4
g5
Vcarmine-buschini
p133
tp134
Rp135
ag3
(g4
g5
Visis
p136
tp137
Rp138
ag3
(g4
g5
Vnek
p139
tp140
Rp141
ag3
(g4
g5
Vibrahimovic
p142
tp143
Rp144
ag3
(g4
g5
Vchievo-sampdoria
p145
tp146
Rp147
ag3
(g4
g5
Vmonica-bellucci
p148
tp149
Rp150
ag3
(g4
g5
Vnesli
p151
tp152
Rp153
ag3
(g4
g5
Vbanzai
p154
tp155
Rp156
ag3
(g4
g5
Vatalanta-inter
p157
tp158
Rp159
ag3
(g4
g5
Vnek-fatti-avanti-amore
p160
tp161
Rp162
ag3
(g4
g5
Vcesena-juventus
p163
tp164
Rp165
ag3
(g4
g5
Vchampions-league
p166
tp167
Rp168
ag3
(g4
g5
Vmaurizio-costanzo
p169
tp170
Rp171
ag3
(g4
g5
Vmirko-trovato
p172
tp173
Rp174
ag3
(g4
g5
Vlibia
p175
tp176
Rp177
ag3
(g4
g5
Vmilan-empoli
p178
tp179
Rp180
ag3
(g4
g5
Vyari-carrisi
p181
tp182
Rp183
ag3
(g4
g5
Vroma-parma
p184
tp185
Rp186
asS'Spain'
p187
(lp188
g3
(g4
g5
Vnba-all-star
p189
tp190
Rp191
ag3
(g4
g5
Vimagenes-de-san-valentin
p192
tp193
Rp194
ag3
(g4
g5
Vdia-de-san-valentin
p195
tp196
Rp197
ag3
(g4
g5
V50-sombras-de-grey-pelicula
p198
tp199
Rp200
ag3
(g4
g5
Vibrahimovic
p201
tp202
Rp203
ag3
(g4
g5
Vcelta-atletico-de-madrid
p204
tp205
Rp206
ag3
(g4
g5
Vall-star
p207
tp208
Rp209
ag3
(g4
g5
Variana-grande
p210
tp211
Rp212
ag3
(g4
g5
Vfeliz-san-valentin
p213
tp214
Rp215
ag3
(g4
g5
Vsan-valentin
p216
tp217
Rp218
ag3
(g4
g5
Vsingapur
p219
tp220
Rp221
ag3
(g4
g5
Vde-juana-chaos
p222
tp223
Rp224
ag3
(g4
g5
Vsan-valentin-2015
p225
tp226
Rp227
ag3
(g4
g5
Vsergio-blanco
p228
tp229
Rp230
ag3
(g4
g5
Vdinamarca
p231
tp232
Rp233
ag3
(g4
g5
Vbarcelona-levante
p234
tp235
Rp236
ag3
(g4
g5
Vpau-gasol
p237
tp238
Rp239
ag3
(g4
g5
Vzach-lavine
p240
tp241
Rp242
ag3
(g4
g5
Vall-star-2015
p243
tp244
Rp245
ag3
(g4
g5
Vcartagena-de-indias
p246
tp247
Rp248
asS'UK'
p249
(lp250
g3
(g4
g5
Vengland-rugby
p251
tp252
Rp253
ag3
(g4
g5
Vyakubu
p254
tp255
Rp256
ag3
(g4
g5
Vtony-hart
p257
tp258
Rp259
ag3
(g4
g5
Vjacqueline-jossa
p260
tp261
Rp262
ag3
(g4
g5
Vindian-summers
p263
tp264
Rp265
ag3
(g4
g5
Vcarol-mcgiffin
p266
tp267
Rp268
ag3
(g4
g5
Vzane-lowe
p269
tp270
Rp271
ag3
(g4
g5
Vmargot-robbie
p272
tp273
Rp274
ag3
(g4
g5
Vfa-cup
p275
tp276
Rp277
ag3
(g4
g5
Vlouis-jourdan
p278
tp279
Rp280
ag3
(g4
g5
Vuniversal-credit
p281
tp282
Rp283
ag3
(g4
g5
Vlive-cricket
p284
tp285
Rp286
ag3
(g4
g5
Vgoldie-hawn
p287
tp288
Rp289
ag3
(g4
g5
Vvalentines-day
p290
tp291
Rp292
ag3
(g4
g5
Vlouis-tomlinson
p293
tp294
Rp295
ag3
(g4
g5
Vindia-vs-pakistan
p296
tp297
Rp298
ag3
(g4
g5
Vdave-clark-five
p299
tp300
Rp301
ag3
(g4
g5
Vcopenhagen
p302
tp303
Rp304
ag3
(g4
g5
Vthe-casual-vacancy
p305
tp306
Rp307
ag3
(g4
g5
Vmark-rylance
p308
tp309
Rp310
asS'India'
p311
(lp312
g3
(g4
g5
Vsouth-africa-vs-zimbabwe
p313
tp314
Rp315
ag3
(g4
g5
Vcricket-score
p316
tp317
Rp318
ag3
(g4
g5
Vcricket
p319
tp320
Rp321
ag3
(g4
g5
Vlive-streaming-cricket
p322
tp323
Rp324
ag3
(g4
g5
Vbhagat-singh
p325
tp326
Rp327
ag3
(g4
g5
Vipl-auction-2015
p328
tp329
Rp330
ag3
(g4
g5
Vireland-cricket-team
p331
tp332
Rp333
ag3
(g4
g5
Vindia-vs-pakistan
p334
tp335
Rp336
ag3
(g4
g5
Vindia-vs-pakistan-cricket
p337
tp338
Rp339
ag3
(g4
g5
Vr-r-patil
p340
tp341
Rp342
ag3
(g4
g5
Vanushka-sharma
p343
tp344
Rp345
ag3
(g4
g5
Vlive-cricket-score
p346
tp347
Rp348
ag3
(g4
g5
Vlive-cricket
p349
tp350
Rp351
ag3
(g4
g5
Vmahashivratri
p352
tp353
Rp354
ag3
(g4
g5
Vespncricinfo
p355
tp356
Rp357
ag3
(g4
g5
Vshahid-afridi
p358
tp359
Rp360
ag3
(g4
g5
Vindia-cricket-team
p361
tp362
Rp363
ag3
(g4
g5
Vkc-cariappa
p364
tp365
Rp366
ag3
(g4
g5
Vespn
p367
tp368
Rp369
asS'US'
p370
(lp371
g3
(g4
g5
Vvalentine-s-day
p372
tp373
Rp374
ag3
(g4
g5
Vpaul-mccartney
p375
tp376
Rp377
ag3
(g4
g5
Vnba-all-star-game
p378
tp379
Rp380
ag3
(g4
g5
Vbill-murray
p381
tp382
Rp383
ag3
(g4
g5
Vpaul-simon
p384
tp385
Rp386
ag3
(g4
g5
Vcindy-crawford
p387
tp388
Rp389
ag3
(g4
g5
Vlauren-cohan
p390
tp391
Rp392
ag3
(g4
g5
Vindia-vs-pakistan
p393
tp394
Rp395
ag3
(g4
g5
Vhappy-valentine-s-day
p396
tp397
Rp398
ag3
(g4
g5
Vtracy-morgan
p399
tp400
Rp401
ag3
(g4
g5
Vzach-lavine
p402
tp403
Rp404
ag3
(g4
g5
Vphil-hartman
p405
tp406
Rp407
ag3
(g4
g5
Vchevy-chase
p408
tp409
Rp410
ag3
(g4
g5
Vthe-bachelor
p411
tp412
Rp413
ag3
(g4
g5
Vvalentines-day
p414
tp415
Rp416
ag3
(g4
g5
Vnbc
p417
tp418
Rp419
ag3
(g4
g5
Vsnl-40
p420
tp421
Rp422
ag3
(g4
g5
Vsteve-montador
p423
tp424
Rp425
ag3
(g4
g5
Vbetty-white
p426
tp427
Rp428
ag3
(g4
g5
Vchris-farley
p429
tp430
Rp431
asS'France'
p432
(lp433
g3
(g4
g5
Valexandra-lamy
p434
tp435
Rp436
ag3
(g4
g5
Vcopenhague
p437
tp438
Rp439
ag3
(g4
g5
Vsaint-valentin
p440
tp441
Rp442
ag3
(g4
g5
Vsalon-de-l-agriculture
p443
tp444
Rp445
ag3
(g4
g5
Vzach-lavine
p446
tp447
Rp448
ag3
(g4
g5
Vjuliette-binoche
p449
tp450
Rp451
ag3
(g4
g5
Vthe-dark-knight-rises
p452
tp453
Rp454
ag3
(g4
g5
Vlorient-lyon
p455
tp456
Rp457
ag3
(g4
g5
Vcatherine-zeta-jones
p458
tp459
Rp460
ag3
(g4
g5
Vlouis-jourdan
p461
tp462
Rp463
ag3
(g4
g5
Vjean-baptiste-grange
p464
tp465
Rp466
ag3
(g4
g5
Vsarre-union
p467
tp468
Rp469
ag3
(g4
g5
Vgeoffroy-didier
p470
tp471
Rp472
ag3
(g4
g5
Vmarion-cotillard
p473
tp474
Rp475
ag3
(g4
g5
Vtom-hardy
p476
tp477
Rp478
ag3
(g4
g5
Vroland-dumas
p479
tp480
Rp481
ag3
(g4
g5
Vfrance-irlande
p482
tp483
Rp484
ag3
(g4
g5
Vjulien-clerc
p485
tp486
Rp487
ag3
(g4
g5
Vmichele-ferrero
p488
tp489
Rp490
ag3
(g4
g5
Vle-gout-de-la-vie
p491
tp492
Rp493
as.