(dp0
S'Brazil'
p1
(lp2
ccopy_reg
_reconstructor
p3
(cdjango.utils.safestring
SafeText
p4
c__builtin__
unicode
p5
Vipva
p6
tp7
Rp8
ag3
(g4
g5
Vano-novo
p9
tp10
Rp11
ag3
(g4
g5
Vferiados-2015
p12
tp13
Rp14
ag3
(g4
g5
Vshow-da-virada-2015
p15
tp16
Rp17
ag3
(g4
g5
Vconcursos-2015
p18
tp19
Rp20
ag3
(g4
g5
Vmega
p21
tp22
Rp23
ag3
(g4
g5
Vextintor-abc
p24
tp25
Rp26
ag3
(g4
g5
Vfeliz-ano-novo-amor
p27
tp28
Rp29
ag3
(g4
g5
Vsao-silvestre
p30
tp31
Rp32
ag3
(g4
g5
Vresultado-enem-2014
p33
tp34
Rp35
ag3
(g4
g5
Vmega-sena
p36
tp37
Rp38
ag3
(g4
g5
V2015
p39
tp40
Rp41
ag3
(g4
g5
Vandreia-horta
p42
tp43
Rp44
ag3
(g4
g5
Vcalendario-2015
p45
tp46
Rp47
ag3
(g4
g5
Vnota-legal
p48
tp49
Rp50
ag3
(g4
g5
Vmega-da-virada-2014
p51
tp52
Rp53
ag3
(g4
g5
Vfeliz-2015
p54
tp55
Rp56
ag3
(g4
g5
Vdilma-rousseff
p57
tp58
Rp59
ag3
(g4
g5
Venem
p60
tp61
Rp62
ag3
(g4
g5
Vsalario-minimo
p63
tp64
Rp65
asS'Australia'
p66
(lp67
g3
(g4
g5
Vpremier-league
p68
tp69
Rp70
ag3
(g4
g5
Vjessica-michibata
p71
tp72
Rp73
ag3
(g4
g5
Vsteven-gerrard
p74
tp75
Rp76
ag3
(g4
g5
Vcentrelink
p77
tp78
Rp79
ag3
(g4
g5
Vmrs-browns-boys
p80
tp81
Rp82
ag3
(g4
g5
Vthe-imitation-game
p83
tp84
Rp85
ag3
(g4
g5
Vmanchester-united
p86
tp87
Rp88
ag3
(g4
g5
Varsenal
p89
tp90
Rp91
ag3
(g4
g5
Vstephen-hawking
p92
tp93
Rp94
ag3
(g4
g5
Vbbc-football
p95
tp96
Rp97
ag3
(g4
g5
Vdaredevil
p98
tp99
Rp100
ag3
(g4
g5
Vtalulah-riley
p101
tp102
Rp103
ag3
(g4
g5
Vsampson-flat
p104
tp105
Rp106
ag3
(g4
g5
Vjoseph-gordon-levitt
p107
tp108
Rp109
ag3
(g4
g5
Vedward-herrmann
p110
tp111
Rp112
ag3
(g4
g5
Vaustralia-post
p113
tp114
Rp115
ag3
(g4
g5
Vmygov
p116
tp117
Rp118
ag3
(g4
g5
Vfield-day
p119
tp120
Rp121
ag3
(g4
g5
Vcfs
p122
tp123
Rp124
ag3
(g4
g5
Vkanye-west
p125
tp126
Rp127
asS'Italy'
p128
(lp129
g3
(g4
g5
Vmario-cuomo
p130
tp131
Rp132
ag3
(g4
g5
Vribelle-the-brave
p133
tp134
Rp135
ag3
(g4
g5
Vmolto-forte-incredibilmente-vicino
p136
tp137
Rp138
ag3
(g4
g5
Vcapodanno-2015
p139
tp140
Rp141
ag3
(g4
g5
Vbanco-popolare
p142
tp143
Rp144
ag3
(g4
g5
Vamerican-sniper
p145
tp146
Rp147
ag3
(g4
g5
Vgerrard
p148
tp149
Rp150
ag3
(g4
g5
Vcalendario-serie-a
p151
tp152
Rp153
ag3
(g4
g5
Vemma-stone
p154
tp155
Rp156
ag3
(g4
g5
Vdiretta
p157
tp158
Rp159
ag3
(g4
g5
Vgli-intoccabili
p160
tp161
Rp162
ag3
(g4
g5
Vsenza-identita
p163
tp164
Rp165
ag3
(g4
g5
Vvolantino-mediaworld
p166
tp167
Rp168
ag3
(g4
g5
Vcalendario-2015
p169
tp170
Rp171
ag3
(g4
g5
Vmps
p172
tp173
Rp174
ag3
(g4
g5
Vpodolski
p175
tp176
Rp177
ag3
(g4
g5
Vthe-amazing-spider-man-2
p178
tp179
Rp180
ag3
(g4
g5
Vshaqiri
p181
tp182
Rp183
ag3
(g4
g5
Vbollo-auto
p184
tp185
Rp186
ag3
(g4
g5
Vborsa-italiana
p187
tp188
Rp189
asS'Spain'
p190
(lp191
g3
(g4
g5
Vliga-bbva
p192
tp193
Rp194
ag3
(g4
g5
Vsylvester-stallone
p195
tp196
Rp197
ag3
(g4
g5
Vprima-de-riesgo
p198
tp199
Rp200
ag3
(g4
g5
Vsteven-gerrard
p201
tp202
Rp203
ag3
(g4
g5
Vjohnny-depp
p204
tp205
Rp206
ag3
(g4
g5
Vreyes-magos
p207
tp208
Rp209
ag3
(g4
g5
Vpiratas-del-caribe
p210
tp211
Rp212
ag3
(g4
g5
Vcarnaval-2015
p213
tp214
Rp215
ag3
(g4
g5
Vagustin-bravo
p216
tp217
Rp218
ag3
(g4
g5
Vroscon-de-reyes
p219
tp220
Rp221
ag3
(g4
g5
Vjessica-michibata
p222
tp223
Rp224
ag3
(g4
g5
Vcristina-pedroche
p225
tp226
Rp227
ag3
(g4
g5
Vcalendario-2015
p228
tp229
Rp230
ag3
(g4
g5
Vsorteo-once-1-enero-2015
p231
tp232
Rp233
ag3
(g4
g5
Vver-series-online
p234
tp235
Rp236
ag3
(g4
g5
Vterremoto-valencia
p237
tp238
Rp239
ag3
(g4
g5
Vatocha
p240
tp241
Rp242
ag3
(g4
g5
Vmiguel-angel-ferrer
p243
tp244
Rp245
ag3
(g4
g5
Virpf-2015
p246
tp247
Rp248
ag3
(g4
g5
Vonce
p249
tp250
Rp251
asS'UK'
p252
(lp253
g3
(g4
g5
Vhmrc
p254
tp255
Rp256
ag3
(g4
g5
Vroyal-mail
p257
tp258
Rp259
ag3
(g4
g5
Vjessica-michibata
p260
tp261
Rp262
ag3
(g4
g5
Vsteven-gerrard
p263
tp264
Rp265
ag3
(g4
g5
Vadam-lambert
p266
tp267
Rp268
ag3
(g4
g5
Vbbc-sport
p269
tp270
Rp271
ag3
(g4
g5
Vbenidorm
p272
tp273
Rp274
ag3
(g4
g5
Veastenders
p275
tp276
Rp277
ag3
(g4
g5
Vmiranda-hart
p278
tp279
Rp280
ag3
(g4
g5
Vfoxcatcher
p281
tp282
Rp283
ag3
(g4
g5
Vpost-office
p284
tp285
Rp286
ag3
(g4
g5
Varsenal
p287
tp288
Rp289
ag3
(g4
g5
Vpremier-league
p290
tp291
Rp292
ag3
(g4
g5
Vbirdman
p293
tp294
Rp295
ag3
(g4
g5
Vsky-sports
p296
tp297
Rp298
ag3
(g4
g5
Vweight-watchers
p299
tp300
Rp301
ag3
(g4
g5
Vhunger-games
p302
tp303
Rp304
ag3
(g4
g5
Vprince-andrew
p305
tp306
Rp307
ag3
(g4
g5
Vesio-trot
p308
tp309
Rp310
ag3
(g4
g5
Vwho-killed-lucy-beale
p311
tp312
Rp313
asS'India'
p314
(lp315
g3
(g4
g5
Vnew-year
p316
tp317
Rp318
ag3
(g4
g5
Vsteven-gerrard
p319
tp320
Rp321
ag3
(g4
g5
Vnew-year-2015
p322
tp323
Rp324
ag3
(g4
g5
Vnew-year-photos
p325
tp326
Rp327
ag3
(g4
g5
Vnew-year-photos-2015
p328
tp329
Rp330
ag3
(g4
g5
V2015-images
p331
tp332
Rp333
ag3
(g4
g5
Vnew-year-2015-quotes
p334
tp335
Rp336
ag3
(g4
g5
Vms-dhoni
p337
tp338
Rp339
ag3
(g4
g5
Vnew-year-wishes
p340
tp341
Rp342
ag3
(g4
g5
Vhappy-new-year-photo
p343
tp344
Rp345
ag3
(g4
g5
Vrobin-williams
p346
tp347
Rp348
ag3
(g4
g5
Vnarendra-modi
p349
tp350
Rp351
ag3
(g4
g5
Vgithub
p352
tp353
Rp354
ag3
(g4
g5
Vhappy-new-year-songs
p355
tp356
Rp357
ag3
(g4
g5
Vnew-year-pics
p358
tp359
Rp360
ag3
(g4
g5
Vhappy-new-year
p361
tp362
Rp363
ag3
(g4
g5
Vnew-year-quotes-2015
p364
tp365
Rp366
ag3
(g4
g5
Vnew-year-images
p367
tp368
Rp369
ag3
(g4
g5
Vchelsea
p370
tp371
Rp372
asS'US'
p373
(lp374
g3
(g4
g5
Vthe-woman-in-black-2-angel-of-death
p375
tp376
Rp377
ag3
(g4
g5
Vwatch-espn
p378
tp379
Rp380
ag3
(g4
g5
Vdonna-douglas
p381
tp382
Rp383
ag3
(g4
g5
Vnew-year-2015
p384
tp385
Rp386
ag3
(g4
g5
Valabama-football
p387
tp388
Rp389
ag3
(g4
g5
Vrose-parade
p390
tp391
Rp392
ag3
(g4
g5
Vwinter-classic-2015
p393
tp394
Rp395
ag3
(g4
g5
Vfafsa
p396
tp397
Rp398
ag3
(g4
g5
Vshawn-oakman
p399
tp400
Rp401
ag3
(g4
g5
Vamerican-girl
p402
tp403
Rp404
ag3
(g4
g5
Vrose-bowl-2015
p405
tp406
Rp407
ag3
(g4
g5
Vmario-cuomo
p408
tp409
Rp410
ag3
(g4
g5
Vkanye-west
p411
tp412
Rp413
ag3
(g4
g5
Vhgtv-dream-home
p414
tp415
Rp416
ag3
(g4
g5
Vespn-college-football
p417
tp418
Rp419
ag3
(g4
g5
Vcotton-bowl
p420
tp421
Rp422
ag3
(g4
g5
Vcitrus-bowl
p423
tp424
Rp425
ag3
(g4
g5
Vtasha-mccauley
p426
tp427
Rp428
ag3
(g4
g5
Vauburn-football
p429
tp430
Rp431
ag3
(g4
g5
Vback-to-the-future
p432
tp433
Rp434
asS'France'
p435
(lp436
g3
(g4
g5
Vgalette-des-rois
p437
tp438
Rp439
ag3
(g4
g5
Vadele-blanc-sec
p440
tp441
Rp442
ag3
(g4
g5
Vbrice-de-nice
p443
tp444
Rp445
ag3
(g4
g5
Vpole-emploi
p446
tp447
Rp448
ag3
(g4
g5
Vjean-pierre-foucault
p449
tp450
Rp451
ag3
(g4
g5
Vafter
p452
tp453
Rp454
ag3
(g4
g5
Vcomete
p455
tp456
Rp457
ag3
(g4
g5
Vun-monstre-a-paris
p458
tp459
Rp460
ag3
(g4
g5
Vepiphanie
p461
tp462
Rp463
ag3
(g4
g5
Vsteven-gerrard
p464
tp465
Rp466
ag3
(g4
g5
Vpatrick-bruel
p467
tp468
Rp469
ag3
(g4
g5
Vthomas-piketty
p470
tp471
Rp472
ag3
(g4
g5
Vthe-originals
p473
tp474
Rp475
ag3
(g4
g5
Vsoldes
p476
tp477
Rp478
ag3
(g4
g5
Vhatchi
p479
tp480
Rp481
ag3
(g4
g5
Vbonne-annee-2015
p482
tp483
Rp484
ag3
(g4
g5
Vcote-d-or
p485
tp486
Rp487
ag3
(g4
g5
Vla-reine-des-neiges
p488
tp489
Rp490
ag3
(g4
g5
Vmary-poppins
p491
tp492
Rp493
as.