(dp0
S'Australia'
p1
(lp2
ccopy_reg
_reconstructor
p3
(cdjango.utils.safestring
SafeText
p4
c__builtin__
unicode
p5
Vwhat-day-is-mother-s-day-2016
p6
tp7
Rp8
ag3
(g4
g5
Veurovision-2016
p9
tp10
Rp11
ag3
(g4
g5
Vmatt-irwin
p12
tp13
Rp14
ag3
(g4
g5
Vsydney-smoke
p15
tp16
Rp17
ag3
(g4
g5
Vhappy-mothers-day-message
p18
tp19
Rp20
ag3
(g4
g5
Vsadiq-khan
p21
tp22
Rp23
ag3
(g4
g5
Vblac-chyna
p24
tp25
Rp26
ag3
(g4
g5
Vpatrick-ekeng
p27
tp28
Rp29
ag3
(g4
g5
Vharry-styles
p30
tp31
Rp32
ag3
(g4
g5
Vsaturday-lotto
p33
tp34
Rp35
ag3
(g4
g5
Vsister-act
p36
tp37
Rp38
ag3
(g4
g5
Vmothers-day-cards
p39
tp40
Rp41
ag3
(g4
g5
Vgiro-d-italia
p42
tp43
Rp44
ag3
(g4
g5
Vwestern-bulldogs
p45
tp46
Rp47
ag3
(g4
g5
Vgtx-1080
p48
tp49
Rp50
ag3
(g4
g5
Vmothers-day-classic
p51
tp52
Rp53
ag3
(g4
g5
Vradiohead
p54
tp55
Rp56
ag3
(g4
g5
Vlauryn-hill
p57
tp58
Rp59
ag3
(g4
g5
Vkristen-bell
p60
tp61
Rp62
ag3
(g4
g5
Vrunning-man-challenge
p63
tp64
Rp65
asS'India'
p66
(lp67
g3
(g4
g5
Vshahid-afridi-daughter
p68
tp69
Rp70
ag3
(g4
g5
Vmother-day
p71
tp72
Rp73
ag3
(g4
g5
V1920-london
p74
tp75
Rp76
ag3
(g4
g5
Vtraffic-movie
p77
tp78
Rp79
ag3
(g4
g5
Vone-night-stand-review
p80
tp81
Rp82
ag3
(g4
g5
Vhappy-mothers-day-2016
p83
tp84
Rp85
ag3
(g4
g5
Vmothers-day-date
p86
tp87
Rp88
ag3
(g4
g5
Vmother-s-day
p89
tp90
Rp91
ag3
(g4
g5
Vsara-ali-khan
p92
tp93
Rp94
ag3
(g4
g5
Vbuddha-in-a-traffic-jam
p95
tp96
Rp97
ag3
(g4
g5
Vsunrisers-hyderabad-vs-gujarat-lions
p98
tp99
Rp100
ag3
(g4
g5
Vsusan-g-komen
p101
tp102
Rp103
ag3
(g4
g5
Vhappy-mothers-day
p104
tp105
Rp106
ag3
(g4
g5
Vcomedk-2016
p107
tp108
Rp109
ag3
(g4
g5
Vcisce-results-2016
p110
tp111
Rp112
ag3
(g4
g5
Vsigmund-freud
p113
tp114
Rp115
ag3
(g4
g5
Vttd
p116
tp117
Rp118
ag3
(g4
g5
Vrayalaseema-university
p119
tp120
Rp121
ag3
(g4
g5
Vchris-evans
p122
tp123
Rp124
ag3
(g4
g5
Vrcb-vs-rps
p125
tp126
Rp127
asS'UK'
p128
(lp129
g3
(g4
g5
Vneil-hamilton
p130
tp131
Rp132
ag3
(g4
g5
Vbattlefield-1
p133
tp134
Rp135
ag3
(g4
g5
Vboaty-mcboatface
p136
tp137
Rp138
ag3
(g4
g5
Vmother-s-day
p139
tp140
Rp141
ag3
(g4
g5
Vblac-chyna
p142
tp143
Rp144
ag3
(g4
g5
Vharry-styles
p145
tp146
Rp147
ag3
(g4
g5
Vmasterchef
p148
tp149
Rp150
ag3
(g4
g5
Vsadiq-khan
p151
tp152
Rp153
ag3
(g4
g5
Vandrea-bocelli
p154
tp155
Rp156
ag3
(g4
g5
Vbristol-mayor
p157
tp158
Rp159
ag3
(g4
g5
Vmiddlesbrough
p160
tp161
Rp162
ag3
(g4
g5
Vmother-s-day-2016
p163
tp164
Rp165
ag3
(g4
g5
Vmatt-irwin
p166
tp167
Rp168
ag3
(g4
g5
Vgtx-1080
p169
tp170
Rp171
ag3
(g4
g5
Vradiohead
p172
tp173
Rp174
ag3
(g4
g5
Vcolton-haynes
p175
tp176
Rp177
ag3
(g4
g5
Vpatrick-ekeng
p178
tp179
Rp180
ag3
(g4
g5
Vamir-khan
p181
tp182
Rp183
ag3
(g4
g5
Vsamuel-l-jackson
p184
tp185
Rp186
ag3
(g4
g5
Vtom-hiddleston
p187
tp188
Rp189
asS'US'
p190
(lp191
g3
(g4
g5
Vmila-kunis
p192
tp193
Rp194
ag3
(g4
g5
Vjerry-sandusky
p195
tp196
Rp197
ag3
(g4
g5
Vfloyd-mayweather
p198
tp199
Rp200
ag3
(g4
g5
Vkentucky-derby-2016
p201
tp202
Rp203
ag3
(g4
g5
Vbattlefield-1
p204
tp205
Rp206
ag3
(g4
g5
Vsinead-o-connor
p207
tp208
Rp209
ag3
(g4
g5
Vsadiq-khan
p210
tp211
Rp212
ag3
(g4
g5
Vblac-chyna
p213
tp214
Rp215
ag3
(g4
g5
Vmothers-day-quotes
p216
tp217
Rp218
ag3
(g4
g5
Vharry-styles
p219
tp220
Rp221
ag3
(g4
g5
Vtampa-bay-lightning
p222
tp223
Rp224
ag3
(g4
g5
Velizabeth-warren
p225
tp226
Rp227
ag3
(g4
g5
Vmint-julep-recipe
p228
tp229
Rp230
ag3
(g4
g5
Vamerican-idol-contestant-killed-in-car-accident
p231
tp232
Rp233
ag3
(g4
g5
Vchance-the-rapper
p234
tp235
Rp236
ag3
(g4
g5
Vhappy-mothers-day
p237
tp238
Rp239
ag3
(g4
g5
Vgtx-1080
p240
tp241
Rp242
ag3
(g4
g5
Vcanelo-vs-khan
p243
tp244
Rp245
ag3
(g4
g5
Vcavs
p246
tp247
Rp248
ag3
(g4
g5
Vspurs
p249
tp250
Rp251
as.