(dp0
S'Brazil'
p1
(lp2
ccopy_reg
_reconstructor
p3
(cdjango.utils.safestring
SafeText
p4
c__builtin__
unicode
p5
Valine-bbb15
p6
tp7
Rp8
ag3
(g4
g5
Vprouni
p9
tp10
Rp11
ag3
(g4
g5
Vmc-gui
p12
tp13
Rp14
ag3
(g4
g5
Vufpa
p15
tp16
Rp17
ag3
(g4
g5
Vsisu-resultado
p18
tp19
Rp20
ag3
(g4
g5
Vlucas-silva
p21
tp22
Rp23
ag3
(g4
g5
Vfoo-fighters
p24
tp25
Rp26
ag3
(g4
g5
Vauschwitz
p27
tp28
Rp29
ag3
(g4
g5
Veverton-ribeiro
p30
tp31
Rp32
ag3
(g4
g5
Vantonia-fontenelle
p33
tp34
Rp35
ag3
(g4
g5
Vmarcos-paulo
p36
tp37
Rp38
ag3
(g4
g5
Vsabesp
p39
tp40
Rp41
ag3
(g4
g5
Vfelizes-para-sempre
p42
tp43
Rp44
ag3
(g4
g5
Vsao-paulo
p45
tp46
Rp47
ag3
(g4
g5
Vestado-islamico
p48
tp49
Rp50
ag3
(g4
g5
Vmiss-universo-2015
p51
tp52
Rp53
ag3
(g4
g5
Vjulia-bbb-15
p54
tp55
Rp56
ag3
(g4
g5
Vdemis-roussos
p57
tp58
Rp59
ag3
(g4
g5
Vunifesp
p60
tp61
Rp62
ag3
(g4
g5
Vmark-zuckerberg
p63
tp64
Rp65
asS'Australia'
p66
(lp67
g3
(g4
g5
Vmadison-keys
p68
tp69
Rp70
ag3
(g4
g5
Vnew-york-times
p71
tp72
Rp73
ag3
(g4
g5
Vbouchard
p74
tp75
Rp76
ag3
(g4
g5
Vdying-light
p77
tp78
Rp79
ag3
(g4
g5
Vauschwitz
p80
tp81
Rp82
ag3
(g4
g5
Vuniqlo
p83
tp84
Rp85
ag3
(g4
g5
Vmiley-cyrus
p86
tp87
Rp88
ag3
(g4
g5
Vallan-border-medal
p89
tp90
Rp91
ag3
(g4
g5
Vheidi-klum
p92
tp93
Rp94
ag3
(g4
g5
Vasian-cup-2015
p95
tp96
Rp97
ag3
(g4
g5
Vmia-khalifa
p98
tp99
Rp100
ag3
(g4
g5
Vfacebook-down
p101
tp102
Rp103
ag3
(g4
g5
Vemma-watson
p104
tp105
Rp106
ag3
(g4
g5
Vthe-block
p107
tp108
Rp109
ag3
(g4
g5
Vregan-grieve
p110
tp111
Rp112
ag3
(g4
g5
Vkim-sears
p113
tp114
Rp115
ag3
(g4
g5
Vnew-york-weather
p116
tp117
Rp118
ag3
(g4
g5
Vdemis-roussos
p119
tp120
Rp121
ag3
(g4
g5
Vblink-182
p122
tp123
Rp124
ag3
(g4
g5
Vtransparent
p125
tp126
Rp127
asS'Italy'
p128
(lp129
g3
(g4
g5
Vcanale-5
p130
tp131
Rp132
ag3
(g4
g5
Vla-scelta-di-teresa
p133
tp134
Rp135
ag3
(g4
g5
Visola-dei-famosi
p136
tp137
Rp138
ag3
(g4
g5
Vdemis-roussos
p139
tp140
Rp141
ag3
(g4
g5
V27-gennaio-1945
p142
tp143
Rp144
ag3
(g4
g5
Vmattia-briga
p145
tp146
Rp147
ag3
(g4
g5
Vshoah
p148
tp149
Rp150
ag3
(g4
g5
Vtripoli
p151
tp152
Rp153
ag3
(g4
g5
Vfacebook-down
p154
tp155
Rp156
ag3
(g4
g5
Vnapoli-genoa
p157
tp158
Rp159
ag3
(g4
g5
Vkonoplyanka
p160
tp161
Rp162
ag3
(g4
g5
Vcassano
p163
tp164
Rp165
ag3
(g4
g5
Vmiss-universo-2015
p166
tp167
Rp168
ag3
(g4
g5
Vbergessio
p169
tp170
Rp171
ag3
(g4
g5
Vcecilia-rodriguez
p172
tp173
Rp174
ag3
(g4
g5
Vbocchetti
p175
tp176
Rp177
ag3
(g4
g5
Vgiornata-della-memoria
p178
tp179
Rp180
ag3
(g4
g5
Vselvaggia-lucarelli
p181
tp182
Rp183
ag3
(g4
g5
Velisa-isoardi
p184
tp185
Rp186
ag3
(g4
g5
Vcampi-di-concentramento
p187
tp188
Rp189
asS'Spain'
p190
(lp191
g3
(g4
g5
Valbacete
p192
tp193
Rp194
ag3
(g4
g5
Vroyal-rumble-2015
p195
tp196
Rp197
ag3
(g4
g5
Vvelvet
p198
tp199
Rp200
ag3
(g4
g5
Vlucas-silva
p201
tp202
Rp203
ag3
(g4
g5
Vathletic
p204
tp205
Rp206
ag3
(g4
g5
Vmiguel-de-cervantes
p207
tp208
Rp209
ag3
(g4
g5
Vdefour
p210
tp211
Rp212
ag3
(g4
g5
Vauschwitz
p213
tp214
Rp215
ag3
(g4
g5
Vnicole-kidman
p216
tp217
Rp218
ag3
(g4
g5
Vmia-khalifa
p219
tp220
Rp221
ag3
(g4
g5
Vdavid-munoz
p222
tp223
Rp224
ag3
(g4
g5
Vpasok
p225
tp226
Rp227
ag3
(g4
g5
Vwilfred
p228
tp229
Rp230
ag3
(g4
g5
Vpremios-feroz
p231
tp232
Rp233
ag3
(g4
g5
Vriquelme
p234
tp235
Rp236
ag3
(g4
g5
Vmiss-universo-2015
p237
tp238
Rp239
ag3
(g4
g5
Vdemis-roussos
p240
tp241
Rp242
ag3
(g4
g5
Vfitur-2015
p243
tp244
Rp245
ag3
(g4
g5
Velecciones-grecia
p246
tp247
Rp248
ag3
(g4
g5
Vnueva-york
p249
tp250
Rp251
asS'UK'
p252
(lp253
g3
(g4
g5
Vtom-delonge
p254
tp255
Rp256
ag3
(g4
g5
Vandy-murray
p257
tp258
Rp259
ag3
(g4
g5
Vmiss-universe-2015
p260
tp261
Rp262
ag3
(g4
g5
Vfa-cup-draw
p263
tp264
Rp265
ag3
(g4
g5
Vzach-galifianakis
p266
tp267
Rp268
ag3
(g4
g5
Vcar-throttle
p269
tp270
Rp271
ag3
(g4
g5
Vfernando-ricksen
p272
tp273
Rp274
ag3
(g4
g5
Vauschwitz
p275
tp276
Rp277
ag3
(g4
g5
Von-the-market
p278
tp279
Rp280
ag3
(g4
g5
Vmalaysia-airlines
p281
tp282
Rp283
ag3
(g4
g5
Vlackadaisical
p284
tp285
Rp286
ag3
(g4
g5
Vfacebook-down
p287
tp288
Rp289
ag3
(g4
g5
Vemma-watson
p290
tp291
Rp292
ag3
(g4
g5
Vroyal-rumble-2015
p293
tp294
Rp295
ag3
(g4
g5
Vaustralia-day
p296
tp297
Rp298
ag3
(g4
g5
Vbenedict-cumberbatch
p299
tp300
Rp301
ag3
(g4
g5
Vnew-york-weather
p302
tp303
Rp304
ag3
(g4
g5
Vlance-armstrong
p305
tp306
Rp307
ag3
(g4
g5
Vmia-khalifa
p308
tp309
Rp310
ag3
(g4
g5
Vdemis-roussos
p311
tp312
Rp313
asS'India'
p314
(lp315
g3
(g4
g5
Vsoha-ali-khan
p316
tp317
Rp318
ag3
(g4
g5
Vcricket
p319
tp320
Rp321
ag3
(g4
g5
Vmann-ki-baat
p322
tp323
Rp324
ag3
(g4
g5
Vroger-federer
p325
tp326
Rp327
ag3
(g4
g5
Vbaby
p328
tp329
Rp330
ag3
(g4
g5
Vind-vs-aus
p331
tp332
Rp333
ag3
(g4
g5
Vwwe-royal-rumble-2015-results
p334
tp335
Rp336
ag3
(g4
g5
Vrepublic-day-images
p337
tp338
Rp339
ag3
(g4
g5
Vsaraswati-puja
p340
tp341
Rp342
ag3
(g4
g5
Vbarack-obama
p343
tp344
Rp345
ag3
(g4
g5
Vindia-s-republic-day
p346
tp347
Rp348
ag3
(g4
g5
Vkunal-khemu
p349
tp350
Rp351
ag3
(g4
g5
Vroman-reigns
p352
tp353
Rp354
ag3
(g4
g5
Vdolly-ki-doli
p355
tp356
Rp357
ag3
(g4
g5
Vcricbuzz
p358
tp359
Rp360
ag3
(g4
g5
Vindependence-day
p361
tp362
Rp363
ag3
(g4
g5
Vrk-laxman
p364
tp365
Rp366
ag3
(g4
g5
Vmiss-universe-2015
p367
tp368
Rp369
ag3
(g4
g5
Vking-abdullah
p370
tp371
Rp372
ag3
(g4
g5
Vpooja-thakur
p373
tp374
Rp375
asS'US'
p376
(lp377
g3
(g4
g5
Vcindra-ladd
p378
tp379
Rp380
ag3
(g4
g5
Vtom-delonge
p381
tp382
Rp383
ag3
(g4
g5
Vweather-nyc
p384
tp385
Rp386
ag3
(g4
g5
Virs
p387
tp388
Rp389
ag3
(g4
g5
Virs-gov
p390
tp391
Rp392
ag3
(g4
g5
Vellen-degeneres
p393
tp394
Rp395
ag3
(g4
g5
Vdying-light
p396
tp397
Rp398
ag3
(g4
g5
Vdrive
p399
tp400
Rp401
ag3
(g4
g5
Vmiss-universe-2015
p402
tp403
Rp404
ag3
(g4
g5
Vmia-khalifa
p405
tp406
Rp407
ag3
(g4
g5
Vfacebook-down
p408
tp409
Rp410
ag3
(g4
g5
Vemma-watson
p411
tp412
Rp413
ag3
(g4
g5
Vweather
p414
tp415
Rp416
ag3
(g4
g5
Vwwe
p417
tp418
Rp419
ag3
(g4
g5
Vnj-transit
p420
tp421
Rp422
ag3
(g4
g5
Vstate-of-emergency
p423
tp424
Rp425
ag3
(g4
g5
Vchipotle
p426
tp427
Rp428
ag3
(g4
g5
Vmta
p429
tp430
Rp431
ag3
(g4
g5
Vabc-news
p432
tp433
Rp434
ag3
(g4
g5
Vsam-smith
p435
tp436
Rp437
asS'France'
p438
(lp439
g3
(g4
g5
Vpogba
p440
tp441
Rp442
ag3
(g4
g5
Vfrance-argentine
p443
tp444
Rp445
ag3
(g4
g5
Vtop-chef
p446
tp447
Rp448
ag3
(g4
g5
Vchuck-norris
p449
tp450
Rp451
ag3
(g4
g5
Vmarc-lavoine
p452
tp453
Rp454
ag3
(g4
g5
Vloi-macron
p455
tp456
Rp457
ag3
(g4
g5
Vjean-marie-le-pen
p458
tp459
Rp460
ag3
(g4
g5
Vemma-watson
p461
tp462
Rp463
ag3
(g4
g5
Vnew-york
p464
tp465
Rp466
ag3
(g4
g5
Vsophia-aram
p467
tp468
Rp469
ag3
(g4
g5
Vthierry-neuvic
p470
tp471
Rp472
ag3
(g4
g5
Vshoah
p473
tp474
Rp475
ag3
(g4
g5
Vhandball
p476
tp477
Rp478
ag3
(g4
g5
Vsecrets-and-lies
p479
tp480
Rp481
ag3
(g4
g5
Vdemis-roussos
p482
tp483
Rp484
ag3
(g4
g5
Vroyal-rumble-2015
p485
tp486
Rp487
ag3
(g4
g5
Vf16
p488
tp489
Rp490
ag3
(g4
g5
Vasteroide
p491
tp492
Rp493
ag3
(g4
g5
Vdany-brillant
p494
tp495
Rp496
ag3
(g4
g5
Vlunel
p497
tp498
Rp499
as.