(dp0
S'Brazil'
p1
(lp2
ccopy_reg
_reconstructor
p3
(cdjango.utils.safestring
SafeText
p4
c__builtin__
unicode
p5
Vf1
p6
tp7
Rp8
ag3
(g4
g5
Vcopa-do-nordeste
p9
tp10
Rp11
ag3
(g4
g5
Vreceita
p12
tp13
Rp14
ag3
(g4
g5
Vjared-leto
p15
tp16
Rp17
ag3
(g4
g5
Vdemolidor
p18
tp19
Rp20
ag3
(g4
g5
Vgame-of-thrones-5-temporada
p21
tp22
Rp23
ag3
(g4
g5
Vjason-mraz
p24
tp25
Rp26
ag3
(g4
g5
Vcoachella
p27
tp28
Rp29
ag3
(g4
g5
Vresultado-lotofacil
p30
tp31
Rp32
ag3
(g4
g5
Ved-motta
p33
tp34
Rp35
ag3
(g4
g5
Vmega-sena-1694
p36
tp37
Rp38
ag3
(g4
g5
Vsao-paulo
p39
tp40
Rp41
ag3
(g4
g5
Vbarbara-heliodora
p42
tp43
Rp44
ag3
(g4
g5
Vfluminense
p45
tp46
Rp47
ag3
(g4
g5
Vcampeonato-paulista-2015
p48
tp49
Rp50
ag3
(g4
g5
Vcorinthians
p51
tp52
Rp53
ag3
(g4
g5
Vdubsmash
p54
tp55
Rp56
ag3
(g4
g5
Vkarla-klemente
p57
tp58
Rp59
ag3
(g4
g5
Ved-mota
p60
tp61
Rp62
ag3
(g4
g5
Vbig-sean
p63
tp64
Rp65
asS'Australia'
p66
(lp67
g3
(g4
g5
Vf1
p68
tp69
Rp70
ag3
(g4
g5
Vus-masters-leaderboard-2015
p71
tp72
Rp73
ag3
(g4
g5
Vandy-murray-wedding
p74
tp75
Rp76
ag3
(g4
g5
Vnine-news
p77
tp78
Rp79
ag3
(g4
g5
Vgrand-national
p80
tp81
Rp82
ag3
(g4
g5
Vbig-sean
p83
tp84
Rp85
ag3
(g4
g5
Vtaylor-swift
p86
tp87
Rp88
ag3
(g4
g5
Vgame-of-thrones
p89
tp90
Rp91
ag3
(g4
g5
Vus-masters-leaderboard
p92
tp93
Rp94
ag3
(g4
g5
Vjessica-biel
p95
tp96
Rp97
ag3
(g4
g5
Vlauren-hill
p98
tp99
Rp100
ag3
(g4
g5
Vrichie-benaud
p101
tp102
Rp103
ag3
(g4
g5
Vmkr
p104
tp105
Rp106
ag3
(g4
g5
Vpoldark
p107
tp108
Rp109
ag3
(g4
g5
Vessendon
p110
tp111
Rp112
ag3
(g4
g5
Vcoachella
p113
tp114
Rp115
ag3
(g4
g5
Variana-grande
p116
tp117
Rp118
ag3
(g4
g5
Vblueberry-tea
p119
tp120
Rp121
ag3
(g4
g5
Vparis-roubaix
p122
tp123
Rp124
ag3
(g4
g5
Vf1-china
p125
tp126
Rp127
asS'Italy'
p128
(lp129
g3
(g4
g5
Vmaratona-milano
p130
tp131
Rp132
ag3
(g4
g5
Valex-belli
p133
tp134
Rp135
ag3
(g4
g5
Vthe-kolors
p136
tp137
Rp138
ag3
(g4
g5
Vparigi-roubaix-2015
p139
tp140
Rp141
ag3
(g4
g5
Vfc-internazionale-milano
p142
tp143
Rp144
ag3
(g4
g5
Vparigi-roubaix
p145
tp146
Rp147
ag3
(g4
g5
Vgame-of-thrones
p148
tp149
Rp150
ag3
(g4
g5
Vtorino-roma
p151
tp152
Rp153
ag3
(g4
g5
Vpartite-serie-a
p154
tp155
Rp156
ag3
(g4
g5
Vriccardo-fogli
p157
tp158
Rp159
ag3
(g4
g5
Vamici-2015
p160
tp161
Rp162
ag3
(g4
g5
Vserie-a
p163
tp164
Rp165
ag3
(g4
g5
Vroberto-saviano
p166
tp167
Rp168
ag3
(g4
g5
Vmedjugorje
p169
tp170
Rp171
ag3
(g4
g5
Vnapoli-fiorentina
p172
tp173
Rp174
ag3
(g4
g5
Vmaurizio-costanzo
p175
tp176
Rp177
ag3
(g4
g5
Vmassimo-ranieri
p178
tp179
Rp180
ag3
(g4
g5
Vilaria-alpi
p181
tp182
Rp183
ag3
(g4
g5
Vcesena-chievo
p184
tp185
Rp186
ag3
(g4
g5
Vrojadirecta
p187
tp188
Rp189
asS'Spain'
p190
(lp191
g3
(g4
g5
Vrumbo
p192
tp193
Rp194
ag3
(g4
g5
Vf1
p195
tp196
Rp197
ag3
(g4
g5
Vmotogp
p198
tp199
Rp200
ag3
(g4
g5
Vla-casa
p201
tp202
Rp203
ag3
(g4
g5
Vjuego-de-tronos
p204
tp205
Rp206
ag3
(g4
g5
Vathletic
p207
tp208
Rp209
ag3
(g4
g5
Vtaylor-swift
p210
tp211
Rp212
ag3
(g4
g5
Vsevilla-barcelona
p213
tp214
Rp215
ag3
(g4
g5
Vgame-of-thrones
p216
tp217
Rp218
ag3
(g4
g5
Vsamsung-galaxy-s6
p219
tp220
Rp221
ag3
(g4
g5
Vlucia-villalon
p222
tp223
Rp224
ag3
(g4
g5
Vformula-1
p225
tp226
Rp227
ag3
(g4
g5
Vreal-madrid
p228
tp229
Rp230
ag3
(g4
g5
Vfast-and-furious
p231
tp232
Rp233
ag3
(g4
g5
Vcolombiana
p234
tp235
Rp236
ag3
(g4
g5
Vkate-upton
p237
tp238
Rp239
ag3
(g4
g5
Vcoachella
p240
tp241
Rp242
ag3
(g4
g5
Vreal-madrid-eibar
p243
tp244
Rp245
ag3
(g4
g5
Vdivergente
p246
tp247
Rp248
asS'UK'
p249
(lp250
g3
(g4
g5
Vgrand-national-2015
p251
tp252
Rp253
ag3
(g4
g5
Vapple-watch
p254
tp255
Rp256
ag3
(g4
g5
Vrichie-benaud
p257
tp258
Rp259
ag3
(g4
g5
Vandy-murray-wedding
p260
tp261
Rp262
ag3
(g4
g5
Vben-hardy
p263
tp264
Rp265
ag3
(g4
g5
Vf1
p266
tp267
Rp268
ag3
(g4
g5
Vbritain-s-got-talent-2015
p269
tp270
Rp271
ag3
(g4
g5
Vninja-warrior-uk
p272
tp273
Rp274
ag3
(g4
g5
Vbrighton-marathon
p275
tp276
Rp277
ag3
(g4
g5
Vamanda-holden
p278
tp279
Rp280
ag3
(g4
g5
Vboat-race
p281
tp282
Rp283
ag3
(g4
g5
Vmasters-golf
p284
tp285
Rp286
ag3
(g4
g5
Vmanchester-united
p287
tp288
Rp289
ag3
(g4
g5
Vgame-of-thrones-season-5
p290
tp291
Rp292
ag3
(g4
g5
Vbalthazar-king
p293
tp294
Rp295
ag3
(g4
g5
Vjordan-spieth
p296
tp297
Rp298
ag3
(g4
g5
Vchannel-4
p299
tp300
Rp301
ag3
(g4
g5
Vparis-roubaix
p302
tp303
Rp304
ag3
(g4
g5
Vgrand-national-results
p305
tp306
Rp307
ag3
(g4
g5
Vpaddy-power
p308
tp309
Rp310
asS'India'
p311
(lp312
g3
(g4
g5
Vrajasthan-royals
p313
tp314
Rp315
ag3
(g4
g5
Vso-satyamurthy-review
p316
tp317
Rp318
ag3
(g4
g5
Vkkr-vs-rcb
p319
tp320
Rp321
ag3
(g4
g5
Vmasterchef-india
p322
tp323
Rp324
ag3
(g4
g5
Vtspsc
p325
tp326
Rp327
ag3
(g4
g5
Vek-paheli-leela
p328
tp329
Rp330
ag3
(g4
g5
Vipl-live
p331
tp332
Rp333
ag3
(g4
g5
Vrenault-lodgy
p334
tp335
Rp336
ag3
(g4
g5
Vcsk-vs-srh
p337
tp338
Rp339
ag3
(g4
g5
Vshobha-de
p340
tp341
Rp342
ag3
(g4
g5
Vdharam-sankat-mein
p343
tp344
Rp345
ag3
(g4
g5
Vrichie-benaud
p346
tp347
Rp348
ag3
(g4
g5
Vcsk-vs-dd
p349
tp350
Rp351
ag3
(g4
g5
Vdisha-ganguly
p352
tp353
Rp354
ag3
(g4
g5
Vbroken-horses
p355
tp356
Rp357
ag3
(g4
g5
Vrcb-vs-kkr
p358
tp359
Rp360
ag3
(g4
g5
Vipl-live-score
p361
tp362
Rp363
ag3
(g4
g5
Vipl-2015
p364
tp365
Rp366
ag3
(g4
g5
Vgame-of-thrones-season-5
p367
tp368
Rp369
ag3
(g4
g5
Vnet-neutrality
p370
tp371
Rp372
asS'US'
p373
(lp374
g3
(g4
g5
Vnational-sibling-day
p375
tp376
Rp377
ag3
(g4
g5
Vvicente-fernandez
p378
tp379
Rp380
ag3
(g4
g5
Vcoachella-2015
p381
tp382
Rp383
ag3
(g4
g5
Vyoung-thug-carter-6
p384
tp385
Rp386
ag3
(g4
g5
Vfairdale-il
p387
tp388
Rp389
ag3
(g4
g5
Vjaden-smith
p390
tp391
Rp392
ag3
(g4
g5
Vtaraji-p-henson
p393
tp394
Rp395
ag3
(g4
g5
Vjustin-timberlake
p396
tp397
Rp398
ag3
(g4
g5
Vnascar
p399
tp400
Rp401
ag3
(g4
g5
Vben-crenshaw
p402
tp403
Rp404
ag3
(g4
g5
Vlauren-hill
p405
tp406
Rp407
ag3
(g4
g5
Vnelly
p408
tp409
Rp410
ag3
(g4
g5
Vnhl-playoffs
p411
tp412
Rp413
ag3
(g4
g5
Vphil-mickelson
p414
tp415
Rp416
ag3
(g4
g5
Vhillary-clinton
p417
tp418
Rp419
ag3
(g4
g5
Vred-sox
p420
tp421
Rp422
ag3
(g4
g5
Vjordan-spieth
p423
tp424
Rp425
ag3
(g4
g5
Vcoachella
p426
tp427
Rp428
ag3
(g4
g5
Vgame-of-thrones-season-5
p429
tp430
Rp431
ag3
(g4
g5
Vsabra-recall
p432
tp433
Rp434
asS'France'
p435
(lp436
g3
(g4
g5
Vapple-watch
p437
tp438
Rp439
ag3
(g4
g5
Vbastia
p440
tp441
Rp442
ag3
(g4
g5
Vdaredevil
p443
tp444
Rp445
ag3
(g4
g5
Vamelie-mauresmo
p446
tp447
Rp448
ag3
(g4
g5
Vchantal-ladesou
p449
tp450
Rp451
ag3
(g4
g5
Vtop-14
p452
tp453
Rp454
ag3
(g4
g5
Vgame-of-thrones
p455
tp456
Rp457
ag3
(g4
g5
Vpatrice-dominguez
p458
tp459
Rp460
ag3
(g4
g5
Vjessica-biel
p461
tp462
Rp463
ag3
(g4
g5
Vmarathon-de-paris
p464
tp465
Rp466
ag3
(g4
g5
Vpatrice-dominguez-malade
p467
tp468
Rp469
ag3
(g4
g5
Vnabilla
p470
tp471
Rp472
ag3
(g4
g5
Vmarathon-paris
p473
tp474
Rp475
ag3
(g4
g5
Vmarathon-de-paris-2015
p476
tp477
Rp478
ag3
(g4
g5
Vfrance-2
p479
tp480
Rp481
ag3
(g4
g5
Vcamille-lacourt
p482
tp483
Rp484
ag3
(g4
g5
Vcoachella
p485
tp486
Rp487
ag3
(g4
g5
Vpsg-bastia
p488
tp489
Rp490
ag3
(g4
g5
Vparis-roubaix
p491
tp492
Rp493
ag3
(g4
g5
Vsouleymane-diawara
p494
tp495
Rp496
as.