(dp0
S'Brazil'
p1
(lp2
ccopy_reg
_reconstructor
p3
(cdjango.utils.safestring
SafeText
p4
c__builtin__
unicode
p5
Vreal-madrid
p6
tp7
Rp8
ag3
(g4
g5
Verick-silva
p9
tp10
Rp11
ag3
(g4
g5
Vbom-dia
p12
tp13
Rp14
ag3
(g4
g5
Vmais-voce
p15
tp16
Rp17
ag3
(g4
g5
Vrafael-almeida
p18
tp19
Rp20
ag3
(g4
g5
Vmaguila
p21
tp22
Rp23
ag3
(g4
g5
Vitau
p24
tp25
Rp26
ag3
(g4
g5
Vbanco-do-brasil
p27
tp28
Rp29
ag3
(g4
g5
Vcorreios
p30
tp31
Rp32
ag3
(g4
g5
Vcaixa
p33
tp34
Rp35
ag3
(g4
g5
Vsantander
p36
tp37
Rp38
ag3
(g4
g5
Vinss
p39
tp40
Rp41
ag3
(g4
g5
Vvivo
p42
tp43
Rp44
ag3
(g4
g5
Vdetran
p45
tp46
Rp47
ag3
(g4
g5
Vpronatec
p48
tp49
Rp50
ag3
(g4
g5
Vtjmg
p51
tp52
Rp53
ag3
(g4
g5
Vmapa
p54
tp55
Rp56
ag3
(g4
g5
Vamil
p57
tp58
Rp59
ag3
(g4
g5
Vsenai
p60
tp61
Rp62
ag3
(g4
g5
Vdia-das-maes
p63
tp64
Rp65
asS'Australia'
p66
(lp67
g3
(g4
g5
Vian-ross
p68
tp69
Rp70
ag3
(g4
g5
Vdonald-sterling
p71
tp72
Rp73
ag3
(g4
g5
Vchampions-league
p74
tp75
Rp76
ag3
(g4
g5
Vdouble-j
p77
tp78
Rp79
ag3
(g4
g5
Vmetro-trains
p80
tp81
Rp82
ag3
(g4
g5
Vgeorge-clooney
p83
tp84
Rp85
ag3
(g4
g5
Vemma-stone
p86
tp87
Rp88
ag3
(g4
g5
Vbay-of-bengal
p89
tp90
Rp91
ag3
(g4
g5
Vgillon-mclachlan
p92
tp93
Rp94
ag3
(g4
g5
Vstar-wars-7
p95
tp96
Rp97
ag3
(g4
g5
Vmkr-winners
p98
tp99
Rp100
ag3
(g4
g5
Vwho-won-mkr-2014
p101
tp102
Rp103
ag3
(g4
g5
Vsolar-eclipse
p104
tp105
Rp106
ag3
(g4
g5
Varsenal
p107
tp108
Rp109
ag3
(g4
g5
Vgoogle-chrome
p110
tp111
Rp112
ag3
(g4
g5
Vselena-gomez
p113
tp114
Rp115
ag3
(g4
g5
Vryan-tandy
p116
tp117
Rp118
ag3
(g4
g5
Vpremier-league
p119
tp120
Rp121
ag3
(g4
g5
Vgeoff-huegill
p122
tp123
Rp124
ag3
(g4
g5
Vsplendour-in-the-grass-2014
p125
tp126
Rp127
asS'Italy'
p128
(lp129
g3
(g4
g5
Vreal-madrid
p130
tp131
Rp132
ag3
(g4
g5
Vincentivi-auto-2014
p133
tp134
Rp135
ag3
(g4
g5
Vthe-american
p136
tp137
Rp138
ag3
(g4
g5
Vanticipazioni-amici
p139
tp140
Rp141
ag3
(g4
g5
Vcristiano-ronaldo
p142
tp143
Rp144
ag3
(g4
g5
Vbuona-giornata
p145
tp146
Rp147
ag3
(g4
g5
Vreport
p148
tp149
Rp150
ag3
(g4
g5
Vcinecitta
p151
tp152
Rp153
ag3
(g4
g5
Vjuventus
p154
tp155
Rp156
ag3
(g4
g5
Vunicredit
p157
tp158
Rp159
ag3
(g4
g5
Vinps
p160
tp161
Rp162
ag3
(g4
g5
Vayrton-senna
p163
tp164
Rp165
ag3
(g4
g5
Vagenzia-delle-entrate
p166
tp167
Rp168
ag3
(g4
g5
Vuomini-e-donne
p169
tp170
Rp171
ag3
(g4
g5
Vdani-alves
p172
tp173
Rp174
ag3
(g4
g5
Vintesa-san-paolo
p175
tp176
Rp177
ag3
(g4
g5
Vil-sole-24-ore
p178
tp179
Rp180
ag3
(g4
g5
Vlinkedin
p181
tp182
Rp183
ag3
(g4
g5
Vmps
p184
tp185
Rp186
ag3
(g4
g5
Vbnl
p187
tp188
Rp189
asS'Spain'
p190
(lp191
g3
(g4
g5
Vreal-madrid
p192
tp193
Rp194
ag3
(g4
g5
Vnoma
p195
tp196
Rp197
ag3
(g4
g5
Vnacho-montes
p198
tp199
Rp200
ag3
(g4
g5
Vcarmina-y-amen-gratis
p201
tp202
Rp203
ag3
(g4
g5
Vselfie
p204
tp205
Rp206
ag3
(g4
g5
Vadria-vilanova
p207
tp208
Rp209
ag3
(g4
g5
Vpilar-rubio
p210
tp211
Rp212
ag3
(g4
g5
Vrobben
p213
tp214
Rp215
ag3
(g4
g5
Vrtve-directo
p216
tp217
Rp218
ag3
(g4
g5
Vruth-lorenzo
p219
tp220
Rp221
ag3
(g4
g5
Vcarlota-vilanova
p222
tp223
Rp224
ag3
(g4
g5
Vviviana-figueredo
p225
tp226
Rp227
ag3
(g4
g5
Vdani-alves
p228
tp229
Rp230
ag3
(g4
g5
Visabel-garcia-tejerina
p231
tp232
Rp233
ag3
(g4
g5
Vcatalunya-caixa
p234
tp235
Rp236
ag3
(g4
g5
Vbanc-sabadell
p237
tp238
Rp239
ag3
(g4
g5
Vpremier-league
p240
tp241
Rp242
ag3
(g4
g5
Vboskov
p243
tp244
Rp245
ag3
(g4
g5
Vjorge-moragas
p246
tp247
Rp248
ag3
(g4
g5
Viff
p249
tp250
Rp251
asS'UK'
p252
(lp253
g3
(g4
g5
Vdonald-sterling
p254
tp255
Rp256
ag3
(g4
g5
Vhappy-valley
p257
tp258
Rp259
ag3
(g4
g5
Vcressida-bonas
p260
tp261
Rp262
ag3
(g4
g5
Vnigel-farage
p263
tp264
Rp265
ag3
(g4
g5
Vpatrick-mercer
p266
tp267
Rp268
ag3
(g4
g5
Vdaisy-ridley
p269
tp270
Rp271
ag3
(g4
g5
Vreal-madrid
p272
tp273
Rp274
ag3
(g4
g5
Vrihanna
p275
tp276
Rp277
ag3
(g4
g5
Vprey
p278
tp279
Rp280
ag3
(g4
g5
Veast-midlands-airport
p281
tp282
Rp283
ag3
(g4
g5
Vrupert-everett
p284
tp285
Rp286
ag3
(g4
g5
Vpaym
p287
tp288
Rp289
ag3
(g4
g5
Vedie-brickell
p290
tp291
Rp292
ag3
(g4
g5
Vgodzilla
p293
tp294
Rp295
ag3
(g4
g5
Varsenal-vs-newcastle
p296
tp297
Rp298
ag3
(g4
g5
Vrobbie-williams
p299
tp300
Rp301
ag3
(g4
g5
Vlondon-underground
p302
tp303
Rp304
ag3
(g4
g5
Vhinterland
p305
tp306
Rp307
ag3
(g4
g5
Vbnp
p308
tp309
Rp310
ag3
(g4
g5
Vtfl
p311
tp312
Rp313
asS'India'
p314
(lp315
g3
(g4
g5
Vreal-madrid
p316
tp317
Rp318
ag3
(g4
g5
Vamrita-rai
p319
tp320
Rp321
ag3
(g4
g5
V10th-result
p322
tp323
Rp324
ag3
(g4
g5
Vkkr-vs-rr
p325
tp326
Rp327
ag3
(g4
g5
Vfugly
p328
tp329
Rp330
ag3
(g4
g5
Vjac
p331
tp332
Rp333
ag3
(g4
g5
Valla-rakha
p334
tp335
Rp336
ag3
(g4
g5
Vintermediate-results
p337
tp338
Rp339
ag3
(g4
g5
Vrobert-vadra
p340
tp341
Rp342
ag3
(g4
g5
Vsingh-is-bling
p343
tp344
Rp345
ag3
(g4
g5
Vchelsea
p346
tp347
Rp348
ag3
(g4
g5
Vamal-alamuddin
p349
tp350
Rp351
ag3
(g4
g5
Vpreity-zinta
p352
tp353
Rp354
ag3
(g4
g5
Vtito-vilanova
p355
tp356
Rp357
ag3
(g4
g5
Vrevolver-rani
p358
tp359
Rp360
ag3
(g4
g5
Vinder-kumar
p361
tp362
Rp363
ag3
(g4
g5
Vkaanchi
p364
tp365
Rp366
ag3
(g4
g5
Vcsk-vs-mi
p367
tp368
Rp369
ag3
(g4
g5
Vchris-lynn
p370
tp371
Rp372
ag3
(g4
g5
Vsachin-tendulkar
p373
tp374
Rp375
asS'US'
p376
(lp377
g3
(g4
g5
Vcressida-bonas
p378
tp379
Rp380
ag3
(g4
g5
Vdaisy-ridley
p381
tp382
Rp383
ag3
(g4
g5
Vreal-madrid
p384
tp385
Rp386
ag3
(g4
g5
Vemma-stone
p387
tp388
Rp389
ag3
(g4
g5
Vfirefox
p390
tp391
Rp392
ag3
(g4
g5
Vbeyonce
p393
tp394
Rp395
ag3
(g4
g5
Vrihanna
p396
tp397
Rp398
ag3
(g4
g5
Vgoogle-chrome
p399
tp400
Rp401
ag3
(g4
g5
Vbay-of-bengal
p402
tp403
Rp404
ag3
(g4
g5
Vjohn-servati
p405
tp406
Rp407
ag3
(g4
g5
Vmiami-heat
p408
tp409
Rp410
ag3
(g4
g5
Vapartheid
p411
tp412
Rp413
ag3
(g4
g5
Vnaya-rivera
p414
tp415
Rp416
ag3
(g4
g5
Vtony-nominations-2014
p417
tp418
Rp419
ag3
(g4
g5
Vamanda-knox
p420
tp421
Rp422
ag3
(g4
g5
Vfedex-shooting
p423
tp424
Rp425
ag3
(g4
g5
Vmean-girls
p426
tp427
Rp428
ag3
(g4
g5
Vminnesota-wild
p429
tp430
Rp431
ag3
(g4
g5
Vadam-silver
p432
tp433
Rp434
ag3
(g4
g5
Vedie-brickell
p435
tp436
Rp437
asS'France'
p438
(lp439
g3
(g4
g5
Vspiderman-2
p440
tp441
Rp442
ag3
(g4
g5
Vrihanna-lui
p443
tp444
Rp445
ag3
(g4
g5
Vemma-stone
p446
tp447
Rp448
ag3
(g4
g5
Vbachelor
p449
tp450
Rp451
ag3
(g4
g5
Vnathalie-pechalat
p452
tp453
Rp454
ag3
(g4
g5
Vgerard-oury
p455
tp456
Rp457
ag3
(g4
g5
Vcanal
p458
tp459
Rp460
ag3
(g4
g5
Vaymeric-caron
p461
tp462
Rp463
ag3
(g4
g5
Vjean-imbert
p464
tp465
Rp466
ag3
(g4
g5
Vsterling
p467
tp468
Rp469
ag3
(g4
g5
Vpicasso
p470
tp471
Rp472
ag3
(g4
g5
Vnoma
p473
tp474
Rp475
ag3
(g4
g5
Vassemblee-nationale
p476
tp477
Rp478
ag3
(g4
g5
Vpole-emploi
p479
tp480
Rp481
ag3
(g4
g5
Vreal-madrid
p482
tp483
Rp484
ag3
(g4
g5
Vmicheline-dax
p485
tp486
Rp487
ag3
(g4
g5
Vharrison-ford
p488
tp489
Rp490
ag3
(g4
g5
Vfff
p491
tp492
Rp493
ag3
(g4
g5
Valbert-de-monaco
p494
tp495
Rp496
ag3
(g4
g5
Vdani-alves
p497
tp498
Rp499
as.