(lp0
ccopy_reg
_reconstructor
p1
(cdjango.utils.safestring
SafeText
p2
c__builtin__
unicode
p3
Vvalve
p4
tp5
Rp6
ag1
(g2
g3
Vtodays
p7
tp8
Rp9
ag1
(g2
g3
Variel-williams
p10
tp11
Rp12
ag1
(g2
g3
Vsergei
p13
tp14
Rp15
ag1
(g2
g3
Vwoodgreen-ceo
p16
tp17
Rp18
ag1
(g2
g3
Vmeltzer
p19
tp20
Rp21
ag1
(g2
g3
Vhoward-baker
p22
tp23
Rp24
ag1
(g2
g3
Vkonark
p25
tp26
Rp27
ag1
(g2
g3
Vasian
p28
tp29
Rp30
ag1
(g2
g3
Vurban-development
p31
tp32
Rp33
ag1
(g2
g3
Vvowing-not-to-be
p34
tp35
Rp36
ag1
(g2
g3
Vangelo-henderson
p37
tp38
Rp39
ag1
(g2
g3
Vcyprus
p40
tp41
Rp42
ag1
(g2
g3
Vrobert-bosch
p43
tp44
Rp45
ag1
(g2
g3
Vgillespie
p46
tp47
Rp48
ag1
(g2
g3
Vpsychopathic
p49
tp50
Rp51
ag1
(g2
g3
Vsanford
p52
tp53
Rp54
ag1
(g2
g3
Vpedro
p55
tp56
Rp57
ag1
(g2
g3
Vcredit-equals-gold
p58
tp59
Rp60
ag1
(g2
g3
Vchinese
p61
tp62
Rp63
ag1
(g2
g3
Vjaipur
p64
tp65
Rp66
ag1
(g2
g3
Vparis
p67
tp68
Rp69
ag1
(g2
g3
Vhuffington-post
p70
tp71
Rp72
ag1
(g2
g3
Vshondells
p73
tp74
Rp75
ag1
(g2
g3
Vvasuli-recovery
p76
tp77
Rp78
ag1
(g2
g3
Vstuart-binny
p79
tp80
Rp81
ag1
(g2
g3
Vboston-university
p82
tp83
Rp84
ag1
(g2
g3
Vsymbionese-liberation
p85
tp86
Rp87
ag1
(g2
g3
Vsouthland
p88
tp89
Rp90
ag1
(g2
g3
Vkemmer
p91
tp92
Rp93
ag1
(g2
g3
Vjustgiving
p94
tp95
Rp96
ag1
(g2
g3
Vbroctickle
p97
tp98
Rp99
ag1
(g2
g3
Vbusiness-insider
p100
tp101
Rp102
ag1
(g2
g3
Vbandra
p103
tp104
Rp105
ag1
(g2
g3
Vchennai
p106
tp107
Rp108
ag1
(g2
g3
Vtrayvon-martin
p109
tp110
Rp111
ag1
(g2
g3
Vradhika-nagpal
p112
tp113
Rp114
ag1
(g2
g3
Vfontenot
p115
tp116
Rp117
ag1
(g2
g3
Vkarl-popper
p118
tp119
Rp120
ag1
(g2
g3
Vmanic
p121
tp122
Rp123
ag1
(g2
g3
Vsermon
p124
tp125
Rp126
ag1
(g2
g3
Vrossetto
p127
tp128
Rp129
ag1
(g2
g3
Vbill-nye
p130
tp131
Rp132
ag1
(g2
g3
Vhappiest-tech-companies-read
p133
tp134
Rp135
ag1
(g2
g3
Vr-jagannathan
p136
tp137
Rp138
ag1
(g2
g3
Vdrexel-university
p139
tp140
Rp141
ag1
(g2
g3
Vqtiyapa
p142
tp143
Rp144
ag1
(g2
g3
Vtim-wu
p145
tp146
Rp147
ag1
(g2
g3
Vnasas-ames-research-center
p148
tp149
Rp150
ag1
(g2
g3
Vwhitman
p151
tp152
Rp153
ag1
(g2
g3
Vswitzerlands
p154
tp155
Rp156
ag1
(g2
g3
Vcause
p157
tp158
Rp159
ag1
(g2
g3
Vdanielle-sheypuk
p160
tp161
Rp162
ag1
(g2
g3
Vmount-rushmore-oshie
p163
tp164
Rp165
ag1
(g2
g3
Vbrowsers
p166
tp167
Rp168
ag1
(g2
g3
Vhooman-kamel
p169
tp170
Rp171
ag1
(g2
g3
Vweekly-standard
p172
tp173
Rp174
ag1
(g2
g3
Vcherry-moon
p175
tp176
Rp177
ag1
(g2
g3
Vjohn-daly
p178
tp179
Rp180
ag1
(g2
g3
Vbernanke
p181
tp182
Rp183
ag1
(g2
g3
Vbetsy-mccaughey
p184
tp185
Rp186
ag1
(g2
g3
Vryan-schoenike
p187
tp188
Rp189
ag1
(g2
g3
Vsepulveda-pass
p190
tp191
Rp192
ag1
(g2
g3
Vmiller
p193
tp194
Rp195
ag1
(g2
g3
Vrouer
p196
tp197
Rp198
ag1
(g2
g3
Vweddings
p199
tp200
Rp201
ag1
(g2
g3
Vjapanese
p202
tp203
Rp204
ag1
(g2
g3
Vlightspeed-venture-partners
p205
tp206
Rp207
ag1
(g2
g3
Vsecond
p208
tp209
Rp210
ag1
(g2
g3
Vjonzes
p211
tp212
Rp213
ag1
(g2
g3
Vfairview-mountain
p214
tp215
Rp216
ag1
(g2
g3
Vsenate-finance-committee
p217
tp218
Rp219
ag1
(g2
g3
Vmashpics
p220
tp221
Rp222
ag1
(g2
g3
Vpeachoid
p223
tp224
Rp225
ag1
(g2
g3
Vcaptain
p226
tp227
Rp228
ag1
(g2
g3
Vkern-entrepreneurship-education-network
p229
tp230
Rp231
ag1
(g2
g3
Vbittorrent
p232
tp233
Rp234
ag1
(g2
g3
Vknowledge-fellow
p235
tp236
Rp237
ag1
(g2
g3
Vdevi-art-foundation
p238
tp239
Rp240
ag1
(g2
g3
Vdowntown-tunnel
p241
tp242
Rp243
ag1
(g2
g3
Vprince-william
p244
tp245
Rp246
ag1
(g2
g3
Vmerican
p247
tp248
Rp249
ag1
(g2
g3
Vinterscope-records
p250
tp251
Rp252
ag1
(g2
g3
Vunited-nations
p253
tp254
Rp255
ag1
(g2
g3
Vvenrock
p256
tp257
Rp258
ag1
(g2
g3
Vmaverick
p259
tp260
Rp261
ag1
(g2
g3
Vkoolpad
p262
tp263
Rp264
ag1
(g2
g3
Vdisney
p265
tp266
Rp267
ag1
(g2
g3
Vjohn-hoeven
p268
tp269
Rp270
ag1
(g2
g3
Vstartups
p271
tp272
Rp273
ag1
(g2
g3
Vjohn-feinstein
p274
tp275
Rp276
ag1
(g2
g3
Vreddings
p277
tp278
Rp279
ag1
(g2
g3
Vlockheed-martin
p280
tp281
Rp282
ag1
(g2
g3
Vravidas-jayanti
p283
tp284
Rp285
ag1
(g2
g3
Vchina
p286
tp287
Rp288
ag1
(g2
g3
Vsteve-matthews
p289
tp290
Rp291
ag1
(g2
g3
Vpakistan-affairs
p292
tp293
Rp294
ag1
(g2
g3
Vsandisk
p295
tp296
Rp297
ag1
(g2
g3
Vdan-nelson
p298
tp299
Rp300
ag1
(g2
g3
Vjoshua-project
p301
tp302
Rp303
ag1
(g2
g3
Vandrew-mcafee
p304
tp305
Rp306
ag1
(g2
g3
Vspokane
p307
tp308
Rp309
ag1
(g2
g3
Vhinduism-studies
p310
tp311
Rp312
ag1
(g2
g3
Vguidestar
p313
tp314
Rp315
ag1
(g2
g3
Vleaves
p316
tp317
Rp318
ag1
(g2
g3
Vwagner-law-group
p319
tp320
Rp321
ag1
(g2
g3
Vtechie-tuesdays
p322
tp323
Rp324
ag1
(g2
g3
Vnew-model-for-cloud-service
p325
tp326
Rp327
ag1
(g2
g3
Vmaximize-your-potential
p328
tp329
Rp330
ag1
(g2
g3
Vaffordable-care-act-would-create
p331
tp332
Rp333
ag1
(g2
g3
Vnew-york-universitys-school
p334
tp335
Rp336
ag1
(g2
g3
Vpurdue-university
p337
tp338
Rp339
ag1
(g2
g3
Vandreessen
p340
tp341
Rp342
ag1
(g2
g3
Vfusefire
p343
tp344
Rp345
ag1
(g2
g3
Vmantia
p346
tp347
Rp348
ag1
(g2
g3
Vhow-to-capitalize-on
p349
tp350
Rp351
ag1
(g2
g3
Vjoshua
p352
tp353
Rp354
ag1
(g2
g3
Vchristian-louboutin
p355
tp356
Rp357
ag1
(g2
g3
Vgoogle-plus
p358
tp359
Rp360
ag1
(g2
g3
Vgeylang
p361
tp362
Rp363
ag1
(g2
g3
Vtweetdeck-read
p364
tp365
Rp366
ag1
(g2
g3
Vharvard-kennedy-school
p367
tp368
Rp369
ag1
(g2
g3
Vassociated-press
p370
tp371
Rp372
ag1
(g2
g3
Vdiesel-filling-station
p373
tp374
Rp375
ag1
(g2
g3
Vhenry-james
p376
tp377
Rp378
ag1
(g2
g3
Vstihl
p379
tp380
Rp381
ag1
(g2
g3
Vberkeley
p382
tp383
Rp384
ag1
(g2
g3
Vjohn-west
p385
tp386
Rp387
ag1
(g2
g3
Vgracnars
p388
tp389
Rp390
ag1
(g2
g3
Vpyongyang
p391
tp392
Rp393
ag1
(g2
g3
Vdavid-gregory
p394
tp395
Rp396
ag1
(g2
g3
Vmichael-kirby
p397
tp398
Rp399
ag1
(g2
g3
Vdamian-bradfield
p400
tp401
Rp402
ag1
(g2
g3
Vaitchison
p403
tp404
Rp405
ag1
(g2
g3
Varendelle
p406
tp407
Rp408
ag1
(g2
g3
Vkalyanaraman
p409
tp410
Rp411
ag1
(g2
g3
Vhualapai
p412
tp413
Rp414
ag1
(g2
g3
Vhospital
p415
tp416
Rp417
ag1
(g2
g3
Vpennapps-hackathon
p418
tp419
Rp420
ag1
(g2
g3
Vaaron
p421
tp422
Rp423
ag1
(g2
g3
Vlee-hoskins
p424
tp425
Rp426
ag1
(g2
g3
Vmusic
p427
tp428
Rp429
ag1
(g2
g3
Vcomcast
p430
tp431
Rp432
ag1
(g2
g3
Vdenmark
p433
tp434
Rp435
ag1
(g2
g3
Vindiana
p436
tp437
Rp438
ag1
(g2
g3
Vtheodores
p439
tp440
Rp441
ag1
(g2
g3
Vsaffronart
p442
tp443
Rp444
ag1
(g2
g3
Vsnowden
p445
tp446
Rp447
ag1
(g2
g3
Vlee-siegel
p448
tp449
Rp450
ag1
(g2
g3
Voscar
p451
tp452
Rp453
ag1
(g2
g3
Vfederal-reserve-bank
p454
tp455
Rp456
ag1
(g2
g3
Vyahoo
p457
tp458
Rp459
ag1
(g2
g3
Vadgate
p460
tp461
Rp462
ag1
(g2
g3
Vglass
p463
tp464
Rp465
ag1
(g2
g3
Vimmortal-otis-redding
p466
tp467
Rp468
ag1
(g2
g3
Vjoan-jett
p469
tp470
Rp471
ag1
(g2
g3
Vdunk-contest
p472
tp473
Rp474
ag1
(g2
g3
Vorganic
p475
tp476
Rp477
ag1
(g2
g3
Vmiles-davis
p478
tp479
Rp480
ag1
(g2
g3
Vsorry
p481
tp482
Rp483
ag1
(g2
g3
Vpulitzer
p484
tp485
Rp486
ag1
(g2
g3
Vkampala
p487
tp488
Rp489
ag1
(g2
g3
Vventura-boulevard
p490
tp491
Rp492
ag1
(g2
g3
Vmic25
p493
tp494
Rp495
ag1
(g2
g3
Vadvocacy
p496
tp497
Rp498
ag1
(g2
g3
Vmovies
p499
tp500
Rp501
ag1
(g2
g3
Vtinder
p502
tp503
Rp504
ag1
(g2
g3
Vmount-vernon-manner
p505
tp506
Rp507
ag1
(g2
g3
Vexhale
p508
tp509
Rp510
ag1
(g2
g3
Vhansen
p511
tp512
Rp513
ag1
(g2
g3
Vnewfoundland
p514
tp515
Rp516
ag1
(g2
g3
Vparsis
p517
tp518
Rp519
ag1
(g2
g3
Vjindal
p520
tp521
Rp522
ag1
(g2
g3
Vidina-menzel
p523
tp524
Rp525
ag1
(g2
g3
Vpierre-fermat
p526
tp527
Rp528
ag1
(g2
g3
Vflorida
p529
tp530
Rp531
ag1
(g2
g3
Vindia
p532
tp533
Rp534
ag1
(g2
g3
Vranji
p535
tp536
Rp537
ag1
(g2
g3
Vconsumer-reports
p538
tp539
Rp540
ag1
(g2
g3
Vminnesota-vikings
p541
tp542
Rp543
ag1
(g2
g3
Vmost-interesting-man
p544
tp545
Rp546
ag1
(g2
g3
Vfibonacci
p547
tp548
Rp549
ag1
(g2
g3
Vbillie-jean-king
p550
tp551
Rp552
ag1
(g2
g3
Vmhacks
p553
tp554
Rp555
ag1
(g2
g3
Vbritish-nutrition-foundation
p556
tp557
Rp558
ag1
(g2
g3
Vfounders-fund
p559
tp560
Rp561
ag1
(g2
g3
Vasian-pacific-carriers
p562
tp563
Rp564
ag1
(g2
g3
Vwonsan
p565
tp566
Rp567
ag1
(g2
g3
Vbedok-south-ave
p568
tp569
Rp570
ag1
(g2
g3
Vseason-two
p571
tp572
Rp573
ag1
(g2
g3
Vtravel
p574
tp575
Rp576
ag1
(g2
g3
Vkhalifa-hifter
p577
tp578
Rp579
ag1
(g2
g3
Vkabul
p580
tp581
Rp582
ag1
(g2
g3
Vlouisville
p583
tp584
Rp585
ag1
(g2
g3
Vwriters
p586
tp587
Rp588
ag1
(g2
g3
Vapothecia
p589
tp590
Rp591
ag1
(g2
g3
Vanze-kopitar
p592
tp593
Rp594
ag1
(g2
g3
Vpanasonic
p595
tp596
Rp597
ag1
(g2
g3
Vpiper-kerman
p598
tp599
Rp600
ag1
(g2
g3
Vjessica-simpson
p601
tp602
Rp603
ag1
(g2
g3
Vtainted-love
p604
tp605
Rp606
ag1
(g2
g3
Vlgbtq
p607
tp608
Rp609
ag1
(g2
g3
Vdavis
p610
tp611
Rp612
ag1
(g2
g3
Vbadass-machines
p613
tp614
Rp615
ag1
(g2
g3
Vbedok
p616
tp617
Rp618
ag1
(g2
g3
Vscientific-explanation
p619
tp620
Rp621
ag1
(g2
g3
Vjcpenney
p622
tp623
Rp624
ag1
(g2
g3
Vlawarmy
p625
tp626
Rp627
ag1
(g2
g3
Veconomic-opportunity
p628
tp629
Rp630
ag1
(g2
g3
Vronan-kelly
p631
tp632
Rp633
ag1
(g2
g3
Vnagasaki
p634
tp635
Rp636
ag1
(g2
g3
Vdaniel-mintz
p637
tp638
Rp639
ag1
(g2
g3
Vsentix
p640
tp641
Rp642
ag1
(g2
g3
Vsan-francisco
p643
tp644
Rp645
ag1
(g2
g3
Vnextcoin
p646
tp647
Rp648
ag1
(g2
g3
Vgreek
p649
tp650
Rp651
ag1
(g2
g3
Vnewshour
p652
tp653
Rp654
ag1
(g2
g3
Vgreen
p655
tp656
Rp657
ag1
(g2
g3
Vegon-spengler
p658
tp659
Rp660
ag1
(g2
g3
Vmidas
p661
tp662
Rp663
ag1
(g2
g3
Vprakriti
p664
tp665
Rp666
ag1
(g2
g3
Vdemocratic
p667
tp668
Rp669
ag1
(g2
g3
Vhouse-democratic
p670
tp671
Rp672
ag1
(g2
g3
Vtexas-republican
p673
tp674
Rp675
ag1
(g2
g3
Vnavi-pillay
p676
tp677
Rp678
ag1
(g2
g3
Vmarwaris
p679
tp680
Rp681
ag1
(g2
g3
Vsingaporean
p682
tp683
Rp684
ag1
(g2
g3
Vmaynard
p685
tp686
Rp687
ag1
(g2
g3
Vseries-netflix-was-made-for
p688
tp689
Rp690
ag1
(g2
g3
Vnever-gon
p691
tp692
Rp693
ag1
(g2
g3
Vmastercoin
p694
tp695
Rp696
ag1
(g2
g3
Vbarclays
p697
tp698
Rp699
ag1
(g2
g3
Vlondon
p700
tp701
Rp702
ag1
(g2
g3
Vsara-quin
p703
tp704
Rp705
ag1
(g2
g3
Voceana
p706
tp707
Rp708
ag1
(g2
g3
Vjapan
p709
tp710
Rp711
ag1
(g2
g3
Vsonys
p712
tp713
Rp714
ag1
(g2
g3
Vboston-childrens-hospital
p715
tp716
Rp717
ag1
(g2
g3
Vlifelink
p718
tp719
Rp720
ag1
(g2
g3
Vsudeep-sabat
p721
tp722
Rp723
ag1
(g2
g3
Vchristie
p724
tp725
Rp726
ag1
(g2
g3
Vdamascus
p727
tp728
Rp729
ag1
(g2
g3
Vzbigniew-brodka
p730
tp731
Rp732
ag1
(g2
g3
Valan-watts
p733
tp734
Rp735
ag1
(g2
g3
Vwales
p736
tp737
Rp738
ag1
(g2
g3
Vschmidt
p739
tp740
Rp741
ag1
(g2
g3
Veugene
p742
tp743
Rp744
ag1
(g2
g3
Vgrassley
p745
tp746
Rp747
ag1
(g2
g3
Vtoo-much-mammography
p748
tp749
Rp750
ag1
(g2
g3
Vthrones
p751
tp752
Rp753
ag1
(g2
g3
Vsoutheast-asia
p754
tp755
Rp756
ag1
(g2
g3
Vslate
p757
tp758
Rp759
ag1
(g2
g3
Vshivas
p760
tp761
Rp762
ag1
(g2
g3
Vcrab-mike
p763
tp764
Rp765
ag1
(g2
g3
Vullas-naik
p766
tp767
Rp768
ag1
(g2
g3
Vinternational-developmentwhich
p769
tp770
Rp771
ag1
(g2
g3
Vjesus
p772
tp773
Rp774
ag1
(g2
g3
Vchangi-village
p775
tp776
Rp777
ag1
(g2
g3
Vnetherlands
p778
tp779
Rp780
ag1
(g2
g3
Vshanay
p781
tp782
Rp783
ag1
(g2
g3
Vrocky
p784
tp785
Rp786
ag1
(g2
g3
Vlake-placid
p787
tp788
Rp789
ag1
(g2
g3
Vapm-terminals
p790
tp791
Rp792
ag1
(g2
g3
Vcapricorn
p793
tp794
Rp795
ag1
(g2
g3
Vsoftware-is
p796
tp797
Rp798
ag1
(g2
g3
Vchapel-hill
p799
tp800
Rp801
ag1
(g2
g3
Vamerican-institute
p802
tp803
Rp804
ag1
(g2
g3
Vconflict
p805
tp806
Rp807
ag1
(g2
g3
Vmadrian
p808
tp809
Rp810
ag1
(g2
g3
Vlazy-bone-publications-german-language
p811
tp812
Rp813
ag1
(g2
g3
Vnew-year
p814
tp815
Rp816
ag1
(g2
g3
Vvcs-steve-jurvetson
p817
tp818
Rp819
ag1
(g2
g3
Vtacoma-art-museum
p820
tp821
Rp822
ag1
(g2
g3
Vdiana
p823
tp824
Rp825
ag1
(g2
g3
Vseries
p826
tp827
Rp828
ag1
(g2
g3
Vstephen-gillers
p829
tp830
Rp831
ag1
(g2
g3
Vnigerias
p832
tp833
Rp834
ag1
(g2
g3
Vsatellite
p835
tp836
Rp837
ag1
(g2
g3
Vnigerian
p838
tp839
Rp840
ag1
(g2
g3
Vsaraswati
p841
tp842
Rp843
ag1
(g2
g3
Vsravish-sridhar
p844
tp845
Rp846
ag1
(g2
g3
Vcalifornia-drought-monitor
p847
tp848
Rp849
ag1
(g2
g3
Vandy-warhol
p850
tp851
Rp852
ag1
(g2
g3
Vilya-kovalchuk
p853
tp854
Rp855
ag1
(g2
g3
Vharvards-madrian
p856
tp857
Rp858
ag1
(g2
g3
Vnetwork
p859
tp860
Rp861
ag1
(g2
g3
Vkiewit
p862
tp863
Rp864
ag1
(g2
g3
Vmaduro
p865
tp866
Rp867
ag1
(g2
g3
Vheather-richardson
p868
tp869
Rp870
ag1
(g2
g3
Vkota-tinggi
p871
tp872
Rp873
ag1
(g2
g3
Vclaudia-mueller
p874
tp875
Rp876
ag1
(g2
g3
Vmacritchie
p877
tp878
Rp879
ag1
(g2
g3
Vcoatue
p880
tp881
Rp882
ag1
(g2
g3
Vmedicine
p883
tp884
Rp885
ag1
(g2
g3
Vvenezuela
p886
tp887
Rp888
ag1
(g2
g3
Vahrenberg
p889
tp890
Rp891
ag1
(g2
g3
Vindonesian-embassy
p892
tp893
Rp894
ag1
(g2
g3
Vleast-photogenic
p895
tp896
Rp897
ag1
(g2
g3
Varizona
p898
tp899
Rp900
ag1
(g2
g3
Vlaura-dern
p901
tp902
Rp903
ag1
(g2
g3
Vsochi-games
p904
tp905
Rp906
ag1
(g2
g3
Vmike-hollands
p907
tp908
Rp909
ag1
(g2
g3
Vmichael-smith
p910
tp911
Rp912
ag1
(g2
g3
Vdark-web
p913
tp914
Rp915
ag1
(g2
g3
Veveryman
p916
tp917
Rp918
ag1
(g2
g3
Vgreg-wlosinki
p919
tp920
Rp921
ag1
(g2
g3
Vleela
p922
tp923
Rp924
ag1
(g2
g3
Vtvs-real
p925
tp926
Rp927
ag1
(g2
g3
Vbirdie
p928
tp929
Rp930
ag1
(g2
g3
Vnorwegian
p931
tp932
Rp933
ag1
(g2
g3
Vaccetta
p934
tp935
Rp936
ag1
(g2
g3
Vsilicon
p937
tp938
Rp939
ag1
(g2
g3
Vmackey
p940
tp941
Rp942
ag1
(g2
g3
Vrhode-island
p943
tp944
Rp945
ag1
(g2
g3
Vrakuten
p946
tp947
Rp948
ag1
(g2
g3
Vbaltic
p949
tp950
Rp951
ag1
(g2
g3
Vnorthern-cheyenne
p952
tp953
Rp954
ag1
(g2
g3
Vhadiya-pendletons
p955
tp956
Rp957
ag1
(g2
g3
Vgloucester
p958
tp959
Rp960
ag1
(g2
g3
Vjohn-henson
p961
tp962
Rp963
ag1
(g2
g3
Varrows
p964
tp965
Rp966
ag1
(g2
g3
Vappeals
p967
tp968
Rp969
ag1
(g2
g3
Vbook-urges-us-to-unplug
p970
tp971
Rp972
ag1
(g2
g3
Vfeatures
p973
tp974
Rp975
ag1
(g2
g3
Vbrazils
p976
tp977
Rp978
ag1
(g2
g3
Vjamaica
p979
tp980
Rp981
ag1
(g2
g3
Vlumet
p982
tp983
Rp984
ag1
(g2
g3
Vlong-nose
p985
tp986
Rp987
ag1
(g2
g3
Vmarisol
p988
tp989
Rp990
ag1
(g2
g3
Vcongress-mp
p991
tp992
Rp993
ag1
(g2
g3
Virs-commissioner-douglas-shulman
p994
tp995
Rp996
ag1
(g2
g3
Vbrahmanas
p997
tp998
Rp999
ag1
(g2
g3
Vmillers
p1000
tp1001
Rp1002
ag1
(g2
g3
Vchattaroy
p1003
tp1004
Rp1005
ag1
(g2
g3
Vsally-hemmings
p1006
tp1007
Rp1008
ag1
(g2
g3
Vsahmat-collective
p1009
tp1010
Rp1011
ag1
(g2
g3
Vforrester
p1012
tp1013
Rp1014
ag1
(g2
g3
Vguinness
p1015
tp1016
Rp1017
ag1
(g2
g3
Vshani-davis
p1018
tp1019
Rp1020
ag1
(g2
g3
Vstackpole
p1021
tp1022
Rp1023
ag1
(g2
g3
Vnational-institutes
p1024
tp1025
Rp1026
ag1
(g2
g3
Vbitcoin
p1027
tp1028
Rp1029
ag1
(g2
g3
Velectronic-frontier-foundation
p1030
tp1031
Rp1032
ag1
(g2
g3
Vglobal-assessment
p1033
tp1034
Rp1035
ag1
(g2
g3
Vkangwon
p1036
tp1037
Rp1038
ag1
(g2
g3
Vbbc-news
p1039
tp1040
Rp1041
ag1
(g2
g3
Vblossoms
p1042
tp1043
Rp1044
ag1
(g2
g3
Vtorn-apart-hindu-doniger
p1045
tp1046
Rp1047
ag1
(g2
g3
Vcorpus
p1048
tp1049
Rp1050
ag1
(g2
g3
Vken-cuccinelli
p1051
tp1052
Rp1053
ag1
(g2
g3
Vinrohit-bhatia
p1054
tp1055
Rp1056
ag1
(g2
g3
Vdiederik-jeangout
p1057
tp1058
Rp1059
ag1
(g2
g3
Vbob-costas
p1060
tp1061
Rp1062
ag1
(g2
g3
Vdanish
p1063
tp1064
Rp1065
ag1
(g2
g3
Vswaziland
p1066
tp1067
Rp1068
ag1
(g2
g3
Vgarry-tan
p1069
tp1070
Rp1071
ag1
(g2
g3
Vquattro
p1072
tp1073
Rp1074
ag1
(g2
g3
Vstate-department
p1075
tp1076
Rp1077
ag1
(g2
g3
Vgoogle-ngram-viewer
p1078
tp1079
Rp1080
ag1
(g2
g3
Vwashington
p1081
tp1082
Rp1083
ag1
(g2
g3
Vinstapaper
p1084
tp1085
Rp1086
ag1
(g2
g3
Vbarbieri
p1087
tp1088
Rp1089
ag1
(g2
g3
Vhugh-hefners-playboy
p1090
tp1091
Rp1092
ag1
(g2
g3
Vwestern
p1093
tp1094
Rp1095
ag1
(g2
g3
Vaquavit
p1096
tp1097
Rp1098
ag1
(g2
g3
Vtoronto
p1099
tp1100
Rp1101
ag1
(g2
g3
Vlabor-department
p1102
tp1103
Rp1104
ag1
(g2
g3
Vgregor-weichbrodt
p1105
tp1106
Rp1107
ag1
(g2
g3
Vutah-county
p1108
tp1109
Rp1110
ag1
(g2
g3
Vsuresh-venkat
p1111
tp1112
Rp1113
ag1
(g2
g3
Vgangnam-style
p1114
tp1115
Rp1116
ag1
(g2
g3
Vtrulymadly
p1117
tp1118
Rp1119
ag1
(g2
g3
Vnew-yorks-queens-public
p1120
tp1121
Rp1122
ag1
(g2
g3
Vgator
p1123
tp1124
Rp1125
ag1
(g2
g3
Vhouse-republican-conference
p1126
tp1127
Rp1128
ag1
(g2
g3
Vlife-aquatic
p1129
tp1130
Rp1131
ag1
(g2
g3
Vbaines-johnson
p1132
tp1133
Rp1134
ag1
(g2
g3
Virani-cup
p1135
tp1136
Rp1137
ag1
(g2
g3
Vsotero
p1138
tp1139
Rp1140
ag1
(g2
g3
Vfashion
p1141
tp1142
Rp1143
ag1
(g2
g3
Vjohn-berggren
p1144
tp1145
Rp1146
ag1
(g2
g3
Vzooey-deschanel
p1147
tp1148
Rp1149
ag1
(g2
g3
Vvalor-capital
p1150
tp1151
Rp1152
ag1
(g2
g3
Vboston
p1153
tp1154
Rp1155
ag1
(g2
g3
Vmodern
p1156
tp1157
Rp1158
ag1
(g2
g3
Vgordon-brown
p1159
tp1160
Rp1161
ag1
(g2
g3
Vjosh-rosenberg-sees-inflation
p1162
tp1163
Rp1164
ag1
(g2
g3
Vport-blair
p1165
tp1166
Rp1167
ag1
(g2
g3
Vmuseum-in-our-street
p1168
tp1169
Rp1170
ag1
(g2
g3
Vjoris-evers
p1171
tp1172
Rp1173
ag1
(g2
g3
Vparliamentarian
p1174
tp1175
Rp1176
ag1
(g2
g3
Vmilitiaright
p1177
tp1178
Rp1179
ag1
(g2
g3
Vfateful-vision
p1180
tp1181
Rp1182
ag1
(g2
g3
Vbeltway
p1183
tp1184
Rp1185
ag1
(g2
g3
Vkitagawa
p1186
tp1187
Rp1188
ag1
(g2
g3
Vtaxi-driver
p1189
tp1190
Rp1191
ag1
(g2
g3
Vricoh
p1192
tp1193
Rp1194
ag1
(g2
g3
Vnew-republic
p1195
tp1196
Rp1197
ag1
(g2
g3
Vdoors
p1198
tp1199
Rp1200
ag1
(g2
g3
Vjohn-yudkin
p1201
tp1202
Rp1203
ag1
(g2
g3
Vnordic
p1204
tp1205
Rp1206
ag1
(g2
g3
Vjoaquin-valley-water-reliability-act
p1207
tp1208
Rp1209
ag1
(g2
g3
Vken-carpenter
p1210
tp1211
Rp1212
ag1
(g2
g3
Vjeff-bezos
p1213
tp1214
Rp1215
ag1
(g2
g3
Vwarde-manuel
p1216
tp1217
Rp1218
ag1
(g2
g3
Vmatika-wilbur
p1219
tp1220
Rp1221
ag1
(g2
g3
Vbroadacre
p1222
tp1223
Rp1224
ag1
(g2
g3
Vgermany
p1225
tp1226
Rp1227
ag1
(g2
g3
Vtoronto-maple
p1228
tp1229
Rp1230
ag1
(g2
g3
Vcray-sonexion
p1231
tp1232
Rp1233
ag1
(g2
g3
Vriyas-khomu
p1234
tp1235
Rp1236
ag1
(g2
g3
Vjonathan-kuck
p1237
tp1238
Rp1239
ag1
(g2
g3
Vrichard
p1240
tp1241
Rp1242
ag1
(g2
g3
Vbest-female-pop
p1243
tp1244
Rp1245
ag1
(g2
g3
Vreputation
p1246
tp1247
Rp1248
ag1
(g2
g3
Vtrue-detective
p1249
tp1250
Rp1251
ag1
(g2
g3
Vkavita
p1252
tp1253
Rp1254
ag1
(g2
g3
Vdaniel-weiss
p1255
tp1256
Rp1257
ag1
(g2
g3
Vsan-francisco-chronicle
p1258
tp1259
Rp1260
ag1
(g2
g3
Vmtv-video-music-awards
p1261
tp1262
Rp1263
ag1
(g2
g3
Vvijay-kamble
p1264
tp1265
Rp1266
ag1
(g2
g3
Vkristen
p1267
tp1268
Rp1269
ag1
(g2
g3
Vmrs-yellen
p1270
tp1271
Rp1272
ag1
(g2
g3
Vrussell-healey
p1273
tp1274
Rp1275
ag1
(g2
g3
Vuconn
p1276
tp1277
Rp1278
ag1
(g2
g3
Vjim-henson
p1279
tp1280
Rp1281
ag1
(g2
g3
Vbest-director
p1282
tp1283
Rp1284
ag1
(g2
g3
Vrhonda-rouer
p1285
tp1286
Rp1287
ag1
(g2
g3
Vgreat-mississippi-flood
p1288
tp1289
Rp1290
ag1
(g2
g3
Vgrand-budapest
p1291
tp1292
Rp1293
ag1
(g2
g3
Vyvon-chouinard
p1294
tp1295
Rp1296
ag1
(g2
g3
Vflappy-doge
p1297
tp1298
Rp1299
ag1
(g2
g3
Vearth
p1300
tp1301
Rp1302
ag1
(g2
g3
Vnevada
p1303
tp1304
Rp1305
ag1
(g2
g3
Vstrafverfolgung
p1306
tp1307
Rp1308
ag1
(g2
g3
Vbay-area
p1309
tp1310
Rp1311
ag1
(g2
g3
Vjoaquin-phoenix
p1312
tp1313
Rp1314
ag1
(g2
g3
Vabsolut
p1315
tp1316
Rp1317
ag1
(g2
g3
Vbenjamin-franklin
p1318
tp1319
Rp1320
ag1
(g2
g3
Vsupersoakers
p1321
tp1322
Rp1323
ag1
(g2
g3
Vminnesota
p1324
tp1325
Rp1326
ag1
(g2
g3
Vcupid
p1327
tp1328
Rp1329
ag1
(g2
g3
Vsugar
p1330
tp1331
Rp1332
ag1
(g2
g3
Vbest-female-pop-vocal
p1333
tp1334
Rp1335
ag1
(g2
g3
Vwes-andersons
p1336
tp1337
Rp1338
ag1
(g2
g3
Vpaul-krugman
p1339
tp1340
Rp1341
ag1
(g2
g3
Vcoimbatore
p1342
tp1343
Rp1344
ag1
(g2
g3
Vvalmikis-rama
p1345
tp1346
Rp1347
ag1
(g2
g3
Vcecilia
p1348
tp1349
Rp1350
ag1
(g2
g3
Vmoney-bitcoin
p1351
tp1352
Rp1353
ag1
(g2
g3
Vemerson-college
p1354
tp1355
Rp1356
ag1
(g2
g3
Vdamaja
p1357
tp1358
Rp1359
ag1
(g2
g3
Vpocket
p1360
tp1361
Rp1362
ag1
(g2
g3
Vamazon
p1363
tp1364
Rp1365
ag1
(g2
g3
Vjohnson-city
p1366
tp1367
Rp1368
ag1
(g2
g3
Vhaiti
p1369
tp1370
Rp1371
ag1
(g2
g3
Vjack-liu
p1372
tp1373
Rp1374
ag1
(g2
g3
Vchanel
p1375
tp1376
Rp1377
ag1
(g2
g3
Vsandy
p1378
tp1379
Rp1380
ag1
(g2
g3
Voccupy-wall
p1381
tp1382
Rp1383
ag1
(g2
g3
Vmulholland-bridge
p1384
tp1385
Rp1386
ag1
(g2
g3
Vgeneral-hifter
p1387
tp1388
Rp1389
ag1
(g2
g3
Veric-schmidt
p1390
tp1391
Rp1392
ag1
(g2
g3
Vplayblazer-ecommerce
p1393
tp1394
Rp1395
ag1
(g2
g3
Vpatch
p1396
tp1397
Rp1398
ag1
(g2
g3
Vjerry-leiber
p1399
tp1400
Rp1401
ag1
(g2
g3
Vinternational-stroke-conference
p1402
tp1403
Rp1404
ag1
(g2
g3
Vsushrut-munje
p1405
tp1406
Rp1407
ag1
(g2
g3
Vrestvale-cemetery
p1408
tp1409
Rp1410
ag1
(g2
g3
Vcharles-munger
p1411
tp1412
Rp1413
ag1
(g2
g3
Vsteam
p1414
tp1415
Rp1416
ag1
(g2
g3
Vindias-muslim-spring
p1417
tp1418
Rp1419
ag1
(g2
g3
Vroots-proceed
p1420
tp1421
Rp1422
ag1
(g2
g3
Vplaystation
p1423
tp1424
Rp1425
ag1
(g2
g3
Vkarnataka-learning-partnership
p1426
tp1427
Rp1428
ag1
(g2
g3
Vkarnataka
p1429
tp1430
Rp1431
ag1
(g2
g3
Vcorvette-museum
p1432
tp1433
Rp1434
ag1
(g2
g3
Vchris-kluwe
p1435
tp1436
Rp1437
ag1
(g2
g3
Vgaramendi
p1438
tp1439
Rp1440
ag1
(g2
g3
Vdinesh-vazirani
p1441
tp1442
Rp1443
ag1
(g2
g3
Vnalden
p1444
tp1445
Rp1446
ag1
(g2
g3
Vtommie-stornes
p1447
tp1448
Rp1449
ag1
(g2
g3
Vkeenan
p1450
tp1451
Rp1452
ag1
(g2
g3
Vveterans-affairs
p1453
tp1454
Rp1455
ag1
(g2
g3
Vcruz-senate-stunt-goes-unpunished
p1456
tp1457
Rp1458
ag1
(g2
g3
Veliot-ness
p1459
tp1460
Rp1461
ag1
(g2
g3
Vfrank-lloyd-wright
p1462
tp1463
Rp1464
ag1
(g2
g3
Vus-department
p1465
tp1466
Rp1467
ag1
(g2
g3
Vhammer
p1468
tp1469
Rp1470
ag1
(g2
g3
Vamerican-cancer-society
p1471
tp1472
Rp1473
ag1
(g2
g3
Vsozo-international
p1474
tp1475
Rp1476
ag1
(g2
g3
Vpatty-roberts
p1477
tp1478
Rp1479
ag1
(g2
g3
Vbrazil
p1480
tp1481
Rp1482
ag1
(g2
g3
Vamir-khan-productions
p1483
tp1484
Rp1485
ag1
(g2
g3
Vrachel-martin
p1486
tp1487
Rp1488
ag1
(g2
g3
Vmichelin
p1489
tp1490
Rp1491
ag1
(g2
g3
Vmitch
p1492
tp1493
Rp1494
ag1
(g2
g3
Vmidtown
p1495
tp1496
Rp1497
ag1
(g2
g3
Vcontra-costa-health
p1498
tp1499
Rp1500
ag1
(g2
g3
Vsigint
p1501
tp1502
Rp1503
ag1
(g2
g3
Vfacebooks
p1504
tp1505
Rp1506
ag1
(g2
g3
Vmoily
p1507
tp1508
Rp1509
ag1
(g2
g3
Vfifty-shades
p1510
tp1511
Rp1512
ag1
(g2
g3
Vhoward-gottfried
p1513
tp1514
Rp1515
ag1
(g2
g3
Vthird-way
p1516
tp1517
Rp1518
ag1
(g2
g3
Vnature
p1519
tp1520
Rp1521
ag1
(g2
g3
Vathlete-ally
p1522
tp1523
Rp1524
ag1
(g2
g3
Vthird-street-promenade
p1525
tp1526
Rp1527
ag1
(g2
g3
Vpantopicon
p1528
tp1529
Rp1530
ag1
(g2
g3
Vwoodgreen
p1531
tp1532
Rp1533
ag1
(g2
g3
Vadage
p1534
tp1535
Rp1536
ag1
(g2
g3
Vharvard
p1537
tp1538
Rp1539
ag1
(g2
g3
Vbad-economies
p1540
tp1541
Rp1542
ag1
(g2
g3
Vindo-aryans
p1543
tp1544
Rp1545
ag1
(g2
g3
Vrob-reiner
p1546
tp1547
Rp1548
ag1
(g2
g3
Vhadley-freeman
p1549
tp1550
Rp1551
ag1
(g2
g3
Vvedas
p1552
tp1553
Rp1554
ag1
(g2
g3
Vsouth-africa
p1555
tp1556
Rp1557
ag1
(g2
g3
Vkatong-laksa
p1558
tp1559
Rp1560
ag1
(g2
g3
Vmichael-dunn
p1561
tp1562
Rp1563
ag1
(g2
g3
Veli-pariser
p1564
tp1565
Rp1566
ag1
(g2
g3
Vadam-clayton-powell
p1567
tp1568
Rp1569
ag1
(g2
g3
Vcentral-bank
p1570
tp1571
Rp1572
ag1
(g2
g3
Vredbus
p1573
tp1574
Rp1575
ag1
(g2
g3
Vnational-intelligence-service
p1576
tp1577
Rp1578
ag1
(g2
g3
Vdennis-grehl
p1579
tp1580
Rp1581
ag1
(g2
g3
Vdigital-well
p1582
tp1583
Rp1584
ag1
(g2
g3
Vdiane-von-furstenberg
p1585
tp1586
Rp1587
ag1
(g2
g3
Vernst
p1588
tp1589
Rp1590
ag1
(g2
g3
Vtexas-arizona
p1591
tp1592
Rp1593
ag1
(g2
g3
Vobamas
p1594
tp1595
Rp1596
ag1
(g2
g3
Vgracnar
p1597
tp1598
Rp1599
ag1
(g2
g3
Vlibyan
p1600
tp1601
Rp1602
ag1
(g2
g3
Vvanity-fair
p1603
tp1604
Rp1605
ag1
(g2
g3
Vpeter-gleick
p1606
tp1607
Rp1608
ag1
(g2
g3
Vbeing-prepared
p1609
tp1610
Rp1611
ag1
(g2
g3
Vgroupon
p1612
tp1613
Rp1614
ag1
(g2
g3
Vjulie-bundy
p1615
tp1616
Rp1617
ag1
(g2
g3
Vjill-bates
p1618
tp1619
Rp1620
ag1
(g2
g3
Vcassandra-killpack
p1621
tp1622
Rp1623
ag1
(g2
g3
Vglover-park-group
p1624
tp1625
Rp1626
ag1
(g2
g3
Vgoogle-glass
p1627
tp1628
Rp1629
ag1
(g2
g3
Vbrendon-ayanbadejo
p1630
tp1631
Rp1632
ag1
(g2
g3
Vlibyas
p1633
tp1634
Rp1635
ag1
(g2
g3
Vhitler
p1636
tp1637
Rp1638
ag1
(g2
g3
Vconference
p1639
tp1640
Rp1641
ag1
(g2
g3
Vjapans
p1642
tp1643
Rp1644
ag1
(g2
g3
Vwright
p1645
tp1646
Rp1647
ag1
(g2
g3
Vcuriosity
p1648
tp1649
Rp1650
ag1
(g2
g3
Vbest-original-screenplay
p1651
tp1652
Rp1653
ag1
(g2
g3
Vswiss-medical-board
p1654
tp1655
Rp1656
ag1
(g2
g3
Vthree
p1657
tp1658
Rp1659
ag1
(g2
g3
Vshark-tank
p1660
tp1661
Rp1662
ag1
(g2
g3
Vcash-flow
p1663
tp1664
Rp1665
ag1
(g2
g3
Vlustig
p1666
tp1667
Rp1668
ag1
(g2
g3
Vsigmund-freud
p1669
tp1670
Rp1671
ag1
(g2
g3
Vab-sugar
p1672
tp1673
Rp1674
ag1
(g2
g3
Vmeans-committee
p1675
tp1676
Rp1677
ag1
(g2
g3
Vabuja
p1678
tp1679
Rp1680
ag1
(g2
g3
Vwallpaper-model
p1681
tp1682
Rp1683
ag1
(g2
g3
Vshanxi-opulent-blessing
p1684
tp1685
Rp1686
ag1
(g2
g3
Vbradley-horowitz
p1687
tp1688
Rp1689
ag1
(g2
g3
Vspecial-operations
p1690
tp1691
Rp1692
ag1
(g2
g3
Vretirement-research
p1693
tp1694
Rp1695
ag1
(g2
g3
Veastern
p1696
tp1697
Rp1698
ag1
(g2
g3
Vmichael-jordan
p1699
tp1700
Rp1701
ag1
(g2
g3
Vgreyhound
p1702
tp1703
Rp1704
ag1
(g2
g3
Vrepublicans
p1705
tp1706
Rp1707
ag1
(g2
g3
Vworker
p1708
tp1709
Rp1710
ag1
(g2
g3
Vfoucault
p1711
tp1712
Rp1713
ag1
(g2
g3
Vjetsonian
p1714
tp1715
Rp1716
ag1
(g2
g3
Vsan-francisco-state-university-professor
p1717
tp1718
Rp1719
ag1
(g2
g3
Vdweck
p1720
tp1721
Rp1722
ag1
(g2
g3
Vchile
p1723
tp1724
Rp1725
ag1
(g2
g3
Vcodger-king-alan-simpson
p1726
tp1727
Rp1728
ag1
(g2
g3
Vjimmy-iovine
p1729
tp1730
Rp1731
ag1
(g2
g3
Vstart-fund
p1732
tp1733
Rp1734
ag1
(g2
g3
Vroanoke-times
p1735
tp1736
Rp1737
ag1
(g2
g3
Vmohammad
p1738
tp1739
Rp1740
ag1
(g2
g3
Vbest-man
p1741
tp1742
Rp1743
ag1
(g2
g3
Vmedicare-advantage
p1744
tp1745
Rp1746
ag1
(g2
g3
Voccam
p1747
tp1748
Rp1749
ag1
(g2
g3
Vbuffalo-sabres
p1750
tp1751
Rp1752
ag1
(g2
g3
Vcivil-rights-act
p1753
tp1754
Rp1755
ag1
(g2
g3
Vgawker-media
p1756
tp1757
Rp1758
ag1
(g2
g3
Vkentucky
p1759
tp1760
Rp1761
ag1
(g2
g3
Vusmein
p1762
tp1763
Rp1764
ag1
(g2
g3
Vsao-paulo
p1765
tp1766
Rp1767
ag1
(g2
g3
Vbethany-yellowtail
p1768
tp1769
Rp1770
ag1
(g2
g3
Vctorres2
p1771
tp1772
Rp1773
ag1
(g2
g3
Vbalance
p1774
tp1775
Rp1776
ag1
(g2
g3
Vhockey-hype-team
p1777
tp1778
Rp1779
ag1
(g2
g3
Vbiotech
p1780
tp1781
Rp1782
ag1
(g2
g3
Vschweitzer
p1783
tp1784
Rp1785
ag1
(g2
g3
Vjake-parent
p1786
tp1787
Rp1788
ag1
(g2
g3
Vmexico
p1789
tp1790
Rp1791
ag1
(g2
g3
Vmartin-penny
p1792
tp1793
Rp1794
ag1
(g2
g3
Vbig-data
p1795
tp1796
Rp1797
ag1
(g2
g3
Vmichael-eisenstadt
p1798
tp1799
Rp1800
ag1
(g2
g3
Vcersei
p1801
tp1802
Rp1803
ag1
(g2
g3
Vdial4cleanhome
p1804
tp1805
Rp1806
ag1
(g2
g3
Vanatole
p1807
tp1808
Rp1809
ag1
(g2
g3
Vmadonna
p1810
tp1811
Rp1812
ag1
(g2
g3
Vseattle
p1813
tp1814
Rp1815
ag1
(g2
g3
Vmark-zuckerberg
p1816
tp1817
Rp1818
ag1
(g2
g3
Vingmar-bergmans-the
p1819
tp1820
Rp1821
ag1
(g2
g3
Vuttar-pradesh
p1822
tp1823
Rp1824
ag1
(g2
g3
Vmelba-wilson
p1825
tp1826
Rp1827
ag1
(g2
g3
Vstaple-design
p1828
tp1829
Rp1830
ag1
(g2
g3
Vnorfolk-international-terminals
p1831
tp1832
Rp1833
ag1
(g2
g3
Vjournal
p1834
tp1835
Rp1836
ag1
(g2
g3
Vthings
p1837
tp1838
Rp1839
ag1
(g2
g3
Vkleiner-perkins
p1840
tp1841
Rp1842
ag1
(g2
g3
Vblue-angel
p1843
tp1844
Rp1845
ag1
(g2
g3
Vartoo-web
p1846
tp1847
Rp1848
ag1
(g2
g3
Vgoogle-services
p1849
tp1850
Rp1851
ag1
(g2
g3
Vpariss
p1852
tp1853
Rp1854
ag1
(g2
g3
Vchristine-taylor
p1855
tp1856
Rp1857
ag1
(g2
g3
Venterprise-holdings
p1858
tp1859
Rp1860
ag1
(g2
g3
Vgotzkowskys
p1861
tp1862
Rp1863
ag1
(g2
g3
Vnetwork18
p1864
tp1865
Rp1866
ag1
(g2
g3
Vspike-jonze
p1867
tp1868
Rp1869
ag1
(g2
g3
Vbeverly-hills
p1870
tp1871
Rp1872
ag1
(g2
g3
Veuropean
p1873
tp1874
Rp1875
ag1
(g2
g3
Vleftist
p1876
tp1877
Rp1878
ag1
(g2
g3
Vmzymta
p1879
tp1880
Rp1881
ag1
(g2
g3
Vpontiac
p1882
tp1883
Rp1884
ag1
(g2
g3
Vhuman-rights
p1885
tp1886
Rp1887
ag1
(g2
g3
Vswell
p1888
tp1889
Rp1890
ag1
(g2
g3
Vsocial
p1891
tp1892
Rp1893
ag1
(g2
g3
Vanurag-khanna
p1894
tp1895
Rp1896
ag1
(g2
g3
Vmassachusetts-institute
p1897
tp1898
Rp1899
ag1
(g2
g3
Vjetzt
p1900
tp1901
Rp1902
ag1
(g2
g3
Vslovenia
p1903
tp1904
Rp1905
ag1
(g2
g3
Varvidson
p1906
tp1907
Rp1908
ag1
(g2
g3
Vbill-murray
p1909
tp1910
Rp1911
ag1
(g2
g3
Vbloomberg
p1912
tp1913
Rp1914
ag1
(g2
g3
Vtyson
p1915
tp1916
Rp1917
ag1
(g2
g3
Vopportunity
p1918
tp1919
Rp1920
ag1
(g2
g3
Vnational-weather
p1921
tp1922
Rp1923
ag1
(g2
g3
Vellen-page
p1924
tp1925
Rp1926
ag1
(g2
g3
Vmeg-ryan
p1927
tp1928
Rp1929
ag1
(g2
g3
Vvermont
p1930
tp1931
Rp1932
ag1
(g2
g3
Vlucas
p1933
tp1934
Rp1935
ag1
(g2
g3
Vted-radio-hour
p1936
tp1937
Rp1938
ag1
(g2
g3
Vsenator-cruz
p1939
tp1940
Rp1941
ag1
(g2
g3
Vintern-industrial-complex
p1942
tp1943
Rp1944
ag1
(g2
g3
Vusc-annenberg-school
p1945
tp1946
Rp1947
ag1
(g2
g3
Vocean
p1948
tp1949
Rp1950
ag1
(g2
g3
Vunderwoods
p1951
tp1952
Rp1953
ag1
(g2
g3
Vbeyang-liu
p1954
tp1955
Rp1956
ag1
(g2
g3
Vtopeka-board
p1957
tp1958
Rp1959
ag1
(g2
g3
Vfollow-your-passion
p1960
tp1961
Rp1962
ag1
(g2
g3
Vnew-jersey
p1963
tp1964
Rp1965
ag1
(g2
g3
Vgoodacre
p1966
tp1967
Rp1968
ag1
(g2
g3
Vdosomething
p1969
tp1970
Rp1971
ag1
(g2
g3
Vmicrosoft-orientalism
p1972
tp1973
Rp1974
ag1
(g2
g3
Vjennifer-senior
p1975
tp1976
Rp1977
ag1
(g2
g3
Vgermanybronze
p1978
tp1979
Rp1980
ag1
(g2
g3
Vhighway-beautification
p1981
tp1982
Rp1983
ag1
(g2
g3
Vryan-lawler
p1984
tp1985
Rp1986
ag1
(g2
g3
Vdebadutta-upadhyaya
p1987
tp1988
Rp1989
ag1
(g2
g3
Vdateiitians-ui-designer
p1990
tp1991
Rp1992
ag1
(g2
g3
Vcitgo
p1993
tp1994
Rp1995
ag1
(g2
g3
Vsomerville
p1996
tp1997
Rp1998
ag1
(g2
g3
Vsidney-poitier
p1999
tp2000
Rp2001
ag1
(g2
g3
Vscott-carter
p2002
tp2003
Rp2004
ag1
(g2
g3
Vannapurna-hotels
p2005
tp2006
Rp2007
ag1
(g2
g3
Vrosenberg
p2008
tp2009
Rp2010
ag1
(g2
g3
Vbrigham
p2011
tp2012
Rp2013
ag1
(g2
g3
Vmunger
p2014
tp2015
Rp2016
ag1
(g2
g3
Vsochi
p2017
tp2018
Rp2019
ag1
(g2
g3
Vbill-clinton
p2020
tp2021
Rp2022
ag1
(g2
g3
Vjules
p2023
tp2024
Rp2025
ag1
(g2
g3
Vfriedrich
p2026
tp2027
Rp2028
ag1
(g2
g3
Vjayne-atkinson
p2029
tp2030
Rp2031
ag1
(g2
g3
Vbeach-boys
p2032
tp2033
Rp2034
ag1
(g2
g3
Vbengt-holst
p2035
tp2036
Rp2037
ag1
(g2
g3
Vbonanza
p2038
tp2039
Rp2040
ag1
(g2
g3
Vslade
p2041
tp2042
Rp2043
ag1
(g2
g3
Vslovenian-luka-gracnar
p2044
tp2045
Rp2046
ag1
(g2
g3
Vgreat-bifurcation
p2047
tp2048
Rp2049
ag1
(g2
g3
Vgoogle-ventures
p2050
tp2051
Rp2052
ag1
(g2
g3
Vbrian-schweitzer
p2053
tp2054
Rp2055
ag1
(g2
g3
Vreagan
p2056
tp2057
Rp2058
ag1
(g2
g3
Vdaemon
p2059
tp2060
Rp2061
ag1
(g2
g3
Vcrypto-anarchistic-manifesto
p2062
tp2063
Rp2064
ag1
(g2
g3
Vexxon
p2065
tp2066
Rp2067
ag1
(g2
g3
Vasad-ali
p2068
tp2069
Rp2070
ag1
(g2
g3
Vlinda
p2071
tp2072
Rp2073
ag1
(g2
g3
Vpicasso
p2074
tp2075
Rp2076
ag1
(g2
g3
Vharvard-business-school
p2077
tp2078
Rp2079
ag1
(g2
g3
Vindosat
p2080
tp2081
Rp2082
ag1
(g2
g3
Vkipple
p2083
tp2084
Rp2085
ag1
(g2
g3
Vbaby-boomers-do
p2086
tp2087
Rp2088
ag1
(g2
g3
Vsoutheast-asian-islamist
p2089
tp2090
Rp2091
ag1
(g2
g3
Vpew-research-center
p2092
tp2093
Rp2094
ag1
(g2
g3
Vbulgarian-extreme
p2095
tp2096
Rp2097
ag1
(g2
g3
Vbreivik
p2098
tp2099
Rp2100
ag1
(g2
g3
Vmike-alfred
p2101
tp2102
Rp2103
ag1
(g2
g3
Vmanual
p2104
tp2105
Rp2106
ag1
(g2
g3
Vdeutsche-bank
p2107
tp2108
Rp2109
ag1
(g2
g3
Vbest-female-video
p2110
tp2111
Rp2112
ag1
(g2
g3
Vcentral-asia
p2113
tp2114
Rp2115
ag1
(g2
g3
Vhuffpo
p2116
tp2117
Rp2118
ag1
(g2
g3
Vcivil-war
p2119
tp2120
Rp2121
ag1
(g2
g3
Vapp-store
p2122
tp2123
Rp2124
ag1
(g2
g3
Vsecurity
p2125
tp2126
Rp2127
ag1
(g2
g3
Vsebastian
p2128
tp2129
Rp2130
ag1
(g2
g3
Vgoogle-search
p2131
tp2132
Rp2133
ag1
(g2
g3
Vgawker
p2134
tp2135
Rp2136
ag1
(g2
g3
Vpeople
p2137
tp2138
Rp2139
ag1
(g2
g3
Vdarshana
p2140
tp2141
Rp2142
ag1
(g2
g3
Vuniversal-records
p2143
tp2144
Rp2145
ag1
(g2
g3
Vjennifer
p2146
tp2147
Rp2148
ag1
(g2
g3
Vmalaysia
p2149
tp2150
Rp2151
ag1
(g2
g3
Vintern
p2152
tp2153
Rp2154
ag1
(g2
g3
Veastern-freeway
p2155
tp2156
Rp2157
ag1
(g2
g3
Vbillboard
p2158
tp2159
Rp2160
ag1
(g2
g3
Vwarren-buffett
p2161
tp2162
Rp2163
ag1
(g2
g3
Vvorfall
p2164
tp2165
Rp2166
ag1
(g2
g3
Vred-hot-chili-peppers
p2167
tp2168
Rp2169
ag1
(g2
g3
Vwest-virginia-citizen-action
p2170
tp2171
Rp2172
ag1
(g2
g3
Vhumor
p2173
tp2174
Rp2175
ag1
(g2
g3
Vradha
p2176
tp2177
Rp2178
ag1
(g2
g3
Vwestboro-baptist-church
p2179
tp2180
Rp2181
ag1
(g2
g3
Voregonian
p2182
tp2183
Rp2184
ag1
(g2
g3
Vbette-grenier
p2185
tp2186
Rp2187
ag1
(g2
g3
Vbyron-tau
p2188
tp2189
Rp2190
ag1
(g2
g3
Vjack-vanderhei
p2191
tp2192
Rp2193
ag1
(g2
g3
Vcentre
p2194
tp2195
Rp2196
ag1
(g2
g3
Vdhingana
p2197
tp2198
Rp2199
ag1
(g2
g3
Vstanford-cs
p2200
tp2201
Rp2202
ag1
(g2
g3
Vtrusteer
p2203
tp2204
Rp2205
ag1
(g2
g3
Vnorth-carolina
p2206
tp2207
Rp2208
ag1
(g2
g3
Vwayne-gretzky
p2209
tp2210
Rp2211
ag1
(g2
g3
Vrabi-gupta
p2212
tp2213
Rp2214
ag1
(g2
g3
Vchristmas
p2215
tp2216
Rp2217
ag1
(g2
g3
Vhowell
p2218
tp2219
Rp2220
ag1
(g2
g3
Vinterxion
p2221
tp2222
Rp2223
ag1
(g2
g3
Vmichael-bloomberg
p2224
tp2225
Rp2226
ag1
(g2
g3
Vherbsicle
p2227
tp2228
Rp2229
ag1
(g2
g3
Vfalls-church
p2230
tp2231
Rp2232
ag1
(g2
g3
Vezra-klein
p2233
tp2234
Rp2235
ag1
(g2
g3
Vgreat-depression
p2236
tp2237
Rp2238
ag1
(g2
g3
Vbrandon-aitchison
p2239
tp2240
Rp2241
ag1
(g2
g3
Vrig-veda
p2242
tp2243
Rp2244
ag1
(g2
g3
Vdont-cha
p2245
tp2246
Rp2247
ag1
(g2
g3
Vicelandic
p2248
tp2249
Rp2250
ag1
(g2
g3
Vmichael-calderone
p2251
tp2252
Rp2253
ag1
(g2
g3
Vtechsparks
p2254
tp2255
Rp2256
ag1
(g2
g3
Vfermat
p2257
tp2258
Rp2259
ag1
(g2
g3
Vbangalore
p2260
tp2261
Rp2262
ag1
(g2
g3
Vsuper
p2263
tp2264
Rp2265
ag1
(g2
g3
Vpicassos
p2266
tp2267
Rp2268
ag1
(g2
g3
Vbrahmin
p2269
tp2270
Rp2271
ag1
(g2
g3
Vcensus
p2272
tp2273
Rp2274
ag1
(g2
g3
Vgoogle-maps
p2275
tp2276
Rp2277
ag1
(g2
g3
Veastern-shore
p2278
tp2279
Rp2280
ag1
(g2
g3
Vvalentines
p2281
tp2282
Rp2283
ag1
(g2
g3
Vtanya-flink
p2284
tp2285
Rp2286
ag1
(g2
g3
Vcary-grant
p2287
tp2288
Rp2289
ag1
(g2
g3
Vgoogle-internet
p2290
tp2291
Rp2292
ag1
(g2
g3
Vdutton
p2293
tp2294
Rp2295
ag1
(g2
g3
Vlos-angeles-international-airport
p2296
tp2297
Rp2298
ag1
(g2
g3
Vhawkins-county-sheriff
p2299
tp2300
Rp2301
ag1
(g2
g3
Vshayba-arena
p2302
tp2303
Rp2304
ag1
(g2
g3
Vmaharashtra
p2305
tp2306
Rp2307
ag1
(g2
g3
Vserreze
p2308
tp2309
Rp2310
ag1
(g2
g3
Vdonigers-linga
p2311
tp2312
Rp2313
ag1
(g2
g3
Vnew-delhi
p2314
tp2315
Rp2316
ag1
(g2
g3
Vindians
p2317
tp2318
Rp2319
ag1
(g2
g3
Vrespondent
p2320
tp2321
Rp2322
ag1
(g2
g3
Vhosni
p2323
tp2324
Rp2325
ag1
(g2
g3
Vprakash
p2326
tp2327
Rp2328
ag1
(g2
g3
Vwhit-babcock
p2329
tp2330
Rp2331
ag1
(g2
g3
Vneedy-for
p2332
tp2333
Rp2334
ag1
(g2
g3
Vold-redford
p2335
tp2336
Rp2337
ag1
(g2
g3
Vnew-black
p2338
tp2339
Rp2340
ag1
(g2
g3
Voccupational-safety
p2341
tp2342
Rp2343
ag1
(g2
g3
Veisenstadt
p2344
tp2345
Rp2346
ag1
(g2
g3
Vpapua-new
p2347
tp2348
Rp2349
ag1
(g2
g3
Vvedantic
p2350
tp2351
Rp2352
ag1
(g2
g3
Vwarner-brothers
p2353
tp2354
Rp2355
ag1
(g2
g3
Vindian-art-curated
p2356
tp2357
Rp2358
ag1
(g2
g3
Vsumesh-sharma
p2359
tp2360
Rp2361
ag1
(g2
g3
Vhidden-treasure
p2362
tp2363
Rp2364
ag1
(g2
g3
Vpalo-alto
p2365
tp2366
Rp2367
ag1
(g2
g3
Vchameleon-club
p2368
tp2369
Rp2370
ag1
(g2
g3
Vfelix-salmon
p2371
tp2372
Rp2373
ag1
(g2
g3
Vrobert-reich
p2374
tp2375
Rp2376
ag1
(g2
g3
Vmichael-dilissen
p2377
tp2378
Rp2379
ag1
(g2
g3
Vmoammar-gadhafi
p2380
tp2381
Rp2382
ag1
(g2
g3
Vappletv
p2383
tp2384
Rp2385
ag1
(g2
g3
Vanderson
p2386
tp2387
Rp2388
ag1
(g2
g3
Vjoseph
p2389
tp2390
Rp2391
ag1
(g2
g3
Vwordpress
p2392
tp2393
Rp2394
ag1
(g2
g3
Veditor
p2395
tp2396
Rp2397
ag1
(g2
g3
Vhealth-fitness
p2398
tp2399
Rp2400
ag1
(g2
g3
Vmark-ehrnstein
p2401
tp2402
Rp2403
ag1
(g2
g3
Vhappy
p2404
tp2405
Rp2406
ag1
(g2
g3
Vrichard-gottehrer
p2407
tp2408
Rp2409
ag1
(g2
g3
Vwilliam-frank
p2410
tp2411
Rp2412
ag1
(g2
g3
Vderek-lam
p2413
tp2414
Rp2415
ag1
(g2
g3
Vcanara
p2416
tp2417
Rp2418
ag1
(g2
g3
Vdavid-arkin
p2419
tp2420
Rp2421
ag1
(g2
g3
Vgyongyi
p2422
tp2423
Rp2424
ag1
(g2
g3
Vsidney-lumet
p2425
tp2426
Rp2427
ag1
(g2
g3
Vmerrill-lynch
p2428
tp2429
Rp2430
ag1
(g2
g3
Vherb-brooks
p2431
tp2432
Rp2433
ag1
(g2
g3
Vjimi-hendrix-experience
p2434
tp2435
Rp2436
ag1
(g2
g3
Vamerican-progress-action-fund
p2437
tp2438
Rp2439
ag1
(g2
g3
Vwilliam-cullinan
p2440
tp2441
Rp2442
ag1
(g2
g3
Vcharlie-cheever
p2443
tp2444
Rp2445
ag1
(g2
g3
Vplymouth
p2446
tp2447
Rp2448
ag1
(g2
g3
Vjpmorgan-chase
p2449
tp2450
Rp2451
ag1
(g2
g3
Vcosmos
p2452
tp2453
Rp2454
ag1
(g2
g3
Vdaddy
p2455
tp2456
Rp2457
ag1
(g2
g3
Vabenomics
p2458
tp2459
Rp2460
ag1
(g2
g3
Vdialogue-institute
p2461
tp2462
Rp2463
ag1
(g2
g3
Vkejriwal
p2464
tp2465
Rp2466
ag1
(g2
g3
Vbitcoins
p2467
tp2468
Rp2469
ag1
(g2
g3
Vted-strickland
p2470
tp2471
Rp2472
ag1
(g2
g3
Vtesla
p2473
tp2474
Rp2475
ag1
(g2
g3
Vpersonwang
p2476
tp2477
Rp2478
ag1
(g2
g3
Vlivestrong
p2479
tp2480
Rp2481
ag1
(g2
g3
Vbryce-durbin
p2482
tp2483
Rp2484
ag1
(g2
g3
Vsquare-market
p2485
tp2486
Rp2487
ag1
(g2
g3
Vzimride
p2488
tp2489
Rp2490
ag1
(g2
g3
Vvezina-trophy
p2491
tp2492
Rp2493
ag1
(g2
g3
Vsaaraswatas
p2494
tp2495
Rp2496
ag1
(g2
g3
Vtemple-university
p2497
tp2498
Rp2499
ag1
(g2
g3
Vyouth-heroes-alice-rivlin
p2500
tp2501
Rp2502
ag1
(g2
g3
Vus-cities
p2503
tp2504
Rp2505
ag1
(g2
g3
Vkomissarouk
p2506
tp2507
Rp2508
ag1
(g2
g3
Vworker-freedom
p2509
tp2510
Rp2511
ag1
(g2
g3
Vmarxist
p2512
tp2513
Rp2514
ag1
(g2
g3
Vphilip-seymour-hoffman
p2515
tp2516
Rp2517
ag1
(g2
g3
Vartasiapacific
p2518
tp2519
Rp2520
ag1
(g2
g3
Vdonigers
p2521
tp2522
Rp2523
ag1
(g2
g3
Vfitzgerald
p2524
tp2525
Rp2526
ag1
(g2
g3
Vvesper
p2527
tp2528
Rp2529
ag1
(g2
g3
Vtilda-swinton
p2530
tp2531
Rp2532
ag1
(g2
g3
Vangry-birds
p2533
tp2534
Rp2535
ag1
(g2
g3
Vfox-news
p2536
tp2537
Rp2538
ag1
(g2
g3
Vgishiri
p2539
tp2540
Rp2541
ag1
(g2
g3
Vgluskin-sheff
p2542
tp2543
Rp2544
ag1
(g2
g3
Vdevelopers
p2545
tp2546
Rp2547
ag1
(g2
g3
Vanne-curzan
p2548
tp2549
Rp2550
ag1
(g2
g3
Vgarrulity-so
p2551
tp2552
Rp2553
ag1
(g2
g3
Vmillennial
p2554
tp2555
Rp2556
ag1
(g2
g3
Vhazelden
p2557
tp2558
Rp2559
ag1
(g2
g3
Vdan-farber
p2560
tp2561
Rp2562
ag1
(g2
g3
Vfigure-skating-pairs
p2563
tp2564
Rp2565
ag1
(g2
g3
Vneha-kirpal
p2566
tp2567
Rp2568
ag1
(g2
g3
Vbuddhists
p2569
tp2570
Rp2571
ag1
(g2
g3
Vwechat
p2572
tp2573
Rp2574
ag1
(g2
g3
Vmaureen
p2575
tp2576
Rp2577
ag1
(g2
g3
Vsearch-engine-roundtable
p2578
tp2579
Rp2580
ag1
(g2
g3
Vrusso
p2581
tp2582
Rp2583
ag1
(g2
g3
Vsecurity-council
p2584
tp2585
Rp2586
ag1
(g2
g3
Vsenate-democrats
p2587
tp2588
Rp2589
ag1
(g2
g3
Vaustralians
p2590
tp2591
Rp2592
ag1
(g2
g3
Vjohn-chancellor
p2593
tp2594
Rp2595
ag1
(g2
g3
Vberlin
p2596
tp2597
Rp2598
ag1
(g2
g3
Vottawa
p2599
tp2600
Rp2601
ag1
(g2
g3
Vlibyan-army
p2602
tp2603
Rp2604
ag1
(g2
g3
Vvietnam
p2605
tp2606
Rp2607
ag1
(g2
g3
Vslingfire
p2608
tp2609
Rp2610
ag1
(g2
g3
Vcoldwell-banker
p2611
tp2612
Rp2613
ag1
(g2
g3
Vbilly-wilder
p2614
tp2615
Rp2616
ag1
(g2
g3
Vphil-nolan
p2617
tp2618
Rp2619
ag1
(g2
g3
Vgrand-budapest-hotel
p2620
tp2621
Rp2622
ag1
(g2
g3
Vdetective
p2623
tp2624
Rp2625
ag1
(g2
g3
Vpacific-institute
p2626
tp2627
Rp2628
ag1
(g2
g3
Vgrallo-web-developer
p2629
tp2630
Rp2631
ag1
(g2
g3
Vcincinnati
p2632
tp2633
Rp2634
ag1
(g2
g3
Vazusa-high
p2635
tp2636
Rp2637
ag1
(g2
g3
Vreal-time
p2638
tp2639
Rp2640
ag1
(g2
g3
Vpastner
p2641
tp2642
Rp2643
ag1
(g2
g3
Vmadison
p2644
tp2645
Rp2646
ag1
(g2
g3
Vhawaii
p2647
tp2648
Rp2649
ag1
(g2
g3
Vchayefsky
p2650
tp2651
Rp2652
ag1
(g2
g3
Vparker
p2653
tp2654
Rp2655
ag1
(g2
g3
Vbattle
p2656
tp2657
Rp2658
ag1
(g2
g3
Vtampines
p2659
tp2660
Rp2661
ag1
(g2
g3
Vchait
p2662
tp2663
Rp2664
ag1
(g2
g3
Vmichael-gill
p2665
tp2666
Rp2667
ag1
(g2
g3
Vsachin-tendulkar
p2668
tp2669
Rp2670
ag1
(g2
g3
Vjane-goodall
p2671
tp2672
Rp2673
ag1
(g2
g3
Vsacha-baron-cohen
p2674
tp2675
Rp2676
ag1
(g2
g3
Vhound-dog
p2677
tp2678
Rp2679
ag1
(g2
g3
Vobamacare
p2680
tp2681
Rp2682
ag1
(g2
g3
Vkim-jong
p2683
tp2684
Rp2685
ag1
(g2
g3
Vnorth-shore
p2686
tp2687
Rp2688
ag1
(g2
g3
Vmeloy
p2689
tp2690
Rp2691
ag1
(g2
g3
Vamazons-kindle
p2692
tp2693
Rp2694
ag1
(g2
g3
Vfoursquare
p2695
tp2696
Rp2697
ag1
(g2
g3
Vvietnam-war
p2698
tp2699
Rp2700
ag1
(g2
g3
Vwhite-house
p2701
tp2702
Rp2703
ag1
(g2
g3
Vgopal
p2704
tp2705
Rp2706
ag1
(g2
g3
Vdartmouth
p2707
tp2708
Rp2709
ag1
(g2
g3
Vholmby-hills
p2710
tp2711
Rp2712
ag1
(g2
g3
Vhenderson
p2713
tp2714
Rp2715
ag1
(g2
g3
Vthomas-watson
p2716
tp2717
Rp2718
ag1
(g2
g3
Vbrown
p2719
tp2720
Rp2721
ag1
(g2
g3
Vchris-stein
p2722
tp2723
Rp2724
ag1
(g2
g3
Vdawn-robinson
p2725
tp2726
Rp2727
ag1
(g2
g3
Vsan-francisco-state-university
p2728
tp2729
Rp2730
ag1
(g2
g3
Volympus
p2731
tp2732
Rp2733
ag1
(g2
g3
Vwharton
p2734
tp2735
Rp2736
ag1
(g2
g3
Vmccrory
p2737
tp2738
Rp2739
ag1
(g2
g3
Vghostbusters
p2740
tp2741
Rp2742
ag1
(g2
g3
Vklout
p2743
tp2744
Rp2745
ag1
(g2
g3
Vdrug-abuse
p2746
tp2747
Rp2748
ag1
(g2
g3
Vdaily-show
p2749
tp2750
Rp2751
ag1
(g2
g3
Vblast
p2752
tp2753
Rp2754
ag1
(g2
g3
Vcharles-evans
p2755
tp2756
Rp2757
ag1
(g2
g3
Vhuman-services
p2758
tp2759
Rp2760
ag1
(g2
g3
Vlitecoin
p2761
tp2762
Rp2763
ag1
(g2
g3
Vmartha-rudolph
p2764
tp2765
Rp2766
ag1
(g2
g3
Vlarry-brown
p2767
tp2768
Rp2769
ag1
(g2
g3
Vsaugerties
p2770
tp2771
Rp2772
ag1
(g2
g3
Vkevin-barenblat
p2773
tp2774
Rp2775
ag1
(g2
g3
Vamerican-express
p2776
tp2777
Rp2778
ag1
(g2
g3
Vphilippines
p2779
tp2780
Rp2781
ag1
(g2
g3
Vollie
p2782
tp2783
Rp2784
ag1
(g2
g3
Vchris-hadfield
p2785
tp2786
Rp2787
ag1
(g2
g3
Vunion-bank
p2788
tp2789
Rp2790
ag1
(g2
g3
Vsubway
p2791
tp2792
Rp2793
ag1
(g2
g3
Vberkeley-economist-enrico-moretti
p2794
tp2795
Rp2796
ag1
(g2
g3
Vweibrechts
p2797
tp2798
Rp2799
ag1
(g2
g3
Visaac-mizrahi
p2800
tp2801
Rp2802
ag1
(g2
g3
Vzervoss
p2803
tp2804
Rp2805
ag1
(g2
g3
Vfarhad-manjoo
p2806
tp2807
Rp2808
ag1
(g2
g3
Vmarc-andreessen
p2809
tp2810
Rp2811
ag1
(g2
g3
Vthetop-charts
p2812
tp2813
Rp2814
ag1
(g2
g3
Vamerican-dream
p2815
tp2816
Rp2817
ag1
(g2
g3
Vdavid-skeie-liberty-street-economics
p2818
tp2819
Rp2820
ag1
(g2
g3
Vharvard-university-john
p2821
tp2822
Rp2823
ag1
(g2
g3
Vprairie
p2824
tp2825
Rp2826
ag1
(g2
g3
Vannual-conference
p2827
tp2828
Rp2829
ag1
(g2
g3
Vwebgl
p2830
tp2831
Rp2832
ag1
(g2
g3
Vafghanistan
p2833
tp2834
Rp2835
ag1
(g2
g3
Vrichard-bachman
p2836
tp2837
Rp2838
ag1
(g2
g3
Vmashable-must-reads
p2839
tp2840
Rp2841
ag1
(g2
g3
Vyudkin
p2842
tp2843
Rp2844
ag1
(g2
g3
Vpapanek
p2845
tp2846
Rp2847
ag1
(g2
g3
Vantwerp
p2848
tp2849
Rp2850
ag1
(g2
g3
Valec-dudson
p2851
tp2852
Rp2853
ag1
(g2
g3
Vsochi-see
p2854
tp2855
Rp2856
ag1
(g2
g3
Vdeficit-hack
p2857
tp2858
Rp2859
ag1
(g2
g3
Vdonald-blythe
p2860
tp2861
Rp2862
ag1
(g2
g3
Vharvard-business-review
p2863
tp2864
Rp2865
ag1
(g2
g3
Vleslie-patton
p2866
tp2867
Rp2868
ag1
(g2
g3
Vbarry-ptolemys
p2869
tp2870
Rp2871
ag1
(g2
g3
Vgoldblum
p2872
tp2873
Rp2874
ag1
(g2
g3
Viron-man-mark
p2875
tp2876
Rp2877
ag1
(g2
g3
Vresponsive-politics
p2878
tp2879
Rp2880
ag1
(g2
g3
Vguardian
p2881
tp2882
Rp2883
ag1
(g2
g3
Vmuslim
p2884
tp2885
Rp2886
ag1
(g2
g3
Vfrench
p2887
tp2888
Rp2889
ag1
(g2
g3
Vmike-stoller
p2890
tp2891
Rp2892
ag1
(g2
g3
Vmhacks-hackathon
p2893
tp2894
Rp2895
ag1
(g2
g3
Vernest
p2896
tp2897
Rp2898
ag1
(g2
g3
Vbedford-post
p2899
tp2900
Rp2901
ag1
(g2
g3
Vinteraxon
p2902
tp2903
Rp2904
ag1
(g2
g3
Vchinese-central-bank
p2905
tp2906
Rp2907
ag1
(g2
g3
Vcomptroller
p2908
tp2909
Rp2910
ag1
(g2
g3
Vcanadian
p2911
tp2912
Rp2913
ag1
(g2
g3
Vknicks
p2914
tp2915
Rp2916
ag1
(g2
g3
Vfaye-dunaway
p2917
tp2918
Rp2919
ag1
(g2
g3
Vvoyages-india-generalist
p2920
tp2921
Rp2922
ag1
(g2
g3
Vrobert-downey
p2923
tp2924
Rp2925
ag1
(g2
g3
Vsenate-democratic
p2926
tp2927
Rp2928
ag1
(g2
g3
Vleland-brunson
p2929
tp2930
Rp2931
ag1
(g2
g3
Vmatthew-mcconkey
p2932
tp2933
Rp2934
ag1
(g2
g3
Vclive-mason
p2935
tp2936
Rp2937
ag1
(g2
g3
Vinflux
p2938
tp2939
Rp2940
ag1
(g2
g3
Vdos-equis
p2941
tp2942
Rp2943
ag1
(g2
g3
Vamerican-society
p2944
tp2945
Rp2946
ag1
(g2
g3
Vdevil-wears-prada
p2947
tp2948
Rp2949
ag1
(g2
g3
Vtaunton
p2950
tp2951
Rp2952
ag1
(g2
g3
Vsan-diego
p2953
tp2954
Rp2955
ag1
(g2
g3
Vjames-greiff
p2956
tp2957
Rp2958
ag1
(g2
g3
Vteam-member-services
p2959
tp2960
Rp2961
ag1
(g2
g3
Vkayak
p2962
tp2963
Rp2964
ag1
(g2
g3
Vverge
p2965
tp2966
Rp2967
ag1
(g2
g3
Vcentral-african-republic
p2968
tp2969
Rp2970
ag1
(g2
g3
Vdeonta-dewight-mackey
p2971
tp2972
Rp2973
ag1
(g2
g3
Vmarket
p2974
tp2975
Rp2976
ag1
(g2
g3
Vaudrey-hepburn
p2977
tp2978
Rp2979
ag1
(g2
g3
Vangelo
p2980
tp2981
Rp2982
ag1
(g2
g3
Vagent-meachamwe
p2983
tp2984
Rp2985
ag1
(g2
g3
Vaustralias
p2986
tp2987
Rp2988
ag1
(g2
g3
Vangry
p2989
tp2990
Rp2991
ag1
(g2
g3
Vsaavn
p2992
tp2993
Rp2994
ag1
(g2
g3
Vathens
p2995
tp2996
Rp2997
ag1
(g2
g3
Vfrance
p2998
tp2999
Rp3000
ag1
(g2
g3
Vclive-davis
p3001
tp3002
Rp3003
ag1
(g2
g3
Viphone
p3004
tp3005
Rp3006
ag1
(g2
g3
Vgabbana
p3007
tp3008
Rp3009
ag1
(g2
g3
Vaustralian
p3010
tp3011
Rp3012
ag1
(g2
g3
Vreged
p3013
tp3014
Rp3015
ag1
(g2
g3
Vbusta-rhymes-flava
p3016
tp3017
Rp3018
ag1
(g2
g3
Vdawn-joyce
p3019
tp3020
Rp3021
ag1
(g2
g3
Vpolokus
p3022
tp3023
Rp3024
ag1
(g2
g3
Vthinkglory-india-solutions-pvt-ltd-sales
p3025
tp3026
Rp3027
ag1
(g2
g3
Vsymantec
p3028
tp3029
Rp3030
ag1
(g2
g3
Vdefense-force
p3031
tp3032
Rp3033
ag1
(g2
g3
Vjoris
p3034
tp3035
Rp3036
ag1
(g2
g3
Vpetra-ecclestone
p3037
tp3038
Rp3039
ag1
(g2
g3
Vmel-brooks
p3040
tp3041
Rp3042
ag1
(g2
g3
Vhigh-growth-industry-that
p3043
tp3044
Rp3045
ag1
(g2
g3
Vcommunist-parties
p3046
tp3047
Rp3048
ag1
(g2
g3
Vdowntown
p3049
tp3050
Rp3051
ag1
(g2
g3
Vstudio-abd
p3052
tp3053
Rp3054
ag1
(g2
g3
Vintel-capital
p3055
tp3056
Rp3057
ag1
(g2
g3
Vibooks
p3058
tp3059
Rp3060
ag1
(g2
g3
Vmansfield
p3061
tp3062
Rp3063
ag1
(g2
g3
Vwestern-indology
p3064
tp3065
Rp3066
ag1
(g2
g3
Vjohnny-dantonio
p3067
tp3068
Rp3069
ag1
(g2
g3
Vvic-gundotra
p3070
tp3071
Rp3072
ag1
(g2
g3
Vsequoia
p3073
tp3074
Rp3075
ag1
(g2
g3
Vjonathan-meades
p3076
tp3077
Rp3078
ag1
(g2
g3
Vnorth-korean
p3079
tp3080
Rp3081
ag1
(g2
g3
Vsystemic-risk
p3082
tp3083
Rp3084
ag1
(g2
g3
Vbitcoin-matters
p3085
tp3086
Rp3087
ag1
(g2
g3
Vdisney-world
p3088
tp3089
Rp3090
ag1
(g2
g3
Vedible
p3091
tp3092
Rp3093
ag1
(g2
g3
Vtokyo
p3094
tp3095
Rp3096
ag1
(g2
g3
Vconfucius
p3097
tp3098
Rp3099
ag1
(g2
g3
Vshutterstock
p3100
tp3101
Rp3102
ag1
(g2
g3
Vreviews
p3103
tp3104
Rp3105
ag1
(g2
g3
Vamerica-merrill-lynch
p3106
tp3107
Rp3108
ag1
(g2
g3
Vjoi-ito
p3109
tp3110
Rp3111
ag1
(g2
g3
Vaaron-spelling-manor
p3112
tp3113
Rp3114
ag1
(g2
g3
Vhiroshima
p3115
tp3116
Rp3117
ag1
(g2
g3
Vwarner-music-group
p3118
tp3119
Rp3120
ag1
(g2
g3
Vgreatest-songs
p3121
tp3122
Rp3123
ag1
(g2
g3
Vcitizens
p3124
tp3125
Rp3126
ag1
(g2
g3
Vmongo
p3127
tp3128
Rp3129
ag1
(g2
g3
Vlocke
p3130
tp3131
Rp3132
ag1
(g2
g3
Vamazons
p3133
tp3134
Rp3135
ag1
(g2
g3
Vrobert-hazard
p3136
tp3137
Rp3138
ag1
(g2
g3
Vwinston
p3139
tp3140
Rp3141
ag1
(g2
g3
Vagent
p3142
tp3143
Rp3144
ag1
(g2
g3
Vrandy-huffman
p3145
tp3146
Rp3147
ag1
(g2
g3
Vjordan-davis
p3148
tp3149
Rp3150
ag1
(g2
g3
Vstroke
p3151
tp3152
Rp3153
ag1
(g2
g3
Vjnnurm
p3154
tp3155
Rp3156
ag1
(g2
g3
Vehrnstein
p3157
tp3158
Rp3159
ag1
(g2
g3
Vfall-out
p3160
tp3161
Rp3162
ag1
(g2
g3
Vbest-adapted-screenplay
p3163
tp3164
Rp3165
ag1
(g2
g3
Vbruce-springsteen
p3166
tp3167
Rp3168
ag1
(g2
g3
Vpranesh-prakash
p3169
tp3170
Rp3171
ag1
(g2
g3
Vswedish
p3172
tp3173
Rp3174
ag1
(g2
g3
Vpedro-hallal
p3175
tp3176
Rp3177
ag1
(g2
g3
Vbhatia
p3178
tp3179
Rp3180
ag1
(g2
g3
Vdutch-resistance
p3181
tp3182
Rp3183
ag1
(g2
g3
Vshayba
p3184
tp3185
Rp3186
ag1
(g2
g3
Vberros
p3187
tp3188
Rp3189
ag1
(g2
g3
Vindustrial-revolution
p3190
tp3191
Rp3192
ag1
(g2
g3
Vrubio
p3193
tp3194
Rp3195
ag1
(g2
g3
Venvironmental-protection-agency
p3196
tp3197
Rp3198
ag1
(g2
g3
Vvancouver
p3199
tp3200
Rp3201
ag1
(g2
g3
Vjohann-ernst-gotzkowsky
p3202
tp3203
Rp3204
ag1
(g2
g3
Vpeter-finch
p3205
tp3206
Rp3207
ag1
(g2
g3
Vtechie
p3208
tp3209
Rp3210
ag1
(g2
g3
Vsnapdeal
p3211
tp3212
Rp3213
ag1
(g2
g3
Veconomy
p3214
tp3215
Rp3216
ag1
(g2
g3
Vexplorer
p3217
tp3218
Rp3219
ag1
(g2
g3
Vperiodic-table
p3220
tp3221
Rp3222
ag1
(g2
g3
Veichs
p3223
tp3224
Rp3225
ag1
(g2
g3
Valysa
p3226
tp3227
Rp3228
ag1
(g2
g3
Vnative-american
p3229
tp3230
Rp3231
ag1
(g2
g3
Vsouthern
p3232
tp3233
Rp3234
ag1
(g2
g3
Vmark-updegrove
p3235
tp3236
Rp3237
ag1
(g2
g3
Vjoe-biden
p3238
tp3239
Rp3240
ag1
(g2
g3
Vsustainability
p3241
tp3242
Rp3243
ag1
(g2
g3
Vjablonski
p3244
tp3245
Rp3246
ag1
(g2
g3
Vupadhyaya
p3247
tp3248
Rp3249
ag1
(g2
g3
Vwikileaks
p3250
tp3251
Rp3252
ag1
(g2
g3
Vavengers
p3253
tp3254
Rp3255
ag1
(g2
g3
Vdevin-nunes
p3256
tp3257
Rp3258
ag1
(g2
g3
Vorganic-panic
p3259
tp3260
Rp3261
ag1
(g2
g3
Vlawrence-berkeley-national-laboratory
p3262
tp3263
Rp3264
ag1
(g2
g3
Vcollaborate
p3265
tp3266
Rp3267
ag1
(g2
g3
Vhoward-beale
p3268
tp3269
Rp3270
ag1
(g2
g3
Vbranches
p3271
tp3272
Rp3273
ag1
(g2
g3
Vjohnson
p3274
tp3275
Rp3276
ag1
(g2
g3
Vripped-off-once
p3277
tp3278
Rp3279
ag1
(g2
g3
Vnerdschnupperluft
p3280
tp3281
Rp3282
ag1
(g2
g3
Vgustav
p3283
tp3284
Rp3285
ag1
(g2
g3
Vafrican
p3286
tp3287
Rp3288
ag1
(g2
g3
Vdocklands
p3289
tp3290
Rp3291
ag1
(g2
g3
Vholland-village
p3292
tp3293
Rp3294
ag1
(g2
g3
Vnora-roberts
p3295
tp3296
Rp3297
ag1
(g2
g3
Vcanberra
p3298
tp3299
Rp3300
ag1
(g2
g3
Vnoteworthy
p3301
tp3302
Rp3303
ag1
(g2
g3
Vrob-thomas
p3304
tp3305
Rp3306
ag1
(g2
g3
Vgeorges-braque
p3307
tp3308
Rp3309
ag1
(g2
g3
Vclimate-progress
p3310
tp3311
Rp3312
ag1
(g2
g3
Vvladimir-putin
p3313
tp3314
Rp3315
ag1
(g2
g3
Vamys-os
p3316
tp3317
Rp3318
ag1
(g2
g3
Vbradfield
p3319
tp3320
Rp3321
ag1
(g2
g3
Vdilemma
p3322
tp3323
Rp3324
ag1
(g2
g3
Vpeterson
p3325
tp3326
Rp3327
ag1
(g2
g3
Vmatjaz-kopitar
p3328
tp3329
Rp3330
ag1
(g2
g3
Vgrammy
p3331
tp3332
Rp3333
ag1
(g2
g3
Vcaucasus
p3334
tp3335
Rp3336
ag1
(g2
g3
Vneufville
p3337
tp3338
Rp3339
ag1
(g2
g3
Vcontinental-divide-international
p3340
tp3341
Rp3342
ag1
(g2
g3
Vanderson-cooper
p3343
tp3344
Rp3345
ag1
(g2
g3
Vfermats
p3346
tp3347
Rp3348
ag1
(g2
g3
Vmicrosoft-kinect
p3349
tp3350
Rp3351
ag1
(g2
g3
Vdaily-journal
p3352
tp3353
Rp3354
ag1
(g2
g3
Vgillmor-gang
p3355
tp3356
Rp3357
ag1
(g2
g3
Vanna-fenninger
p3358
tp3359
Rp3360
ag1
(g2
g3
Vtulsidas
p3361
tp3362
Rp3363
ag1
(g2
g3
Vbarack-obama
p3364
tp3365
Rp3366
ag1
(g2
g3
Vangelo-ink
p3367
tp3368
Rp3369
ag1
(g2
g3
Vdeviantart
p3370
tp3371
Rp3372
ag1
(g2
g3
Vtess-soltau
p3373
tp3374
Rp3375
ag1
(g2
g3
Vnorway
p3376
tp3377
Rp3378
ag1
(g2
g3
Vhemingway
p3379
tp3380
Rp3381
ag1
(g2
g3
Vtexas
p3382
tp3383
Rp3384
ag1
(g2
g3
Vromneycare
p3385
tp3386
Rp3387
ag1
(g2
g3
Vtsar-bomba
p3388
tp3389
Rp3390
ag1
(g2
g3
Vfinance
p3391
tp3392
Rp3393
ag1
(g2
g3
Vflink
p3394
tp3395
Rp3396
ag1
(g2
g3
Vbest-buy
p3397
tp3398
Rp3399
ag1
(g2
g3
Vdana-ardi
p3400
tp3401
Rp3402
ag1
(g2
g3
Vwest-covina
p3403
tp3404
Rp3405
ag1
(g2
g3
Vtucker
p3406
tp3407
Rp3408
ag1
(g2
g3
Vnational-academy
p3409
tp3410
Rp3411
ag1
(g2
g3
Vhamilton
p3412
tp3413
Rp3414
ag1
(g2
g3
Vbrett-jenks
p3415
tp3416
Rp3417
ag1
(g2
g3
Vscorsese
p3418
tp3419
Rp3420
ag1
(g2
g3
Vvanbelleghem
p3421
tp3422
Rp3423
ag1
(g2
g3
Vquiet-american
p3424
tp3425
Rp3426
ag1
(g2
g3
Vjames
p3427
tp3428
Rp3429
ag1
(g2
g3
Vtimes
p3430
tp3431
Rp3432
ag1
(g2
g3
Vrick-hilton
p3433
tp3434
Rp3435
ag1
(g2
g3
Vryan-zinke
p3436
tp3437
Rp3438
ag1
(g2
g3
Vcrypto
p3439
tp3440
Rp3441
ag1
(g2
g3
Vbill-lee
p3442
tp3443
Rp3444
ag1
(g2
g3
Vnorth-american-free-trade
p3445
tp3446
Rp3447
ag1
(g2
g3
Vpopular-science
p3448
tp3449
Rp3450
ag1
(g2
g3
Vboehner
p3451
tp3452
Rp3453
ag1
(g2
g3
Vdomain-awareness
p3454
tp3455
Rp3456
ag1
(g2
g3
Vsouth-carolina
p3457
tp3458
Rp3459
ag1
(g2
g3
Vmaher
p3460
tp3461
Rp3462
ag1
(g2
g3
Vbowling
p3463
tp3464
Rp3465
ag1
(g2
g3
Vstackexchange
p3466
tp3467
Rp3468
ag1
(g2
g3
Vsanatana
p3469
tp3470
Rp3471
ag1
(g2
g3
Vflipkart
p3472
tp3473
Rp3474
ag1
(g2
g3
Vkeith-helton
p3475
tp3476
Rp3477
ag1
(g2
g3
Vmcollins45
p3478
tp3479
Rp3480
ag1
(g2
g3
Vsquare
p3481
tp3482
Rp3483
ag1
(g2
g3
Vjoe-mulvihill
p3484
tp3485
Rp3486
ag1
(g2
g3
Vcairo
p3487
tp3488
Rp3489
ag1
(g2
g3
Vlenox-avenue
p3490
tp3491
Rp3492
ag1
(g2
g3
Vstubblefield
p3493
tp3494
Rp3495
ag1
(g2
g3
Vpersian
p3496
tp3497
Rp3498
ag1
(g2
g3
Vtelehouse
p3499
tp3500
Rp3501
ag1
(g2
g3
Vamsterdam
p3502
tp3503
Rp3504
ag1
(g2
g3
Vsuzanne
p3505
tp3506
Rp3507
ag1
(g2
g3
Vcolumbia-university
p3508
tp3509
Rp3510
ag1
(g2
g3
Vlong-view
p3511
tp3512
Rp3513
ag1
(g2
g3
Vcanada
p3514
tp3515
Rp3516
ag1
(g2
g3
Vliving
p3517
tp3518
Rp3519
ag1
(g2
g3
Vronald-coase
p3520
tp3521
Rp3522
ag1
(g2
g3
Vjackson
p3523
tp3524
Rp3525
ag1
(g2
g3
Vjude-law
p3526
tp3527
Rp3528
ag1
(g2
g3
Vbritish-new-wave
p3529
tp3530
Rp3531
ag1
(g2
g3
Vspace
p3532
tp3533
Rp3534
ag1
(g2
g3
Vgreeks
p3535
tp3536
Rp3537
ag1
(g2
g3
Voklahoma
p3538
tp3539
Rp3540
ag1
(g2
g3
Veast-village
p3541
tp3542
Rp3543
ag1
(g2
g3
Vzinke
p3544
tp3545
Rp3546
ag1
(g2
g3
Vstuff
p3547
tp3548
Rp3549
ag1
(g2
g3
Vamit-golani
p3550
tp3551
Rp3552
ag1
(g2
g3
Vdutch
p3553
tp3554
Rp3555
ag1
(g2
g3
Vadhikrut-jabti-evam-vasuli
p3556
tp3557
Rp3558
ag1
(g2
g3
Vmike-mccauley
p3559
tp3560
Rp3561
ag1
(g2
g3
Vzappos
p3562
tp3563
Rp3564
ag1
(g2
g3
Vrepublican-party
p3565
tp3566
Rp3567
ag1
(g2
g3
Valexander-calder
p3568
tp3569
Rp3570
ag1
(g2
g3
Vamazon-web-services
p3571
tp3572
Rp3573
ag1
(g2
g3
Vfrank-borum
p3574
tp3575
Rp3576
ag1
(g2
g3
Vjamaican-tourist-board
p3577
tp3578
Rp3579
ag1
(g2
g3
Vquentin-tarantino
p3580
tp3581
Rp3582
ag1
(g2
g3
Vjweil6
p3583
tp3584
Rp3585
ag1
(g2
g3
Vzuckerberg
p3586
tp3587
Rp3588
ag1
(g2
g3
Vcapcom
p3589
tp3590
Rp3591
ag1
(g2
g3
Vritchie-cordell
p3592
tp3593
Rp3594
ag1
(g2
g3
Vcalifornia
p3595
tp3596
Rp3597
ag1
(g2
g3
Vpulitzer-prize
p3598
tp3599
Rp3600
ag1
(g2
g3
Vpen-american-center
p3601
tp3602
Rp3603
ag1
(g2
g3
Vkeith
p3604
tp3605
Rp3606
ag1
(g2
g3
Vbangladesh
p3607
tp3608
Rp3609
ag1
(g2
g3
Vaiadmk-mp
p3610
tp3611
Rp3612
ag1
(g2
g3
Vmidem
p3613
tp3614
Rp3615
ag1
(g2
g3
Vministry
p3616
tp3617
Rp3618
ag1
(g2
g3
Vdouble-axel-your-heart-mashable
p3619
tp3620
Rp3621
ag1
(g2
g3
Vbitter-truth
p3622
tp3623
Rp3624
ag1
(g2
g3
Vbritish
p3625
tp3626
Rp3627
ag1
(g2
g3
Vdan-nattress
p3628
tp3629
Rp3630
ag1
(g2
g3
Vkingslayer
p3631
tp3632
Rp3633
ag1
(g2
g3
Vflanders
p3634
tp3635
Rp3636
ag1
(g2
g3
Vmassive
p3637
tp3638
Rp3639
ag1
(g2
g3
Vwill-change-your-life-if
p3640
tp3641
Rp3642
ag1
(g2
g3
Vcharleston
p3643
tp3644
Rp3645
ag1
(g2
g3
Vmurray-bishop
p3646
tp3647
Rp3648
ag1
(g2
g3
Vsean-parker
p3649
tp3650
Rp3651
ag1
(g2
g3
Vlambda
p3652
tp3653
Rp3654
ag1
(g2
g3
Verik-brynjolfsson
p3655
tp3656
Rp3657
ag1
(g2
g3
Vnational-library
p3658
tp3659
Rp3660
ag1
(g2
g3
Vdomain-awareness-center
p3661
tp3662
Rp3663
ag1
(g2
g3
Vbudweiser
p3664
tp3665
Rp3666
ag1
(g2
g3
Vrachel
p3667
tp3668
Rp3669
ag1
(g2
g3
Vjohnny-carsons-tonight-show
p3670
tp3671
Rp3672
ag1
(g2
g3
Vrobert-lustig
p3673
tp3674
Rp3675
ag1
(g2
g3
Vindology
p3676
tp3677
Rp3678
ag1
(g2
g3
Vamericans
p3679
tp3680
Rp3681
ag1
(g2
g3
Vspanish
p3682
tp3683
Rp3684
ag1
(g2
g3
Vgeorge
p3685
tp3686
Rp3687
ag1
(g2
g3
Vwest-portal
p3688
tp3689
Rp3690
ag1
(g2
g3
Vactress-ellen-page
p3691
tp3692
Rp3693
ag1
(g2
g3
Vgiven
p3694
tp3695
Rp3696
ag1
(g2
g3
Vboulevard
p3697
tp3698
Rp3699
ag1
(g2
g3
Vnutzer
p3700
tp3701
Rp3702
ag1
(g2
g3
Vvikram-varma
p3703
tp3704
Rp3705
ag1
(g2
g3
Vfuneral-concept
p3706
tp3707
Rp3708
ag1
(g2
g3
Vanyone
p3709
tp3710
Rp3711
ag1
(g2
g3
Vnomadic-songs
p3712
tp3713
Rp3714
ag1
(g2
g3
Vclinical
p3715
tp3716
Rp3717
ag1
(g2
g3
Vpeter-venkman
p3718
tp3719
Rp3720
ag1
(g2
g3
Vwhite
p3721
tp3722
Rp3723
ag1
(g2
g3
Vtake-bold-risks
p3724
tp3725
Rp3726
ag1
(g2
g3
Vhiguera
p3727
tp3728
Rp3729
ag1
(g2
g3
Vlarry-page
p3730
tp3731
Rp3732
ag1
(g2
g3
Vsolid-waste
p3733
tp3734
Rp3735
ag1
(g2
g3
Vpittsburgh
p3736
tp3737
Rp3738
ag1
(g2
g3
Vmoscow
p3739
tp3740
Rp3741
ag1
(g2
g3
Vmaria-gunnoe
p3742
tp3743
Rp3744
ag1
(g2
g3
Vhillary
p3745
tp3746
Rp3747
ag1
(g2
g3
Vhartford
p3748
tp3749
Rp3750
ag1
(g2
g3
Vitalys
p3751
tp3752
Rp3753
ag1
(g2
g3
Vairbus-a340
p3754
tp3755
Rp3756
ag1
(g2
g3
Vred-chillies
p3757
tp3758
Rp3759
ag1
(g2
g3
Vholder
p3760
tp3761
Rp3762
ag1
(g2
g3
Vnew-school
p3763
tp3764
Rp3765
ag1
(g2
g3
Vmilton
p3766
tp3767
Rp3768
ag1
(g2
g3
Veuropean-commission
p3769
tp3770
Rp3771
ag1
(g2
g3
Vtelevision
p3772
tp3773
Rp3774
ag1
(g2
g3
Vpublic-policy
p3775
tp3776
Rp3777
ag1
(g2
g3
Vbuzzfeed
p3778
tp3779
Rp3780
ag1
(g2
g3
Vstrolla
p3781
tp3782
Rp3783
ag1
(g2
g3
Vmasayuki-ono
p3784
tp3785
Rp3786
ag1
(g2
g3
Vvictorian
p3787
tp3788
Rp3789
ag1
(g2
g3
Vfuture
p3790
tp3791
Rp3792
ag1
(g2
g3
Vapples
p3793
tp3794
Rp3795
ag1
(g2
g3
Vrich-earth-institute
p3796
tp3797
Rp3798
ag1
(g2
g3
Vhans-christian
p3799
tp3800
Rp3801
ag1
(g2
g3
Vsusloc
p3802
tp3803
Rp3804
ag1
(g2
g3
Vendangered-species-act
p3805
tp3806
Rp3807
ag1
(g2
g3
Vrussia
p3808
tp3809
Rp3810
ag1
(g2
g3
Vblake-farmer
p3811
tp3812
Rp3813
ag1
(g2
g3
Vdallassx
p3814
tp3815
Rp3816
ag1
(g2
g3
Vtartu
p3817
tp3818
Rp3819
ag1
(g2
g3
Vportsmouth
p3820
tp3821
Rp3822
ag1
(g2
g3
Vempire-state
p3823
tp3824
Rp3825
ag1
(g2
g3
Vbernstein-research
p3826
tp3827
Rp3828
ag1
(g2
g3
Vbuzzfeed-english
p3829
tp3830
Rp3831
ag1
(g2
g3
Vsector-source
p3832
tp3833
Rp3834
ag1
(g2
g3
Vredford
p3835
tp3836
Rp3837
ag1
(g2
g3
Vamerica-is-already
p3838
tp3839
Rp3840
ag1
(g2
g3
Vsan-pedro
p3841
tp3842
Rp3843
ag1
(g2
g3
Vbrynjolfsson
p3844
tp3845
Rp3846
ag1
(g2
g3
Vindia-art-fair
p3847
tp3848
Rp3849
ag1
(g2
g3
Vwarner
p3850
tp3851
Rp3852
ag1
(g2
g3
Vrussias
p3853
tp3854
Rp3855
ag1
(g2
g3
Vseason-onethe
p3856
tp3857
Rp3858
ag1
(g2
g3
Voaklandwiki
p3859
tp3860
Rp3861
ag1
(g2
g3
Vallison
p3862
tp3863
Rp3864
ag1
(g2
g3
Visrael-defense-forces
p3865
tp3866
Rp3867
ag1
(g2
g3
Vsoutheast
p3868
tp3869
Rp3870
ag1
(g2
g3
Vjerry-goldstein
p3871
tp3872
Rp3873
ag1
(g2
g3
Vmalta
p3874
tp3875
Rp3876
ag1
(g2
g3
Vranji-trophy
p3877
tp3878
Rp3879
ag1
(g2
g3
Vsquare-wallet
p3880
tp3881
Rp3882
ag1
(g2
g3
Vsciences
p3883
tp3884
Rp3885
ag1
(g2
g3
Vclintons
p3886
tp3887
Rp3888
ag1
(g2
g3
Vsquad
p3889
tp3890
Rp3891
ag1
(g2
g3
Vjulianne-moore
p3892
tp3893
Rp3894
ag1
(g2
g3
Vgwen-stefani
p3895
tp3896
Rp3897
ag1
(g2
g3
Vbeirut
p3898
tp3899
Rp3900
ag1
(g2
g3
Vsuccess-are-am
p3901
tp3902
Rp3903
ag1
(g2
g3
Vbarek-aub
p3904
tp3905
Rp3906
ag1
(g2
g3
Vkim-il-sung
p3907
tp3908
Rp3909
ag1
(g2
g3
Vmilitary-highway
p3910
tp3911
Rp3912
ag1
(g2
g3
Vukrainian
p3913
tp3914
Rp3915
ag1
(g2
g3
Vblackburn
p3916
tp3917
Rp3918
ag1
(g2
g3
Vf12berlinetta
p3919
tp3920
Rp3921
ag1
(g2
g3
Vsouth-asian
p3922
tp3923
Rp3924
ag1
(g2
g3
Vunited-automobile
p3925
tp3926
Rp3927
ag1
(g2
g3
Vamerica
p3928
tp3929
Rp3930
ag1
(g2
g3
Vqueens
p3931
tp3932
Rp3933
ag1
(g2
g3
Vcolocation
p3934
tp3935
Rp3936
ag1
(g2
g3
Vforever
p3937
tp3938
Rp3939
ag1
(g2
g3
Vadrien
p3940
tp3941
Rp3942
ag1
(g2
g3
Visaac-fitzgerald
p3943
tp3944
Rp3945
ag1
(g2
g3
Vjakarta
p3946
tp3947
Rp3948
ag1
(g2
g3
Vpebble-smartwatch
p3949
tp3950
Rp3951
ag1
(g2
g3
Vkevin-mccarthy
p3952
tp3953
Rp3954
ag1
(g2
g3
Vtypical-man
p3955
tp3956
Rp3957
ag1
(g2
g3
Vdibakar-banerjee
p3958
tp3959
Rp3960
ag1
(g2
g3
Vsunset
p3961
tp3962
Rp3963
ag1
(g2
g3
Vinitialized-capital
p3964
tp3965
Rp3966
ag1
(g2
g3
Vhoboken
p3967
tp3968
Rp3969
ag1
(g2
g3
Vsamanthas
p3970
tp3971
Rp3972
ag1
(g2
g3
Vsenior
p3973
tp3974
Rp3975
ag1
(g2
g3
Voperation-paperclip
p3976
tp3977
Rp3978
ag1
(g2
g3
Vsigma
p3979
tp3980
Rp3981
ag1
(g2
g3
Vcrew-module
p3982
tp3983
Rp3984
ag1
(g2
g3
Vbyzantine-generals
p3985
tp3986
Rp3987
ag1
(g2
g3
Vhuman-body
p3988
tp3989
Rp3990
ag1
(g2
g3
Vbarack-obamas
p3991
tp3992
Rp3993
ag1
(g2
g3
Vgreat-american-novel
p3994
tp3995
Rp3996
ag1
(g2
g3
Vgerman
p3997
tp3998
Rp3999
ag1
(g2
g3
Vmeacham
p4000
tp4001
Rp4002
ag1
(g2
g3
Vjpmorgan
p4003
tp4004
Rp4005
ag1
(g2
g3
Vfifty
p4006
tp4007
Rp4008
ag1
(g2
g3
Vioffe
p4009
tp4010
Rp4011
ag1
(g2
g3
Vmashable
p4012
tp4013
Rp4014
ag1
(g2
g3
Vsouthwestern
p4015
tp4016
Rp4017
ag1
(g2
g3
Vspacex
p4018
tp4019
Rp4020
ag1
(g2
g3
Vtallahassee
p4021
tp4022
Rp4023
ag1
(g2
g3
Vcrown-sydney
p4024
tp4025
Rp4026
ag1
(g2
g3
Vfifth
p4027
tp4028
Rp4029
ag1
(g2
g3
Vmanish-pandey
p4030
tp4031
Rp4032
ag1
(g2
g3
Vharvard-university
p4033
tp4034
Rp4035
ag1
(g2
g3
Vjohn-cornyn
p4036
tp4037
Rp4038
ag1
(g2
g3
Vwalt-disney-concert-hall
p4039
tp4040
Rp4041
ag1
(g2
g3
Vblack
p4042
tp4043
Rp4044
ag1
(g2
g3
Vhockey
p4045
tp4046
Rp4047
ag1
(g2
g3
Vtreasury
p4048
tp4049
Rp4050
ag1
(g2
g3
Vsouthern-california
p4051
tp4052
Rp4053
ag1
(g2
g3
Vgeneral-sisi
p4054
tp4055
Rp4056
ag1
(g2
g3
Vpaul-newman
p4057
tp4058
Rp4059
ag1
(g2
g3
Vabraham-lincoln
p4060
tp4061
Rp4062
ag1
(g2
g3
Vtom-daschle
p4063
tp4064
Rp4065
ag1
(g2
g3
Vshawn-bercuson
p4066
tp4067
Rp4068
ag1
(g2
g3
Vbeatles
p4069
tp4070
Rp4071
ag1
(g2
g3
Vbritish-retail-consortium
p4072
tp4073
Rp4074
ag1
(g2
g3
Vlate-nasreen-mohamadi
p4075
tp4076
Rp4077
ag1
(g2
g3
Vbrienne
p4078
tp4079
Rp4080
ag1
(g2
g3
Vdrishti
p4081
tp4082
Rp4083
ag1
(g2
g3
Vsamuel
p4084
tp4085
Rp4086
ag1
(g2
g3
Vspeaker-john
p4087
tp4088
Rp4089
ag1
(g2
g3
Vetcetera
p4090
tp4091
Rp4092
ag1
(g2
g3
Vanatole-branch
p4093
tp4094
Rp4095
ag1
(g2
g3
Valiceghan
p4096
tp4097
Rp4098
ag1
(g2
g3
Vcharlie-munger
p4099
tp4100
Rp4101
ag1
(g2
g3
Vkrishna
p4102
tp4103
Rp4104
ag1
(g2
g3
Vmassdot
p4105
tp4106
Rp4107
ag1
(g2
g3
Vmain-street
p4108
tp4109
Rp4110
ag1
(g2
g3
Vtea-party
p4111
tp4112
Rp4113
ag1
(g2
g3
Vmiles
p4114
tp4115
Rp4116
ag1
(g2
g3
Vroger
p4117
tp4118
Rp4119
ag1
(g2
g3
Vmakemytrip
p4120
tp4121
Rp4122
ag1
(g2
g3
Vhealth-care-reform
p4123
tp4124
Rp4125
ag1
(g2
g3
Vbig-house
p4126
tp4127
Rp4128
ag1
(g2
g3
Vmizzou
p4129
tp4130
Rp4131
ag1
(g2
g3
Vdruggist
p4132
tp4133
Rp4134
ag1
(g2
g3
Vambanis
p4135
tp4136
Rp4137
ag1
(g2
g3
Vsherpalo-ventures
p4138
tp4139
Rp4140
ag1
(g2
g3
Vlohud
p4141
tp4142
Rp4143
ag1
(g2
g3
Vindia-art
p4144
tp4145
Rp4146
ag1
(g2
g3
Vjawed-karim
p4147
tp4148
Rp4149
ag1
(g2
g3
Vcologne
p4150
tp4151
Rp4152
ag1
(g2
g3
Vcanadian-institute
p4153
tp4154
Rp4155
ag1
(g2
g3
Vcollege
p4156
tp4157
Rp4158
ag1
(g2
g3
Vpineau
p4159
tp4160
Rp4161
ag1
(g2
g3
Vchief-marketing
p4162
tp4163
Rp4164
ag1
(g2
g3
Vstanley
p4165
tp4166
Rp4167
ag1
(g2
g3
Vspike-jonzes
p4168
tp4169
Rp4170
ag1
(g2
g3
Vcareerbliss
p4171
tp4172
Rp4173
ag1
(g2
g3
Vopentable
p4174
tp4175
Rp4176
ag1
(g2
g3
Vshiv-sena
p4177
tp4178
Rp4179
ag1
(g2
g3
Vfelecia
p4180
tp4181
Rp4182
ag1
(g2
g3
Vhindustan-aeronautics-limited
p4183
tp4184
Rp4185
ag1
(g2
g3
Visraeli
p4186
tp4187
Rp4188
ag1
(g2
g3
Vparent
p4189
tp4190
Rp4191
ag1
(g2
g3
Vbraddell
p4192
tp4193
Rp4194
ag1
(g2
g3
Vshiva
p4195
tp4196
Rp4197
ag1
(g2
g3
Vsean-meloy
p4198
tp4199
Rp4200
ag1
(g2
g3
Vbillboard-album-rock-tracks
p4201
tp4202
Rp4203
ag1
(g2
g3
Vpublic-knowledge
p4204
tp4205
Rp4206
ag1
(g2
g3
Voney-judge
p4207
tp4208
Rp4209
ag1
(g2
g3
Vtony-haile
p4210
tp4211
Rp4212
ag1
(g2
g3
Vbureau
p4213
tp4214
Rp4215
ag1
(g2
g3
Vchief-executive
p4216
tp4217
Rp4218
ag1
(g2
g3
Vnooks
p4219
tp4220
Rp4221
ag1
(g2
g3
Vlos-angeles
p4222
tp4223
Rp4224
ag1
(g2
g3
Vpranesh
p4225
tp4226
Rp4227
ag1
(g2
g3
Vinfrastructure
p4228
tp4229
Rp4230
ag1
(g2
g3
Vbruce-campbell
p4231
tp4232
Rp4233
ag1
(g2
g3
Vcalifornia-constitution
p4234
tp4235
Rp4236
ag1
(g2
g3
Vlouisiana-state
p4237
tp4238
Rp4239
ag1
(g2
g3
Vpersians
p4240
tp4241
Rp4242
ag1
(g2
g3
Valbert-hammond
p4243
tp4244
Rp4245
ag1
(g2
g3
Vuconns
p4246
tp4247
Rp4248
ag1
(g2
g3
Vcool-runnings
p4249
tp4250
Rp4251
ag1
(g2
g3
Vlibyan-armys
p4252
tp4253
Rp4254
ag1
(g2
g3
Vchatterjee
p4255
tp4256
Rp4257
ag1
(g2
g3
Vpatrick-savalle
p4258
tp4259
Rp4260
ag1
(g2
g3
Vsarah-kaufman
p4261
tp4262
Rp4263
ag1
(g2
g3
Vyellow-pages
p4264
tp4265
Rp4266
ag1
(g2
g3
Vkrasnaya-polyana
p4267
tp4268
Rp4269
ag1
(g2
g3
Vharry-met-sally
p4270
tp4271
Rp4272
ag1
(g2
g3
Vnordstrom
p4273
tp4274
Rp4275
ag1
(g2
g3
Valex-polvi
p4276
tp4277
Rp4278
ag1
(g2
g3
Vlibya
p4279
tp4280
Rp4281
ag1
(g2
g3
Vjohn-barbieri
p4282
tp4283
Rp4284
ag1
(g2
g3
Vjericho
p4285
tp4286
Rp4287
ag1
(g2
g3
Vmolson
p4288
tp4289
Rp4290
ag1
(g2
g3
Vgleick
p4291
tp4292
Rp4293
ag1
(g2
g3
Vcolored-coins
p4294
tp4295
Rp4296
ag1
(g2
g3
Vsemitic
p4297
tp4298
Rp4299
ag1
(g2
g3
Varon-joseph
p4300
tp4301
Rp4302
ag1
(g2
g3
Vhard-rock-cafe
p4303
tp4304
Rp4305
ag1
(g2
g3
Vdemand-generation-report
p4306
tp4307
Rp4308
ag1
(g2
g3
Vpakistan
p4309
tp4310
Rp4311
ag1
(g2
g3
Vapps-software
p4312
tp4313
Rp4314
ag1
(g2
g3
Vtelefonnummern
p4315
tp4316
Rp4317
ag1
(g2
g3
Vtriumph-church
p4318
tp4319
Rp4320
ag1
(g2
g3
Vafghanistanrecently
p4321
tp4322
Rp4323
ag1
(g2
g3
Vedberg
p4324
tp4325
Rp4326
ag1
(g2
g3
Vzuckett
p4327
tp4328
Rp4329
ag1
(g2
g3
Vapproval
p4330
tp4331
Rp4332
ag1
(g2
g3
Vcancel
p4333
tp4334
Rp4335
ag1
(g2
g3
Vno-doubt
p4336
tp4337
Rp4338
ag1
(g2
g3
Vverantwortlichen
p4339
tp4340
Rp4341
ag1
(g2
g3
Vtropes
p4342
tp4343
Rp4344
ag1
(g2
g3
Vadults
p4345
tp4346
Rp4347
ag1
(g2
g3
Vturkey
p4348
tp4349
Rp4350
ag1
(g2
g3
Vletsbuy
p4351
tp4352
Rp4353
ag1
(g2
g3
Vuniversal-music
p4354
tp4355
Rp4356
ag1
(g2
g3
Vchandramukhi-chautala
p4357
tp4358
Rp4359
ag1
(g2
g3
Vswift
p4360
tp4361
Rp4362
ag1
(g2
g3
Vpeter-russo
p4363
tp4364
Rp4365
ag1
(g2
g3
Vbill-gates
p4366
tp4367
Rp4368
ag1
(g2
g3
Vsusan-herbst
p4369
tp4370
Rp4371
ag1
(g2
g3
Vislamuddin-jurat
p4372
tp4373
Rp4374
ag1
(g2
g3
Vborders
p4375
tp4376
Rp4377
ag1
(g2
g3
Vvogue
p4378
tp4379
Rp4380
ag1
(g2
g3
Vhappinesssee
p4381
tp4382
Rp4383
ag1
(g2
g3
Vorissa
p4384
tp4385
Rp4386
ag1
(g2
g3
Vfred-armisen
p4387
tp4388
Rp4389
ag1
(g2
g3
Velvis
p4390
tp4391
Rp4392
ag1
(g2
g3
Vlearn-little
p4393
tp4394
Rp4395
ag1
(g2
g3
Vandrew
p4396
tp4397
Rp4398
ag1
(g2
g3
Vpardot
p4399
tp4400
Rp4401
ag1
(g2
g3
Vnikon
p4402
tp4403
Rp4404
ag1
(g2
g3
Vphotos
p4405
tp4406
Rp4407
ag1
(g2
g3
Vberro
p4408
tp4409
Rp4410
ag1
(g2
g3
Vhomeward-bound
p4411
tp4412
Rp4413
ag1
(g2
g3
Vnobles
p4414
tp4415
Rp4416
ag1
(g2
g3
Vtamil
p4417
tp4418
Rp4419
ag1
(g2
g3
Vscott-adams
p4420
tp4421
Rp4422
ag1
(g2
g3
Vbashir-ahmad
p4423
tp4424
Rp4425
ag1
(g2
g3
Vdavid-hawk
p4426
tp4427
Rp4428
ag1
(g2
g3
Vzengo-aizawa
p4429
tp4430
Rp4431
ag1
(g2
g3
Vidubba-meet
p4432
tp4433
Rp4434
ag1
(g2
g3
Vrobert-smith
p4435
tp4436
Rp4437
ag1
(g2
g3
Vafrican-american
p4438
tp4439
Rp4440
ag1
(g2
g3
Vrandall-vaughn
p4441
tp4442
Rp4443
ag1
(g2
g3
Vnaacp
p4444
tp4445
Rp4446
ag1
(g2
g3
Vjon-notard
p4447
tp4448
Rp4449
ag1
(g2
g3
Vusa-hockey
p4450
tp4451
Rp4452
ag1
(g2
g3
Vchinatown
p4453
tp4454
Rp4455
ag1
(g2
g3
Vhasbro
p4456
tp4457
Rp4458
ag1
(g2
g3
Vrigveda
p4459
tp4460
Rp4461
ag1
(g2
g3
Vquiet-riot
p4462
tp4463
Rp4464
ag1
(g2
g3
Vnorth-conway
p4465
tp4466
Rp4467
ag1
(g2
g3
Vstephen-king
p4468
tp4469
Rp4470
ag1
(g2
g3
Vcolonel-qaddafi
p4471
tp4472
Rp4473
ag1
(g2
g3
Vobama-administration
p4474
tp4475
Rp4476
ag1
(g2
g3
Vgeorge-bernard-shaw
p4477
tp4478
Rp4479
ag1
(g2
g3
Vhaitian-bishop-chibly-langlois
p4480
tp4481
Rp4482
ag1
(g2
g3
Vstate-hillary-rodham-clinton
p4483
tp4484
Rp4485
ag1
(g2
g3
Vjames-joyce
p4486
tp4487
Rp4488
ag1
(g2
g3
Vwest-palm
p4489
tp4490
Rp4491
ag1
(g2
g3
Vbaskin-robbins
p4492
tp4493
Rp4494
ag1
(g2
g3
Vanthony-donahue
p4495
tp4496
Rp4497
ag1
(g2
g3
Vpay-your-interns
p4498
tp4499
Rp4500
ag1
(g2
g3
Vpoint-market
p4501
tp4502
Rp4503
ag1
(g2
g3
Vcanon
p4504
tp4505
Rp4506
ag1
(g2
g3
Vtracey-emin
p4507
tp4508
Rp4509
ag1
(g2
g3
Vmarcel
p4510
tp4511
Rp4512
ag1
(g2
g3
Vkevin-spacey
p4513
tp4514
Rp4515
ag1
(g2
g3
Vcolin-reed
p4516
tp4517
Rp4518
ag1
(g2
g3
Vopen-data-madurai
p4519
tp4520
Rp4521
ag1
(g2
g3
Vtechnology
p4522
tp4523
Rp4524
ag1
(g2
g3
Vmystery-solved
p4525
tp4526
Rp4527
ag1
(g2
g3
Vgannett-wisconsin-media-investigative-team
p4528
tp4529
Rp4530
ag1
(g2
g3
Vsocial-network
p4531
tp4532
Rp4533
ag1
(g2
g3
Vredfin
p4534
tp4535
Rp4536
ag1
(g2
g3
Vauthor
p4537
tp4538
Rp4539
ag1
(g2
g3
Vlaunchpad-la
p4540
tp4541
Rp4542
ag1
(g2
g3
Vjamzilla
p4543
tp4544
Rp4545
ag1
(g2
g3
Vpewdiepie
p4546
tp4547
Rp4548
ag1
(g2
g3
Vbritish-raj
p4549
tp4550
Rp4551
ag1
(g2
g3
Vlauper
p4552
tp4553
Rp4554
ag1
(g2
g3
Vspeech
p4555
tp4556
Rp4557
ag1
(g2
g3
Vveerappa-moily
p4558
tp4559
Rp4560
ag1
(g2
g3
Vazusa-high-aztecs
p4561
tp4562
Rp4563
ag1
(g2
g3
Vfortis-healthcare
p4564
tp4565
Rp4566
ag1
(g2
g3
Vfrazier
p4567
tp4568
Rp4569
ag1
(g2
g3
Vkirsten-gillibrand
p4570
tp4571
Rp4572
ag1
(g2
g3
Vhermit
p4573
tp4574
Rp4575
ag1
(g2
g3
Vsterling
p4576
tp4577
Rp4578
ag1
(g2
g3
Vnoble
p4579
tp4580
Rp4581
ag1
(g2
g3
Vjeffrey
p4582
tp4583
Rp4584
ag1
(g2
g3
Vputin
p4585
tp4586
Rp4587
ag1
(g2
g3
Vaustrian
p4588
tp4589
Rp4590
ag1
(g2
g3
Vsingapore
p4591
tp4592
Rp4593
ag1
(g2
g3
Vsachin-bhatia
p4594
tp4595
Rp4596
ag1
(g2
g3
Vsnapchat-wave
p4597
tp4598
Rp4599
ag1
(g2
g3
Vrandal-olson
p4600
tp4601
Rp4602
ag1
(g2
g3
Vdriver
p4603
tp4604
Rp4605
ag1
(g2
g3
Vsiegel
p4606
tp4607
Rp4608
ag1
(g2
g3
Vrahul-kumar
p4609
tp4610
Rp4611
ag1
(g2
g3
Voxycontin
p4612
tp4613
Rp4614
ag1
(g2
g3
Vharris
p4615
tp4616
Rp4617
ag1
(g2
g3
Vbolshoy-ice-dome
p4618
tp4619
Rp4620
ag1
(g2
g3
Vpotomac-river
p4621
tp4622
Rp4623
ag1
(g2
g3
Vdistrict-attorney-berkley-bell
p4624
tp4625
Rp4626
ag1
(g2
g3
Vsenator
p4627
tp4628
Rp4629
ag1
(g2
g3
Vcity-hall
p4630
tp4631
Rp4632
ag1
(g2
g3
Vdave-sotero
p4633
tp4634
Rp4635
ag1
(g2
g3
Vgingrich
p4636
tp4637
Rp4638
ag1
(g2
g3
Vshaped-rock
p4639
tp4640
Rp4641
ag1
(g2
g3
Veast-german
p4642
tp4643
Rp4644
ag1
(g2
g3
Vlarry-downes
p4645
tp4646
Rp4647
ag1
(g2
g3
Valexa
p4648
tp4649
Rp4650
ag1
(g2
g3
Vwxyz-and
p4651
tp4652
Rp4653
ag1
(g2
g3
Vharappans
p4654
tp4655
Rp4656
ag1
(g2
g3
Vtrn-rao
p4657
tp4658
Rp4659
ag1
(g2
g3
Vrayman
p4660
tp4661
Rp4662
ag1
(g2
g3
Vjaipal-reddy
p4663
tp4664
Rp4665
ag1
(g2
g3
Volivia
p4666
tp4667
Rp4668
ag1
(g2
g3
Vhome-depot
p4669
tp4670
Rp4671
ag1
(g2
g3
Vdaniel-suarez
p4672
tp4673
Rp4674
ag1
(g2
g3
Vgetty-center-drive
p4675
tp4676
Rp4677
ag1
(g2
g3
Vrichard-feloni
p4678
tp4679
Rp4680
ag1
(g2
g3
Vnative-america
p4681
tp4682
Rp4683
ag1
(g2
g3
Vdelhi-university
p4684
tp4685
Rp4686
ag1
(g2
g3
Vatlantic-division
p4687
tp4688
Rp4689
ag1
(g2
g3
Vlaunch-code
p4690
tp4691
Rp4692
ag1
(g2
g3
Vamerican-national-election-studies
p4693
tp4694
Rp4695
ag1
(g2
g3
Varmour
p4696
tp4697
Rp4698
ag1
(g2
g3
Vgavin
p4699
tp4700
Rp4701
ag1
(g2
g3
Voxford
p4702
tp4703
Rp4704
ag1
(g2
g3
Vbillboard-hot
p4705
tp4706
Rp4707
ag1
(g2
g3
Vunited-kingdom
p4708
tp4709
Rp4710
ag1
(g2
g3
Vbarry-roberts
p4711
tp4712
Rp4713
ag1
(g2
g3
Vtina-turner
p4714
tp4715
Rp4716
ag1
(g2
g3
Vpolish
p4717
tp4718
Rp4719
ag1
(g2
g3
Vontario-curling-report
p4720
tp4721
Rp4722
ag1
(g2
g3
Vvalmiki
p4723
tp4724
Rp4725
ag1
(g2
g3
Vtamworth-herald
p4726
tp4727
Rp4728
ag1
(g2
g3
Vmargaret-collins
p4729
tp4730
Rp4731
ag1
(g2
g3
Vdeath
p4732
tp4733
Rp4734
ag1
(g2
g3
Vvenice-biennale
p4735
tp4736
Rp4737
ag1
(g2
g3
Veuros
p4738
tp4739
Rp4740
ag1
(g2
g3
Vmathias
p4741
tp4742
Rp4743
ag1
(g2
g3
Vclick-captain-save
p4744
tp4745
Rp4746
ag1
(g2
g3
Viphones
p4747
tp4748
Rp4749
ag1
(g2
g3
Vfreedom-industries
p4750
tp4751
Rp4752
ag1
(g2
g3
Vharj-taggar
p4753
tp4754
Rp4755
ag1
(g2
g3
Vschoenike
p4756
tp4757
Rp4758
ag1
(g2
g3
Vdraper-fisher-jurvetson
p4759
tp4760
Rp4761
ag1
(g2
g3
Vdisrupt
p4762
tp4763
Rp4764
ag1
(g2
g3
Vwest-virginia-american-water
p4765
tp4766
Rp4767
ag1
(g2
g3
Vclub-monaco
p4768
tp4769
Rp4770
ag1
(g2
g3
Vzakuski
p4771
tp4772
Rp4773
ag1
(g2
g3
Vrules
p4774
tp4775
Rp4776
ag1
(g2
g3
Vifeanyi-kelly-orazulike
p4777
tp4778
Rp4779
ag1
(g2
g3
Vmuseveni
p4780
tp4781
Rp4782
ag1
(g2
g3
Vdelhi
p4783
tp4784
Rp4785
ag1
(g2
g3
Vvirginia
p4786
tp4787
Rp4788
ag1
(g2
g3
Vjames-watt
p4789
tp4790
Rp4791
ag1
(g2
g3
Vearly
p4792
tp4793
Rp4794
ag1
(g2
g3
Vhuffpost
p4795
tp4796
Rp4797
ag1
(g2
g3
Vhugh-earl
p4798
tp4799
Rp4800
ag1
(g2
g3
Vbranch-funeral-home
p4801
tp4802
Rp4803
ag1
(g2
g3
Vmoda-operandi
p4804
tp4805
Rp4806
ag1
(g2
g3
Vchristina
p4807
tp4808
Rp4809
ag1
(g2
g3
Vrobert-nau
p4810
tp4811
Rp4812
ag1
(g2
g3
Vschindlers-list
p4813
tp4814
Rp4815
ag1
(g2
g3
Vapaches
p4816
tp4817
Rp4818
ag1
(g2
g3
Vmanhattan
p4819
tp4820
Rp4821
ag1
(g2
g3
Veast-coast
p4822
tp4823
Rp4824
ag1
(g2
g3
Vkopitar
p4825
tp4826
Rp4827
ag1
(g2
g3
Vunited-states
p4828
tp4829
Rp4830
ag1
(g2
g3
Vrobbery
p4831
tp4832
Rp4833
ag1
(g2
g3
Vcivil-rights
p4834
tp4835
Rp4836
ag1
(g2
g3
Vronald-reagan
p4837
tp4838
Rp4839
ag1
(g2
g3
Vrichard-wald
p4840
tp4841
Rp4842
ag1
(g2
g3
Vvirginia-tech
p4843
tp4844
Rp4845
ag1
(g2
g3
Vhargreaves
p4846
tp4847
Rp4848
ag1
(g2
g3
Vmahers
p4849
tp4850
Rp4851
ag1
(g2
g3
Vbette
p4852
tp4853
Rp4854
ag1
(g2
g3
Vlebanon
p4855
tp4856
Rp4857
ag1
(g2
g3
Vnick-szabo
p4858
tp4859
Rp4860
ag1
(g2
g3
Vpacific
p4861
tp4862
Rp4863
ag1
(g2
g3
Vhacks
p4864
tp4865
Rp4866
ag1
(g2
g3
Vmicrosoft-frontpage
p4867
tp4868
Rp4869
ag1
(g2
g3
Voscars
p4870
tp4871
Rp4872
ag1
(g2
g3
Vjoseph-barbera
p4873
tp4874
Rp4875
ag1
(g2
g3
Vdetroit
p4876
tp4877
Rp4878
ag1
(g2
g3
Vjeffrey-schox
p4879
tp4880
Rp4881
ag1
(g2
g3
Vimages
p4882
tp4883
Rp4884
ag1
(g2
g3
Vdanube
p4885
tp4886
Rp4887
ag1
(g2
g3
Vtunepete-seeger
p4888
tp4889
Rp4890
ag1
(g2
g3
Vindian-studies
p4891
tp4892
Rp4893
ag1
(g2
g3
Vgoogle-in-san-francisco
p4894
tp4895
Rp4896
ag1
(g2
g3
Vonboard-informatics
p4897
tp4898
Rp4899
ag1
(g2
g3
Voakland
p4900
tp4901
Rp4902
ag1
(g2
g3
Vellis
p4903
tp4904
Rp4905
ag1
(g2
g3
Vdunbar
p4906
tp4907
Rp4908
ag1
(g2
g3
Vharyana
p4909
tp4910
Rp4911
ag1
(g2
g3
Vneil-livingstone
p4912
tp4913
Rp4914
ag1
(g2
g3
Virs-agents-lots
p4915
tp4916
Rp4917
ag1
(g2
g3
Vmaersk
p4918
tp4919
Rp4920
ag1
(g2
g3
Vohio-state
p4921
tp4922
Rp4923
ag1
(g2
g3
Vnew-york-city
p4924
tp4925
Rp4926
ag1
(g2
g3
Vnawaab-sheikh-healthcare
p4927
tp4928
Rp4929
ag1
(g2
g3
Vmetropolitan-washington-airports-authority
p4930
tp4931
Rp4932
ag1
(g2
g3
Vgoogles
p4933
tp4934
Rp4935
ag1
(g2
g3
Vlinkedin-facebook
p4936
tp4937
Rp4938
ag1
(g2
g3
Vshabazz-napier
p4939
tp4940
Rp4941
ag1
(g2
g3
Vquartz-daily-brief
p4942
tp4943
Rp4944
ag1
(g2
g3
Vbusiness
p4945
tp4946
Rp4947
ag1
(g2
g3
Vepsom
p4948
tp4949
Rp4950
ag1
(g2
g3
Vscarlett-johansson
p4951
tp4952
Rp4953
ag1
(g2
g3
Vphil-swann
p4954
tp4955
Rp4956
ag1
(g2
g3
Vslaughter
p4957
tp4958
Rp4959
ag1
(g2
g3
Vvolkswagen
p4960
tp4961
Rp4962
ag1
(g2
g3
Vfactcheck
p4963
tp4964
Rp4965
ag1
(g2
g3
Vjonathan-wolman
p4966
tp4967
Rp4968
ag1
(g2
g3
Vgujarat-state-petroleum-corporation
p4969
tp4970
Rp4971
ag1
(g2
g3
Vthailand
p4972
tp4973
Rp4974
ag1
(g2
g3
Vfrancis
p4975
tp4976
Rp4977
ag1
(g2
g3
Vnew-york-review
p4978
tp4979
Rp4980
ag1
(g2
g3
Vstuart-elliott
p4981
tp4982
Rp4983
ag1
(g2
g3
Vpalme
p4984
tp4985
Rp4986
ag1
(g2
g3
Vcentral
p4987
tp4988
Rp4989
ag1
(g2
g3
Vyancy
p4990
tp4991
Rp4992
ag1
(g2
g3
Vartotel
p4993
tp4994
Rp4995
ag1
(g2
g3
Vbukit-timah
p4996
tp4997
Rp4998
ag1
(g2
g3
Vdafoe
p4999
tp5000
Rp5001
ag1
(g2
g3
Vschandra1
p5002
tp5003
Rp5004
ag1
(g2
g3
Vteam-usa
p5005
tp5006
Rp5007
ag1
(g2
g3
Vethereum
p5008
tp5009
Rp5010
ag1
(g2
g3
Vmidem-hack
p5011
tp5012
Rp5013
ag1
(g2
g3
Vmedford
p5014
tp5015
Rp5016
ag1
(g2
g3
Vscopely
p5017
tp5018
Rp5019
ag1
(g2
g3
Vhindu
p5020
tp5021
Rp5022
ag1
(g2
g3
Vsadistic
p5023
tp5024
Rp5025
ag1
(g2
g3
Vgregory
p5026
tp5027
Rp5028
ag1
(g2
g3
Vsecret-service
p5029
tp5030
Rp5031
ag1
(g2
g3
Vmatisse
p5032
tp5033
Rp5034
ag1
(g2
g3
Venglish-patient
p5035
tp5036
Rp5037
ag1
(g2
g3
Vcambridge
p5038
tp5039
Rp5040
ag1
(g2
g3
Vcurling
p5041
tp5042
Rp5043
ag1
(g2
g3
Vinclusion
p5044
tp5045
Rp5046
ag1
(g2
g3
Vdextra
p5047
tp5048
Rp5049
ag1
(g2
g3
Vmike-werner
p5050
tp5051
Rp5052
ag1
(g2
g3
Vcan-kicks-back
p5053
tp5054
Rp5055
ag1
(g2
g3
Vaaron-williams
p5056
tp5057
Rp5058
ag1
(g2
g3
Vsnapchat
p5059
tp5060
Rp5061
ag1
(g2
g3
Vclimateprogress
p5062
tp5063
Rp5064
ag1
(g2
g3
Vsuzanne-kemmer
p5065
tp5066
Rp5067
ag1
(g2
g3
Vwest-philadelphia
p5068
tp5069
Rp5070
ag1
(g2
g3
Vjasper
p5071
tp5072
Rp5073
ag1
(g2
g3
Vbedok-jetty
p5074
tp5075
Rp5076
ag1
(g2
g3
Vburton
p5077
tp5078
Rp5079
ag1
(g2
g3
Vportrayal
p5080
tp5081
Rp5082
ag1
(g2
g3
Vryan-mcdonagh
p5083
tp5084
Rp5085
ag1
(g2
g3
Vsal-paradise
p5086
tp5087
Rp5088
ag1
(g2
g3
Vtommy-james
p5089
tp5090
Rp5091
ag1
(g2
g3
Vphiladelphia
p5092
tp5093
Rp5094
ag1
(g2
g3
Vstark
p5095
tp5096
Rp5097
ag1
(g2
g3
Vventurebeat
p5098
tp5099
Rp5100
ag1
(g2
g3
Vsanford-school
p5101
tp5102
Rp5103
ag1
(g2
g3
Vamerican-ryan-miller
p5104
tp5105
Rp5106
ag1
(g2
g3
Vvalley
p5107
tp5108
Rp5109
ag1
(g2
g3
Vnapster
p5110
tp5111
Rp5112
ag1
(g2
g3
Vjohn-podesta
p5113
tp5114
Rp5115
ag1
(g2
g3
Vjones
p5116
tp5117
Rp5118
ag1
(g2
g3
Velise-christie
p5119
tp5120
Rp5121
ag1
(g2
g3
Vnational-journal
p5122
tp5123
Rp5124
ag1
(g2
g3
Volson
p5125
tp5126
Rp5127
ag1
(g2
g3
Vmichigan-state
p5128
tp5129
Rp5130
ag1
(g2
g3
Vbehrden
p5131
tp5132
Rp5133
ag1
(g2
g3
Vkim-kardashian
p5134
tp5135
Rp5136
ag1
(g2
g3
Vcatherine-durant
p5137
tp5138
Rp5139
ag1
(g2
g3
Veashwar-vikas
p5140
tp5141
Rp5142
ag1
(g2
g3
Vdorothy-akenova
p5143
tp5144
Rp5145
ag1
(g2
g3
Vkevin-marks
p5146
tp5147
Rp5148
ag1
(g2
g3
Vdiet-code
p5149
tp5150
Rp5151
ag1
(g2
g3
Vcal-newport
p5152
tp5153
Rp5154
ag1
(g2
g3
Vadler
p5155
tp5156
Rp5157
ag1
(g2
g3
Vmichael-steele
p5158
tp5159
Rp5160
ag1
(g2
g3
Varkovi
p5161
tp5162
Rp5163
ag1
(g2
g3
Vstanford
p5164
tp5165
Rp5166
ag1
(g2
g3
Vsalzburg
p5167
tp5168
Rp5169
ag1
(g2
g3
Vtepco
p5170
tp5171
Rp5172
ag1
(g2
g3
Vludlow
p5173
tp5174
Rp5175
ag1
(g2
g3
Vwellcome-collection
p5176
tp5177
Rp5178
ag1
(g2
g3
Vpyeongchang
p5179
tp5180
Rp5181
ag1
(g2
g3
Vjamaican
p5182
tp5183
Rp5184
ag1
(g2
g3
Vsenator-bob-corker
p5185
tp5186
Rp5187
ag1
(g2
g3
Vdetroiters
p5188
tp5189
Rp5190
ag1
(g2
g3
Vsocial-media
p5191
tp5192
Rp5193
ag1
(g2
g3
Vpolitico
p5194
tp5195
Rp5196
ag1
(g2
g3
Vsammy-davis
p5197
tp5198
Rp5199
ag1
(g2
g3
Vhitesh-dhingra
p5200
tp5201
Rp5202
ag1
(g2
g3
Vpinnacle-island
p5203
tp5204
Rp5205
ag1
(g2
g3
Vredford-pharmacy
p5206
tp5207
Rp5208
ag1
(g2
g3
Vadobe-systems
p5209
tp5210
Rp5211
ag1
(g2
g3
Vminneapolis
p5212
tp5213
Rp5214
ag1
(g2
g3
Vhouse-energy
p5215
tp5216
Rp5217
ag1
(g2
g3
Vancel
p5218
tp5219
Rp5220
ag1
(g2
g3
Vnational-security-agency
p5221
tp5222
Rp5223
ag1
(g2
g3
Vzervos-picasso-catalogue
p5224
tp5225
Rp5226
ag1
(g2
g3
Vdaily
p5227
tp5228
Rp5229
ag1
(g2
g3
Varabo
p5230
tp5231
Rp5232
ag1
(g2
g3
Vforbes-india
p5233
tp5234
Rp5235
ag1
(g2
g3
Vpolitics
p5236
tp5237
Rp5238
ag1
(g2
g3
Vgoebbels
p5239
tp5240
Rp5241
ag1
(g2
g3
Vsyrian
p5242
tp5243
Rp5244
ag1
(g2
g3
Vbishop
p5245
tp5246
Rp5247
ag1
(g2
g3
Vzweigs
p5248
tp5249
Rp5250
ag1
(g2
g3
Vpatch-teach
p5251
tp5252
Rp5253
ag1
(g2
g3
Vbrattleboro
p5254
tp5255
Rp5256
ag1
(g2
g3
Vistanbul
p5257
tp5258
Rp5259
ag1
(g2
g3
Vnancy
p5260
tp5261
Rp5262
ag1
(g2
g3
Vtrade-talks
p5263
tp5264
Rp5265
ag1
(g2
g3
Vinfo-assembly-fullstack
p5266
tp5267
Rp5268
ag1
(g2
g3
Vsergei-shegevsky
p5269
tp5270
Rp5271
ag1
(g2
g3
Vshakas
p5272
tp5273
Rp5274
ag1
(g2
g3
Vcronkite
p5275
tp5276
Rp5277
ag1
(g2
g3
Vkristen-bell
p5278
tp5279
Rp5280
ag1
(g2
g3
Vpaddy
p5281
tp5282
Rp5283
ag1
(g2
g3
Vwall-street-journal
p5284
tp5285
Rp5286
ag1
(g2
g3
Vcongress
p5287
tp5288
Rp5289
ag1
(g2
g3
Vsecond-machine-age
p5290
tp5291
Rp5292
ag1
(g2
g3
Vneuroscience-see
p5293
tp5294
Rp5295
ag1
(g2
g3
Vcarnegie
p5296
tp5297
Rp5298
ag1
(g2
g3
Vriverpark
p5299
tp5300
Rp5301
ag1
(g2
g3
Vhungama
p5302
tp5303
Rp5304
ag1
(g2
g3
Vwalker
p5305
tp5306
Rp5307
ag1
(g2
g3
Vperry
p5308
tp5309
Rp5310
ag1
(g2
g3
Vfun-products
p5311
tp5312
Rp5313
ag1
(g2
g3
Vnapier
p5314
tp5315
Rp5316
ag1
(g2
g3
Vchris
p5317
tp5318
Rp5319
ag1
(g2
g3
Vmission-district
p5320
tp5321
Rp5322
ag1
(g2
g3
Vsmalls
p5323
tp5324
Rp5325
ag1
(g2
g3
Vnew-zealand
p5326
tp5327
Rp5328
ag1
(g2
g3
Val-qaeda
p5329
tp5330
Rp5331
ag1
(g2
g3
Vohio-valley-environmental-coalition
p5332
tp5333
Rp5334
ag1
(g2
g3
Vjohn-biggs
p5335
tp5336
Rp5337
ag1
(g2
g3
Vtrulymadly-bhatia
p5338
tp5339
Rp5340
ag1
(g2
g3
Vinvest
p5341
tp5342
Rp5343
ag1
(g2
g3
Vschachtner
p5344
tp5345
Rp5346
ag1
(g2
g3
Vhuffpost-divorce
p5347
tp5348
Rp5349
ag1
(g2
g3
Vraphael
p5350
tp5351
Rp5352
ag1
(g2
g3
Vcm-gautam
p5353
tp5354
Rp5355
ag1
(g2
g3
Vpeter-ungaro
p5356
tp5357
Rp5358
ag1
(g2
g3
Vsanjay-desai
p5359
tp5360
Rp5361
ag1
(g2
g3
Vmissouri
p5362
tp5363
Rp5364
ag1
(g2
g3
Varunabh
p5365
tp5366
Rp5367
ag1
(g2
g3
Vnobel-prize
p5368
tp5369
Rp5370
ag1
(g2
g3
Vferrari
p5371
tp5372
Rp5373
ag1
(g2
g3
Vtechnology-control
p5374
tp5375
Rp5376
ag1
(g2
g3
Vlongworth-office-building
p5377
tp5378
Rp5379
ag1
(g2
g3
Vnepal
p5380
tp5381
Rp5382
ag1
(g2
g3
Vforget
p5383
tp5384
Rp5385
ag1
(g2
g3
Vfounder
p5386
tp5387
Rp5388
ag1
(g2
g3
Vtj-oshie
p5389
tp5390
Rp5391
ag1
(g2
g3
Vhelp-you-write-like-hemingway-both-language-log
p5392
tp5393
Rp5394
ag1
(g2
g3
Vexchange-bank
p5395
tp5396
Rp5397
ag1
(g2
g3
Vdurango
p5398
tp5399
Rp5400
ag1
(g2
g3
Valex-wheeler
p5401
tp5402
Rp5403
ag1
(g2
g3
Vcarnegie-mellon-universitys-tepper-school
p5404
tp5405
Rp5406
ag1
(g2
g3
Vfomcs
p5407
tp5408
Rp5409
ag1
(g2
g3
Vpete-sessions
p5410
tp5411
Rp5412
ag1
(g2
g3
Varea-south
p5413
tp5414
Rp5415
ag1
(g2
g3
Vsanjay-anandaram
p5416
tp5417
Rp5418
ag1
(g2
g3
Vjohnny-depps
p5419
tp5420
Rp5421
ag1
(g2
g3
Vsenate-minority-leader-mitch
p5422
tp5423
Rp5424
ag1
(g2
g3
Vchildren
p5425
tp5426
Rp5427
ag1
(g2
g3
Vemily
p5428
tp5429
Rp5430
ag1
(g2
g3
Vaustralia
p5431
tp5432
Rp5433
ag1
(g2
g3
Vadvisor-deck
p5434
tp5435
Rp5436
ag1
(g2
g3
Vmenzel
p5437
tp5438
Rp5439
ag1
(g2
g3
Vagriculture-department
p5440
tp5441
Rp5442
ag1
(g2
g3
Vdomain-name-system
p5443
tp5444
Rp5445
ag1
(g2
g3
Vjason-kottke
p5446
tp5447
Rp5448
ag1
(g2
g3
Vfelton
p5449
tp5450
Rp5451
ag1
(g2
g3
Vspirit
p5452
tp5453
Rp5454
ag1
(g2
g3
Vbest-actress
p5455
tp5456
Rp5457
ag1
(g2
g3
Vmatrix
p5458
tp5459
Rp5460
ag1
(g2
g3
Vceo-talmon-marco
p5461
tp5462
Rp5463
ag1
(g2
g3
Vsupreme-court
p5464
tp5465
Rp5466
ag1
(g2
g3
Vchief-marketing-officer
p5467
tp5468
Rp5469
ag1
(g2
g3
Vhoward-university
p5470
tp5471
Rp5472
ag1
(g2
g3
Vjob-search-series
p5473
tp5474
Rp5475
ag1
(g2
g3
Vrussia-even
p5476
tp5477
Rp5478
ag1
(g2
g3
Vmidwest
p5479
tp5480
Rp5481
ag1
(g2
g3
Vsteven-spielbergs
p5482
tp5483
Rp5484
ag1
(g2
g3
Vnorma-jean-darden
p5485
tp5486
Rp5487
ag1
(g2
g3
Vghana
p5488
tp5489
Rp5490
ag1
(g2
g3
Vegyptian
p5491
tp5492
Rp5493
ag1
(g2
g3
Vinvictus-innovations
p5494
tp5495
Rp5496
ag1
(g2
g3
Vcalifornia-institute
p5497
tp5498
Rp5499
ag1
(g2
g3
Vgrand-old-party
p5500
tp5501
Rp5502
ag1
(g2
g3
Voakland-domain-awareness-center
p5503
tp5504
Rp5505
ag1
(g2
g3
Vcentre-pompidou
p5506
tp5507
Rp5508
ag1
(g2
g3
Vworst
p5509
tp5510
Rp5511
ag1
(g2
g3
Vus-air-force
p5512
tp5513
Rp5514
ag1
(g2
g3
Vsoldlab-magazine
p5515
tp5516
Rp5517
ag1
(g2
g3
Vwaythe
p5518
tp5519
Rp5520
ag1
(g2
g3
Velite-model-management
p5521
tp5522
Rp5523
ag1
(g2
g3
Vystv-avaz
p5524
tp5525
Rp5526
ag1
(g2
g3
Vsyracuse
p5527
tp5528
Rp5529
ag1
(g2
g3
Vbrigitte-madrian
p5530
tp5531
Rp5532
ag1
(g2
g3
Vdemocratic-party
p5533
tp5534
Rp5535
ag1
(g2
g3
Vnorfolk
p5536
tp5537
Rp5538
ag1
(g2
g3
Vvalley-slowly-awakens-to
p5539
tp5540
Rp5541
ag1
(g2
g3
Vkharagpur
p5542
tp5543
Rp5544
ag1
(g2
g3
Vedie-littlefield-sundby
p5545
tp5546
Rp5547
ag1
(g2
g3
Vahmad-javed
p5548
tp5549
Rp5550
ag1
(g2
g3
Vsamir-saraiya
p5551
tp5552
Rp5553
ag1
(g2
g3
Vindustrial-palace
p5554
tp5555
Rp5556
ag1
(g2
g3
Vsanjay-kamlani
p5557
tp5558
Rp5559
ag1
(g2
g3
Vinsideview
p5560
tp5561
Rp5562
ag1
(g2
g3
Vsmall
p5563
tp5564
Rp5565
ag1
(g2
g3
Vthrive-conference
p5566
tp5567
Rp5568
ag1
(g2
g3
Vdavid-fincher
p5569
tp5570
Rp5571
ag1
(g2
g3
Vmoffett-federal-airfield
p5572
tp5573
Rp5574
ag1
(g2
g3
Vflick
p5575
tp5576
Rp5577
ag1
(g2
g3
Vcongress-party
p5578
tp5579
Rp5580
ag1
(g2
g3
Vinstagram
p5581
tp5582
Rp5583
ag1
(g2
g3
Vtom-coburn
p5584
tp5585
Rp5586
ag1
(g2
g3
Vzaveri-bazar
p5587
tp5588
Rp5589
ag1
(g2
g3
Vsynergy
p5590
tp5591
Rp5592
ag1
(g2
g3
Vdesign
p5593
tp5594
Rp5595
ag1
(g2
g3
Vnews-feed
p5596
tp5597
Rp5598
ag1
(g2
g3
Vpelotas
p5599
tp5600
Rp5601
ag1
(g2
g3
Vdark-tetrad
p5602
tp5603
Rp5604
ag1
(g2
g3
Vbanshee-pub
p5605
tp5606
Rp5607
ag1
(g2
g3
Vberetta
p5608
tp5609
Rp5610
ag1
(g2
g3
Vkeanu-reeves
p5611
tp5612
Rp5613
ag1
(g2
g3
Vconsumers
p5614
tp5615
Rp5616
ag1
(g2
g3
Vpinterest
p5617
tp5618
Rp5619
ag1
(g2
g3
Vharry-reid
p5620
tp5621
Rp5622
ag1
(g2
g3
Vmarketwatch
p5623
tp5624
Rp5625
ag1
(g2
g3
Vparkinsons
p5626
tp5627
Rp5628
ag1
(g2
g3
Valison-lundergan-grimes
p5629
tp5630
Rp5631
ag1
(g2
g3
Vkirstin-petersen
p5632
tp5633
Rp5634
ag1
(g2
g3
Vcourtney-holt
p5635
tp5636
Rp5637
ag1
(g2
g3
Vhasan-suroor
p5638
tp5639
Rp5640
ag1
(g2
g3
Vdukes
p5641
tp5642
Rp5643
ag1
(g2
g3
Vpublic
p5644
tp5645
Rp5646
ag1
(g2
g3
Vchristian
p5647
tp5648
Rp5649
ag1
(g2
g3
Vbengal
p5650
tp5651
Rp5652
ag1
(g2
g3
Vlucas-goodwin
p5653
tp5654
Rp5655
ag1
(g2
g3
Vohio-house
p5656
tp5657
Rp5658
ag1
(g2
g3
Vhuman-rights-campaign
p5659
tp5660
Rp5661
ag1
(g2
g3
Vtracks
p5662
tp5663
Rp5664
ag1
(g2
g3
Vleeds
p5665
tp5666
Rp5667
ag1
(g2
g3
Vpalin
p5668
tp5669
Rp5670
ag1
(g2
g3
Vstandard
p5671
tp5672
Rp5673
ag1
(g2
g3
Vamerican-association
p5674
tp5675
Rp5676
ag1
(g2
g3
Vcalifornia-we
p5677
tp5678
Rp5679
ag1
(g2
g3
Vscott-simon
p5680
tp5681
Rp5682
ag1
(g2
g3
Vfloodgate
p5683
tp5684
Rp5685
ag1
(g2
g3
Vbible
p5686
tp5687
Rp5688
ag1
(g2
g3
Vweibrecht
p5689
tp5690
Rp5691
ag1
(g2
g3
Vmarijuana
p5692
tp5693
Rp5694
ag1
(g2
g3
Vclimate-action-plan
p5695
tp5696
Rp5697
ag1
(g2
g3
Vlas-vegas
p5698
tp5699
Rp5700
ag1
(g2
g3
Vjackie
p5701
tp5702
Rp5703
ag1
(g2
g3
Vsikhs
p5704
tp5705
Rp5706
ag1
(g2
g3
Vmatthias-mayer
p5707
tp5708
Rp5709
ag1
(g2
g3
Vrahul-vohra
p5710
tp5711
Rp5712
ag1
(g2
g3
Vgilmerton-bridge
p5713
tp5714
Rp5715
ag1
(g2
g3
Vdonald-sampler
p5716
tp5717
Rp5718
ag1
(g2
g3
Vbrain-pickings
p5719
tp5720
Rp5721
ag1
(g2
g3
Vmashable-photo-challenge
p5722
tp5723
Rp5724
ag1
(g2
g3
Vchernobyl
p5725
tp5726
Rp5727
ag1
(g2
g3
Vgetty-images
p5728
tp5729
Rp5730
ag1
(g2
g3
Vauthor-douglas-perry
p5731
tp5732
Rp5733
ag1
(g2
g3
Vzeke-tallahassee
p5734
tp5735
Rp5736
ag1
(g2
g3
Vfamily
p5737
tp5738
Rp5739
ag1
(g2
g3
Vlawrence-buell
p5740
tp5741
Rp5742
ag1
(g2
g3
Vlars-kamp
p5743
tp5744
Rp5745
ag1
(g2
g3
Vafrica
p5746
tp5747
Rp5748
ag1
(g2
g3
Vbertolt-brecht
p5749
tp5750
Rp5751
ag1
(g2
g3
Veasy-rider
p5752
tp5753
Rp5754
ag1
(g2
g3
Vwilliam-carlos
p5755
tp5756
Rp5757
ag1
(g2
g3
Vcarmageddon
p5758
tp5759
Rp5760
ag1
(g2
g3
Vcareer
p5761
tp5762
Rp5763
ag1
(g2
g3
Vmarketo
p5764
tp5765
Rp5766
ag1
(g2
g3
Vsimplify360
p5767
tp5768
Rp5769
ag1
(g2
g3
Vmunchies
p5770
tp5771
Rp5772
ag1
(g2
g3
Vlibertine
p5773
tp5774
Rp5775
ag1
(g2
g3
Vmoffett
p5776
tp5777
Rp5778
ag1
(g2
g3
Vrakesh-maria
p5779
tp5780
Rp5781
ag1
(g2
g3
Vmulholland
p5782
tp5783
Rp5784
ag1
(g2
g3
Vcommunity-network
p5785
tp5786
Rp5787
ag1
(g2
g3
Vgrow-your-expertise
p5788
tp5789
Rp5790
ag1
(g2
g3
Vindus-valley
p5791
tp5792
Rp5793
ag1
(g2
g3
Vrubicon
p5794
tp5795
Rp5796
ag1
(g2
g3
Valexei-gregorian
p5797
tp5798
Rp5799
ag1
(g2
g3
Vfritz-lanman
p5800
tp5801
Rp5802
ag1
(g2
g3
Vimpact-communications
p5803
tp5804
Rp5805
ag1
(g2
g3
Vtlingit
p5806
tp5807
Rp5808
ag1
(g2
g3
Vkill-decision
p5809
tp5810
Rp5811
ag1
(g2
g3
Vexpedia
p5812
tp5813
Rp5814
ag1
(g2
g3
Vworm-run
p5815
tp5816
Rp5817
ag1
(g2
g3
Vcompany
p5818
tp5819
Rp5820
ag1
(g2
g3
Vgrammy-awards
p5821
tp5822
Rp5823
ag1
(g2
g3
Vwyss-institute
p5824
tp5825
Rp5826
ag1
(g2
g3
Vjames-murphy
p5827
tp5828
Rp5829
ag1
(g2
g3
Vussponsored-joshua
p5830
tp5831
Rp5832
ag1
(g2
g3
Vplaystation-vita
p5833
tp5834
Rp5835
ag1
(g2
g3
Vamerican-bob-labonte
p5836
tp5837
Rp5838
ag1
(g2
g3
Vorganic-pan
p5839
tp5840
Rp5841
ag1
(g2
g3
Vhamiltons
p5842
tp5843
Rp5844
ag1
(g2
g3
Vpew-research
p5845
tp5846
Rp5847
ag1
(g2
g3
Vbritish-sugar-bureau
p5848
tp5849
Rp5850
ag1
(g2
g3
Vsuomussalmi
p5851
tp5852
Rp5853
ag1
(g2
g3
Vmartinovic
p5854
tp5855
Rp5856
ag1
(g2
g3
Vtribe-called-quest
p5857
tp5858
Rp5859
ag1
(g2
g3
Vvladimir
p5860
tp5861
Rp5862
ag1
(g2
g3
Vscience
p5863
tp5864
Rp5865
ag1
(g2
g3
Vgirls-just-wan
p5866
tp5867
Rp5868
ag1
(g2
g3
Vmorgan
p5869
tp5870
Rp5871
ag1
(g2
g3
Vdarlene-superville
p5872
tp5873
Rp5874
ag1
(g2
g3
Vsouthwest
p5875
tp5876
Rp5877
ag1
(g2
g3
Vabrahamic
p5878
tp5879
Rp5880
ag1
(g2
g3
Vtori-alamaze
p5881
tp5882
Rp5883
ag1
(g2
g3
Vbeautiful
p5884
tp5885
Rp5886
ag1
(g2
g3
Vvamosvenezuela
p5887
tp5888
Rp5889
ag1
(g2
g3
Vvictim-again
p5890
tp5891
Rp5892
ag1
(g2
g3
Vjohn-dos
p5893
tp5894
Rp5895
ag1
(g2
g3
Valysa-ivy
p5896
tp5897
Rp5898
ag1
(g2
g3
Vbiden
p5899
tp5900
Rp5901
ag1
(g2
g3
Vnumbers
p5902
tp5903
Rp5904
ag1
(g2
g3
Val-scratch-where-my-homies
p5905
tp5906
Rp5907
ag1
(g2
g3
Vrobinson
p5908
tp5909
Rp5910
ag1
(g2
g3
Vchristatos
p5911
tp5912
Rp5913
ag1
(g2
g3
Vsatyapal-singh
p5914
tp5915
Rp5916
ag1
(g2
g3
Vray-stantz
p5917
tp5918
Rp5919
ag1
(g2
g3
Vk9-ventures
p5920
tp5921
Rp5922
ag1
(g2
g3
Vmac-os
p5923
tp5924
Rp5925
ag1
(g2
g3
Vcute-animals
p5926
tp5927
Rp5928
ag1
(g2
g3
Vdhinagana
p5929
tp5930
Rp5931
ag1
(g2
g3
Vgloria-jones
p5932
tp5933
Rp5934
ag1
(g2
g3
Vforbes-india-art-awards
p5935
tp5936
Rp5937
ag1
(g2
g3
Vpeopic-retail
p5938
tp5939
Rp5940
ag1
(g2
g3
Vsacred
p5941
tp5942
Rp5943
ag1
(g2
g3
Vcliff-stearns
p5944
tp5945
Rp5946
ag1
(g2
g3
Vnancy-pelosi
p5947
tp5948
Rp5949
ag1
(g2
g3
Vaniket
p5950
tp5951
Rp5952
ag1
(g2
g3
Vjosh-berman
p5953
tp5954
Rp5955
ag1
(g2
g3
Vfrank-underwood
p5956
tp5957
Rp5958
ag1
(g2
g3
Vhouse-of-cards
p5959
tp5960
Rp5961
ag1
(g2
g3
Vhardware-apples
p5962
tp5963
Rp5964
ag1
(g2
g3
Vamerican-airlines
p5965
tp5966
Rp5967
ag1
(g2
g3
Vslammer
p5968
tp5969
Rp5970
ag1
(g2
g3
Valibaba
p5971
tp5972
Rp5973
ag1
(g2
g3
Vconnectivity
p5974
tp5975
Rp5976
ag1
(g2
g3
Vvedics
p5977
tp5978
Rp5979
ag1
(g2
g3
Vwest-africa
p5980
tp5981
Rp5982
ag1
(g2
g3
Vcitizens-united
p5983
tp5984
Rp5985
ag1
(g2
g3
Vsan-fernando-valley
p5986
tp5987
Rp5988
ag1
(g2
g3
Vwashington-redskins
p5989
tp5990
Rp5991
ag1
(g2
g3
Vmark-zuckerbergs
p5992
tp5993
Rp5994
ag1
(g2
g3
Vgithub
p5995
tp5996
Rp5997
ag1
(g2
g3
Vorchard
p5998
tp5999
Rp6000
ag1
(g2
g3
Vsusan
p6001
tp6002
Rp6003
ag1
(g2
g3
Vsan-joaquin-river
p6004
tp6005
Rp6006
ag1
(g2
g3
Vnortheastern-united-states
p6007
tp6008
Rp6009
ag1
(g2
g3
Vrakutens
p6010
tp6011
Rp6012
ag1
(g2
g3
Vatechcrunchcolumnist
p6013
tp6014
Rp6015
ag1
(g2
g3
Vdragon
p6016
tp6017
Rp6018
ag1
(g2
g3
Vafghanistan-reconstruction
p6019
tp6020
Rp6021
ag1
(g2
g3
Vamerican-academy
p6022
tp6023
Rp6024
ag1
(g2
g3
Vmessages-alpine
p6025
tp6026
Rp6027
ag1
(g2
g3
Vphotoshop
p6028
tp6029
Rp6030
ag1
(g2
g3
Vmexican
p6031
tp6032
Rp6033
ag1
(g2
g3
Vwillie-mae
p6034
tp6035
Rp6036
ag1
(g2
g3
Vamerican-progress
p6037
tp6038
Rp6039
ag1
(g2
g3
Vsilicon-beach
p6040
tp6041
Rp6042
ag1
(g2
g3
Vdenny-morrison
p6043
tp6044
Rp6045
ag1
(g2
g3
Vscientist
p6046
tp6047
Rp6048
ag1
(g2
g3
Vvasuli
p6049
tp6050
Rp6051
ag1
(g2
g3
Vsenator-marco-rubio
p6052
tp6053
Rp6054
ag1
(g2
g3
Vnew-yorker
p6055
tp6056
Rp6057
ag1
(g2
g3
Vislam
p6058
tp6059
Rp6060
ag1
(g2
g3
Vlyndon-baines-johnson
p6061
tp6062
Rp6063
ag1
(g2
g3
Vvirgin-atlantic
p6064
tp6065
Rp6066
ag1
(g2
g3
Vadrian-perica
p6067
tp6068
Rp6069
ag1
(g2
g3
Vsherry-ragan
p6070
tp6071
Rp6072
ag1
(g2
g3
Vnew-yorks
p6073
tp6074
Rp6075
ag1
(g2
g3
Vcolumbia-law-school
p6076
tp6077
Rp6078
ag1
(g2
g3
Vtermes
p6079
tp6080
Rp6081
ag1
(g2
g3
Vreuters
p6082
tp6083
Rp6084
ag1
(g2
g3
Vrichard-dawkins
p6085
tp6086
Rp6087
ag1
(g2
g3
Vstephen
p6088
tp6089
Rp6090
ag1
(g2
g3
Vglenn-beck
p6091
tp6092
Rp6093
ag1
(g2
g3
Vargentina
p6094
tp6095
Rp6096
ag1
(g2
g3
Vnicolasmaduro
p6097
tp6098
Rp6099
ag1
(g2
g3
Vspace-command-see
p6100
tp6101
Rp6102
ag1
(g2
g3
Vcaltrans
p6103
tp6104
Rp6105
ag1
(g2
g3
Vcurtis
p6106
tp6107
Rp6108
ag1
(g2
g3
Vdickens
p6109
tp6110
Rp6111
ag1
(g2
g3
Vuniversality
p6112
tp6113
Rp6114
ag1
(g2
g3
Vharappan
p6115
tp6116
Rp6117
ag1
(g2
g3
Vcounterparty-protocol
p6118
tp6119
Rp6120
ag1
(g2
g3
Vklout-perks
p6121
tp6122
Rp6123
ag1
(g2
g3
Vdamon
p6124
tp6125
Rp6126
ag1
(g2
g3
Vcasio
p6127
tp6128
Rp6129
ag1
(g2
g3
Vmartin-luther
p6130
tp6131
Rp6132
ag1
(g2
g3
Vrage-afro-puffs
p6133
tp6134
Rp6135
ag1
(g2
g3
Vstarbucks
p6136
tp6137
Rp6138
ag1
(g2
g3
Vjackeline-stewart
p6139
tp6140
Rp6141
ag1
(g2
g3
Vinception
p6142
tp6143
Rp6144
ag1
(g2
g3
Vhendersons
p6145
tp6146
Rp6147
ag1
(g2
g3
Vnational-safe-workplace-institute
p6148
tp6149
Rp6150
ag1
(g2
g3
Vhindu-sensuality
p6151
tp6152
Rp6153
ag1
(g2
g3
Vleela-palace
p6154
tp6155
Rp6156
ag1
(g2
g3
Vernest-hemingway
p6157
tp6158
Rp6159
ag1
(g2
g3
Vharry-potter
p6160
tp6161
Rp6162
ag1
(g2
g3
Vmapleton
p6163
tp6164
Rp6165
ag1
(g2
g3
Vgoldstein
p6166
tp6167
Rp6168
ag1
(g2
g3
Vsaveur
p6169
tp6170
Rp6171
ag1
(g2
g3
Vgregory-warner
p6172
tp6173
Rp6174
ag1
(g2
g3
Vowen-wilson
p6175
tp6176
Rp6177
ag1
(g2
g3
Vsogeti
p6178
tp6179
Rp6180
ag1
(g2
g3
Vjeff-karp
p6181
tp6182
Rp6183
ag1
(g2
g3
Vport-authority
p6184
tp6185
Rp6186
ag1
(g2
g3
Vfindspark
p6187
tp6188
Rp6189
ag1
(g2
g3
Vstennis-space-center
p6190
tp6191
Rp6192
ag1
(g2
g3
Vkuvva
p6193
tp6194
Rp6195
ag1
(g2
g3
Vhaile
p6196
tp6197
Rp6198
ag1
(g2
g3
Vmike-jarvis
p6199
tp6200
Rp6201
ag1
(g2
g3
Vsixth-avenue
p6202
tp6203
Rp6204
ag1
(g2
g3
Vengland
p6205
tp6206
Rp6207
ag1
(g2
g3
Vtony-stark
p6208
tp6209
Rp6210
ag1
(g2
g3
Vhouse
p6211
tp6212
Rp6213
ag1
(g2
g3
Venergy
p6214
tp6215
Rp6216
ag1
(g2
g3
Vshruti-dhanda
p6217
tp6218
Rp6219
ag1
(g2
g3
Vtevin-thompson
p6220
tp6221
Rp6222
ag1
(g2
g3
Veasypost
p6223
tp6224
Rp6225
ag1
(g2
g3
Vsuperpacs
p6226
tp6227
Rp6228
ag1
(g2
g3
Vneurology
p6229
tp6230
Rp6231
ag1
(g2
g3
Vmarwari
p6232
tp6233
Rp6234
ag1
(g2
g3
Vconnect
p6235
tp6236
Rp6237
ag1
(g2
g3
Vnational-labor-relations-board
p6238
tp6239
Rp6240
ag1
(g2
g3
Vcrown-prince-frederick
p6241
tp6242
Rp6243
ag1
(g2
g3
Vripple
p6244
tp6245
Rp6246
ag1
(g2
g3
Vportland
p6247
tp6248
Rp6249
ag1
(g2
g3
Vbeyond
p6250
tp6251
Rp6252
ag1
(g2
g3
Vdunaway
p6253
tp6254
Rp6255
ag1
(g2
g3
Vnew-york-states
p6256
tp6257
Rp6258
ag1
(g2
g3
Vlawrence-livermore-national-laboratory
p6259
tp6260
Rp6261
ag1
(g2
g3
Vsander-duivestein
p6262
tp6263
Rp6264
ag1
(g2
g3
Vgamejam
p6265
tp6266
Rp6267
ag1
(g2
g3
Venvironmental-protection
p6268
tp6269
Rp6270
ag1
(g2
g3
Vlovers
p6271
tp6272
Rp6273
ag1
(g2
g3
Vrobert
p6274
tp6275
Rp6276
ag1
(g2
g3
Vsince
p6277
tp6278
Rp6279
ag1
(g2
g3
Vfashion-week
p6280
tp6281
Rp6282
ag1
(g2
g3
Vrussia-lives-up
p6283
tp6284
Rp6285
ag1
(g2
g3
Vsean-byrnes
p6286
tp6287
Rp6288
ag1
(g2
g3
Vrichard-prince
p6289
tp6290
Rp6291
ag1
(g2
g3
Vhealth
p6292
tp6293
Rp6294
ag1
(g2
g3
Vexperimenter
p6295
tp6296
Rp6297
ag1
(g2
g3
Vevaluation
p6298
tp6299
Rp6300
ag1
(g2
g3
Varctic
p6301
tp6302
Rp6303
ag1
(g2
g3
Vrice-university
p6304
tp6305
Rp6306
ag1
(g2
g3
Vanurabh
p6307
tp6308
Rp6309
ag1
(g2
g3
Vwisconsin
p6310
tp6311
Rp6312
ag1
(g2
g3
Vmjg-no-sellout
p6313
tp6314
Rp6315
ag1
(g2
g3
Vkurt-frederick
p6316
tp6317
Rp6318
ag1
(g2
g3
Vwere-left-out-of-the-bill-and-the-process-were
p6319
tp6320
Rp6321
ag1
(g2
g3
Vheroin
p6322
tp6323
Rp6324
ag1
(g2
g3
Valzheimer
p6325
tp6326
Rp6327
ag1
(g2
g3
Vthomas-smith
p6328
tp6329
Rp6330
ag1
(g2
g3
Vjohns-hopkins-kimmel-cancer
p6331
tp6332
Rp6333
ag1
(g2
g3
Vairport
p6334
tp6335
Rp6336
ag1
(g2
g3
Vchild-protective-services
p6337
tp6338
Rp6339
ag1
(g2
g3
Vfinland
p6340
tp6341
Rp6342
ag1
(g2
g3
Vamericas
p6343
tp6344
Rp6345
ag1
(g2
g3
Vmalcolm-gladwell
p6346
tp6347
Rp6348
ag1
(g2
g3
Vsochiproblems
p6349
tp6350
Rp6351
ag1
(g2
g3
Vcall-you
p6352
tp6353
Rp6354
ag1
(g2
g3
Vnew-mexico
p6355
tp6356
Rp6357
ag1
(g2
g3
Vfreestyle-skiing-association
p6358
tp6359
Rp6360
ag1
(g2
g3
Vfield-marshal-sisi
p6361
tp6362
Rp6363
ag1
(g2
g3
Vsyria
p6364
tp6365
Rp6366
ag1
(g2
g3
Vdavid-estrada
p6367
tp6368
Rp6369
ag1
(g2
g3
Vharpers
p6370
tp6371
Rp6372
ag1
(g2
g3
Vnational-security-strategy
p6373
tp6374
Rp6375
ag1
(g2
g3
Vdetroits
p6376
tp6377
Rp6378
ag1
(g2
g3
Vjamaica-jamaica
p6379
tp6380
Rp6381
ag1
(g2
g3
Vinternational-center
p6382
tp6383
Rp6384
ag1
(g2
g3
Vmichael-jacksonwho
p6385
tp6386
Rp6387
ag1
(g2
g3
Vcarlos-slim
p6388
tp6389
Rp6390
ag1
(g2
g3
Vvalentine
p6391
tp6392
Rp6393
ag1
(g2
g3
Vvivekananda
p6394
tp6395
Rp6396
ag1
(g2
g3
Vandrew-stern
p6397
tp6398
Rp6399
ag1
(g2
g3
Vmid-career
p6400
tp6401
Rp6402
ag1
(g2
g3
Vcornelius-kelly
p6403
tp6404
Rp6405
ag1
(g2
g3
Vwhitney-museum
p6406
tp6407
Rp6408
ag1
(g2
g3
Vtelecitygroup
p6409
tp6410
Rp6411
ag1
(g2
g3
Vare-darker-than-you
p6412
tp6413
Rp6414
ag1
(g2
g3
Vbert-berns
p6415
tp6416
Rp6417
ag1
(g2
g3
Vinvalid
p6418
tp6419
Rp6420
ag1
(g2
g3
Vfrankel
p6421
tp6422
Rp6423
ag1
(g2
g3
Varlington
p6424
tp6425
Rp6426
ag1
(g2
g3
Vcrisis-chronicles
p6427
tp6428
Rp6429
ag1
(g2
g3
Vsuffolk-university
p6430
tp6431
Rp6432
ag1
(g2
g3
Vmantua
p6433
tp6434
Rp6435
ag1
(g2
g3
Vallizhealth
p6436
tp6437
Rp6438
ag1
(g2
g3
Vbergdorf-goodman
p6439
tp6440
Rp6441
ag1
(g2
g3
Vmaster
p6442
tp6443
Rp6444
ag1
(g2
g3
Vnigeria
p6445
tp6446
Rp6447
ag1
(g2
g3
Vbrahmanism
p6448
tp6449
Rp6450
ag1
(g2
g3
Vseventh-avenue
p6451
tp6452
Rp6453
ag1
(g2
g3
Vborum
p6454
tp6455
Rp6456
ag1
(g2
g3
Vwhole-bunch
p6457
tp6458
Rp6459
ag1
(g2
g3
Vbob-jones
p6460
tp6461
Rp6462
ag1
(g2
g3
Vbrad-adgate
p6463
tp6464
Rp6465
ag1
(g2
g3
Vadrian-aoun
p6466
tp6467
Rp6468
ag1
(g2
g3
Vjamie
p6469
tp6470
Rp6471
ag1
(g2
g3
Vla-seydoux
p6472
tp6473
Rp6474
ag1
(g2
g3
Vblondie
p6475
tp6476
Rp6477
ag1
(g2
g3
Vjordan
p6478
tp6479
Rp6480
ag1
(g2
g3
Vhuman-rights-watch
p6481
tp6482
Rp6483
ag1
(g2
g3
Vjohn-michael-montgomerys
p6484
tp6485
Rp6486
ag1
(g2
g3
Vapp42-client-usage
p6487
tp6488
Rp6489
ag1
(g2
g3
Vipads
p6490
tp6491
Rp6492
ag1
(g2
g3
Valtered-states
p6493
tp6494
Rp6495
ag1
(g2
g3
Vhollywood
p6496
tp6497
Rp6498
ag1
(g2
g3
Vobama
p6499
tp6500
Rp6501
ag1
(g2
g3
Vcarol-hymowitz
p6502
tp6503
Rp6504
ag1
(g2
g3
Vvirginia-port-authority
p6505
tp6506
Rp6507
ag1
(g2
g3
Vjamaican-team-gets-its-own-theme-song-fog
p6508
tp6509
Rp6510
ag1
(g2
g3
Vdavid-sacks
p6511
tp6512
Rp6513
ag1
(g2
g3
Vfreud
p6514
tp6515
Rp6516
ag1
(g2
g3
Vyouth
p6517
tp6518
Rp6519
ag1
(g2
g3
Vstates
p6520
tp6521
Rp6522
ag1
(g2
g3
Vmargaret-chan
p6523
tp6524
Rp6525
ag1
(g2
g3
Vbob-jones-university
p6526
tp6527
Rp6528
ag1
(g2
g3
Vsussane-simpson
p6529
tp6530
Rp6531
ag1
(g2
g3
Vdavid-gillespie
p6532
tp6533
Rp6534
ag1
(g2
g3
Vkindle
p6535
tp6536
Rp6537
ag1
(g2
g3
Vcommerce-committee
p6538
tp6539
Rp6540
ag1
(g2
g3
Vparliamentary-standing
p6541
tp6542
Rp6543
ag1
(g2
g3
Vhidden-costs
p6544
tp6545
Rp6546
ag1
(g2
g3
Vnickleback
p6547
tp6548
Rp6549
ag1
(g2
g3
Vnikolaj
p6550
tp6551
Rp6552
ag1
(g2
g3
Voxford-english-dictionary
p6553
tp6554
Rp6555
ag1
(g2
g3
Vfugees-nappy-heads
p6556
tp6557
Rp6558
ag1
(g2
g3
Vgreat-escape
p6559
tp6560
Rp6561
ag1
(g2
g3
Vhard-to-handle
p6562
tp6563
Rp6564
ag1
(g2
g3
Vhouse-health-reform-bill
p6565
tp6566
Rp6567
ag1
(g2
g3
Vphilippine
p6568
tp6569
Rp6570
ag1
(g2
g3
Vbrightscope
p6571
tp6572
Rp6573
ag1
(g2
g3
Vhallal
p6574
tp6575
Rp6576
ag1
(g2
g3
Vlauren-ballinger
p6577
tp6578
Rp6579
ag1
(g2
g3
Vthinkglory-india-solutions-pvt-ltd-education-counsellor
p6580
tp6581
Rp6582
ag1
(g2
g3
Vmobile-community
p6583
tp6584
Rp6585
ag1
(g2
g3
Vphilly
p6586
tp6587
Rp6588
ag1
(g2
g3
Vcarmstrong07
p6589
tp6590
Rp6591
ag1
(g2
g3
Vbill-hader
p6592
tp6593
Rp6594
ag1
(g2
g3
Vcollege-republican-national-committee
p6595
tp6596
Rp6597
ag1
(g2
g3
Vgeneva
p6598
tp6599
Rp6600
ag1
(g2
g3
Vexchange-commission
p6601
tp6602
Rp6603
ag1
(g2
g3
Vwayne-county
p6604
tp6605
Rp6606
ag1
(g2
g3
Vjesse-mendez
p6607
tp6608
Rp6609
ag1
(g2
g3
Vbrossard
p6610
tp6611
Rp6612
ag1
(g2
g3
Vfactory-floor
p6613
tp6614
Rp6615
ag1
(g2
g3
Vnew-america-foundation
p6616
tp6617
Rp6618
ag1
(g2
g3
Vsoft-cell
p6619
tp6620
Rp6621
ag1
(g2
g3
Vmind-juice-media
p6622
tp6623
Rp6624
ag1
(g2
g3
Vchairman
p6625
tp6626
Rp6627
ag1
(g2
g3
Vsan-gabriel-valley
p6628
tp6629
Rp6630
ag1
(g2
g3
Vnatalie-imbruglias-torn
p6631
tp6632
Rp6633
ag1
(g2
g3
Vintern-labor
p6634
tp6635
Rp6636
ag1
(g2
g3
Vhouse-ways
p6637
tp6638
Rp6639
ag1
(g2
g3
Vcentral-texas
p6640
tp6641
Rp6642
ag1
(g2
g3
Vfreddy-pineau
p6643
tp6644
Rp6645
ag1
(g2
g3
Vgoldman
p6646
tp6647
Rp6648
ag1
(g2
g3
Vnew-jersey-devils
p6649
tp6650
Rp6651
ag1
(g2
g3
Varetha-franklin
p6652
tp6653
Rp6654
ag1
(g2
g3
Vbluefin-tuna
p6655
tp6656
Rp6657
ag1
(g2
g3
Vfreddie
p6658
tp6659
Rp6660
ag1
(g2
g3
Vdalton-caldwell
p6661
tp6662
Rp6663
ag1
(g2
g3
Vbrooklyn
p6664
tp6665
Rp6666
ag1
(g2
g3
Vtaco-bell
p6667
tp6668
Rp6669
ag1
(g2
g3
Vshop-to-surprise
p6670
tp6671
Rp6672
ag1
(g2
g3
Vhenson
p6673
tp6674
Rp6675
ag1
(g2
g3
Vgreat-partners
p6676
tp6677
Rp6678
ag1
(g2
g3
Vgreat-business-project
p6679
tp6680
Rp6681
ag1
(g2
g3
Vmichael-scherer
p6682
tp6683
Rp6684
ag1
(g2
g3
Vamitabh-chandra
p6685
tp6686
Rp6687
ag1
(g2
g3
Vcover
p6688
tp6689
Rp6690
ag1
(g2
g3
Vnigata-university
p6691
tp6692
Rp6693
ag1
(g2
g3
Vbottle-rocket
p6694
tp6695
Rp6696
ag1
(g2
g3
Vlok-sabha
p6697
tp6698
Rp6699
ag1
(g2
g3
Vvedic-aryans
p6700
tp6701
Rp6702
ag1
(g2
g3
Veas-sharma
p6703
tp6704
Rp6705
ag1
(g2
g3
Vpease
p6706
tp6707
Rp6708
ag1
(g2
g3
Vmicrosoft
p6709
tp6710
Rp6711
ag1
(g2
g3
Vzeppelin
p6712
tp6713
Rp6714
ag1
(g2
g3
Vsinuiju
p6715
tp6716
Rp6717
ag1
(g2
g3
Vthomas
p6718
tp6719
Rp6720
ag1
(g2
g3
Vbloomberg-news
p6721
tp6722
Rp6723
ag1
(g2
g3
Vgeorge-stephanopoulos
p6724
tp6725
Rp6726
ag1
(g2
g3
Vbritish-columbia
p6727
tp6728
Rp6729
ag1
(g2
g3
Vnorth-koreans
p6730
tp6731
Rp6732
ag1
(g2
g3
Vtulalip
p6733
tp6734
Rp6735
ag1
(g2
g3
Vmidwestern
p6736
tp6737
Rp6738
ag1
(g2
g3
Veclerx-services-ltd
p6739
tp6740
Rp6741
ag1
(g2
g3
Vdow-jones
p6742
tp6743
Rp6744
ag1
(g2
g3
Vmichelle-nunn
p6745
tp6746
Rp6747
ag1
(g2
g3
Vvestorly
p6748
tp6749
Rp6750
ag1
(g2
g3
Vmatthew-ogle
p6751
tp6752
Rp6753
ag1
(g2
g3
Vlivingston
p6754
tp6755
Rp6756
ag1
(g2
g3
Vkinsey
p6757
tp6758
Rp6759
ag1
(g2
g3
Vnorth-korea
p6760
tp6761
Rp6762
ag1
(g2
g3
Vkonto
p6763
tp6764
Rp6765
ag1
(g2
g3
Vsidewalk-angels-foundation
p6766
tp6767
Rp6768
ag1
(g2
g3
Vgerald-salzman
p6769
tp6770
Rp6771
ag1
(g2
g3
Vkevin-ollie
p6772
tp6773
Rp6774
ag1
(g2
g3
Vbruno-gora
p6775
tp6776
Rp6777
ag1
(g2
g3
Vlefurgy
p6778
tp6779
Rp6780
ag1
(g2
g3
Vlightspeed
p6781
tp6782
Rp6783
ag1
(g2
g3
Vgoogle-play
p6784
tp6785
Rp6786
ag1
(g2
g3
Vhank-vigil
p6787
tp6788
Rp6789
ag1
(g2
g3
Vmoney
p6790
tp6791
Rp6792
ag1
(g2
g3
Vkazachy-brods
p6793
tp6794
Rp6795
ag1
(g2
g3
Vblack-journalists
p6796
tp6797
Rp6798
ag1
(g2
g3
Vswapnil-shinde
p6799
tp6800
Rp6801
ag1
(g2
g3
Vcuomo
p6802
tp6803
Rp6804
ag1
(g2
g3
Vshepherd
p6805
tp6806
Rp6807
ag1
(g2
g3
Vlos-angeles-platinum-triangle
p6808
tp6809
Rp6810
ag1
(g2
g3
Vjohn-michael-montgomery
p6811
tp6812
Rp6813
ag1
(g2
g3
Vnorthern-illinois-university
p6814
tp6815
Rp6816
ag1
(g2
g3
Vfranklins
p6817
tp6818
Rp6819
ag1
(g2
g3
Vsecond-machine
p6820
tp6821
Rp6822
ag1
(g2
g3
Vcuaca
p6823
tp6824
Rp6825
ag1
(g2
g3
Vsesame-bird
p6826
tp6827
Rp6828
ag1
(g2
g3
Vmayfield-fund
p6829
tp6830
Rp6831
ag1
(g2
g3
Vinternational
p6832
tp6833
Rp6834
ag1
(g2
g3
Vkuyi-mobile
p6835
tp6836
Rp6837
ag1
(g2
g3
Vmartian-homer
p6838
tp6839
Rp6840
ag1
(g2
g3
Vcollalbo
p6841
tp6842
Rp6843
ag1
(g2
g3
Vidg-connect
p6844
tp6845
Rp6846
ag1
(g2
g3
Vpaul-vey
p6847
tp6848
Rp6849
ag1
(g2
g3
Vmichael-arrington
p6850
tp6851
Rp6852
ag1
(g2
g3
Vvancouver-olympics
p6853
tp6854
Rp6855
ag1
(g2
g3
Vmiles-grant
p6856
tp6857
Rp6858
ag1
(g2
g3
Vsuarez
p6859
tp6860
Rp6861
ag1
(g2
g3
Vmike-aresco
p6862
tp6863
Rp6864
ag1
(g2
g3
Virctc
p6865
tp6866
Rp6867
ag1
(g2
g3
Vharlem-shake
p6868
tp6869
Rp6870
ag1
(g2
g3
Vcartoons
p6871
tp6872
Rp6873
ag1
(g2
g3
Vyoweri-museveni
p6874
tp6875
Rp6876
ag1
(g2
g3
Vswitzerland
p6877
tp6878
Rp6879
ag1
(g2
g3
Vlove-letters
p6880
tp6881
Rp6882
ag1
(g2
g3
Vvalentina-kvasnikova
p6883
tp6884
Rp6885
ag1
(g2
g3
Vsam-harris
p6886
tp6887
Rp6888
ag1
(g2
g3
Vcalifornian
p6889
tp6890
Rp6891
ag1
(g2
g3
Vdenise-rossetto
p6892
tp6893
Rp6894
ag1
(g2
g3
Vlyndon-johnson
p6895
tp6896
Rp6897
ag1
(g2
g3
Vdevils
p6898
tp6899
Rp6900
ag1
(g2
g3
Vmukunda-foods
p6901
tp6902
Rp6903
ag1
(g2
g3
Vdisease-control
p6904
tp6905
Rp6906
ag1
(g2
g3
Vmarcia-wagner
p6907
tp6908
Rp6909
ag1
(g2
g3
Vjohn-mccain
p6910
tp6911
Rp6912
ag1
(g2
g3
Vsonexion
p6913
tp6914
Rp6915
ag1
(g2
g3
Vwashington-press
p6916
tp6917
Rp6918
ag1
(g2
g3
Vgoogle-now
p6919
tp6920
Rp6921
ag1
(g2
g3
Visrael
p6922
tp6923
Rp6924
ag1
(g2
g3
Vreally-hard
p6925
tp6926
Rp6927
ag1
(g2
g3
Vshreyas-gopal
p6928
tp6929
Rp6930
ag1
(g2
g3
Vmount-wachusett
p6931
tp6932
Rp6933
ag1
(g2
g3
Vsnow-white
p6934
tp6935
Rp6936
ag1
(g2
g3
Vcontra-costa-county
p6937
tp6938
Rp6939
ag1
(g2
g3
Vandrew-lang
p6940
tp6941
Rp6942
ag1
(g2
g3
Vmobbr
p6943
tp6944
Rp6945
ag1
(g2
g3
Vspeed
p6946
tp6947
Rp6948
ag1
(g2
g3
Vplease
p6949
tp6950
Rp6951
ag1
(g2
g3
Vreal-girl
p6952
tp6953
Rp6954
ag1
(g2
g3
Vsean-leahy
p6955
tp6956
Rp6957
ag1
(g2
g3
Vvedanta
p6958
tp6959
Rp6960
ag1
(g2
g3
Vesslinger
p6961
tp6962
Rp6963
ag1
(g2
g3
Vsouth-korean
p6964
tp6965
Rp6966
ag1
(g2
g3
Vhonour
p6967
tp6968
Rp6969
ag1
(g2
g3
Veye-with
p6970
tp6971
Rp6972
ag1
(g2
g3
Vaustriasilver
p6973
tp6974
Rp6975
ag1
(g2
g3
Vcorruption
p6976
tp6977
Rp6978
ag1
(g2
g3
Vthrive
p6979
tp6980
Rp6981
ag1
(g2
g3
Veurope
p6982
tp6983
Rp6984
ag1
(g2
g3
Vjains
p6985
tp6986
Rp6987
ag1
(g2
g3
Vlatin
p6988
tp6989
Rp6990
ag1
(g2
g3
Vsouth-indian
p6991
tp6992
Rp6993
ag1
(g2
g3
Valice-springs
p6994
tp6995
Rp6996
ag1
(g2
g3
Vcommercial
p6997
tp6998
Rp6999
ag1
(g2
g3
Vjavascript
p7000
tp7001
Rp7002
ag1
(g2
g3
Vgermany-read
p7003
tp7004
Rp7005
ag1
(g2
g3
Vsalzman
p7006
tp7007
Rp7008
ag1
(g2
g3
Vcenter-brunschwig
p7009
tp7010
Rp7011
ag1
(g2
g3
Vgoogle-begin
p7012
tp7013
Rp7014
ag1
(g2
g3
Vus-have
p7015
tp7016
Rp7017
ag1
(g2
g3
Vindus
p7018
tp7019
Rp7020
ag1
(g2
g3
Vmarilyn
p7021
tp7022
Rp7023
ag1
(g2
g3
Vbronze
p7024
tp7025
Rp7026
ag1
(g2
g3
Vwestern-mail
p7027
tp7028
Rp7029
ag1
(g2
g3
Vpowers
p7030
tp7031
Rp7032
ag1
(g2
g3
Vkarl-marx
p7033
tp7034
Rp7035
ag1
(g2
g3
Vforeign
p7036
tp7037
Rp7038
ag1
(g2
g3
Vandrew-weibrecht
p7039
tp7040
Rp7041
ag1
(g2
g3
Vroman
p7042
tp7043
Rp7044
ag1
(g2
g3
Vteaser-gives-glimpse
p7045
tp7046
Rp7047
ag1
(g2
g3
Vmalden
p7048
tp7049
Rp7050
ag1
(g2
g3
Vroundtable-panel
p7051
tp7052
Rp7053
ag1
(g2
g3
Vinventus
p7054
tp7055
Rp7056
ag1
(g2
g3
Vwalt-disney
p7057
tp7058
Rp7059
ag1
(g2
g3
Vpatty
p7060
tp7061
Rp7062
ag1
(g2
g3
Vholst
p7063
tp7064
Rp7065
ag1
(g2
g3
Vbraggs
p7066
tp7067
Rp7068
ag1
(g2
g3
Vviber
p7069
tp7070
Rp7071
ag1
(g2
g3
Vapp-virality-smart
p7072
tp7073
Rp7074
ag1
(g2
g3
Vfranks-machiavellian
p7075
tp7076
Rp7077
ag1
(g2
g3
Vsquare-cash
p7078
tp7079
Rp7080
ag1
(g2
g3
Vsweet
p7081
tp7082
Rp7083
ag1
(g2
g3
Vkate-norton
p7084
tp7085
Rp7086
ag1
(g2
g3
Vtennessee
p7087
tp7088
Rp7089
ag1
(g2
g3
Vvictorian-british
p7090
tp7091
Rp7092
ag1
(g2
g3
Vweight-watchers
p7093
tp7094
Rp7095
ag1
(g2
g3
Vscottish
p7096
tp7097
Rp7098
ag1
(g2
g3
Vtonto
p7099
tp7100
Rp7101
ag1
(g2
g3
Vearl-robinson
p7102
tp7103
Rp7104
ag1
(g2
g3
Vwilburs
p7105
tp7106
Rp7107
ag1
(g2
g3
Verin-buckels
p7108
tp7109
Rp7110
ag1
(g2
g3
Vwalkerit
p7111
tp7112
Rp7113
ag1
(g2
g3
Velizabeth-warren
p7114
tp7115
Rp7116
ag1
(g2
g3
Vross-perlin
p7117
tp7118
Rp7119
ag1
(g2
g3
Vbrics
p7120
tp7121
Rp7122
ag1
(g2
g3
Vavtar-singh-bhadana
p7123
tp7124
Rp7125
ag1
(g2
g3
Vwikileaf
p7126
tp7127
Rp7128
ag1
(g2
g3
Vpierre-burt
p7129
tp7130
Rp7131
ag1
(g2
g3
Vryan-petersen
p7132
tp7133
Rp7134
ag1
(g2
g3
Vorange-county
p7135
tp7136
Rp7137
ag1
(g2
g3
Vsecret
p7138
tp7139
Rp7140
ag1
(g2
g3
Vbukalapak
p7141
tp7142
Rp7143
ag1
(g2
g3
Vbessemer-venture-partners
p7144
tp7145
Rp7146
ag1
(g2
g3
Vireland
p7147
tp7148
Rp7149
ag1
(g2
g3
Vsierra-mountain
p7150
tp7151
Rp7152
ag1
(g2
g3
Vbest-original
p7153
tp7154
Rp7155
ag1
(g2
g3
Vbryce-mathias
p7156
tp7157
Rp7158
ag1
(g2
g3
Vrobert-kristan
p7159
tp7160
Rp7161
ag1
(g2
g3
Vcommunity-development-block-grant-program
p7162
tp7163
Rp7164
ag1
(g2
g3
Vschwab
p7165
tp7166
Rp7167
ag1
(g2
g3
Vcentral-valley
p7168
tp7169
Rp7170
ag1
(g2
g3
Vanthony
p7171
tp7172
Rp7173
ag1
(g2
g3
Vbest-picture
p7174
tp7175
Rp7176
ag1
(g2
g3
Vdetermination
p7177
tp7178
Rp7179
ag1
(g2
g3
Voitnb
p7180
tp7181
Rp7182
ag1
(g2
g3
Vfunders-club
p7183
tp7184
Rp7185
ag1
(g2
g3
Visokon-penguin-donkey
p7186
tp7187
Rp7188
ag1
(g2
g3
Vlouis-sullivan
p7189
tp7190
Rp7191
ag1
(g2
g3
Vtrojan
p7192
tp7193
Rp7194
ag1
(g2
g3
Vgeorgia
p7195
tp7196
Rp7197
ag1
(g2
g3
Vfrozen
p7198
tp7199
Rp7200
ag1
(g2
g3
Vmusser
p7201
tp7202
Rp7203
ag1
(g2
g3
Vjan-hudec
p7204
tp7205
Rp7206
ag1
(g2
g3
Vkodak
p7207
tp7208
Rp7209
ag1
(g2
g3
Vslurpees
p7210
tp7211
Rp7212
ag1
(g2
g3
Vmashpics-contestants-scroll
p7213
tp7214
Rp7215
ag1
(g2
g3
Vquick-service-restaurants
p7216
tp7217
Rp7218
ag1
(g2
g3
Vcum-on
p7219
tp7220
Rp7221
ag1
(g2
g3
Vwest-bengal
p7222
tp7223
Rp7224
ag1
(g2
g3
Vhuffington
p7225
tp7226
Rp7227
ag1
(g2
g3
Vfernandez
p7228
tp7229
Rp7230
ag1
(g2
g3
Vapp42-paas
p7231
tp7232
Rp7233
ag1
(g2
g3
Vdamon-branchs
p7234
tp7235
Rp7236
ag1
(g2
g3
Vtop-tech-photo
p7237
tp7238
Rp7239
ag1
(g2
g3
Vcentury
p7240
tp7241
Rp7242
ag1
(g2
g3
Vphil-kessel
p7243
tp7244
Rp7245
ag1
(g2
g3
Vpenn-state
p7246
tp7247
Rp7248
ag1
(g2
g3
Vbob-dole
p7249
tp7250
Rp7251
ag1
(g2
g3
Vearl-grey
p7252
tp7253
Rp7254
ag1
(g2
g3
Vshoptosurprise
p7255
tp7256
Rp7257
ag1
(g2
g3
Vjennifer-knott
p7258
tp7259
Rp7260
ag1
(g2
g3
Vskype
p7261
tp7262
Rp7263
ag1
(g2
g3
Vsachin-sachin-bhatia
p7264
tp7265
Rp7266
ag1
(g2
g3
Vdeath-and
p7267
tp7268
Rp7269
ag1
(g2
g3
Vpawtucket
p7270
tp7271
Rp7272
ag1
(g2
g3
Vnielsen
p7273
tp7274
Rp7275
ag1
(g2
g3
Vnew-york-posts-page-six
p7276
tp7277
Rp7278
ag1
(g2
g3
Vitaly
p7279
tp7280
Rp7281
ag1
(g2
g3
Vmsg-network
p7282
tp7283
Rp7284
ag1
(g2
g3
Vbarnes
p7285
tp7286
Rp7287
ag1
(g2
g3
Vkhoja-mohammad
p7288
tp7289
Rp7290
ag1
(g2
g3
Vcan-kicks
p7291
tp7292
Rp7293
ag1
(g2
g3
Vnoreaster
p7294
tp7295
Rp7296
ag1
(g2
g3
Vgourmet-company-affiliate-manager
p7297
tp7298
Rp7299
ag1
(g2
g3
Vbangles
p7300
tp7301
Rp7302
ag1
(g2
g3
Vmenlo-park
p7303
tp7304
Rp7305
ag1
(g2
g3
Vmedia-research
p7306
tp7307
Rp7308
ag1
(g2
g3
Vservice-employees-international-union
p7309
tp7310
Rp7311
ag1
(g2
g3
Vgary-southern
p7312
tp7313
Rp7314
ag1
(g2
g3
Vswiftkey
p7315
tp7316
Rp7317
ag1
(g2
g3
Vdoc-hastings
p7318
tp7319
Rp7320
ag1
(g2
g3
Vnew-york-times
p7321
tp7322
Rp7323
ag1
(g2
g3
Vupanishadic
p7324
tp7325
Rp7326
ag1
(g2
g3
Vindira-gandhis
p7327
tp7328
Rp7329
ag1
(g2
g3
Vstan-larimer
p7330
tp7331
Rp7332
ag1
(g2
g3
Vinferno
p7333
tp7334
Rp7335
ag1
(g2
g3
Vpetroleum-dealers
p7336
tp7337
Rp7338
ag1
(g2
g3
Velizabeth-river
p7339
tp7340
Rp7341
ag1
(g2
g3
Vwalmart
p7342
tp7343
Rp7344
ag1
(g2
g3
Vsecret-key
p7345
tp7346
Rp7347
ag1
(g2
g3
Vshwan-jo
p7348
tp7349
Rp7350
ag1
(g2
g3
Valexander-hamilton
p7351
tp7352
Rp7353
ag1
(g2
g3
Vdestroy-all-color
p7354
tp7355
Rp7356
ag1
(g2
g3
Vhigh-court
p7357
tp7358
Rp7359
ag1
(g2
g3
Vleft-liberal
p7360
tp7361
Rp7362
ag1
(g2
g3
Vchayefskys
p7363
tp7364
Rp7365
ag1
(g2
g3
Vpoland
p7366
tp7367
Rp7368
ag1
(g2
g3
Vblack-book
p7369
tp7370
Rp7371
ag1
(g2
g3
Vgators
p7372
tp7373
Rp7374
ag1
(g2
g3
Vcorinne
p7375
tp7376
Rp7377
ag1
(g2
g3
Vronald-hans
p7378
tp7379
Rp7380
ag1
(g2
g3
Vfrazer
p7381
tp7382
Rp7383
ag1
(g2
g3
Vcannes
p7384
tp7385
Rp7386
ag1
(g2
g3
Vlawanda
p7387
tp7388
Rp7389
ag1
(g2
g3
Vkelly
p7390
tp7391
Rp7392
ag1
(g2
g3
Vorganization
p7393
tp7394
Rp7395
ag1
(g2
g3
Vcheez
p7396
tp7397
Rp7398
ag1
(g2
g3
Vhomeward
p7399
tp7400
Rp7401
ag1
(g2
g3
Vslicklogin
p7402
tp7403
Rp7404
ag1
(g2
g3
Vbuell
p7405
tp7406
Rp7407
ag1
(g2
g3
Vlenny-skutnik
p7408
tp7409
Rp7410
ag1
(g2
g3
Vdont-turn-around
p7411
tp7412
Rp7413
ag1
(g2
g3
Vamy-klobuchar
p7414
tp7415
Rp7416
ag1
(g2
g3
Vbuchanan
p7417
tp7418
Rp7419
ag1
(g2
g3
Vsarah-friar
p7420
tp7421
Rp7422
ag1
(g2
g3
Vwisconsin-royal-botanias-wave
p7423
tp7424
Rp7425
ag1
(g2
g3
Vmonica-lewinsky
p7426
tp7427
Rp7428
ag1
(g2
g3
Vsuper-bowl
p7429
tp7430
Rp7431
ag1
(g2
g3
Vbrodka
p7432
tp7433
Rp7434
ag1
(g2
g3
Vbrotherssnehal
p7435
tp7436
Rp7437
ag1
(g2
g3
Vjason-sudeikis
p7438
tp7439
Rp7440
ag1
(g2
g3
Vlexus
p7441
tp7442
Rp7443
ag1
(g2
g3
Vreliance
p7444
tp7445
Rp7446
ag1
(g2
g3
Vdoughnut
p7447
tp7448
Rp7449
ag1
(g2
g3
Vlcd-soundsystem
p7450
tp7451
Rp7452
ag1
(g2
g3
Vstruggle-to-defend-social
p7453
tp7454
Rp7455
ag1
(g2
g3
Vmichigan-engineering-communications
p7456
tp7457
Rp7458
ag1
(g2
g3
Vandy-wallace
p7459
tp7460
Rp7461
ag1
(g2
g3
Vgeneral-catalyst
p7462
tp7463
Rp7464
ag1
(g2
g3
Vapp42-client
p7465
tp7466
Rp7467
ag1
(g2
g3
Vhappy-valentine
p7468
tp7469
Rp7470
ag1
(g2
g3
Vterry-ellis
p7471
tp7472
Rp7473
ag1
(g2
g3
Vdeepak-shahdadpuri
p7474
tp7475
Rp7476
ag1
(g2
g3
Vsource
p7477
tp7478
Rp7479
ag1
(g2
g3
Vfarah-khan
p7480
tp7481
Rp7482
ag1
(g2
g3
Vnational-security
p7483
tp7484
Rp7485
ag1
(g2
g3
Vsydney
p7486
tp7487
Rp7488
ag1
(g2
g3
Vrelevance
p7489
tp7490
Rp7491
ag1
(g2
g3
Vforswell
p7492
tp7493
Rp7494
ag1
(g2
g3
Vtechstars
p7495
tp7496
Rp7497
ag1
(g2
g3
Vgrindhouse
p7498
tp7499
Rp7500
ag1
(g2
g3
Vcheryl
p7501
tp7502
Rp7503
ag1
(g2
g3
Vindonesian
p7504
tp7505
Rp7506
ag1
(g2
g3
Vmarco
p7507
tp7508
Rp7509
ag1
(g2
g3
Vmarch
p7510
tp7511
Rp7512
ag1
(g2
g3
Vriverpark-farm
p7513
tp7514
Rp7515
ag1
(g2
g3
Vmike-jones
p7516
tp7517
Rp7518
ag1
(g2
g3
Vtina-chase-gillmor
p7519
tp7520
Rp7521
ag1
(g2
g3
Vstack-overflow
p7522
tp7523
Rp7524
ag1
(g2
g3
Vceo-joe-fernandez
p7525
tp7526
Rp7527
ag1
(g2
g3
Vstephen-harper
p7528
tp7529
Rp7530
ag1
(g2
g3
Vcredit-crisis
p7531
tp7532
Rp7533
ag1
(g2
g3
Vbloomberg-philanthropies
p7534
tp7535
Rp7536
ag1
(g2
g3
Vsoftbank
p7537
tp7538
Rp7539
ag1
(g2
g3
Vdietram
p7540
tp7541
Rp7542
ag1
(g2
g3
Vjacksonville
p7543
tp7544
Rp7545
ag1
(g2
g3
Vindonesias
p7546
tp7547
Rp7548
ag1
(g2
g3
Vbolshoi-ice-dome
p7549
tp7550
Rp7551
ag1
(g2
g3
Vluci-baines-johnson
p7552
tp7553
Rp7554
ag1
(g2
g3
Vflappy
p7555
tp7556
Rp7557
ag1
(g2
g3
Vsales-crunch
p7558
tp7559
Rp7560
ag1
(g2
g3
Visabelle-olsson
p7561
tp7562
Rp7563
ag1
(g2
g3
Vbrevard-county
p7564
tp7565
Rp7566
ag1
(g2
g3
Vpopular
p7567
tp7568
Rp7569
ag1
(g2
g3
Vdavid-wihby
p7570
tp7571
Rp7572
ag1
(g2
g3
Vgodiva
p7573
tp7574
Rp7575
ag1
(g2
g3
Vharlem
p7576
tp7577
Rp7578
ag1
(g2
g3
Vgoogle
p7579
tp7580
Rp7581
ag1
(g2
g3
Vsaturdays
p7582
tp7583
Rp7584
ag1
(g2
g3
Vsenate
p7585
tp7586
Rp7587
ag1
(g2
g3
Vbilly-pizer
p7588
tp7589
Rp7590
ag1
(g2
g3
Vcountless
p7591
tp7592
Rp7593
ag1
(g2
g3
Vmartian
p7594
tp7595
Rp7596
ag1
(g2
g3
Vjohn-frascotti
p7597
tp7598
Rp7599
ag1
(g2
g3
Vsabahudin-kovacevic
p7600
tp7601
Rp7602
ag1
(g2
g3
Vadler-arena-skating-center
p7603
tp7604
Rp7605
ag1
(g2
g3
Vslovakias-tomas
p7606
tp7607
Rp7608
ag1
(g2
g3
Vmumbai-international-airport
p7609
tp7610
Rp7611
ag1
(g2
g3
Vqatar
p7612
tp7613
Rp7614
ag1
(g2
g3
Vrancho-mirage
p7615
tp7616
Rp7617
ag1
(g2
g3
Vcalifornia-department
p7618
tp7619
Rp7620
ag1
(g2
g3
Vurban-infrastructure
p7621
tp7622
Rp7623
ag1
(g2
g3
Vdosamatic
p7624
tp7625
Rp7626
ag1
(g2
g3
Vrobert-samuelson
p7627
tp7628
Rp7629
ag1
(g2
g3
Vreligion
p7630
tp7631
Rp7632
ag1
(g2
g3
Vcheryl-henson
p7633
tp7634
Rp7635
ag1
(g2
g3
Vmiss-mamies-spoonbread-too
p7636
tp7637
Rp7638
ag1
(g2
g3
Vsarah-palin
p7639
tp7640
Rp7641
ag1
(g2
g3
Vnancy-beiman
p7642
tp7643
Rp7644
ag1
(g2
g3
Vnoisetrade
p7645
tp7646
Rp7647
ag1
(g2
g3
Vassembly-bill
p7648
tp7649
Rp7650
ag1
(g2
g3
Vmcclatchy
p7651
tp7652
Rp7653
ag1
(g2
g3
Vlos-angeles-kings
p7654
tp7655
Rp7656
ag1
(g2
g3
Vbeachmint
p7657
tp7658
Rp7659
ag1
(g2
g3
Vblack-crowes
p7660
tp7661
Rp7662
ag1
(g2
g3
Vugandas
p7663
tp7664
Rp7665
ag1
(g2
g3
Vvedic
p7666
tp7667
Rp7668
ag1
(g2
g3
Vcomminagetcha
p7669
tp7670
Rp7671
ag1
(g2
g3
Vgrand-hotel
p7672
tp7673
Rp7674
ag1
(g2
g3
Vbill-mckibben
p7675
tp7676
Rp7677
ag1
(g2
g3
Vcbazaar
p7678
tp7679
Rp7680
ag1
(g2
g3
Vsanta
p7681
tp7682
Rp7683
ag1
(g2
g3
Vglenn-miller
p7684
tp7685
Rp7686
ag1
(g2
g3
Vugandan
p7687
tp7688
Rp7689
ag1
(g2
g3
Vhajra-waheed
p7690
tp7691
Rp7692
ag1
(g2
g3
Vsan-francisco-bay-area
p7693
tp7694
Rp7695
ag1
(g2
g3
Vroll-hall
p7696
tp7697
Rp7698
ag1
(g2
g3
Vnetflix
p7699
tp7700
Rp7701
ag1
(g2
g3
Vlaverne-cox
p7702
tp7703
Rp7704
ag1
(g2
g3
Vwallace
p7705
tp7706
Rp7707
ag1
(g2
g3
Vrobin-ajello
p7708
tp7709
Rp7710
ag1
(g2
g3
Vharvey-keitel
p7711
tp7712
Rp7713
ag1
(g2
g3
Vbeijing
p7714
tp7715
Rp7716
ag1
(g2
g3
Vweekly-app-roundup
p7717
tp7718
Rp7719
ag1
(g2
g3
Vmelissa-etheridge
p7720
tp7721
Rp7722
ag1
(g2
g3
Vhelion-venture-partners
p7723
tp7724
Rp7725
ag1
(g2
g3
Vold-tools-dont-work
p7726
tp7727
Rp7728
ag1
(g2
g3
Vjade-mills
p7729
tp7730
Rp7731
ag1
(g2
g3
Vmuslims
p7732
tp7733
Rp7734
ag1
(g2
g3
Vaaron-sorkin
p7735
tp7736
Rp7737
ag1
(g2
g3
Vclinton
p7738
tp7739
Rp7740
ag1
(g2
g3
Vcolorado
p7741
tp7742
Rp7743
ag1
(g2
g3
Vshinzo
p7744
tp7745
Rp7746
ag1
(g2
g3
Vjosh-pastner
p7747
tp7748
Rp7749
ag1
(g2
g3
Vjohns-hopkins
p7750
tp7751
Rp7752
ag1
(g2
g3
Vjohns
p7753
tp7754
Rp7755
ag1
(g2
g3
Videa-brand
p7756
tp7757
Rp7758
ag1
(g2
g3
Vjon-stewart
p7759
tp7760
Rp7761
ag1
(g2
g3
Vforgotten-harvest
p7762
tp7763
Rp7764
ag1
(g2
g3
Vhillary-rodham-clinton
p7765
tp7766
Rp7767
ag1
(g2
g3
Vsv-angel
p7768
tp7769
Rp7770
ag1
(g2
g3
Vsports
p7771
tp7772
Rp7773
ag1
(g2
g3
Vceo-yancey-strickler
p7774
tp7775
Rp7776
ag1
(g2
g3
Vparvati
p7777
tp7778
Rp7779
ag1
(g2
g3
Vmailhot
p7780
tp7781
Rp7782
ag1
(g2
g3
Vibms-watson
p7783
tp7784
Rp7785
ag1
(g2
g3
Vsinad
p7786
tp7787
Rp7788
ag1
(g2
g3
Vemployee-benefit-research
p7789
tp7790
Rp7791
ag1
(g2
g3
Vyetapple
p7792
tp7793
Rp7794
ag1
(g2
g3
Vmatt-burkhard
p7795
tp7796
Rp7797
ag1
(g2
g3
Vjohn-lewis
p7798
tp7799
Rp7800
ag1
(g2
g3
Vheritage
p7801
tp7802
Rp7803
ag1
(g2
g3
Vrobert-smithson
p7804
tp7805
Rp7806
ag1
(g2
g3
Varun-rath
p7807
tp7808
Rp7809
ag1
(g2
g3
Vnamecoins
p7810
tp7811
Rp7812
ag1
(g2
g3
Vchartbeat
p7813
tp7814
Rp7815
ag1
(g2
g3
Vvienna
p7816
tp7817
Rp7818
ag1
(g2
g3
Vsaudi-arabia
p7819
tp7820
Rp7821
ag1
(g2
g3
Vbyzantine
p7822
tp7823
Rp7824
ag1
(g2
g3
Vhawaiian
p7825
tp7826
Rp7827
ag1
(g2
g3
Vhouse-republicans
p7828
tp7829
Rp7830
ag1
(g2
g3
Vbluefin
p7831
tp7832
Rp7833
ag1
(g2
g3
Vclark-house-initiative
p7834
tp7835
Rp7836
ag1
(g2
g3
Vsouth-korea
p7837
tp7838
Rp7839
ag1
(g2
g3
Vbrittany-bowe
p7840
tp7841
Rp7842
ag1
(g2
g3
Vteddy-goff
p7843
tp7844
Rp7845
ag1
(g2
g3
Vgallup
p7846
tp7847
Rp7848
ag1
(g2
g3
Vtragically
p7849
tp7850
Rp7851
ag1
(g2
g3
Vdelta
p7852
tp7853
Rp7854
ag1
(g2
g3
Vrussian
p7855
tp7856
Rp7857
ag1
(g2
g3
Vmitesh-bohra
p7858
tp7859
Rp7860
ag1
(g2
g3
Vdenny-grehl
p7861
tp7862
Rp7863
ag1
(g2
g3
Vios-top-charts
p7864
tp7865
Rp7866
ag1
(g2
g3
Vjunior
p7867
tp7868
Rp7869
ag1
(g2
g3
Vpenguin
p7870
tp7871
Rp7872
ag1
(g2
g3
Vrohit-bansal
p7873
tp7874
Rp7875
ag1
(g2
g3
Vjawaharlal-nehru-national-urban-renewal-mission
p7876
tp7877
Rp7878
ag1
(g2
g3
Venvironmental-quality
p7879
tp7880
Rp7881
ag1
(g2
g3
Vashton-kutcher
p7882
tp7883
Rp7884
ag1
(g2
g3
Vleclair
p7885
tp7886
Rp7887
ag1
(g2
g3
Veric-cantor
p7888
tp7889
Rp7890
ag1
(g2
g3
Vindian-space-research-organisation
p7891
tp7892
Rp7893
ag1
(g2
g3
Vtrauma-recover-center
p7894
tp7895
Rp7896
ag1
(g2
g3
Vsaraswati-river
p7897
tp7898
Rp7899
ag1
(g2
g3
Vmicah-weinberg
p7900
tp7901
Rp7902
ag1
(g2
g3
Vmorocco
p7903
tp7904
Rp7905
ag1
(g2
g3
Vgoogles-calendar
p7906
tp7907
Rp7908
ag1
(g2
g3
Vswanson-funeral
p7909
tp7910
Rp7911
ag1
(g2
g3
Vyellen
p7912
tp7913
Rp7914
ag1
(g2
g3
Vindian-muslims
p7915
tp7916
Rp7917
ag1
(g2
g3
Vchelsea
p7918
tp7919
Rp7920
ag1
(g2
g3
Vparamount-farms
p7921
tp7922
Rp7923
ag1
(g2
g3
Vwillem
p7924
tp7925
Rp7926
ag1
(g2
g3
Vdetroit-news
p7927
tp7928
Rp7929
ag1
(g2
g3
Vassociated
p7930
tp7931
Rp7932
ag1
(g2
g3
Vlabrador
p7933
tp7934
Rp7935
ag1
(g2
g3
Varmstrong
p7936
tp7937
Rp7938
ag1
(g2
g3
Vgolden-ruby
p7939
tp7940
Rp7941
ag1
(g2
g3
Vinfluence
p7942
tp7943
Rp7944
ag1
(g2
g3
Vsavetime-technologies
p7945
tp7946
Rp7947
ag1
(g2
g3
Vtiruchirappalli
p7948
tp7949
Rp7950
ag1
(g2
g3
Vinternational-studies
p7951
tp7952
Rp7953
ag1
(g2
g3
Vmolly-ringwald
p7954
tp7955
Rp7956
ag1
(g2
g3
Vcreative-experiment-officer
p7957
tp7958
Rp7959
ag1
(g2
g3
Vbrahmins
p7960
tp7961
Rp7962
ag1
(g2
g3
Vcharlie-songhurst
p7963
tp7964
Rp7965
ag1
(g2
g3
Vkerry
p7966
tp7967
Rp7968
ag1
(g2
g3
Vsilicon-valley
p7969
tp7970
Rp7971
ag1
(g2
g3
Vgraham
p7972
tp7973
Rp7974
ag1
(g2
g3
Vfermats-last
p7975
tp7976
Rp7977
ag1
(g2
g3
Vangriest-man
p7978
tp7979
Rp7980
ag1
(g2
g3
Vdivine
p7981
tp7982
Rp7983
ag1
(g2
g3
Vdan-kois
p7984
tp7985
Rp7986
ag1
(g2
g3
Vcaracas
p7987
tp7988
Rp7989
ag1
(g2
g3
Vendurance
p7990
tp7991
Rp7992
ag1
(g2
g3
Vlavoie
p7993
tp7994
Rp7995
ag1
(g2
g3
Vpuerto-rico
p7996
tp7997
Rp7998
ag1
(g2
g3
Vwestern-europe
p7999
tp8000
Rp8001
ag1
(g2
g3
Vaam-admi-party
p8002
tp8003
Rp8004
ag1
(g2
g3
Vrrggbb
p8005
tp8006
Rp8007
ag1
(g2
g3
Vbruce-lee
p8008
tp8009
Rp8010
ag1
(g2
g3
Vdakar
p8011
tp8012
Rp8013
ag1
(g2
g3
Vstefan-zweig
p8014
tp8015
Rp8016
ag1
(g2
g3
Vrayman-revolution
p8017
tp8018
Rp8019
ag1
(g2
g3
Vjainism
p8020
tp8021
Rp8022
ag1
(g2
g3
Vsamuel-beckett
p8023
tp8024
Rp8025
ag1
(g2
g3
Velements
p8026
tp8027
Rp8028
ag1
(g2
g3
Vwerfel
p8029
tp8030
Rp8031
ag1
(g2
g3
Vgeorge-zimmerman
p8032
tp8033
Rp8034
ag1
(g2
g3
Vbrookings-institution
p8035
tp8036
Rp8037
ag1
(g2
g3
Vwilliam
p8038
tp8039
Rp8040
ag1
(g2
g3
Vkillpack
p8041
tp8042
Rp8043
ag1
(g2
g3
Voregon
p8044
tp8045
Rp8046
ag1
(g2
g3
Vhenrico-county
p8047
tp8048
Rp8049
ag1
(g2
g3
Vcaribbean
p8050
tp8051
Rp8052
ag1
(g2
g3
Vlangston-hughes
p8053
tp8054
Rp8055
ag1
(g2
g3
Vreal-times
p8056
tp8057
Rp8058
ag1
(g2
g3
Vgrenier
p8059
tp8060
Rp8061
ag1
(g2
g3
Vlaunch-pad-job-club
p8062
tp8063
Rp8064
ag1
(g2
g3
Vyoutube
p8065
tp8066
Rp8067
ag1
(g2
g3
Vhappy-mage
p8068
tp8069
Rp8070
ag1
(g2
g3
Vnorwegians
p8071
tp8072
Rp8073
ag1
(g2
g3
Vkarma
p8074
tp8075
Rp8076
ag1
(g2
g3
Vhoneymoon-havens-interviews-parag-dhol
p8077
tp8078
Rp8079
ag1
(g2
g3
Vcolumbus
p8080
tp8081
Rp8082
ag1
(g2
g3
Votmar-striedinger
p8083
tp8084
Rp8085
ag1
(g2
g3
Vradio-one
p8086
tp8087
Rp8088
ag1
(g2
g3
Vpeter-fill
p8089
tp8090
Rp8091
ag1
(g2
g3
Vlil-dap-speak-ya-clout
p8092
tp8093
Rp8094
ag1
(g2
g3
Vnetflix-while
p8095
tp8096
Rp8097
ag1
(g2
g3
Vsama-veda
p8098
tp8099
Rp8100
ag1
(g2
g3
Vayalon
p8101
tp8102
Rp8103
ag1
(g2
g3
Vnew-york-fashion
p8104
tp8105
Rp8106
ag1
(g2
g3
Vhillary-clinton
p8107
tp8108
Rp8109
ag1
(g2
g3
Vrussell-feingold
p8110
tp8111
Rp8112
ag1
(g2
g3
Vsteve
p8113
tp8114
Rp8115
ag1
(g2
g3
Vinfographic
p8116
tp8117
Rp8118
ag1
(g2
g3
Vrajiv-malhotras-breaking-indiawere
p8119
tp8120
Rp8121
ag1
(g2
g3
Vfacebooks-ipo
p8122
tp8123
Rp8124
ag1
(g2
g3
Vopulent-blessing
p8125
tp8126
Rp8127
ag1
(g2
g3
Vdaniel-larimer
p8128
tp8129
Rp8130
ag1
(g2
g3
Vjosh-schwartz
p8131
tp8132
Rp8133
ag1
(g2
g3
Vpaul-brayshaw
p8134
tp8135
Rp8136
ag1
(g2
g3
Vcarrie-hammers
p8137
tp8138
Rp8139
ag1
(g2
g3
Vjarrett-streebin
p8140
tp8141
Rp8142
ag1
(g2
g3
Vprashanth-prakash
p8143
tp8144
Rp8145
ag1
(g2
g3
Vnorthern-virginia
p8146
tp8147
Rp8148
ag1
(g2
g3
Vyoung
p8149
tp8150
Rp8151
ag1
(g2
g3
Vzombie-strike
p8152
tp8153
Rp8154
ag1
(g2
g3
Vcharter-oak-high-school
p8155
tp8156
Rp8157
ag1
(g2
g3
Vradiological
p8158
tp8159
Rp8160
ag1
(g2
g3
Vnate-elliott
p8161
tp8162
Rp8163
ag1
(g2
g3
Vhinduism
p8164
tp8165
Rp8166
ag1
(g2
g3
Vapp42
p8167
tp8168
Rp8169
ag1
(g2
g3
Voshie
p8170
tp8171
Rp8172
ag1
(g2
g3
Vgreat-recession
p8173
tp8174
Rp8175
ag1
(g2
g3
Vgreenpeace-india
p8176
tp8177
Rp8178
ag1
(g2
g3
Vhackaholic-tech
p8179
tp8180
Rp8181
ag1
(g2
g3
Vobjectivity
p8182
tp8183
Rp8184
ag1
(g2
g3
Vrangarajan-committee
p8185
tp8186
Rp8187
ag1
(g2
g3
Vsofa-pac
p8188
tp8189
Rp8190
ag1
(g2
g3
Vharley-davidson
p8191
tp8192
Rp8193
ag1
(g2
g3
Vbjrks
p8194
tp8195
Rp8196
ag1
(g2
g3
Vtulsi
p8197
tp8198
Rp8199
ag1
(g2
g3
Vnetflix-war-room
p8200
tp8201
Rp8202
ag1
(g2
g3
Vfacebook
p8203
tp8204
Rp8205
ag1
(g2
g3
Vstackoverflow
p8206
tp8207
Rp8208
ag1
(g2
g3
Vaksel-lund-svindal
p8209
tp8210
Rp8211
ag1
(g2
g3
Venrique-pena
p8212
tp8213
Rp8214
ag1
(g2
g3
Vrecreation
p8215
tp8216
Rp8217
ag1
(g2
g3
Vbilly-idols-mony-mony
p8218
tp8219
Rp8220
ag1
(g2
g3
Vkl-rahul
p8221
tp8222
Rp8223
ag1
(g2
g3
Vsmithsonian-magazine
p8224
tp8225
Rp8226
ag1
(g2
g3
Vmichael
p8227
tp8228
Rp8229
ag1
(g2
g3
Vnasdaq
p8230
tp8231
Rp8232
ag1
(g2
g3
Vmarisol-maldonado
p8233
tp8234
Rp8235
ag1
(g2
g3
Vpaper-leaf
p8236
tp8237
Rp8238
ag1
(g2
g3
Vgodan
p8239
tp8240
Rp8241
ag1
(g2
g3
Vconsumer-culture
p8242
tp8243
Rp8244
ag1
(g2
g3
Vmassachusetts
p8245
tp8246
Rp8247
ag1
(g2
g3
Vmccaughey
p8248
tp8249
Rp8250
ag1
(g2
g3
Vbarbara
p8251
tp8252
Rp8253
ag1
(g2
g3
Vbraintree
p8254
tp8255
Rp8256
ag1
(g2
g3
Vleslie-anthony
p8257
tp8258
Rp8259
ag1
(g2
g3
Vmediterranean
p8260
tp8261
Rp8262
ag1
(g2
g3
Vvideo
p8263
tp8264
Rp8265
ag1
(g2
g3
Vtransformers
p8266
tp8267
Rp8268
ag1
(g2
g3
Vcopenhagen
p8269
tp8270
Rp8271
ag1
(g2
g3
Vhigher-education-act
p8272
tp8273
Rp8274
ag1
(g2
g3
Vclick
p8275
tp8276
Rp8277
ag1
(g2
g3
Vwomen-having-recently-given-birth
p8278
tp8279
Rp8280
ag1
(g2
g3
Vindex
p8281
tp8282
Rp8283
ag1
(g2
g3
Vangelo-sotira
p8284
tp8285
Rp8286
ag1
(g2
g3
Vchicago
p8287
tp8288
Rp8289
ag1
(g2
g3
Vwashington-states
p8290
tp8291
Rp8292
ag1
(g2
g3
Vanton
p8293
tp8294
Rp8295
ag1
(g2
g3
Vwendy-doniger
p8296
tp8297
Rp8298
ag1
(g2
g3
Vindias
p8299
tp8300
Rp8301
ag1
(g2
g3
Vnetworks
p8302
tp8303
Rp8304
ag1
(g2
g3
Vcottage-grove
p8305
tp8306
Rp8307
ag1
(g2
g3
Vinternship
p8308
tp8309
Rp8310
ag1
(g2
g3
Vindian
p8311
tp8312
Rp8313
ag1
(g2
g3
Vbusiness-wire
p8314
tp8315
Rp8316
ag1
(g2
g3
Vantoine-gara
p8317
tp8318
Rp8319
ag1
(g2
g3
Vcapital
p8320
tp8321
Rp8322
ag1
(g2
g3
Vmatthew-cowan
p8323
tp8324
Rp8325
ag1
(g2
g3
Vforbes-india-just
p8326
tp8327
Rp8328
ag1
(g2
g3
Vsan-luis
p8329
tp8330
Rp8331
ag1
(g2
g3
Vdoniger
p8332
tp8333
Rp8334
ag1
(g2
g3
Vbobsled-song
p8335
tp8336
Rp8337
ag1
(g2
g3
Vdominique-brossard
p8338
tp8339
Rp8340
ag1
(g2
g3
Vitzkoffs
p8341
tp8342
Rp8343
ag1
(g2
g3
Vjon-grady
p8344
tp8345
Rp8346
ag1
(g2
g3
Vmukesh-ambani
p8347
tp8348
Rp8349
ag1
(g2
g3
Vkrishna-godavari
p8350
tp8351
Rp8352
ag1
(g2
g3
Vnational-institute
p8353
tp8354
Rp8355
ag1
(g2
g3
Vgetty-center
p8356
tp8357
Rp8358
ag1
(g2
g3
Vkotaku
p8359
tp8360
Rp8361
ag1
(g2
g3
Vjohn-robb
p8362
tp8363
Rp8364
ag1
(g2
g3
Vhoteltonight
p8365
tp8366
Rp8367
ag1
(g2
g3
Vgreat
p8368
tp8369
Rp8370
ag1
(g2
g3
Vseth-grayson
p8371
tp8372
Rp8373
ag1
(g2
g3
Vmetro
p8374
tp8375
Rp8376
ag1
(g2
g3
Vbig-brothers-big-sisters
p8377
tp8378
Rp8379
ag1
(g2
g3
Vtitanic
p8380
tp8381
Rp8382
ag1
(g2
g3
Vhacka2thon
p8383
tp8384
Rp8385
ag1
(g2
g3
Vnatick
p8386
tp8387
Rp8388
ag1
(g2
g3
Vsidmel-estes
p8389
tp8390
Rp8391
ag1
(g2
g3
Vstephanie
p8392
tp8393
Rp8394
ag1
(g2
g3
Vmaker
p8395
tp8396
Rp8397
ag1
(g2
g3
Vfirefox
p8398
tp8399
Rp8400
ag1
(g2
g3
Vapple
p8401
tp8402
Rp8403
ag1
(g2
g3
Vernst-lubitsch
p8404
tp8405
Rp8406
ag1
(g2
g3
Vegypt
p8407
tp8408
Rp8409
ag1
(g2
g3
Vthinkglory-india-solutions-pvt-ltd-field-operations-catalyst
p8410
tp8411
Rp8412
ag1
(g2
g3
Vensign
p8413
tp8414
Rp8415
ag1
(g2
g3
Vuntold-story
p8416
tp8417
Rp8418
ag1
(g2
g3
Vaustria
p8419
tp8420
Rp8421
ag1
(g2
g3
Vsteve-gillmor
p8422
tp8423
Rp8424
ag1
(g2
g3
Vjustin-amash
p8425
tp8426
Rp8427
ag1
(g2
g3
Vmashable-photo
p8428
tp8429
Rp8430
ag1
(g2
g3
Vwolman
p8431
tp8432
Rp8433
ag1
(g2
g3
Vmid-market
p8434
tp8435
Rp8436
ag1
(g2
g3
Vtools
p8437
tp8438
Rp8439
ag1
(g2
g3
Vgateway
p8440
tp8441
Rp8442
ag1
(g2
g3
Vcloud
p8443
tp8444
Rp8445
ag1
(g2
g3
Vmakhteshim-agan-industries
p8446
tp8447
Rp8448
ag1
(g2
g3
Vjohn-mulaney
p8449
tp8450
Rp8451
ag1
(g2
g3
Vharvard-book-store
p8452
tp8453
Rp8454
ag1
(g2
g3
Vrich-lefurgy
p8455
tp8456
Rp8457
ag1
(g2
g3
Vmunje
p8458
tp8459
Rp8460
ag1
(g2
g3
Vdoodle
p8461
tp8462
Rp8463
ag1
(g2
g3
Vhudson
p8464
tp8465
Rp8466
ag1
(g2
g3
Vbrian-roberts
p8467
tp8468
Rp8469
ag1
(g2
g3
Vbobsled-time
p8470
tp8471
Rp8472
ag1
(g2
g3
Vmobiledevhq
p8473
tp8474
Rp8475
ag1
(g2
g3
Vsergey-brin
p8476
tp8477
Rp8478
ag1
(g2
g3
Vsoutheastern-conference
p8479
tp8480
Rp8481
ag1
(g2
g3
Vpuck-daddy
p8482
tp8483
Rp8484
ag1
(g2
g3
Vdebbie
p8485
tp8486
Rp8487
ag1
(g2
g3
Vkansas-joe
p8488
tp8489
Rp8490
ag1
(g2
g3
Vjonathan
p8491
tp8492
Rp8493
ag1
(g2
g3
Vbelgian
p8494
tp8495
Rp8496
ag1
(g2
g3
Vfrancisco-google-plus
p8497
tp8498
Rp8499
ag1
(g2
g3
Vparliament
p8500
tp8501
Rp8502
ag1
(g2
g3
Varvind-kejriwal
p8503
tp8504
Rp8505
ag1
(g2
g3
Vdetroit-medical-center
p8506
tp8507
Rp8508
ag1
(g2
g3
Vamsterdams
p8509
tp8510
Rp8511
ag1
(g2
g3
Vstatistics-group
p8512
tp8513
Rp8514
ag1
(g2
g3
Vbeing-john-malkovich
p8515
tp8516
Rp8517
ag1
(g2
g3
Vus-world
p8518
tp8519
Rp8520
ag1
(g2
g3
Vamg-cylinder
p8521
tp8522
Rp8523
ag1
(g2
g3
Vumfang
p8524
tp8525
Rp8526
ag1
(g2
g3
Vteresa-ghilarducci
p8527
tp8528
Rp8529
ag1
(g2
g3
Vsydneys
p8530
tp8531
Rp8532
ag1
(g2
g3
Vpocahontas
p8533
tp8534
Rp8535
ag1
(g2
g3
Vnetscape
p8536
tp8537
Rp8538
ag1
(g2
g3
Vmatt-innes
p8539
tp8540
Rp8541
ag1
(g2
g3
Vwomen
p8542
tp8543
Rp8544
ag1
(g2
g3
Vcrisler-arena
p8545
tp8546
Rp8547
ag1
(g2
g3
Vlumbee
p8548
tp8549
Rp8550
ag1
(g2
g3
Vkobe-bryant
p8551
tp8552
Rp8553
ag1
(g2
g3
Vbally
p8554
tp8555
Rp8556
ag1
(g2
g3
Vearn-nothing
p8557
tp8558
Rp8559
ag1
(g2
g3
Vbarack-obamas-affordable-care-act
p8560
tp8561
Rp8562
ag1
(g2
g3
Vrecession
p8563
tp8564
Rp8565
ag1
(g2
g3
Varcher
p8566
tp8567
Rp8568
ag1
(g2
g3
Vjemaah
p8569
tp8570
Rp8571
ag1
(g2
g3
Vfinch
p8572
tp8573
Rp8574
ag1
(g2
g3
Vrooney
p8575
tp8576
Rp8577
ag1
(g2
g3
Vfreedom
p8578
tp8579
Rp8580
ag1
(g2
g3
Vunread
p8581
tp8582
Rp8583
ag1
(g2
g3
Vpotus
p8584
tp8585
Rp8586
ag1
(g2
g3
Vtim-allen
p8587
tp8588
Rp8589
ag1
(g2
g3
Vmyles-power
p8590
tp8591
Rp8592
ag1
(g2
g3
Vgeocities
p8593
tp8594
Rp8595
ag1
(g2
g3
Vhalloween
p8596
tp8597
Rp8598
ag1
(g2
g3
Vlpatton5
p8599
tp8600
Rp8601
ag1
(g2
g3
Vmad-as-hell
p8602
tp8603
Rp8604
ag1
(g2
g3
Vexecutive-producer
p8605
tp8606
Rp8607
ag1
(g2
g3
Vhilton
p8608
tp8609
Rp8610
ag1
(g2
g3
Vnativo
p8611
tp8612
Rp8613
ag1
(g2
g3
Vhave-fun
p8614
tp8615
Rp8616
ag1
(g2
g3
Vcorporate-anthropology-advisors
p8617
tp8618
Rp8619
ag1
(g2
g3
Vwetransfers
p8620
tp8621
Rp8622
ag1
(g2
g3
Vfrench-connection
p8623
tp8624
Rp8625
ag1
(g2
g3
Vparag-dhol
p8626
tp8627
Rp8628
ag1
(g2
g3
Vnative
p8629
tp8630
Rp8631
ag1
(g2
g3
Vcarolyn-ryan
p8632
tp8633
Rp8634
ag1
(g2
g3
Vunited
p8635
tp8636
Rp8637
ag1
(g2
g3
Vgeneral-assembly
p8638
tp8639
Rp8640
ag1
(g2
g3
Vtony-williams
p8641
tp8642
Rp8643
ag1
(g2
g3
Vslovenian
p8644
tp8645
Rp8646
ag1
(g2
g3
Vnorth-pyongan-province
p8647
tp8648
Rp8649
ag1
(g2
g3
Vbrevard
p8650
tp8651
Rp8652
ag1
(g2
g3
Veast-ventures
p8653
tp8654
Rp8655
ag1
(g2
g3
Vsourcegraph
p8656
tp8657
Rp8658
ag1
(g2
g3
Vferris-state-university
p8659
tp8660
Rp8661
ag1
(g2
g3
Vkolkata
p8662
tp8663
Rp8664
ag1
(g2
g3
Vmedicare
p8665
tp8666
Rp8667
ag1
(g2
g3
Vecho-nest
p8668
tp8669
Rp8670
ag1
(g2
g3
Vcaucasian
p8671
tp8672
Rp8673
ag1
(g2
g3
Vbuildings
p8674
tp8675
Rp8676
ag1
(g2
g3
Vapp-stores-new
p8677
tp8678
Rp8679
ag1
(g2
g3
Vspeaker-john-boehner
p8680
tp8681
Rp8682
ag1
(g2
g3
Vanthony-kuhn
p8683
tp8684
Rp8685
ag1
(g2
g3
Vhpcmp
p8686
tp8687
Rp8688
ag1
(g2
g3
Vkickstarter
p8689
tp8690
Rp8691
ag1
(g2
g3
Vwallpaper
p8692
tp8693
Rp8694
ag1
(g2
g3
Vhazard
p8695
tp8696
Rp8697
ag1
(g2
g3
Vrick-schine
p8698
tp8699
Rp8700
ag1
(g2
g3
Vislamic
p8701
tp8702
Rp8703
ag1
(g2
g3
Vedward-snowden
p8704
tp8705
Rp8706
ag1
(g2
g3
Veric-laursen
p8707
tp8708
Rp8709
ag1
(g2
g3
Vlancet-oncology
p8710
tp8711
Rp8712
ag1
(g2
g3
Vjake-hookerthe
p8713
tp8714
Rp8715
ag1
(g2
g3
Vaffordable-care-act
p8716
tp8717
Rp8718
ag1
(g2
g3
Vkashmiri
p8719
tp8720
Rp8721
ag1
(g2
g3
Vnew-years
p8722
tp8723
Rp8724
ag1
(g2
g3
Vmuppets
p8725
tp8726
Rp8727
ag1
(g2
g3
Vboeing
p8728
tp8729
Rp8730
ag1
(g2
g3
Vimpossible-to-read
p8731
tp8732
Rp8733
ag1
(g2
g3
Vapp42-command-line
p8734
tp8735
Rp8736
ag1
(g2
g3
Vflap-frankfurt
p8737
tp8738
Rp8739
ag1
(g2
g3
Vwatson
p8740
tp8741
Rp8742
ag1
(g2
g3
Vorder-of-the-phoenix
p8743
tp8744
Rp8745
ag1
(g2
g3
Vclaire
p8746
tp8747
Rp8748
ag1
(g2
g3
Vspain
p8749
tp8750
Rp8751
ag1
(g2
g3
Vathaywire
p8752
tp8753
Rp8754
ag1
(g2
g3
Vstate-attorney-angela-corey
p8755
tp8756
Rp8757
ag1
(g2
g3
Vhealthcare
p8758
tp8759
Rp8760
ag1
(g2
g3
Vamerican
p8761
tp8762
Rp8763
ag1
(g2
g3
Vwashington-post
p8764
tp8765
Rp8766
ag1
(g2
g3
Vbrave-new
p8767
tp8768
Rp8769
ag1
(g2
g3
Vniels-giffey
p8770
tp8771
Rp8772
ag1
(g2
g3
Vhouston
p8773
tp8774
Rp8775
ag1
(g2
g3
Vbutterfly-studio-salon
p8776
tp8777
Rp8778
ag1
(g2
g3
Vlorde
p8779
tp8780
Rp8781
ag1
(g2
g3
Vgreta-garbo
p8782
tp8783
Rp8784
ag1
(g2
g3
Vfresno
p8785
tp8786
Rp8787
ag1
(g2
g3
Vjustin-timberlake
p8788
tp8789
Rp8790
ag1
(g2
g3
Vpopupcaptor
p8791
tp8792
Rp8793
ag1
(g2
g3
Vdirectv
p8794
tp8795
Rp8796
ag1
(g2
g3
Vtolkappium
p8797
tp8798
Rp8799
ag1
(g2
g3
Vyellow-lums
p8800
tp8801
Rp8802
ag1
(g2
g3
Vtravel-leisure
p8803
tp8804
Rp8805
ag1
(g2
g3
Vletters
p8806
tp8807
Rp8808
ag1
(g2
g3
Vnewsweek
p8809
tp8810
Rp8811
ag1
(g2
g3
Vwarren
p8812
tp8813
Rp8814
ag1
(g2
g3
Vspotify
p8815
tp8816
Rp8817
ag1
(g2
g3
Vpasir-ris
p8818
tp8819
Rp8820
ag1
(g2
g3
Vmarius
p8821
tp8822
Rp8823
ag1
(g2
g3
Vmike-elgan
p8824
tp8825
Rp8826
ag1
(g2
g3
Vkim-nace
p8827
tp8828
Rp8829
ag1
(g2
g3
Vbig-soda
p8830
tp8831
Rp8832
ag1
(g2
g3
Vfujifilm
p8833
tp8834
Rp8835
ag1
(g2
g3
Volympian-davis
p8836
tp8837
Rp8838
ag1
(g2
g3
Velon-musk
p8839
tp8840
Rp8841
ag1
(g2
g3
Vmotherjones
p8842
tp8843
Rp8844
ag1
(g2
g3
Vusaid
p8845
tp8846
Rp8847
ag1
(g2
g3
Vgit-out
p8848
tp8849
Rp8850
ag1
(g2
g3
Vjohnny
p8851
tp8852
Rp8853
ag1
(g2
g3
Vpussycat-dolls
p8854
tp8855
Rp8856
ag1
(g2
g3
Vorange
p8857
tp8858
Rp8859
ag1
(g2
g3
Vpuerto
p8860
tp8861
Rp8862
ag1
(g2
g3
Vus-state
p8863
tp8864
Rp8865
ag1
(g2
g3
Vtechcrunch
p8866
tp8867
Rp8868
ag1
(g2
g3
Vorange-is
p8869
tp8870
Rp8871
ag1
(g2
g3
Vgreater
p8872
tp8873
Rp8874
ag1
(g2
g3
Vorthodox
p8875
tp8876
Rp8877
ag1
(g2
g3
Vpython
p8878
tp8879
Rp8880
ag1
(g2
g3
Vrichard-bernstein
p8881
tp8882
Rp8883
ag1
(g2
g3
Vjoni-rendon
p8884
tp8885
Rp8886
ag1
(g2
g3
Vtennessees
p8887
tp8888
Rp8889
ag1
(g2
g3
Vanonymous-production-assistant-blog
p8890
tp8891
Rp8892
ag1
(g2
g3
Vcarol-dweck
p8893
tp8894
Rp8895
ag1
(g2
g3
Vlandau
p8896
tp8897
Rp8898
ag1
(g2
g3
Vdistributed-apps
p8899
tp8900
Rp8901
ag1
(g2
g3
Vsquare-stands
p8902
tp8903
Rp8904
ag1
(g2
g3
Vsouthwick
p8905
tp8906
Rp8907
ag1
(g2
g3
Vtemasek-poly
p8908
tp8909
Rp8910
ag1
(g2
g3
Vshtondenko
p8911
tp8912
Rp8913
ag1
(g2
g3
Vrepublican
p8914
tp8915
Rp8916
ag1
(g2
g3
Vus-congress
p8917
tp8918
Rp8919
ag1
(g2
g3
Vbollywood
p8920
tp8921
Rp8922
ag1
(g2
g3
Vblown-up
p8923
tp8924
Rp8925
ag1
(g2
g3
Vok-glass
p8926
tp8927
Rp8928
ag1
(g2
g3
Vuniversity
p8929
tp8930
Rp8931
ag1
(g2
g3
Vlos-angeles-county-metropolitan-transportation-authority
p8932
tp8933
Rp8934
ag1
(g2
g3
Vvanderbilts
p8935
tp8936
Rp8937
ag1
(g2
g3
Vriot-games
p8938
tp8939
Rp8940
ag1
(g2
g3
Vtruth
p8941
tp8942
Rp8943
ag1
(g2
g3
Vanouk
p8944
tp8945
Rp8946
ag1
(g2
g3
Viron-man
p8947
tp8948
Rp8949
ag1
(g2
g3
Vjane-buchanan
p8950
tp8951
Rp8952
ag1
(g2
g3
Vroberto-cavalli
p8953
tp8954
Rp8955
ag1
(g2
g3
Vnaldens
p8956
tp8957
Rp8958
ag1
(g2
g3
Vsand-hill
p8959
tp8960
Rp8961
ag1
(g2
g3
Vsteve-jobs
p8962
tp8963
Rp8964
ag1
(g2
g3
Vjurong-birdpark
p8965
tp8966
Rp8967
ag1
(g2
g3
Vclinical-oncology
p8968
tp8969
Rp8970
ag1
(g2
g3
Vglobe
p8971
tp8972
Rp8973
ag1
(g2
g3
Vmaker-studios
p8974
tp8975
Rp8976
ag1
(g2
g3
Vjenny-haeg
p8977
tp8978
Rp8979
ag1
(g2
g3
Vbluetooth
p8980
tp8981
Rp8982
ag1
(g2
g3
Vzimplistic-pte
p8983
tp8984
Rp8985
ag1
(g2
g3
Vsociety
p8986
tp8987
Rp8988
ag1
(g2
g3
Vbooks
p8989
tp8990
Rp8991
ag1
(g2
g3
Vvibers
p8992
tp8993
Rp8994
ag1
(g2
g3
Vmanju-bhatia
p8995
tp8996
Rp8997
ag1
(g2
g3
Vagriculture
p8998
tp8999
Rp9000
ag1
(g2
g3
Vrussia-the-united-states
p9001
tp9002
Rp9003
ag1
(g2
g3
Vshannon
p9004
tp9005
Rp9006
ag1
(g2
g3
Vedward-frenkel
p9007
tp9008
Rp9009
ag1
(g2
g3
Vmitt-romney
p9010
tp9011
Rp9012
ag1
(g2
g3
Vcrab-man-mike
p9013
tp9014
Rp9015
ag1
(g2
g3
Vgoldman-sachs-technology
p9016
tp9017
Rp9018
ag1
(g2
g3
Vmichelle-richardson
p9019
tp9020
Rp9021
ag1
(g2
g3
Vair-force
p9022
tp9023
Rp9024
ag1
(g2
g3
Vneurological-disorders
p9025
tp9026
Rp9027
ag1
(g2
g3
Vpacific-ocean
p9028
tp9029
Rp9030
ag1
(g2
g3
Vmayer-brown
p9031
tp9032
Rp9033
ag1
(g2
g3
Vmichael-nutter
p9034
tp9035
Rp9036
ag1
(g2
g3
Vadsubtract
p9037
tp9038
Rp9039
ag1
(g2
g3
Vsouth-florida
p9040
tp9041
Rp9042
ag1
(g2
g3
Vpacific-northwest
p9043
tp9044
Rp9045
ag1
(g2
g3
Vliam-scheff
p9046
tp9047
Rp9048
ag1
(g2
g3
Vpennapps
p9049
tp9050
Rp9051
ag1
(g2
g3
Vgarcetti
p9052
tp9053
Rp9054
ag1
(g2
g3
Vandreessen-horowitz
p9055
tp9056
Rp9057
ag1
(g2
g3
Vchinnaswamy
p9058
tp9059
Rp9060
ag1
(g2
g3
Vdavid-valadao
p9061
tp9062
Rp9063
ag1
(g2
g3
Vfrank
p9064
tp9065
Rp9066
ag1
(g2
g3
Vsan-jose
p9067
tp9068
Rp9069
ag1
(g2
g3
Vstar-trek
p9070
tp9071
Rp9072
ag1
(g2
g3
Vbabcock
p9073
tp9074
Rp9075
ag1
(g2
g3
Vmomkai
p9076
tp9077
Rp9078
ag1
(g2
g3
Vakshara
p9079
tp9080
Rp9081
ag1
(g2
g3
Vflappy-birds
p9082
tp9083
Rp9084
ag1
(g2
g3
Vvacations
p9085
tp9086
Rp9087
ag1
(g2
g3
Vcoatue-management
p9088
tp9089
Rp9090
ag1
(g2
g3
Vsuperstorm-sandy
p9091
tp9092
Rp9093
ag1
(g2
g3
Vshiv-sagar
p9094
tp9095
Rp9096
ag1
(g2
g3
Vdesign-through
p9097
tp9098
Rp9099
ag1
(g2
g3
Vmalik-shabazz
p9100
tp9101
Rp9102
ag1
(g2
g3
Vjessica-moss
p9103
tp9104
Rp9105
ag1
(g2
g3
Vwihby
p9106
tp9107
Rp9108
ag1
(g2
g3
Vugandan-parliament
p9109
tp9110
Rp9111
ag1
(g2
g3
Vjohn-kennedys
p9112
tp9113
Rp9114
ag1
(g2
g3
Vdavid
p9115
tp9116
Rp9117
ag1
(g2
g3
Vtime-has-come-for-fans-to-be-held
p9118
tp9119
Rp9120
ag1
(g2
g3
Vhindus
p9121
tp9122
Rp9123
ag1
(g2
g3
Vdevante-graham
p9124
tp9125
Rp9126
ag1
(g2
g3
Vbob-weeks
p9127
tp9128
Rp9129
ag1
(g2
g3
Vaffordable-care
p9130
tp9131
Rp9132
ag1
(g2
g3
Vdanny-glover
p9133
tp9134
Rp9135
ag1
(g2
g3
Vhartmut-esslinger
p9136
tp9137
Rp9138
ag1
(g2
g3
Vaustin
p9139
tp9140
Rp9141
ag1
(g2
g3
Vlancet
p9142
tp9143
Rp9144
ag1
(g2
g3
Vsouth
p9145
tp9146
Rp9147
ag1
(g2
g3
Vspace-taught-me-about-ingenuity
p9148
tp9149
Rp9150
ag1
(g2
g3
Vcyprien-gaillard
p9151
tp9152
Rp9153
ag1
(g2
g3
Vevans
p9154
tp9155
Rp9156
ag1
(g2
g3
Vangelo-henderson-facebook
p9157
tp9158
Rp9159
ag1
(g2
g3
Vblogger
p9160
tp9161
Rp9162
ag1
(g2
g3
Vpowerful
p9163
tp9164
Rp9165
ag1
(g2
g3
Vdehradun
p9166
tp9167
Rp9168
ag1
(g2
g3
Vdolce
p9169
tp9170
Rp9171
ag1
(g2
g3
Vcongressman-john-garamendi
p9172
tp9173
Rp9174
ag1
(g2
g3
Vstar-wars
p9175
tp9176
Rp9177
ag1
(g2
g3
Vtimes-group
p9178
tp9179
Rp9180
ag1
(g2
g3
Vjustin-bieber
p9181
tp9182
Rp9183
ag1
(g2
g3
Vcahiers-dart
p9184
tp9185
Rp9186
ag1
(g2
g3
Vbrendan-eich
p9187
tp9188
Rp9189
ag1
(g2
g3
Vchayefksy
p9190
tp9191
Rp9192
ag1
(g2
g3
Vcongresscritters
p9193
tp9194
Rp9195
ag1
(g2
g3
Vsrm-university
p9196
tp9197
Rp9198
ag1
(g2
g3
Vritholtz
p9199
tp9200
Rp9201
ag1
(g2
g3
Vmyspace
p9202
tp9203
Rp9204
ag1
(g2
g3
Vyale-law
p9205
tp9206
Rp9207
ag1
(g2
g3
Vsystem
p9208
tp9209
Rp9210
ag1
(g2
g3
Vquonwarrene
p9211
tp9212
Rp9213
ag1
(g2
g3
Vvishnu
p9214
tp9215
Rp9216
ag1
(g2
g3
Vbilly-crystal
p9217
tp9218
Rp9219
ag1
(g2
g3
Vtsr-subramaniam
p9220
tp9221
Rp9222
ag1
(g2
g3
Vbranding
p9223
tp9224
Rp9225
ag1
(g2
g3
Vnorton
p9226
tp9227
Rp9228
ag1
(g2
g3
Vdemocratic-congressional-campaign-committee
p9229
tp9230
Rp9231
ag1
(g2
g3
Vbenghazi
p9232
tp9233
Rp9234
ag1
(g2
g3
Vknowledge-matters
p9235
tp9236
Rp9237
ag1
(g2
g3
Vtidbit
p9238
tp9239
Rp9240
ag1
(g2
g3
Vshell
p9241
tp9242
Rp9243
ag1
(g2
g3
Vbard-college
p9244
tp9245
Rp9246
ag1
(g2
g3
Vmechanical-turk
p9247
tp9248
Rp9249
ag1
(g2
g3
Vnegro
p9250
tp9251
Rp9252
ag1
(g2
g3
Vwenda-harris-millard
p9253
tp9254
Rp9255
ag1
(g2
g3
Venvironmental
p9256
tp9257
Rp9258
ag1
(g2
g3
Varyan
p9259
tp9260
Rp9261
ag1
(g2
g3
Vbreanne-thomas
p9262
tp9263
Rp9264
ag1
(g2
g3
Vkern-family-foundation
p9265
tp9266
Rp9267
ag1
(g2
g3
Vmetacoin
p9268
tp9269
Rp9270
ag1
(g2
g3
Vsan-fernando
p9271
tp9272
Rp9273
ag1
(g2
g3
Vsteel
p9274
tp9275
Rp9276
ag1
(g2
g3
Vauditor-general
p9277
tp9278
Rp9279
ag1
(g2
g3
Vmarrakesh
p9280
tp9281
Rp9282
ag1
(g2
g3
Vakamais-state
p9283
tp9284
Rp9285
ag1
(g2
g3
Vsan-franciscan
p9286
tp9287
Rp9288
ag1
(g2
g3
Vninth-circuit
p9289
tp9290
Rp9291
ag1
(g2
g3
Vla-guardia
p9292
tp9293
Rp9294
ag1
(g2
g3
Vmax-franz
p9295
tp9296
Rp9297
ag1
(g2
g3
Vsubmitted
p9298
tp9299
Rp9300
ag1
(g2
g3
Vhiroshi-mikitani
p9301
tp9302
Rp9303
ag1
(g2
g3
Vroberts
p9304
tp9305
Rp9306
ag1
(g2
g3
Vcards
p9307
tp9308
Rp9309
ag1
(g2
g3
Vsweden
p9310
tp9311
Rp9312
ag1
(g2
g3
Vindian-dalit-hindus
p9313
tp9314
Rp9315
ag1
(g2
g3
Vnew-york-fed
p9316
tp9317
Rp9318
ag1
(g2
g3
Vbitshares
p9319
tp9320
Rp9321
ag1
(g2
g3
Vjoy-goodwin
p9322
tp9323
Rp9324
ag1
(g2
g3
Vporsche-boxster
p9325
tp9326
Rp9327
ag1
(g2
g3
Vrobert-kraft
p9328
tp9329
Rp9330
ag1
(g2
g3
Vtahoe
p9331
tp9332
Rp9333
ag1
(g2
g3
Vjulian
p9334
tp9335
Rp9336
ag1
(g2
g3
Vdrug-administration
p9337
tp9338
Rp9339
ag1
(g2
g3
Vpartnership
p9340
tp9341
Rp9342
ag1
(g2
g3
Vmad-street-den
p9343
tp9344
Rp9345
ag1
(g2
g3
Vlayton
p9346
tp9347
Rp9348
ag1
(g2
g3
Vbrendan-nyhan
p9349
tp9350
Rp9351
ag1
(g2
g3
Vuganda
p9352
tp9353
Rp9354
ag1
(g2
g3
Vnippert
p9355
tp9356
Rp9357
ag1
(g2
g3
Vmanitoba
p9358
tp9359
Rp9360
ag1
(g2
g3
Vwes-anderson
p9361
tp9362
Rp9363
ag1
(g2
g3
Vmitch-trent
p9364
tp9365
Rp9366
ag1
(g2
g3
Vabsalom
p9367
tp9368
Rp9369
ag1
(g2
g3
Vcecil
p9370
tp9371
Rp9372
ag1
(g2
g3
Vbest-moments
p9373
tp9374
Rp9375
ag1
(g2
g3
Vjames-roberson
p9376
tp9377
Rp9378
ag1
(g2
g3
Vthank-god
p9379
tp9380
Rp9381
ag1
(g2
g3
Vgalston
p9382
tp9383
Rp9384
ag1
(g2
g3
Vbernard-arnault
p9385
tp9386
Rp9387
ag1
(g2
g3
Vamsterdam-avenue
p9388
tp9389
Rp9390
ag1
(g2
g3
Vjack-kerouac
p9391
tp9392
Rp9393
ag1
(g2
g3
Vrussians
p9394
tp9395
Rp9396
ag1
(g2
g3
Vdallas
p9397
tp9398
Rp9399
ag1
(g2
g3
Vsee-newt
p9400
tp9401
Rp9402
ag1
(g2
g3
Vtranscendent-man
p9403
tp9404
Rp9405
ag1
(g2
g3
Vwhole-foods
p9406
tp9407
Rp9408
ag1
(g2
g3
Vcleveland
p9409
tp9410
Rp9411
ag1
(g2
g3
Vchief
p9412
tp9413
Rp9414
ag1
(g2
g3
Vparks
p9415
tp9416
Rp9417
ag1
(g2
g3
Vjohn-ensign
p9418
tp9419
Rp9420
ag1
(g2
g3
Vbob-feldman
p9421
tp9422
Rp9423
ag1
(g2
g3
Vlatina
p9424
tp9425
Rp9426
ag1
(g2
g3
Vann-arbor
p9427
tp9428
Rp9429
ag1
(g2
g3
Vcapp-street
p9430
tp9431
Rp9432
ag1
(g2
g3
Vsylvias
p9433
tp9434
Rp9435
ag1
(g2
g3
Vboss-for
p9436
tp9437
Rp9438
ag1
(g2
g3
Vpatriot-coal
p9439
tp9440
Rp9441
ag1
(g2
g3
Vali-zeidan
p9442
tp9443
Rp9444
ag1
(g2
g3
Vmedicare-as-we-know-it
p9445
tp9446
Rp9447
ag1
(g2
g3
Vmcmorris-rodgers
p9448
tp9449
Rp9450
ag1
(g2
g3
Vkoolpuck
p9451
tp9452
Rp9453
ag1
(g2
g3
Vveronique
p9454
tp9455
Rp9456
ag1
(g2
g3
Vparenting
p9457
tp9458
Rp9459
ag1
(g2
g3
Vflipboard
p9460
tp9461
Rp9462
ag1
(g2
g3
Vmontana
p9463
tp9464
Rp9465
ag1
(g2
g3
Voracle
p9466
tp9467
Rp9468
ag1
(g2
g3
Veurocentric
p9469
tp9470
Rp9471
ag1
(g2
g3
Vxbox-live-arcade
p9472
tp9473
Rp9474
ag1
(g2
g3
Vaurangabad
p9475
tp9476
Rp9477
ag1
(g2
g3
Vdatenbrille-oculus-rift
p9478
tp9479
Rp9480
ag1
(g2
g3
Vfolgers
p9481
tp9482
Rp9483
ag1
(g2
g3
Vtop-sales-world
p9484
tp9485
Rp9486
ag1
(g2
g3
Vparisian
p9487
tp9488
Rp9489
ag1
(g2
g3
Vkiran-nadar-museum
p9490
tp9491
Rp9492
ag1
(g2
g3
Vfrederick
p9493
tp9494
Rp9495
ag1
(g2
g3
Vfranciss
p9496
tp9497
Rp9498
ag1
(g2
g3
Vjody-glidden
p9499
tp9500
Rp9501
ag1
(g2
g3
Vprof-jeff-long
p9502
tp9503
Rp9504
ag1
(g2
g3
Vrightventures
p9505
tp9506
Rp9507
ag1
(g2
g3
Vmaoist
p9508
tp9509
Rp9510
ag1
(g2
g3
Vnorth
p9511
tp9512
Rp9513
ag1
(g2
g3
Vnormally
p9514
tp9515
Rp9516
ag1
(g2
g3
Vstephanie-schriock
p9517
tp9518
Rp9519
ag1
(g2
g3
Vrecess
p9520
tp9521
Rp9522
ag1
(g2
g3
Vthought-leaders
p9523
tp9524
Rp9525
ag1
(g2
g3
Vwere-alone-now
p9526
tp9527
Rp9528
ag1
(g2
g3
Vwikipedia
p9529
tp9530
Rp9531
ag1
(g2
g3
Vlos-angeles-times
p9532
tp9533
Rp9534
ag1
(g2
g3
Vsutley
p9535
tp9536
Rp9537
ag1
(g2
g3
Vingress
p9538
tp9539
Rp9540
ag1
(g2
g3
Vgreenorder
p9541
tp9542
Rp9543
ag1
(g2
g3
Vsavaari
p9544
tp9545
Rp9546
ag1
(g2
g3
Vstudio-dott
p9547
tp9548
Rp9549
ag1
(g2
g3
Vdemocrats
p9550
tp9551
Rp9552
ag1
(g2
g3
Vhomeland-security
p9553
tp9554
Rp9555
ag1
(g2
g3
Veconomist
p9556
tp9557
Rp9558
ag1
(g2
g3
Vdesigners-read
p9559
tp9560
Rp9561
ag1
(g2
g3
Vmumbai
p9562
tp9563
Rp9564
ag1
(g2
g3
Vmadman
p9565
tp9566
Rp9567
ag1
(g2
g3
Vjohn-wilker
p9568
tp9569
Rp9570
ag1
(g2
g3
Veducation-supreme-court
p9571
tp9572
Rp9573
ag1
(g2
g3
Vbases
p9574
tp9575
Rp9576
ag1
(g2
g3
Vkavita-kaushik
p9577
tp9578
Rp9579
ag1
(g2
g3
Vwright-brothers
p9580
tp9581
Rp9582
ag1
(g2
g3
Vlatinos
p9583
tp9584
Rp9585
ag1
(g2
g3
Vjacqueline
p9586
tp9587
Rp9588
ag1
(g2
g3
Vmulvihill
p9589
tp9590
Rp9591
ag1
(g2
g3
Vseventh-design-triennial
p9592
tp9593
Rp9594
ag1
(g2
g3
Vguy-kawasakis
p9595
tp9596
Rp9597
ag1
(g2
g3
Vmichigan
p9598
tp9599
Rp9600
ag1
(g2
g3
Vgoodluck-jonathan
p9601
tp9602
Rp9603
ag1
(g2
g3
Vgreat-american
p9604
tp9605
Rp9606
ag1
(g2
g3
Vnew-england-journal
p9607
tp9608
Rp9609
ag1
(g2
g3
Vnew-york
p9610
tp9611
Rp9612
ag1
(g2
g3
Vblack-sea
p9613
tp9614
Rp9615
ag1
(g2
g3
Veuro-american
p9616
tp9617
Rp9618
ag1
(g2
g3
Vkochi
p9619
tp9620
Rp9621
ag1
(g2
g3
Vtwilio
p9622
tp9623
Rp9624
ag1
(g2
g3
Vitzkoff
p9625
tp9626
Rp9627
ag1
(g2
g3
Vwework-soho
p9628
tp9629
Rp9630
ag1
(g2
g3
Vvrij-nederland
p9631
tp9632
Rp9633
ag1
(g2
g3
Vthreepenny
p9634
tp9635
Rp9636
ag1
(g2
g3
Vhelion
p9637
tp9638
Rp9639
ag1
(g2
g3
Vhomosexuals
p9640
tp9641
Rp9642
ag1
(g2
g3
Vintern-nation
p9643
tp9644
Rp9645
ag1
(g2
g3
Vmatjaz
p9646
tp9647
Rp9648
ag1
(g2
g3
Vnorthern-cheyenne-tribe
p9649
tp9650
Rp9651
ag1
(g2
g3
Vmaria
p9652
tp9653
Rp9654
ag1
(g2
g3
Vrsvps
p9655
tp9656
Rp9657
ag1
(g2
g3
Vstamper
p9658
tp9659
Rp9660
ag1
(g2
g3
Vcollin-ivy
p9661
tp9662
Rp9663
ag1
(g2
g3
Vconficker
p9664
tp9665
Rp9666
ag1
(g2
g3
Vgerard-depardieu
p9667
tp9668
Rp9669
ag1
(g2
g3
Vthomas-jefferson
p9670
tp9671
Rp9672
ag1
(g2
g3
Vsuper-bowl-commercials
p9673
tp9674
Rp9675
ag1
(g2
g3
Vstapleton
p9676
tp9677
Rp9678
ag1
(g2
g3
Veurekalert
p9679
tp9680
Rp9681
ag1
(g2
g3
Vcreatordong-nguyen
p9682
tp9683
Rp9684
ag1
(g2
g3
Vligety
p9685
tp9686
Rp9687
ag1
(g2
g3
Vcomputer
p9688
tp9689
Rp9690
ag1
(g2
g3
Vpowder
p9691
tp9692
Rp9693
ag1
(g2
g3
Vgreece
p9694
tp9695
Rp9696
ag1
(g2
g3
Vgmail
p9697
tp9698
Rp9699
ag1
(g2
g3
Vfreddy
p9700
tp9701
Rp9702
ag1
(g2
g3
Vmckenna-schmidt
p9703
tp9704
Rp9705
ag1
(g2
g3
Vnuclear
p9706
tp9707
Rp9708
ag1
(g2
g3
Vchris-locke
p9709
tp9710
Rp9711
ag1
(g2
g3
Vgartners
p9712
tp9713
Rp9714
ag1
(g2
g3
Vgenius
p9715
tp9716
Rp9717
ag1
(g2
g3
Vstate
p9718
tp9719
Rp9720
ag1
(g2
g3
Votis-redding
p9721
tp9722
Rp9723
ag1
(g2
g3
Vebola
p9724
tp9725
Rp9726
ag1
(g2
g3
Vneither
p9727
tp9728
Rp9729
ag1
(g2
g3
Vflickr
p9730
tp9731
Rp9732
ag1
(g2
g3
Vnorth-america
p9733
tp9734
Rp9735
ag1
(g2
g3
Vchina-china
p9736
tp9737
Rp9738
ag1
(g2
g3
Vstern
p9739
tp9740
Rp9741
ag1
(g2
g3
Vtaylor-lorenz
p9742
tp9743
Rp9744
ag1
(g2
g3
Vryan-grim
p9745
tp9746
Rp9747
ag1
(g2
g3
Vraytheons
p9748
tp9749
Rp9750
ag1
(g2
g3
Vhackcon
p9751
tp9752
Rp9753
ag1
(g2
g3
Vamerican-customer-satisfaction
p9754
tp9755
Rp9756
ag1
(g2
g3
Vvince-vaughn
p9757
tp9758
Rp9759
ag1
(g2
g3
Vtexan
p9760
tp9761
Rp9762
ag1
(g2
g3
Vlong-island
p9763
tp9764
Rp9765
ag1
(g2
g3
Vrugrats
p9766
tp9767
Rp9768
ag1
(g2
g3
Vnetflixs
p9769
tp9770
Rp9771
ag1
(g2
g3
Vselena
p9772
tp9773
Rp9774
ag1
(g2
g3
Vasia-leaders
p9775
tp9776
Rp9777
ag1
(g2
g3
Vcrunchweek
p9778
tp9779
Rp9780
ag1
(g2
g3
Vmarty
p9781
tp9782
Rp9783
ag1
(g2
g3
Vnational-ignition-facility
p9784
tp9785
Rp9786
ag1
(g2
g3
Vdefense
p9787
tp9788
Rp9789
ag1
(g2
g3
Vwilbur
p9790
tp9791
Rp9792
ag1
(g2
g3
Vmcafee
p9793
tp9794
Rp9795
ag1
(g2
g3
Vvatsa
p9796
tp9797
Rp9798
ag1
(g2
g3
Vsamaritan
p9799
tp9800
Rp9801
ag1
(g2
g3
Vannual-product-pitch
p9802
tp9803
Rp9804
ag1
(g2
g3
Vamerican-meteorological-society
p9805
tp9806
Rp9807
ag1
(g2
g3
Vgreg-kidd
p9808
tp9809
Rp9810
ag1
(g2
g3
Vsenate-conservatives
p9811
tp9812
Rp9813
ag1
(g2
g3
Vnick-troiano
p9814
tp9815
Rp9816
ag1
(g2
g3
Vthinkglory-india-solutions-pvt-ltd-mobile-developer
p9817
tp9818
Rp9819
ag1
(g2
g3
Vimbruglias
p9820
tp9821
Rp9822
ag1
(g2
g3
Verma-williams
p9823
tp9824
Rp9825
ag1
(g2
g3
Vtennessee-republican-marsha
p9826
tp9827
Rp9828
ag1
(g2
g3
Vmagic-school-bus
p9829
tp9830
Rp9831
ag1
(g2
g3
Veletha
p9832
tp9833
Rp9834
ag1
(g2
g3
Vfbfund
p9835
tp9836
Rp9837
ag1
(g2
g3
Vbiotech-legacy
p9838
tp9839
Rp9840
ag1
(g2
g3
Vmalcolm
p9841
tp9842
Rp9843
ag1
(g2
g3
Vgeorge-westinghouse-high-school
p9844
tp9845
Rp9846
ag1
(g2
g3
Vbronson
p9847
tp9848
Rp9849
ag1
(g2
g3
Vpurna
p9850
tp9851
Rp9852
ag1
(g2
g3
Vamerican-bar-association
p9853
tp9854
Rp9855
ag1
(g2
g3
Vwest-high
p9856
tp9857
Rp9858
ag1
(g2
g3
Vpariser
p9859
tp9860
Rp9861
ag1
(g2
g3
Vwilnis
p9862
tp9863
Rp9864
ag1
(g2
g3
Vfar-rockaway
p9865
tp9866
Rp9867
ag1
(g2
g3
Vfukushima
p9868
tp9869
Rp9870
ag1
(g2
g3
Vkings
p9871
tp9872
Rp9873
ag1
(g2
g3
Vmichael-grunwald
p9874
tp9875
Rp9876
ag1
(g2
g3
Vlabor
p9877
tp9878
Rp9879
ag1
(g2
g3
Vvolkswagen-chattanooga
p9880
tp9881
Rp9882
ag1
(g2
g3
Vambani
p9883
tp9884
Rp9885
ag1
(g2
g3
Vhonoring-alexander-hamilton
p9886
tp9887
Rp9888
ag1
(g2
g3
Vmatt-killingsworth
p9889
tp9890
Rp9891
ag1
(g2
g3
Vbanks-research
p9892
tp9893
Rp9894
ag1
(g2
g3
Vmexican-revolution
p9895
tp9896
Rp9897
ag1
(g2
g3
Vmichael-sams
p9898
tp9899
Rp9900
ag1
(g2
g3
Vfuelband-artist-csar-baldaccini
p9901
tp9902
Rp9903
ag1
(g2
g3
Vparis-blues
p9904
tp9905
Rp9906
ag1
(g2
g3
Vhow-marijuana
p9907
tp9908
Rp9909
ag1
(g2
g3
Vinternational-research-institute
p9910
tp9911
Rp9912
ag1
(g2
g3
Vchief-economist
p9913
tp9914
Rp9915
ag1
(g2
g3
Vbreakfast-club
p9916
tp9917
Rp9918
ag1
(g2
g3
Vmaryland
p9919
tp9920
Rp9921
ag1
(g2
g3
Vbronze-face
p9922
tp9923
Rp9924
ag1
(g2
g3
Vjurvetson
p9925
tp9926
Rp9927
ag1
(g2
g3
Vlouisiana
p9928
tp9929
Rp9930
ag1
(g2
g3
Vnews-talk
p9931
tp9932
Rp9933
ag1
(g2
g3
Vlillehammer
p9934
tp9935
Rp9936
ag1
(g2
g3
Vdiversity
p9937
tp9938
Rp9939
ag1
(g2
g3
Vleave-deficits
p9940
tp9941
Rp9942
ag1
(g2
g3
Vsouth-african-airways
p9943
tp9944
Rp9945
ag1
(g2
g3
Vpostanschriften
p9946
tp9947
Rp9948
ag1
(g2
g3
Vgautam-john
p9949
tp9950
Rp9951
ag1
(g2
g3
Vtorsten-slok
p9952
tp9953
Rp9954
ag1
(g2
g3
Vjames-vaughan
p9955
tp9956
Rp9957
ag1
(g2
g3
Vmichele-bachmann
p9958
tp9959
Rp9960
ag1
(g2
g3
Vnorth-american-leaders-summit
p9961
tp9962
Rp9963
ag1
(g2
g3
Vhamburg
p9964
tp9965
Rp9966
ag1
(g2
g3
Vatlanta
p9967
tp9968
Rp9969
ag1
(g2
g3
Vmatt-bevin
p9970
tp9971
Rp9972
ag1
(g2
g3
Vnapoleon
p9973
tp9974
Rp9975
ag1
(g2
g3
Viit-kharagpur
p9976
tp9977
Rp9978
ag1
(g2
g3
Vkeen-student-outcomes
p9979
tp9980
Rp9981
ag1
(g2
g3
Vlevee-breaks
p9982
tp9983
Rp9984
ag1
(g2
g3
Vbritain
p9985
tp9986
Rp9987
ag1
(g2
g3
Vduggan
p9988
tp9989
Rp9990
ag1
(g2
g3
Vbookends
p9991
tp9992
Rp9993
ag1
(g2
g3
Vgucci
p9994
tp9995
Rp9996
ag1
(g2
g3
Vprofessor-emeritus
p9997
tp9998
Rp9999
ag1
(g2
g3
Vjoseph-xu
p10000
tp10001
Rp10002
ag1
(g2
g3
Vlisbeth
p10003
tp10004
Rp10005
ag1
(g2
g3
Vrichi
p10006
tp10007
Rp10008
ag1
(g2
g3
Vbad-your-odds
p10009
tp10010
Rp10011
ag1
(g2
g3
Vus-court
p10012
tp10013
Rp10014
ag1
(g2
g3
Vyokohama
p10015
tp10016
Rp10017
ag1
(g2
g3
Vschwartz
p10018
tp10019
Rp10020
ag1
(g2
g3
Vcactus-donigerus
p10021
tp10022
Rp10023
ag1
(g2
g3
Vindian-darshana
p10024
tp10025
Rp10026
ag1
(g2
g3
Vamerican-hero
p10027
tp10028
Rp10029
ag1
(g2
g3
Vlinkedin
p10030
tp10031
Rp10032
ag1
(g2
g3
Vcarlos-torres
p10033
tp10034
Rp10035
ag1
(g2
g3
Vkinvey
p10036
tp10037
Rp10038
ag1
(g2
g3
Vbackend-tech-lead
p10039
tp10040
Rp10041
ag1
(g2
g3
Vjohn-kerry
p10042
tp10043
Rp10044
ag1
(g2
g3
Vhyland
p10045
tp10046
Rp10047
ag1
(g2
g3
Valexei-ivanovich
p10048
tp10049
Rp10050
ag1
(g2
g3
Vlyndsey-rocca
p10051
tp10052
Rp10053
ag1
(g2
g3
Vrohini
p10054
tp10055
Rp10056
ag1
(g2
g3
Vrichard-kern
p10057
tp10058
Rp10059
ag1
(g2
g3
Vharvard-school
p10060
tp10061
Rp10062
ag1
(g2
g3
Vhouse-republican
p10063
tp10064
Rp10065
ag1
(g2
g3
Vwework
p10066
tp10067
Rp10068
ag1
(g2
g3
Vseoul
p10069
tp10070
Rp10071
ag1
(g2
g3
Vjohnny-ford
p10072
tp10073
Rp10074
ag1
(g2
g3
Vleena-rao
p10075
tp10076
Rp10077
ag1
(g2
g3
Vbuddhism
p10078
tp10079
Rp10080
ag1
(g2
g3
Vandreas-antonopoulos
p10081
tp10082
Rp10083
ag1
(g2
g3
Vgibbs
p10084
tp10085
Rp10086
ag1
(g2
g3
Vcentral-asian-turks
p10087
tp10088
Rp10089
ag1
(g2
g3
Vandroid
p10090
tp10091
Rp10092
ag1
(g2
g3
Vcalifornia-air-national
p10093
tp10094
Rp10095
ag1
(g2
g3
Vchymowitz1
p10096
tp10097
Rp10098
ag1
(g2
g3
Vfashion-intern-problems
p10099
tp10100
Rp10101
ag1
(g2
g3
Vkazachy-brod
p10102
tp10103
Rp10104
ag1
(g2
g3
Vpromo
p10105
tp10106
Rp10107
ag1
(g2
g3
Vsamantha
p10108
tp10109
Rp10110
ag1
(g2
g3
Vhenry-ford
p10111
tp10112
Rp10113
ag1
(g2
g3
Veddan-katz
p10114
tp10115
Rp10116
ag1
(g2
g3
Vbob-butler
p10117
tp10118
Rp10119
ag1
(g2
g3
Vpatty-schachtner
p10120
tp10121
Rp10122
ag1
(g2
g3
Vmit-professor
p10123
tp10124
Rp10125
ag1
(g2
g3
Vpeter-stackpole
p10126
tp10127
Rp10128
ag1
(g2
g3
Vnational-association
p10129
tp10130
Rp10131
ag1
(g2
g3
Vchristine-chubbuck
p10132
tp10133
Rp10134
ag1
(g2
g3
Vautomotive-research
p10135
tp10136
Rp10137
ag1
(g2
g3
Vafghan
p10138
tp10139
Rp10140
ag1
(g2
g3
Vpowershot-g1
p10141
tp10142
Rp10143
ag1
(g2
g3
Valamaze
p10144
tp10145
Rp10146
ag1
(g2
g3
Vlego-ghostsbusters
p10147
tp10148
Rp10149
ag1
(g2
g3
Vchattanooga
p10150
tp10151
Rp10152
ag1
(g2
g3
Vcenter
p10153
tp10154
Rp10155
ag1
(g2
g3
Vmaxine-jones
p10156
tp10157
Rp10158
ag1
(g2
g3
Vjan-laco
p10159
tp10160
Rp10161
ag1
(g2
g3
Vshrimadbhagvatam
p10162
tp10163
Rp10164
ag1
(g2
g3
Vindonesia
p10165
tp10166
Rp10167
ag1
(g2
g3
Vsoviet-union
p10168
tp10169
Rp10170
ag1
(g2
g3
Vgang-of-six
p10171
tp10172
Rp10173
ag1
(g2
g3
Vakhshtyr
p10174
tp10175
Rp10176
ag1
(g2
g3
Vflappy-bird
p10177
tp10178
Rp10179
ag1
(g2
g3
Vthought
p10180
tp10181
Rp10182
ag1
(g2
g3
Vhacker-news
p10183
tp10184
Rp10185
ag1
(g2
g3
Vduxbury-high-school
p10186
tp10187
Rp10188
ag1
(g2
g3
Vzervos
p10189
tp10190
Rp10191
ag1
(g2
g3
Vbaltimore
p10192
tp10193
Rp10194
ag1
(g2
g3
Vdallas-sportscaster-tackles
p10195
tp10196
Rp10197
ag1
(g2
g3
Venglish
p10198
tp10199
Rp10200
ag1
(g2
g3
Vtierra-warren
p10201
tp10202
Rp10203
ag1
(g2
g3
Vtaliban
p10204
tp10205
Rp10206
ag1
(g2
g3
Vsan-francisco-museum
p10207
tp10208
Rp10209
ag1
(g2
g3
Vsnake
p10210
tp10211
Rp10212
ag1
(g2
g3
Vcupertino
p10213
tp10214
Rp10215
ag1
(g2
g3
Vsenegal
p10216
tp10217
Rp10218
ag1
(g2
g3
Vcashew
p10219
tp10220
Rp10221
ag1
(g2
g3
Vcarrie
p10222
tp10223
Rp10224
ag1
(g2
g3
Vnational-law-school
p10225
tp10226
Rp10227
ag1
(g2
g3
Vsan-franciscans
p10228
tp10229
Rp10230
ag1
(g2
g3
Vpalliative-medicine
p10231
tp10232
Rp10233
ag1
(g2
g3
Valexis-ohanian
p10234
tp10235
Rp10236
ag1
(g2
g3
Vreliance-industries
p10237
tp10238
Rp10239
ag1
(g2
g3
Vhorizon
p10240
tp10241
Rp10242
ag1
(g2
g3
Vvolcanic
p10243
tp10244
Rp10245
ag1
(g2
g3
Vweill-cornell-medical-college
p10246
tp10247
Rp10248
ag1
(g2
g3
Vdamaja-you-cant
p10249
tp10250
Rp10251
ag1
(g2
g3
Vbob-king
p10252
tp10253
Rp10254
ag1
(g2
g3
Vswinomish
p10255
tp10256
Rp10257
ag1
(g2
g3
Vbuild-into-your-brain-image
p10258
tp10259
Rp10260
ag1
(g2
g3
Vpope-francis
p10261
tp10262
Rp10263
ag1
(g2
g3
Vmoretti
p10264
tp10265
Rp10266
ag1
(g2
g3
Vsave-privacy-danielle-steel
p10267
tp10268
Rp10269
ag1
(g2
g3
Vpeyton-craighill
p10270
tp10271
Rp10272
ag1
(g2
g3
Vupworthy
p10273
tp10274
Rp10275
ag1
(g2
g3
Vmichael-sam
p10276
tp10277
Rp10278
ag1
(g2
g3
Vfarah-siddiqui
p10279
tp10280
Rp10281
ag1
(g2
g3
Vsmith
p10282
tp10283
Rp10284
ag1
(g2
g3
Vjoseph-kinney
p10285
tp10286
Rp10287
ag1
(g2
g3
Vmcconnell
p10288
tp10289
Rp10290
ag1
(g2
g3
Vcoralville
p10291
tp10292
Rp10293
ag1
(g2
g3
Vdavid-firestone
p10294
tp10295
Rp10296
ag1
(g2
g3
Vkunden
p10297
tp10298
Rp10299
ag1
(g2
g3
Vforbes
p10300
tp10301
Rp10302
ag1
(g2
g3
Vsidney-mills
p10303
tp10304
Rp10305
ag1
(g2
g3
Vfall-river
p10306
tp10307
Rp10308
ag1
(g2
g3
Vsanskrit
p10309
tp10310
Rp10311
ag1
(g2
g3
Vjammu
p10312
tp10313
Rp10314
ag1
(g2
g3
Vas1500
p10315
tp10316
Rp10317
ag1
(g2
g3
Vgottehrer
p10318
tp10319
Rp10320
ag1
(g2
g3
Vfrancine-prose
p10321
tp10322
Rp10323
ag1
(g2
g3
Vdave-fontenot
p10324
tp10325
Rp10326
ag1
(g2
g3
Vnetflixs-reliability-architect
p10327
tp10328
Rp10329
ag1
(g2
g3
Vchancellor
p10330
tp10331
Rp10332
ag1
(g2
g3
Vkeith-teare
p10333
tp10334
Rp10335
ag1
(g2
g3
Vlithium-technologies
p10336
tp10337
Rp10338
ag1
(g2
g3
Vbrookline
p10339
tp10340
Rp10341
ag1
(g2
g3
Vsephora
p10342
tp10343
Rp10344
ag1
(g2
g3
Vhermit-crab
p10345
tp10346
Rp10347
ag1
(g2
g3
Vrain-down
p10348
tp10349
Rp10350
ag1
(g2
g3
Vgwen-ifill
p10351
tp10352
Rp10353
ag1
(g2
g3
Vroberta
p10354
tp10355
Rp10356
ag1
(g2
g3
Vnorth-lawndale
p10357
tp10358
Rp10359
ag1
(g2
g3
Vlincoln
p10360
tp10361
Rp10362
ag1
(g2
g3
Vcollectabillia
p10363
tp10364
Rp10365
ag1
(g2
g3
Vidiot-hero
p10366
tp10367
Rp10368
ag1
(g2
g3
Vlawson
p10369
tp10370
Rp10371
ag1
(g2
g3
Vgeorge-washington
p10372
tp10373
Rp10374
ag1
(g2
g3
Vlevi-strauss
p10375
tp10376
Rp10377
ag1
(g2
g3
Vamy-adams
p10378
tp10379
Rp10380
ag1
(g2
g3
Vmartin
p10381
tp10382
Rp10383
ag1
(g2
g3
Vbollywood-cinetalk
p10384
tp10385
Rp10386
ag1
(g2
g3
Vbiologically-inspired
p10387
tp10388
Rp10389
ag1
(g2
g3
Vsoviet
p10390
tp10391
Rp10392
ag1
(g2
g3
Vitalian
p10393
tp10394
Rp10395
ag1
(g2
g3
Vbrooks
p10396
tp10397
Rp10398
ag1
(g2
g3
Vbrian-jablonski
p10399
tp10400
Rp10401
ag1
(g2
g3
Vgillian
p10402
tp10403
Rp10404
ag1
(g2
g3
Vscott-higuera
p10405
tp10406
Rp10407
ag1
(g2
g3
Vdeutschland
p10408
tp10409
Rp10410
ag1
(g2
g3
Vtwitter
p10411
tp10412
Rp10413
ag1
(g2
g3
Vblack-swan
p10414
tp10415
Rp10416
ag1
(g2
g3
Veast-african
p10417
tp10418
Rp10419
ag1
(g2
g3
Vphotokina
p10420
tp10421
Rp10422
ag1
(g2
g3
Vtony-starks-iron-man
p10423
tp10424
Rp10425
ag1
(g2
g3
Vtumblr
p10426
tp10427
Rp10428
ag1
(g2
g3
Vmozambique
p10429
tp10430
Rp10431
ag1
(g2
g3
Vjyllands-park
p10432
tp10433
Rp10434
ag1
(g2
g3
Vemployment
p10435
tp10436
Rp10437
ag1
(g2
g3
Vjohn-guy
p10438
tp10439
Rp10440
ag1
(g2
g3
Vcalcutta-high-court
p10441
tp10442
Rp10443
ag1
(g2
g3
Vjonathan-chait
p10444
tp10445
Rp10446
ag1
(g2
g3
Vquidditch
p10447
tp10448
Rp10449
ag1
(g2
g3
Vturkmenistan
p10450
tp10451
Rp10452
ag1
(g2
g3
Vwoodcoins
p10453
tp10454
Rp10455
ag1
(g2
g3
Vpalencia
p10456
tp10457
Rp10458
ag1
(g2
g3
Velahe-izadi
p10459
tp10460
Rp10461
ag1
(g2
g3
Vwalters-art-museum
p10462
tp10463
Rp10464
ag1
(g2
g3
Vdesign-triennial
p10465
tp10466
Rp10467
ag1
(g2
g3
Vunited-states-congress
p10468
tp10469
Rp10470
ag1
(g2
g3
Vnew-york-city-video
p10471
tp10472
Rp10473
ag1
(g2
g3
Vviktor-frankl
p10474
tp10475
Rp10476
ag1
(g2
g3
Vouriel-ohayon
p10477
tp10478
Rp10479
ag1
(g2
g3
Vdev-and-design
p10480
tp10481
Rp10482
ag1
(g2
g3
Veiffel-tower
p10483
tp10484
Rp10485
ag1
(g2
g3
Vviral-videos
p10486
tp10487
Rp10488
ag1
(g2
g3
Vreal-world
p10489
tp10490
Rp10491
ag1
(g2
g3
Vkeshav
p10492
tp10493
Rp10494
ag1
(g2
g3
Vjanine-skorsky
p10495
tp10496
Rp10497
ag1
(g2
g3
Vlekhesh-dholakia
p10498
tp10499
Rp10500
ag1
(g2
g3
Vpuritanism
p10501
tp10502
Rp10503
ag1
(g2
g3
Vjulia-lee
p10504
tp10505
Rp10506
ag1
(g2
g3
Vfeldman
p10507
tp10508
Rp10509
ag1
(g2
g3
Vyou-will
p10510
tp10511
Rp10512
ag1
(g2
g3
Vpanel
p10513
tp10514
Rp10515
ag1
(g2
g3
Valexander-wang
p10516
tp10517
Rp10518
ag1
(g2
g3
Vlakhdar-brahimi
p10519
tp10520
Rp10521
ag1
(g2
g3
Vlifestyle
p10522
tp10523
Rp10524
ag1
(g2
g3
Vazusa-high-school
p10525
tp10526
Rp10527
ag1
(g2
g3
Vmuppet-treasure-island
p10528
tp10529
Rp10530
ag1
(g2
g3
Vreuters-protests
p10531
tp10532
Rp10533
ag1
(g2
g3
Vcampaign-legal-center
p10534
tp10535
Rp10536
ag1
(g2
g3
Vjimmy-choo
p10537
tp10538
Rp10539
ag1
(g2
g3
Vchrome
p10540
tp10541
Rp10542
ag1
(g2
g3
Vperks
p10543
tp10544
Rp10545
ag1
(g2
g3
Vhong-kong
p10546
tp10547
Rp10548
ag1
(g2
g3
Vvillanova-university-college
p10549
tp10550
Rp10551
ag1
(g2
g3
Vnorthwesterns
p10552
tp10553
Rp10554
ag1
(g2
g3
Vcommonwealthcare
p10555
tp10556
Rp10557
ag1
(g2
g3
Vinternational-criminal-court
p10558
tp10559
Rp10560
ag1
(g2
g3
Vsoftware
p10561
tp10562
Rp10563
ag1
(g2
g3
Vchuck-schumer
p10564
tp10565
Rp10566
ag1
(g2
g3
Vrepublican-shane-osborne
p10567
tp10568
Rp10569
ag1
(g2
g3
Vkessel
p10570
tp10571
Rp10572
ag1
(g2
g3
Vseason-one
p10573
tp10574
Rp10575
ag1
(g2
g3
Vheritage-foundation
p10576
tp10577
Rp10578
ag1
(g2
g3
Vjulian-jackson
p10579
tp10580
Rp10581
ag1
(g2
g3
Vpublic-health
p10582
tp10583
Rp10584
ag1
(g2
g3
Vcatherine
p10585
tp10586
Rp10587
ag1
(g2
g3
Vjohn-rodley
p10588
tp10589
Rp10590
ag1
(g2
g3
Vgillmor
p10591
tp10592
Rp10593
ag1
(g2
g3
Vweather
p10594
tp10595
Rp10596
ag1
(g2
g3
Vdavid-pelletier
p10597
tp10598
Rp10599
ag1
(g2
g3
Vdavid-brooks
p10600
tp10601
Rp10602
ag1
(g2
g3
Vamerican-apparel
p10603
tp10604
Rp10605
ag1
(g2
g3
Vdropbox
p10606
tp10607
Rp10608
ag1
(g2
g3
Vtouchid
p10609
tp10610
Rp10611
ag1
(g2
g3
Vvictorian-era
p10612
tp10613
Rp10614
ag1
(g2
g3
Vbombay
p10615
tp10616
Rp10617
ag1
(g2
g3
Vmichael-hiltzik
p10618
tp10619
Rp10620
ag1
(g2
g3
Vmississippi
p10621
tp10622
Rp10623
ag1
(g2
g3
Vmadrid
p10624
tp10625
Rp10626
ag1
(g2
g3
Vmuseum
p10627
tp10628
Rp10629
ag1
(g2
g3
Vandrew-wiles
p10630
tp10631
Rp10632
ag1
(g2
g3
Vnbc-universal
p10633
tp10634
Rp10635
ag1
(g2
g3
Vsheypuk
p10636
tp10637
Rp10638
ag1
(g2
g3
Vlebron-james
p10639
tp10640
Rp10641
ag1
(g2
g3
Vrich-earth
p10642
tp10643
Rp10644
ag1
(g2
g3
Vslovakia
p10645
tp10646
Rp10647
ag1
(g2
g3
Vchristians
p10648
tp10649
Rp10650
ag1
(g2
g3
Vrajeev-dhawan
p10651
tp10652
Rp10653
ag1
(g2
g3
Vfairfax-county-medical-examiner
p10654
tp10655
Rp10656
ag1
(g2
g3
Vyourstory
p10657
tp10658
Rp10659
ag1
(g2
g3
Vvenezuelan
p10660
tp10661
Rp10662
ag1
(g2
g3
Vmusevenis
p10663
tp10664
Rp10665
ag1
(g2
g3
Vwashington-dulles-international
p10666
tp10667
Rp10668
ag1
(g2
g3
Vblasio
p10669
tp10670
Rp10671
ag1
(g2
g3
Viraq-war
p10672
tp10673
Rp10674
ag1
(g2
g3
Vnazi-germany
p10675
tp10676
Rp10677
ag1
(g2
g3
Vsunny-sochi
p10678
tp10679
Rp10680
ag1
(g2
g3
Vtimess
p10681
tp10682
Rp10683
ag1
(g2
g3
Vjustin-werfel
p10684
tp10685
Rp10686
ag1
(g2
g3
Vtamil-nadu
p10687
tp10688
Rp10689
ag1
(g2
g3
Vaquanotes
p10690
tp10691
Rp10692
ag1
(g2
g3
Vbarack
p10693
tp10694
Rp10695
ag1
(g2
g3
Vapollo
p10696
tp10697
Rp10698
ag1
(g2
g3
Vmemphis
p10699
tp10700
Rp10701
ag1
(g2
g3
Vdeborah-hellinger
p10702
tp10703
Rp10704
ag1
(g2
g3
Vadolph-mongo
p10705
tp10706
Rp10707
ag1
(g2
g3
Vdavos
p10708
tp10709
Rp10710
ag1
(g2
g3
Vmorningstar
p10711
tp10712
Rp10713
ag1
(g2
g3
Vaccel-partners-india
p10714
tp10715
Rp10716
ag1
(g2
g3
Vwatercooler
p10717
tp10718
Rp10719
ag1
(g2
g3
Vnancy-clark
p10720
tp10721
Rp10722
ag1
(g2
g3
Vvolvo
p10723
tp10724
Rp10725
ag1
(g2
g3
Vmariel
p10726
tp10727
Rp10728
ag1
(g2
g3
Vrecord
p10729
tp10730
Rp10731
ag1
(g2
g3
Vdan-ariely
p10732
tp10733
Rp10734
ag1
(g2
g3
Vjohn-frankel
p10735
tp10736
Rp10737
ag1
(g2
g3
Varesco
p10738
tp10739
Rp10740
ag1
(g2
g3
Vhampton-roads
p10741
tp10742
Rp10743
ag1
(g2
g3
Vwalter
p10744
tp10745
Rp10746
ag1
(g2
g3
Vunderwood
p10747
tp10748
Rp10749
ag1
(g2
g3
Vjonathan-quick
p10750
tp10751
Rp10752
ag1
(g2
g3
Virish
p10753
tp10754
Rp10755
ag1
(g2
g3
Vstock-market-will-go-down
p10756
tp10757
Rp10758
ag1
(g2
g3
Vobama-white-house
p10759
tp10760
Rp10761
ag1
(g2
g3
Vwhisper
p10762
tp10763
Rp10764
ag1
(g2
g3
Vuniversal
p10765
tp10766
Rp10767
ag1
(g2
g3
Vnetappvoice
p10768
tp10769
Rp10770
ag1
(g2
g3
Vslowing
p10771
tp10772
Rp10773
ag1
(g2
g3
Vparsons
p10774
tp10775
Rp10776
ag1
(g2
g3
Vclayton-christensen
p10777
tp10778
Rp10779
ag1
(g2
g3
Vsilk-road
p10780
tp10781
Rp10782
ag1
(g2
g3
Vtelkomsel
p10783
tp10784
Rp10785
ag1
(g2
g3
Vjaipal
p10786
tp10787
Rp10788
ag1
(g2
g3
Vpussycat
p10789
tp10790
Rp10791
ag1
(g2
g3
Vrunaways
p10792
tp10793
Rp10794
ag1
(g2
g3
Vrenowned
p10795
tp10796
Rp10797
ag1
(g2
g3
Vevan-williams
p10798
tp10799
Rp10800
ag1
(g2
g3
Vdeadly
p10801
tp10802
Rp10803
ag1
(g2
g3
Vooga-labs
p10804
tp10805
Rp10806
ag1
(g2
g3
Vboston-bruins
p10807
tp10808
Rp10809
ag1
(g2
g3
Vnicole-hosp
p10810
tp10811
Rp10812
ag1
(g2
g3
Vmikitani
p10813
tp10814
Rp10815
ag1
(g2
g3
Vupdegrove
p10816
tp10817
Rp10818
ag1
(g2
g3
Vlobby-your-lover
p10819
tp10820
Rp10821
ag1
(g2
g3
Vdmitri-mendeleev
p10822
tp10823
Rp10824
ag1
(g2
g3
Vbranch
p10825
tp10826
Rp10827
ag1
(g2
g3
Vamanda-kessel
p10828
tp10829
Rp10830
ag1
(g2
g3
Vkerouac
p10831
tp10832
Rp10833
ag1
(g2
g3
Vdemo-app
p10834
tp10835
Rp10836
ag1
(g2
g3
Vjagadeesh-arunkumar
p10837
tp10838
Rp10839
ag1
(g2
g3
Vnotre-dame
p10840
tp10841
Rp10842
ag1
(g2
g3
Vnyc-game-forum
p10843
tp10844
Rp10845
ag1
(g2
g3
Vsocial-media-both
p10846
tp10847
Rp10848
ag1
(g2
g3
Vtime-warner-cable
p10849
tp10850
Rp10851
ag1
(g2
g3
Vcanadian-paralympic-committee
p10852
tp10853
Rp10854
ag1
(g2
g3
Veric-glatt
p10855
tp10856
Rp10857
ag1
(g2
g3
Vswann
p10858
tp10859
Rp10860
ag1
(g2
g3
Vcredit-suisse
p10861
tp10862
Rp10863
ag1
(g2
g3
Vnew-beta-way
p10864
tp10865
Rp10866
ag1
(g2
g3
Vphilippe-parreno
p10867
tp10868
Rp10869
ag1
(g2
g3
Vnintendo
p10870
tp10871
Rp10872
ag1
(g2
g3
Vavbyte
p10873
tp10874
Rp10875
ag1
(g2
g3
Vwall-street
p10876
tp10877
Rp10878
ag1
(g2
g3
Vunion
p10879
tp10880
Rp10881
ag1
(g2
g3
Vpatch-designer
p10882
tp10883
Rp10884
ag1
(g2
g3
Vmichael-snyder
p10885
tp10886
Rp10887
ag1
(g2
g3
Vsochi-olympics
p10888
tp10889
Rp10890
ag1
(g2
g3
Vbig-food
p10891
tp10892
Rp10893
ag1
(g2
g3
Vcdc-quarantine-stations
p10894
tp10895
Rp10896
ag1
(g2
g3
Vwetransfer
p10897
tp10898
Rp10899
ag1
(g2
g3
Vandr-berro
p10900
tp10901
Rp10902
ag1
(g2
g3
Vcraig-kanalley
p10903
tp10904
Rp10905
ag1
(g2
g3
Vjohn-hickenlooper
p10906
tp10907
Rp10908
ag1
(g2
g3
Vrichardson
p10909
tp10910
Rp10911
ag1
(g2
g3
Vfrankfurt
p10912
tp10913
Rp10914
ag1
(g2
g3
Vanne-babcock
p10915
tp10916
Rp10917
ag1
(g2
g3
Vsimpson
p10918
tp10919
Rp10920
ag1
(g2
g3
Vcorporate-anthropologist
p10921
tp10922
Rp10923
a.