(lp0
ccopy_reg
_reconstructor
p1
(cdjango.utils.safestring
SafeText
p2
c__builtin__
unicode
p3
Vbrazil
p4
tp5
Rp6
ag1
(g2
g3
Vmichael-bloomberg
p7
tp8
Rp9
ag1
(g2
g3
Vsachin-tendulkar
p10
tp11
Rp12
ag1
(g2
g3
Vbritish-columbia
p13
tp14
Rp15
ag1
(g2
g3
Vbloomberg
p16
tp17
Rp18
ag1
(g2
g3
Vphilippines
p19
tp20
Rp21
ag1
(g2
g3
Vbrett-jenks
p22
tp23
Rp24
ag1
(g2
g3
Vbloomberg-philanthropies
p25
tp26
Rp27
ag1
(g2
g3
Vrussian
p28
tp29
Rp30
ag1
(g2
g3
Voceana
p31
tp32
Rp33
ag1
(g2
g3
Vsoviet
p34
tp35
Rp36
ag1
(g2
g3
Vuniversity
p37
tp38
Rp39
ag1
(g2
g3
Vzakuski
p40
tp41
Rp42
aVcompany
p43
aVfacebook
p44
aVgoogle
p45
aVnew-york
p46
aVamerican
p47
aVtwitter
p48
aVindia
p49
aVunited-states
p50
aVservice
p51
aVwashington
p52
aVmicrosoft
p53
aVobama
p54
aVtechnology
p55
aVandroid
p56
aVapple
p57
aVuniversity
p58
aVapp
p59
aVplatform
p60
aVindian
p61
aVsan-francisco
p62
aVchina
p63
aVamerica
p64
aVsilicon-valley
p65
aVpeople
p66
aVrepublican
p67
aVgovernment
p68
aVcongress
p69
aVcalifornia
p70
aVnew-york-times
p71
aVrussia
p72
aVhouse
p73
aVsuper-bowl
p74
aViphone
p75
aVolympic
p76
aVmillion
p77
aVinformation
p78
aVnetwork
p79
aVnew-york-city
p80
aVyoutube
p81
aVbritish
p82
aVprogram
p83
aV20-years
p84
aVrussian
p85
aVproject
p86
aVinvestment
p87
aVlondon
p88
aVeurope
p89
aVamazon
p90
aVgame
p91
aVsoftware
p92
aVwhite-house
p93
aVwall-street
p94
aVenglish
p95
aVchinese
p96
aVlast-year
p97
aVpresident-obama
p98
aVsenate
p99
aVindustry
p100
aVeuropean
p101
aVfrench
p102
aVwall-street-journal
p103
aVemail
p104
aVdemocratic
p105
aV10-years
p106
aVyahoo
p107
aVlos-angeles
p108
aVunited
p109
aVpresident
p110
aVjapan
p111
aVbarack-obama
p112
aVblog-post
p113
aVsocial-media
p114
aVtexas
p115
aVsecurity
p116
aVcanada
p117
aVvice-president
p118
aVchicago
p119
aVentrepreneur
p120
aVwinter-olympics
p121
aVrevenue
p122
aVbuilding
p123
aVmobile
p124
aVonline
p125
aVnetflix
p126
aVmarketing
p127
aVfrance
p128
aVjapanese
p129
aVgerman
p130
aVbusiness-model
p131
aVresearch
p132
aVofficial
p133
aVapplication
p134
aVstudent
p135
aVafrica
p136
aVsamsung
p137
aVaustralia
p138
aVceo
p139
aVwomen
p140
aVapp-store
p141
aVgermany
p142
aVmusic
p143
aVteam
p144
aVboston
p145
aVemail-address
p146
aVchildren
p147
aVsupreme-court
p148
aVflorida
p149
aVmanhattan
p150
aVcanadian
p151
aVstrategy
p152
aVgeorge
p153
aVus-world
p154
aVmumbai
p155
aVorganization
p156
aVnew-jersey
p157
aVolympics
p158
aVdelhi
p159
aVwashington-post
p160
aVbrazil
p161
aVcomputer
p162
aVlast-week
p163
aVlove
p164
aVmiddle-east
p165
aVpresident-barack-obama
p166
aVdepartment
p167
aVbangalore
p168
aVnorth
p169
aVvirginia
p170
aVuser-base
p171
aVfast-company
p172
aVdemocrat
p173
aVhealth-care
p174
aVsocial
p175
aVseries
p176
aVaffordable-care-act
p177
aVcontrol
p178
aVengland
p179
aVseed-funding
p180
aVmichael
p181
aVunion
p182
aVharvard
p183
aVdavid
p184
aVwindows
p185
aVbottom-line
p186
aVindonesia
p187
aVscience
p188
aVseattle
p189
aVdesign
p190
aVexecutive
p191
aVmedia
p192
aVnorth-america
p193
aV10-percent
p194
aVbloomberg
p195
aV50-percent
p196
aVarticle
p197
aVassociated-press
p198
aVsingapore
p199
aVmanager
p200
aVgames
p201
aVmanagement
p202
aVnorth-carolina
p203
aVuser-experience
p204
aVvideo
p205
aVexecutive-director
p206
aVdirector
p207
aVearth
p208
aVculture
p209
aVitunes
p210
aVjavascript
p211
aVgoogle-play
p212
aVatlanta
p213
aVcapital-markets
p214
aVwestern
p215
aVcomcast
p216
aV20-percent
p217
aVobama-administration
p218
aVmichigan
p219
aVtech-companies
p220
aVphilip-seymour-hoffman
p221
aVpress-release
p222
aV30-years
p223
aVasian
p224
aVadvertising
p225
aVconference
p226
aVsuper
p227
aVwall-st
p228
aVlaw-school-degree
p229
aVamericas
p230
aVhollywood
p231
aVgeorgia
p232
aVdownload
p233
aVfashion
p234
aVclinton
p235
aVparis
p236
aVstanford
p237
aVspanish
p238
aVproduct-development
p239
aVhealth
p240
aVgold-medal
p241
aVgoldman-sachs
p242
aVhuffington-post
p243
aV80-percent
p244
aVclimate-change
p245
aVcommittee
p246
aVcollege
p247
aVexchange
p248
aVtime-warner-cable
p249
aVpaypal
p250
aVpaper
p251
aVnokia
p252
aVspain
p253
aVsearch
p254
aVinsurance
p255
aVintelligence
p256
aVhistory
p257
aVfamily-members
p258
aV90-percent
p259
aV24-hours
p260
aVtoronto
p261
aVtraffic
p262
aVtrack-record
p263
aVintel
p264
aVlast-month
p265
aVmiddle-class
p266
aVapps-software
p267
aVbill-gates
p268
aVcolorado
p269
aVdemocrats
p270
aVpennsylvania
p271
aVmountain-view
p272
aV1-percent
p273
aVphiladelphia
p274
aVphone
p275
aVstate-department
p276
aVnew-orleans
p277
aVmexico
p278
aVcustomer-service
p279
aVdigital
p280
aVdistrict
p281
aVdocument
p282
aVarizona
p283
aVbusiness-models
p284
aVisrael
p285
aVfrancisco
p286
aVfunding-round
p287
aVtimes
p288
aVweb
p289
aVprivacy-policy
p290
aVsearch-engine
p291
aVmarch
p292
aVcenter
p293
aVassociated
p294
aV12-months
p295
aVcity
p296
aVcloud
p297
aVelection
p298
aVengineer
p299
aVproperty
p300
aVsports
p301
aVsteve-jobs
p302
aVguardian
p303
aVhouse-republicans
p304
aVfreedom
p305
aVillinois
p306
aVimmigration
p307
aVinterest-rates
p308
aVweather
p309
aVwhite
p310
aVtechnology-companies
p311
aVtext-messages
p312
aV70-percent
p313
aVbritain
p314
aVaustin
p315
aVmany-people
p316
aVlatin-america
p317
aVnational-security-agency
p318
aVireland
p319
aVitaly
p320
aVcisco
p321
aVsoutheast-asia
p322
aVafrican
p323
aV18-months
p324
aVbay-area
p325
aVtreasury
p326
aVswitzerland
p327
aVunited-kingdom
p328
aVvalentine-s-day
p329
aVfacebook-page
p330
aVcurrency
p331
aVdata-centers
p332
aVeast-coast
p333
aVdisney
p334
aVnew-yorker
p335
aVhawaii
p336
aVimmigration-reform
p337
aVattention
p338
aVbook
p339
aV10-minutes
p340
aVrestaurant
p341
aVplay
p342
aVstock-market
p343
aVsouth-korea
p344
aVreuters
p345
aVrichard
p346
aVsochi-olympics
p347
aVmassachusetts
p348
aVnational
p349
aVmarket-share
p350
aVmarriage
p351
aVlaw-enforcement
p352
aVviral-videos
p353
aVvladimir-putin
p354
aVsyria
p355
aVdutch
p356
aVchannel
p357
aVchennai
p358
aV15-minutes
p359
aV5-percent
p360
aVfinancial
p361
aVfriends
p362
aVkentucky
p363
aVgoogle-ventures
p364
aVgreat
p365
aVhealth-insurance
p366
aVitalian
p367
aVtech-industry
p368
aVwisconsin
p369
aVwoody-allen
p370
aVworld-war-ii
p371
aVwindows-phone
p372
aVunion-address
p373
aVvietnam
p374
aVturkey
p375
aVrelease
p376
aVsequoia-capital
p377
aVlanguage
p378
aVmotorola
p379
aVnew-yorkers
p380
aVoracle
p381
aVatlantic
p382
aV25-years
p383
aVad-revenue
p384
aVcategory
p385
aVfederal-reserve
p386
aVcredit-card
p387
aVcustomer-base
p388
aVcolumbia
p389
aVcommunication
p390
aVclimate
p391
aVdallas
p392
aVdenver
p393
aVschool
p394
aVsoviet
p395
aVreading
p396
aVreporter
p397
aVrepublican-party
p398
aVjames
p399
aVhuman
p400
aVinfrastructure
p401
aVgoogle-glass
p402
aVtwitter-account
p403
aVtime-warner
p404
aVvalley
p405
aVactor
p406
aV30-minutes
p407
aVbrand
p408
aVnewspaper
p409
aVmachine
p410
aVmark-zuckerberg
p411
aVmiami
p412
aVmissouri
p413
aVnew-zealand
p414
aVlabor
p415
aVisraeli
p416
aVfootball
p417
aVhong-kong
p418
aVdetroit
p419
aVcoffee-shop
p420
aVcomputer-science
p421
aVconnecticut
p422
aVfailure
p423
aVfamily
p424
aVdisease
p425
aVcredit-cards
p426
aVeconomist
p427
aVsochi-games
p428
aVsong
p429
aVstorm
p430
aVplanning
p431
aVpolice
p432
aVblog-posts
p433
aValabama
p434
aVapp-developers
p435
aV2014-winter-olympics
p436
aVswedish
p437
aVwater
p438
aVunited-nations
p439
aVvalentines-day
p440
aVvancouver
p441
aVtarget
p442
aVthailand
p443
aVtime-period
p444
aVcode
p445
aVchairman
p446
aVmaryland
p447
aVolympic-games
p448
aVnew-delhi
p449
aVmother
p450
aVgovernor
p451
aVjustice-department
p452
aVadministration
p453
aVamericans
p454
aVbeijing
p455
aVbrooklyn
p456
aV25-percent
p457
aVphilippines
p458
aVsearch-engines
p459
aVspace
p460
aVsquare
p461
aVpopulation
p462
aVspending-time
p463
aVleadership
p464
aVlearning
p465
aVminnesota
p466
aVmitt-romney
p467
aVofficer
p468
aVnetherlands
p469
aVend-users
p470
aVdaily
p471
aVblack
p472
aVafghanistan
p473
aValaska
p474
aVcapitol-hill
p475
aVcentury
p476
aVaustralian
p477
aVjournal
p478
aVjournalist
p479
aVjustice
p480
aVkansas
p481
aVhospital
p482
aVforbes
p483
aVjoe-biden
p484
aVjournalism
p485
aVgoogle-play-store
p486
aVgay
p487
aVios-app
p488
aViphone-app
p489
aVwikipedia
p490
aVwinter-games
p491
aVtuesday-night
p492
aVtech-world
p493
aVtechnology-company
p494
aVtelevision
p495
aVtime
p496
aVteam-members
p497
aVstarbucks
p498
aVphone-numbers
p499
aVslate
p500
aVsearch-results
p501
aVmedia-attention
p502
aVmedia-company
p503
aVpacific
p504
aVpalo-alto
p505
aVlas-vegas
p506
aVapp-stores
p507
aVattorney
p508
aVaccel-partners
p509
aV100-percent
p510
aVbarcelona
p511
aVberkeley
p512
aVbusiness-leaders
p513
aVchrome
p514
aVcollege-students
p515
aVcontent-creators
p516
aVchris-christie
p517
aVright-direction
p518
aVright-thing
p519
aVright-time
p520
aVseattle-seahawks
p521
aVfinland
p522
aVhyderabad
p523
aVhillary-clinton
p524
aVhouston
p525
aVgeorge-w
p526
aVgetty-images
p527
aVgoldman
p528
aVtea-party
p529
aVwilliam
p530
aVwinter-storm
p531
aVyoung
p532
aVvideo-games
p533
aVviolence
p534
aVbusiness-insider
p535
aVcapitol
p536
aV50-years
p537
aVbrain
p538
aVmoscow
p539
aVmedicare
p540
aVmidwest
p541
aVoscar
p542
aVnorth-american
p543
aVmodel
p544
aVmountain
p545
aVlouisiana
p546
aVmarket-cap
p547
aVmartin
p548
aVmedia-companies
p549
aVinternational
p550
aVipad-app
p551
aVjordan
p552
aVcreative
p553
aVcustomer-experience
p554
aVdata-center
p555
aVdenver-broncos
p556
aVconstruction
p557
aVcloud-services
p558
aVfarm-bill
p559
aVenergy
p560
aVscience-fiction
p561
aVseed-round
p562
aVsenator
p563
aVsoutheast
p564
aVspeaker
p565
aVportland
p566
aVrevenue-growth
p567
aVair-force
p568
aVarkansas
p569
aVart
p570
aV12-years
p571
aV40-years
p572
aVbluetooth
p573
aVbarack
p574
aVbill-clinton
p575
aVactivist
p576
aVusa-today
p577
aVwindows-8
p578
aVukraine
p579
aVsweden
p580
aVsyrian
p581
aVverizon
p582
aVteacher
p583
aVeconomic
p584
aVdaily-beast
p585
aVchristmas
p586
aVnew-york-fashion-week
p587
aVmanagement-team
p588
aVmission
p589
aVkansas-city
p590
aVkickstarter-campaign
p591
aVhttp
p592
aVincome-inequality
p593
aVgolden-globes
p594
aVgovernment-officials
p595
aVfeedback
p596
aVfirefox
p597
aVfull-story
p598
aV6-months
p599
aVapartment
p600
aVcentral
p601
aValbum
p602
aVandroid-apps
p603
aVbeatles
p604
aV21-st-century
p605
aV30-seconds
p606
aVbroadway
p607
aVreality
p608
aVsan-diego
p609
aVpittsburgh
p610
aVpress-conference
p611
aVsign
p612
aVsection
p613
aVservice-providers
p614
aVshaun-white
p615
aVsouth-carolina
p616
aVstar-wars
p617
aVstatus-updates
p618
aVsteve-ballmer
p619
aVphone-number
p620
aVsan-jose
p621
aVmorgan-stanley
p622
aVmuseum
p623
aVnevada
p624
aVnew-hampshire
p625
aVnews
p626
aVnigeria
p627
aVoffice-space
p628
aVoklahoma
p629
aVmen
p630
aVmap
p631
aVparty
p632
aVpeople-use
p633
aVpeyton-manning
p634
aVleague
p635
aVlibrary
p636
aVlife
p637
aVtemperature
p638
aVuser-data
p639
aVuser-interface
p640
aVtreatment
p641
aVunemployment
p642
aVtaiwan
p643
aVweb-site
p644
aVexecutive-vice-president
p645
aVcontract
p646
aVcoach
p647
aVcolumbia-university
p648
aVcharles
p649
aVdeath
p650
aVdebt-limit
p651
aVdefense
p652
aVdylan-farrow
p653
aVboard
p654
aVbusiness-plan
p655
aVbusiness-world
p656
aV5-years
p657
aVabc-news
p658
aVacademy
p659
aVaccess
p660
aVage
p661
aVassistant-professor
p662
aVaustria
p663
aV12-percent
p664
aV16-years
p665
aVandroid-app
p666
aVinternet-access
p667
aVgoogle-search
p668
aVgrocery-store
p669
aVice-storm
p670
aVindian-market
p671
aVglobal
p672
aVhousing
p673
aVhouse-speaker-john-boehner
p674
aVgoogle-maps
p675
aVgreek
p676
aVgrowth-rate
p677
aVjohn-kerry
p678
aVinternational-olympic-committee
p679
aVirish
p680
aVgeneral
p681
aVglass
p682
aVted-cruz
p683
a.