(lp0
Vcompany
p1
aVfacebook
p2
aVgoogle
p3
aVbusiness
p4
aVnew-york
p5
aVindia
p6
aVamerican
p7
aVtwitter
p8
aVproduct
p9
aVservice
p10
aVsuper-bowl
p11
aVunited-states
p12
aVwashington
p13
aVamerica
p14
aVtechnology
p15
aVstartup
p16
aVobama
p17
aVuniversity
p18
aVsan-francisco
p19
aVsilicon-valley
p20
aVcustomer
p21
aVrepublican
p22
aVindian
p23
aVpeople
p24
aVpercent
p25
aVmicrosoft
p26
aVapp
p27
aVprogram
p28
aVproblem
p29
aVinformation
p30
aV20-years
p31
aVsochi
p32
aVgovernment
p33
aVapple
p34
aVsoftware
p35
aVplatform
p36
aVcalifornia
p37
aVusers
p38
aVchina
p39
aVexperience
p40
aVcountry
p41
aVrussia
p42
aV10-years
p43
aVandroid
p44
aVnetwork
p45
aVcontent
p46
aVcongress
p47
aVwhite-house
p48
aVeurope
p49
aVsomething
p50
aVlast-year
p51
aVindustry
p52
aVlinkedin
p53
aVhouse
p54
aVolympic
p55
aVyoutube
p56
aVrussian
p57
aVsenate
p58
aVpresident-obama
p59
aVquestion
p60
aVinvestor
p61
aVgame
p62
aVbritish
p63
aVinvestment
p64
aViphone
p65
aVnew-york-city
p66
aVaccount
p67
aVamazon
p68
aVseattle
p69
aVclick
p70
aVfounder
p71
aVmarketing
p72
aVmessage
p73
aVnew-york-times
p74
aVemployee
p75
aVcommunity
p76
aVwall-street
p77
aVpresident
p78
aVcampaign
p79
aVconsumer
p80
aVconversation
p81
aVunited
p82
aVvice-president
p83
aVofficial
p84
aVopportunity
p85
aVlondon
p86
aVenglish
p87
aVexecutive
p88
aVfinance
p89
aVstrategy
p90
aVtexas
p91
aVdecision
p92
aVdelhi
p93
aVdemocratic
p94
aVmillion
p95
aVchicago
p96
aVonline
p97
aVproject
p98
aVbuilding
p99
aVentrepreneur
p100
aVgerman
p101
aVcomputer
p102
aVsilicon
p103
aVwebsite
p104
aVinternet
p105
aVstartups
p106
aVprocess
p107
aVgermany
p108
aVenterprise
p109
aVeuropean
p110
aVfunding
p111
aVemail
p112
aVcanada
p113
aVmanhattan
p114
aVmumbai
p115
aVwall-street-journal
p116
aVyahoo
p117
aVbusiness-model
p118
aVseahawks
p119
aVsocial
p120
aVemail-address
p121
aVfrench
p122
aVpaper
p123
aVsuccess
p124
aVsupport
p125
aVthings
p126
aVdepartment
p127
aVchinese
p128
aVhoffman
p129
aVbuzzfeed
p130
aVnew-jersey
p131
aVpartner
p132
aVmusic
p133
aVrevenue
p134
aVdont
p135
aVsuper
p136
aVtechcrunch
p137
aVsecurity
p138
aVsouth
p139
aVlos-angeles
p140
aVphilip-seymour-hoffman
p141
aVversion
p142
aVbarack-obama
p143
aVblog-post
p144
aVbrazil
p145
aVfeature
p146
aVfrance
p147
aVrepublicans
p148
aVhealth-care
p149
aVeconomy
p150
aVcanadian
p151
aVcapital-markets
p152
aVceo
p153
aVasset-management-read
p154
aVaustralia
p155
aVbangalore
p156
aVbenefit
p157
aVboston
p158
aVnorth
p159
aVmountain-view
p160
aVwall-st
p161
aVjapan
p162
aVlast-week
p163
aVlaw-school-degree
p164
aVindonesia
p165
aVculture
p166
aVdevelopment
p167
aVeveryone
p168
aVfast-company
p169
aVstudent
p170
aVteam
p171
aVhuffington-post
p172
aV500-startups
p173
aV90-percent
p174
aVaffordable-care-act
p175
aVafrica
p176
aVpress-release
p177
aVreaders
p178
aVtweets
p179
aVventure
p180
aVwomen
p181
aVassociated-press
p182
aVsatya-nadella
p183
aVsocial-media
p184
aVcapital
p185
aVorganization
p186
aVnorth-america
p187
aVnorth-carolina
p188
aVolympics
p189
aVpatient
p190
aVpayment
p191
aVpennsylvania
p192
aV30-years
p193
aV50-percent
p194
aVafrican
p195
aVapp-store
p196
aVdavid
p197
aVdemocrat
p198
aVdirector
p199
aVeducation
p200
aVinstagram
p201
aVinsurance
p202
aVinterview
p203
aVjavascript
p204
aVgraduating
p205
aVexample
p206
aVgeorge
p207
aVchildren
p208
aVbill-gates
p209
aVbroncos
p210
aVsamsung
p211
aVseattle-seahawks
p212
aVsolution
p213
aVmanagement
p214
aVmanager
p215
aVmichael
p216
aVmother
p217
aVmyntra
p218
aVgoogles
p219
aV18-months
p220
aV80-percent
p221
aVaddress
p222
aVnadella
p223
aVobamacare
p224
aVphiladelphia
p225
aVdefault
p226
aVdeveloper
p227
aVearth
p228
aVstatement
p229
aVsupreme-court
p230
aVflorida
p231
aVprivacy
p232
aVpurchase
p233
aVresearch
p234
aVritholtz
p235
aVuser-experience
p236
aVventure-capitalists
p237
aVwinter-olympics
p238
aVapplication
p239
aVarticle
p240
aVbottom-line
p241
aVbritain
p242
aVbusiness-models
p243
aVcategory
p244
aVcommittee
p245
aVcontrol
p246
aVcandidate
p247
aVchallenge
p248
aVcloud
p249
aVcredit-card
p250
aVcustomer-service
p251
aVdata-centers
p252
aVdenver-broncos
p253
aVelection
p254
aVharvard
p255
aVhealth
p256
aVnew-yorker
p257
aVinnovation
p258
aVinterest
p259
aV100-percent
p260
aV40-percent
p261
aVapples
p262
aVarizona
p263
aVaudience
p264
aVbay-area
p265
aVbloomberg
p266
aVbuzzfeed-english
p267
aVbuzzfeed-homepage
p268
aVengland
p269
aVexecutive-director
p270
aVfashion
p271
aVfootball
p272
aVscience
p273
aVsearch
p274
aVsearch-engine
p275
aVsingapore
p276
aVsmartphone
p277
aVsoviet
p278
aVsteve-jobs
p279
aVtailored
p280
aVtoronto
p281
aVunion
p282
aVus-have
p283
aVuser-base
p284
aVvirginia
p285
aVwindows
p286
aVpresident-barack-obama
p287
aVplanning
p288
aVprivacy-policy
p289
aVread
p290
aVreddit
p291
aVresponse
p292
aVinfluence
p293
aVisrael
p294
aVitunes
p295
aVjames
p296
aVjapanese
p297
aVcity
p298
aVclimate-change
p299
aVclinton
p300
aVmassachusetts
p301
aVmiddle-class
p302
aVminnesota
p303
aVmobile
p304
aVnetflix
p305
aVopening-ceremony
p306
aVopinion
p307
aVparis
p308
aVpaypal
p309
aVperformance
p310
aVpeyton-manning
p311
aVdata
p312
aVdemocrats
p313
aVdesign
p314
aVdigital
p315
aVdropbox
p316
aVhashtag
p317
aVhealthcare
p318
aVhollywood
p319
aVim
p320
aVimmigration
p321
aVwestern
p322
aVfacebooks
p323
aVflipkart
p324
aVfuture
p325
aVgames
p326
aV21-st-century
p327
aV24-hours
p328
aV60-percent
p329
aVaccel-partners
p330
aVactivity
p331
aVactor
p332
aVadvertising
p333
aVadvisor
p334
aVapproach
p335
aVasian
p336
aVauthority
p337
aVstanford
p338
aVstudents
p339
aVsuper-bowl-xlviii
p340
aVtext-messages
p341
aVtime-period
p342
aVsomeone
p343
aVsouth-korea
p344
aVspain
p345
aVscandal
p346
aVseahawk
p347
aVsite
p348
aVsochi-olympics
p349
aVdata-center
p350
aVdenver
p351
aVdesigner
p352
aViphones
p353
aVjob
p354
aVkansas-city
p355
aVlatin-america
p356
aVpinterest
p357
aVpittsburgh
p358
aVposition
p359
aVprofile
p360
aVquarter
p361
aVquora
p362
aVreading
p363
aVnational
p364
aVchairman
p365
aVcheck
p366
aVchristmas
p367
aVcode
p368
aVcollege
p369
aVcolorado
p370
aVcommunication
p371
aVcomputer-science
p372
aVconcern
p373
aVconference
p374
aVconnecticut
p375
aVconstruction
p376
aVcontribution
p377
aVcoverage
p378
aVcredit-cards
p379
aVmark-zuckerberg
p380
aVmarketer
p381
aVmaryland
p382
aVmaterial
p383
aVmeeting
p384
aVmexico
p385
aVmiddle-east
p386
aVmorgan-stanley
p387
aVmountain
p388
aVstate-department
p389
aVstock-market
p390
aVsuper-bowl-ad
p391
aVtech-companies
p392
aVtech-world
p393
aVtransaction
p394
aVenter
p395
aVentrepreneurs
p396
aVfacebook-page
p397
aVfailure
p398
aVfilm
p399
aVgeorgia
p400
aVgoldman-sachs
p401
aVgoogle-play
p402
aVgreat
p403
aVguardian
p404
aVhouse-republicans
p405
aVimmigration-reform
p406
aVturkey
p407
aVtwilio
p408
aVtwitter-users
p409
aVvancouver
p410
aVwashington-post
p411
aVwisconsin
p412
aVwoody-allen
p413
aVworld-war-ii
p414
aVassociated
p415
aV15-years
p416
aV20-percent
p417
aVactivist
p418
aVadobe
p419
aVair-force
p420
aValaska
p421
aVallen
p422
aVamericas
p423
aVaol
p424
aV10-minutes
p425
aV10-percent
p426
aV2014-winter-olympics
p427
aV30-minutes
p428
aV5-percent
p429
aVacquisition
p430
aVadoption
p431
aVangel-investors
p432
aVchennai
p433
aVchris
p434
aVcommerce
p435
aVconnection
p436
aVcredit-card-number
p437
aVcustomer-base
p438
aVdaily
p439
aVdistrict
p440
aVeast-coast
p441
aVeconomist
p442
aVservice-providers
p443
aVslideshare
p444
aVsnapchat
p445
aVspanish
p446
aVspending
p447
aVzuckerberg
p448
aVnew-delhi
p449
aVnew-yorkers
p450
aVnewspaper
p451
aVpassword
p452
aVintel
p453
aVinvestigation
p454
aVitaly
p455
aVquality
p456
aVrelationship
p457
aVrepublican-party
p458
aVrequest
p459
aVrestaurant
p460
aVrobert
p461
aVarmstrong
p462
aVatlanta
p463
aVaustin
p464
aVbeijing
p465
aVbitcoin
p466
aVbrain
p467
aVbrand
p468
aVbroadway
p469
aVfeeling
p470
aVlocation
p471
aVmeasure
p472
aVmedia
p473
aVmetlife-stadium
p474
aVmidwest
p475
aVmotorola
p476
aVstory
p477
aVtrack-record
p478
aVtreasury
p479
aVventure-capital
p480
aVwater
p481
aVwindows-phone
p482
aVwork
p483
aVgolden-globes
p484
aVhardware
p485
aVhawaii
p486
aVhistory
p487
aVhospital
p488
aVhyderabad
p489
aVidentity
p490
aVincrease
p491
aVgovernor
p492
aVgroundhog
p493
aVgrowth-hack
p494
aVgrowth-problem
p495
aVhearing
p496
aVhighlight-news
p497
aVhome-state
p498
aVhomeland-security
p499
aVhong-kong
p500
a.