(lp0
Vcompany
p1
aVfacebook
p2
aVgoogle
p3
aVbusiness
p4
aVnew-york
p5
aVamerican
p6
aVindia
p7
aVtwitter
p8
aVproduct
p9
aVunited-states
p10
aVwashington
p11
aVservice
p12
aVsuper-bowl
p13
aVamerica
p14
aVtechnology
p15
aVuniversity
p16
aVobama
p17
aVrepublican
p18
aVsilicon-valley
p19
aVindian
p20
aVstartup
p21
aVcustomer
p22
aVchina
p23
aVmicrosoft
p24
aVpeople
p25
aVpercent
p26
aVgovernment
p27
aVsan-francisco
p28
aVapp
p29
aV20-years
p30
aVproblem
p31
aVinformation
p32
aVprogram
p33
aVapple
p34
aVsochi
p35
aVexperience
p36
aVandroid
p37
aVcountry
p38
aVbritish
p39
aVrussia
p40
aVsomething
p41
aVcalifornia
p42
aVplatform
p43
aVnetwork
p44
aVusers
p45
aVsoftware
p46
aVrussian
p47
aVeurope
p48
aVcontent
p49
aVcongress
p50
aVhouse
p51
aVlinkedin
p52
aVnew-york-times
p53
aVindustry
p54
aVinvestor
p55
aVsenate
p56
aVcampaign
p57
aVproject
p58
aVnew-york-city
p59
aVolympic
p60
aVwhite-house
p61
aVyoutube
p62
aVclick
p63
aV10-years
p64
aViphone
p65
aVlast-year
p66
aVlondon
p67
aVpresident
p68
aVinvestment
p69
aVquestion
p70
aVcommunity
p71
aVemployee
p72
aVeuropean
p73
aVamazon
p74
aVgame
p75
aVwall-street
p76
aVpresident-obama
p77
aVmillion
p78
aVdemocratic
p79
aVenglish
p80
aVmarketing
p81
aVunited
p82
aVvice-president
p83
aVaccount
p84
aVofficial
p85
aVopportunity
p86
aVgermany
p87
aVfounder
p88
aVcanada
p89
aVtexas
p90
aVsuccess
p91
aVwebsite
p92
aVbusiness-model
p93
aVfinance
p94
aVgerman
p95
aVconsumer
p96
aVentrepreneur
p97
aVexecutive
p98
aVchinese
p99
aVbuzzfeed
p100
aVstartups
p101
aVstrategy
p102
aVseattle
p103
aVpartner
p104
aVprocess
p105
aVmanhattan
p106
aVmessage
p107
aVjapan
p108
aVbuilding
p109
aVcomputer
p110
aVwall-street-journal
p111
aVsilicon
p112
aVsupport
p113
aVonline
p114
aVconversation
p115
aVfrench
p116
aVbarack-obama
p117
aVdecision
p118
aVdelhi
p119
aVdepartment
p120
aVeconomy
p121
aVbenefit
p122
aVthings
p123
aVsecurity
p124
aVyahoo
p125
aVemail
p126
aVchicago
p127
aVmumbai
p128
aVnew-jersey
p129
aVnorth
p130
aVinternet
p131
aVrevenue
p132
aVreaders
p133
aVmusic
p134
aVventure
p135
aVemail-address
p136
aVenterprise
p137
aVblog-post
p138
aVboston
p139
aVcapital
p140
aVafrica
p141
aVchildren
p142
aVdemocrat
p143
aVdirector
p144
aVcanadian
p145
aVaustralia
p146
aVfeature
p147
aVfunding
p148
aVresearch
p149
aVhealth-care
p150
aVsocial
p151
aVsouth
p152
aVstudent
p153
aVscience
p154
aVdont
p155
aVengland
p156
aVaffordable-care-act
p157
aVculture
p158
aVdevelopment
p159
aVcapital-markets
p160
aVhoffman
p161
aVpaper
p162
aVpatient
p163
aVjapanese
p164
aVindonesia
p165
aVphilip-seymour-hoffman
p166
aVpress-release
p167
aVobamacare
p168
aVorganization
p169
aVrepublicans
p170
aVlast-week
p171
aVlaw-school-degree
p172
aVlos-angeles
p173
aVmanagement
p174
aVsatya-nadella
p175
aVseahawks
p176
aVversion
p177
aVwall-st
p178
aVwomen
p179
aVsolution
p180
aVsuper
p181
aVsupreme-court
p182
aVfrance
p183
aVgeorge
p184
aVdefault
p185
aVapplication
p186
aVasset-management-read
p187
aVbangalore
p188
aV30-years
p189
aVbrazil
p190
aVceo
p191
aVeducation
p192
aVexample
p193
aVmichael
p194
aVhuffington-post
p195
aVinstagram
p196
aVnorth-america
p197
aVpurchase
p198
aVmiddle-east
p199
aVpresident-barack-obama
p200
aVgraduating
p201
aVnadella
p202
aVnorth-carolina
p203
aVjavascript
p204
aVcommittee
p205
aV40-percent
p206
aV80-percent
p207
aVbritain
p208
aVbuzzfeed-english
p209
aVbuzzfeed-homepage
p210
aVarticle
p211
aVasian
p212
aVdavid
p213
aVdeveloper
p214
aVstatement
p215
aVtailored
p216
aVteam
p217
aVtech-companies
p218
aVsamsung
p219
aVtechcrunch
p220
aVunion
p221
aVus-have
p222
aVuser-experience
p223
aVwestern
p224
aVwashington-post
p225
aVsocial-media
p226
aVsomeone
p227
aVtweets
p228
aVinnovation
p229
aVinsurance
p230
aVpayment
p231
aVperformance
p232
aVread
p233
aVritholtz
p234
aVmanager
p235
aVelection
p236
aVeveryone
p237
aVexecutive-director
p238
aVangel-investors
p239
aVassociated-press
p240
aVaudience
p241
aVflorida
p242
aVcategory
p243
aVbill-gates
p244
aVbloomberg
p245
aVbroncos
p246
aVdemocrats
p247
aV15-years
p248
aV50-percent
p249
aV500-startups
p250
aV90-percent
p251
aVactivity
p252
aVaddress
p253
aVcontrol
p254
aVgames
p255
aVapp-store
p256
aVarizona
p257
aVtrack-record
p258
aVsmartphone
p259
aVuser-base
p260
aVmountain-view
p261
aVmaterial
p262
aVmichigan
p263
aVmother
p264
aVjames
p265
aVphiladelphia
p266
aVolympics
p267
aVopinion
p268
aVgreat
p269
aVhealth
p270
aVauthority
p271
aVadvertising
p272
aVafrican
p273
aVbottom-line
p274
aVcandidate
p275
aVcustomer-service
p276
aVfashion
p277
aVfast-company
p278
aVdownload
p279
aVchallenge
p280
aVventure-capitalists
p281
aVwindows
p282
aVwinter-olympics
p283
aVwoody-allen
p284
aVvirginia
p285
aVsearch
p286
aVsite
p287
aVsteve-jobs
p288
aVharvard
p289
aVhawaii
p290
aVinterest
p291
aVinterview
p292
aVitaly
p293
aVquarter
p294
aVrepublican-party
p295
aVmobile
p296
aVmyntra
p297
aVpaypal
p298
aVpennsylvania
p299
aVprivacy
p300
aVclinton
p301
aVcloud
p302
aVconference
p303
aVbusiness-models
p304
aVbay-area
p305
aV60-percent
p306
aVdistrict
p307
aVearth
p308
aVfilm
p309
aVflipkart
p310
aVfootball
p311
aVfinancial
p312
aVapproach
p313
aVchairman
p314
aVcity
p315
aVconnecticut
p316
aVbitcoin
p317
aVcoverage
p318
aVdaily
p319
aVdenver
p320
aVdenver-broncos
p321
aVdesign
p322
aVdigital
p323
aV18-months
p324
aVactor
p325
aVsouth-korea
p326
aVtoronto
p327
aVtransaction
p328
aVseattle-seahawks
p329
aVsingapore
p330
aVsochi-olympics
p331
aVrelease
p332
aVgoldman-sachs
p333
aVgoogles
p334
aVguardian
p335
aVhealthcare
p336
aVhollywood
p337
aVimmigration
p338
aVinvestigation
p339
aVnetflix
p340
aVobama-administration
p341
aVopening-ceremony
p342
aVmiddle-class
p343
aVmeeting
p344
aVminnesota
p345
aVhospital
p346
aVparis
p347
aVplanning
p348
aVposition
p349
aVprivacy-policy
p350
aVprofile
p351
aVproperty
p352
aVreading
p353
aVreddit
p354
aVrelationship
p355
aVrequest
p356
aVnational
p357
aVnew-yorker
p358
aVlanguage
p359
aVlast-month
p360
aVillinois
p361
aVimmigration-reform
p362
aVincrease
p363
aVintel
p364
aViphones
p365
aVjob
p366
aV10-minutes
p367
aV21-st-century
p368
aV24-hours
p369
aV25-years
p370
aV5-percent
p371
aVad-revenue
p372
aValaska
p373
aVcharacter
p374
aVcollege
p375
aVcommunication
p376
aVcomputer-science
p377
aVfailure
p378
aVamericas
p379
aVanalytic
p380
aVbeijing
p381
aVcredit-card
p382
aVcredit-cards
p383
aVdata-centers
p384
aVengineer
p385
aVbook
p386
aVsoviet
p387
aVspain
p388
aVstanford
p389
aVstate-department
p390
aVstock-market
p391
aVsuper-bowl-ad
p392
aVwork
p393
aVworld-war-ii
p394
aVtext-messages
p395
aVtech-world
p396
aVtime-period
p397
aVtwilio
p398
aVtwitter-users
p399
aVunited-kingdom
p400
aVstory
p401
aVstudents
p402
aVsuper-bowl-xlviii
p403
aVscandal
p404
aVsearch-engine
p405
aVslate
p406
aVsnapchat
p407
aVvalue-proposition
p408
aVvancouver
p409
aVventure-capital
p410
aVvideo
p411
aVweb
p412
aVim
p413
aVinfluence
p414
aVintelligence
p415
aVinternational
p416
aVireland
p417
aVisrael
p418
aVitunes
p419
aVpinterest
p420
aVpractice
p421
aVmassachusetts
p422
aVmeasure
p423
aVmexico
p424
aVmountain
p425
aVhardware
p426
aVhashtag
p427
aVhistory
p428
aVhouse-republicans
p429
aVjournal
p430
aVkansas
p431
aVkansas-city
p432
aVlatin-america
p433
aVlearn
p434
aVlife
p435
aVlogin
p436
aVresearcher
p437
aVresponse
p438
aVreuters
p439
aVnew-delhi
p440
aVnewspaper
p441
aVofficer
p442
aVbrain
p443
aVbrand
p444
aVfacebooks
p445
aVfollower
p446
aVfrancisco
p447
aVfuture
p448
aVgeorgia
p449
aV1-percent
p450
aV100-percent
p451
aV12-months
p452
aV20-percent
p453
aVaccel-partners
p454
aVactivist
p455
aVadvisor
p456
aValabama
p457
aVchennai
p458
aVchrome
p459
aVconcern
p460
aVdocument
p461
aVdutch
p462
aVentrepreneurs
p463
aVexchange
p464
aVaol
p465
aVapples
p466
aVassociated
p467
aVatlanta
p468
aVattorney
p469
aVallen
p470
aVapps
p471
aVarkansas
p472
aVathlete
p473
aVattention
p474
aVaustria
p475
aVbeatles
p476
aV10-percent
p477
aV30-minutes
p478
aVacquisition
p479
aVadministration
p480
aVadoption
p481
aVair-force
p482
aVbrands
p483
aVbroadway
p484
aVbrowser
p485
aVfacebook-page
p486
aVfeeling
p487
aVflappy-bird
p488
aVgay
p489
aVgeneral
p490
aVdropbox
p491
aVchannel
p492
aVcheck
p493
aVchris
p494
aVchristmas
p495
aVclimate-change
p496
aVcode
p497
aVcolorado
p498
aVcolumbia
p499
aVcommerce
p500
a.