(lp0
V70-percent
p1
aVchinese
p2
aVgerman
p3
aVexecutive
p4
aVtech-companies
p5
aVviral-videos
p6
aVtime-warner-cable
p7
aVmanager
p8
aVpaper
p9
aVlondon
p10
aVasian
p11
aVcommittee
p12
aVapp-developers
p13
aVemail-address
p14
aVjapan
p15
aVaustralian
p16
aVfast-company
p17
aVchildren
p18
aVcolorado
p19
aVlaw-enforcement
p20
aV10-minutes
p21
aVlast-month
p22
aVmumbai
p23
aVparis
p24
aVhuffington-post
p25
aVapps-software
p26
aVjames
p27
aVlast-year
p28
aVplatform
p29
aVprogram
p30
aVspain
p31
aVwhite-house
p32
aV10-percent
p33
aVhealth
p34
aVmaryland
p35
aVwomen
p36
aVtexas
p37
aV50-percent
p38
aVaustralia
p39
aVmarch
p40
aVgovernment
p41
aVceo
p42
aVafrica
p43
aVmichigan
p44
aVonline
p45
aVgoldman-sachs
p46
aVvirginia
p47
aVnew-york
p48
aVtraffic
p49
aVproperty
p50
aVamazon
p51
aVfacebook
p52
aVcanadian
p53
aVfunding-round
p54
aVsuper-bowl
p55
aVrepublican
p56
aVseattle
p57
aVvalentine-s-day
p58
aVtoronto
p59
aVreading
p60
aVintel
p61
aV80-percent
p62
aVseed-funding
p63
aVcisco
p64
aVuniversity
p65
aVmichael
p66
aVdemocrat
p67
aVdetroit
p68
aVsoutheast-asia
p69
aVeast-coast
p70
aVnew-york-city
p71
aVunited-states
p72
aVteam
p73
aVapp-store
p74
aV30-years
p75
aVsecurity
p76
aVfrancisco
p77
aVtrack-record
p78
aVsteve-jobs
p79
aVolympic
p80
aVgoogle
p81
aVengland
p82
aVillinois
p83
aVpeople
p84
aVsenate
p85
aVhouse
p86
aVtwitter
p87
aVspanish
p88
aVmountain-view
p89
aVjapanese
p90
aVtreasury
p91
aVculture
p92
aVcomputer
p93
aVdesign
p94
aVelection
p95
aVearth
p96
aVdownload
p97
aVcategory
p98
aVinvestment
p99
aVcanada
p100
aVnokia
p101
aVcustomer-base
p102
aVnetwork
p103
aV10-years
p104
aVchicago
p105
aVuser-experience
p106
aVeconomist
p107
aVdata-centers
p108
aVresearch
p109
aV18-months
p110
aVindian
p111
aVolympics
p112
aVguardian
p113
aVweather
p114
aVlos-angeles
p115
aVbay-area
p116
aVemail
p117
aVdisney
p118
aVeurope
p119
aVturkey
p120
aVcollege
p121
aVjavascript
p122
aVexchange
p123
aVmarketing
p124
aVhuman
p125
aVmillion
p126
aVstate-department
p127
aVfrench
p128
aVreuters
p129
aVnew-jersey
p130
aVharvard
p131
aVcalifornia
p132
aVvietnam
p133
aVclimate-change
p134
aVarticle
p135
aVbangalore
p136
aVsuper
p137
aVgold-medal
p138
aVblog-post
p139
aVlaw-school-degree
p140
aV24-hours
p141
aVwater
p142
aVsearch
p143
aVstock-market
p144
aVproduct-development
p145
aVlanguage
p146
aVnetflix
p147
aVfederal-reserve
p148
aVfreedom
p149
aVindustry
p150
aVbrazil
p151
aVflorida
p152
aVbritish
p153
aVdavid
p154
aVitunes
p155
aVamerican
p156
aVgames
p157
aVadvertising
p158
aVsocial
p159
aV15-minutes
p160
aVchina
p161
aVsyria
p162
aVitalian
p163
aVnew-yorker
p164
aVbook
p165
aVtext-messages
p166
aVsoftware
p167
aVinsurance
p168
aV1-percent
p169
aVnew-delhi
p170
aVlove
p171
aVapple
p172
aVrevenue
p173
aVlatin-america
p174
aVapp
p175
aVwashington
p176
aVwall-st
p177
aVentrepreneur
p178
aVsearch-engine
p179
aVfashion
p180
aVamericans
p181
aVtechnology-companies
p182
aVbusiness-models
p183
aVobama-administration
p184
aVassociated
p185
aVgoogle-glass
p186
aVstrategy
p187
aVgeorge
p188
aVcloud
p189
aVengineer
p190
aVconference
p191
aVcity
p192
aVmanagement
p193
aVservice
p194
aVunion
p195
aV20-percent
p196
aVphiladelphia
p197
aVbill-gates
p198
aVfrance
p199
aVpress-release
p200
aVbarack-obama
p201
aVmusic
p202
aViphone
p203
aVclinton
p204
aVseries
p205
aVhollywood
p206
aVvalley
p207
aVnational
p208
aVsouth-korea
p209
aVcomcast
p210
aVbusiness-model
p211
aVisrael
p212
aVnorth
p213
aVireland
p214
aVbloomberg
p215
aVmiddle-east
p216
aVcompany
p217
aVpaypal
p218
aVyahoo
p219
aVwall-street
p220
aVphone
p221
aVus-world
p222
aVwestern
p223
aVrussian
p224
aVcredit-cards
p225
aVatlanta
p226
aVarizona
p227
aVwhite
p228
aVsupreme-court
p229
aVobama
p230
aVpresident-barack-obama
p231
aVgeorgia
p232
aVmiddle-class
p233
aV90-percent
p234
aV25-percent
p235
aVstanford
p236
aVfamily-members
p237
aVscience
p238
aVofficial
p239
aVlast-week
p240
aVkentucky
p241
aV20-years
p242
aVproject
p243
aVwindows
p244
aVmarriage
p245
aVassociated-press
p246
aVcredit-card
p247
aVvideo
p248
aVdemocrats
p249
aVrussia
p250
aVhistory
p251
aVcontrol
p252
aVbeijing
p253
aVsocial-media
p254
aVindonesia
p255
aVmany-people
p256
aVphone-numbers
p257
aVmexico
p258
aVboston
p259
aVhealth-care
p260
aVindia
p261
aVfacebook-page
p262
aVdisease
p263
aVcurrency
p264
aVbritain
p265
aVnational-security-agency
p266
aVdallas
p267
aVsilicon-valley
p268
aVtechnology
p269
aVnorth-carolina
p270
aVmark-zuckerberg
p271
aVamericas
p272
aVworld-war-ii
p273
aVinformation
p274
aVhong-kong
p275
aVunited
p276
aVitaly
p277
aV12-months
p278
aVphilip-seymour-hoffman
p279
aVmedia
p280
aVinterest-rates
p281
aVexecutive-director
p282
aVmachine
p283
aVapplication
p284
aVolympic-games
p285
aVgoogle-play
p286
aVuser-base
p287
aVdigital
p288
aVwinter-olympics
p289
aVdepartment
p290
aVswitzerland
p291
aVandroid
p292
aVdocument
p293
aVmanhattan
p294
aVchannel
p295
aVeuropean
p296
aVnew-york-times
p297
aVdelhi
p298
aVwall-street-journal
p299
aVcongress
p300
aVsingapore
p301
aVafrican
p302
aVrestaurant
p303
aVdutch
p304
aVmarket-share
p305
aVdirector
p306
aVpennsylvania
p307
aVdistrict
p308
aVgermany
p309
aVmassachusetts
p310
aVstudent
p311
aVclimate
p312
aVpresident
p313
aVamerica
p314
aVaffordable-care-act
p315
aVhouse-republicans
p316
aVpresident-obama
p317
aVtimes
p318
aVbuilding
p319
aVchennai
p320
aVcenter
p321
aVcustomer-service
p322
aVsamsung
p323
aVmobile
p324
aVaustin
p325
aVvice-president
p326
aVnorth-america
p327
aVyoutube
p328
aVgame
p329
aVsan-francisco
p330
aVunion-address
p331
aVsports
p332
aVbottom-line
p333
aVintelligence
p334
aVenglish
p335
aVcommunication
p336
aVorganization
p337
aVwashington-post
p338
aVdemocratic
p339
aVmicrosoft
p340
aVcapital-markets
p341
a.