(lp0
Vkentucky
p1
aVchinese
p2
aVviolence
p3
aVgerman
p4
aVexecutive
p5
aVtech-companies
p6
aVtime-warner-cable
p7
aVmanager
p8
aVpaper
p9
aVlondon
p10
aVasian
p11
aVcommittee
p12
aVjapan
p13
aVcustomer-base
p14
aVfast-company
p15
aVchildren
p16
aVcolorado
p17
aVweb
p18
aVlaw-enforcement
p19
aV10-minutes
p20
aVcollege
p21
aVmumbai
p22
aVparis
p23
aVhuffington-post
p24
aVapps-software
p25
aVlast-year
p26
aVplatform
p27
aVprogram
p28
aVspain
p29
aVwhite-house
p30
aVweather
p31
aVhealth
p32
aVwomen
p33
aVcity
p34
aVtexas
p35
aV50-percent
p36
aVaustralia
p37
aVmarch
p38
aVgoogle-ventures
p39
aVgovernment
p40
aVceo
p41
aVafrica
p42
aVmichigan
p43
aVonline
p44
aVgoldman-sachs
p45
aVvirginia
p46
aVnew-york
p47
aVtraffic
p48
aVproperty
p49
aVgame
p50
aVfacebook
p51
aVobama-administration
p52
aVsuper-bowl
p53
aVassociated
p54
aVrepublican
p55
aVseattle
p56
aVvietnam
p57
aVtoronto
p58
aVnetherlands
p59
aVintel
p60
aV80-percent
p61
aVseed-funding
p62
aVuniversity
p63
aVmichael
p64
aVdemocrat
p65
aVsoutheast-asia
p66
aVnew-york-city
p67
aVunited-states
p68
aVteam
p69
aVapp-store
p70
aV30-years
p71
aVsecurity
p72
aVtrack-record
p73
aVsteve-jobs
p74
aVolympic
p75
aVgoogle
p76
aVengland
p77
aVhuman
p78
aVpeople
p79
aVsenate
p80
aVhouse
p81
aVtwitter
p82
aVjapanese
p83
aVculture
p84
aVcomputer
p85
aVdesign
p86
aVelection
p87
aVearth
p88
aVdownload
p89
aVillinois
p90
aVcategory
p91
aVinvestment
p92
aVcanada
p93
aVnokia
p94
aVnetwork
p95
aV10-years
p96
aVchicago
p97
aVuser-experience
p98
aVeconomist
p99
aVwikipedia
p100
aVresearch
p101
aV18-months
p102
aVfunding-round
p103
aVindian
p104
aVolympics
p105
aVlas-vegas
p106
aVdutch
p107
aVlos-angeles
p108
aVbay-area
p109
aVemail
p110
aVdisney
p111
aVeurope
p112
aVemail-address
p113
aVjavascript
p114
aVverification-code
p115
aVexchange
p116
aVwindows-phone
p117
aVmarketing
p118
aVmillion
p119
aVstate-department
p120
aVfrench
p121
aVreuters
p122
aVnew-jersey
p123
aVharvard
p124
aVcalifornia
p125
aVmarket-share
p126
aVclimate-change
p127
aVarticle
p128
aVbangalore
p129
aVsuper
p130
aVgold-medal
p131
aVblog-post
p132
aVlaw-school-degree
p133
aVukraine
p134
aVsearch
p135
aVstock-market
p136
aVproduct-development
p137
aVlanguage
p138
aVnetflix
p139
aVfreedom
p140
aVindustry
p141
aVbrazil
p142
aVflorida
p143
aVbritish
p144
aVdavid
p145
aVitunes
p146
aVchrome
p147
aVamerican
p148
aVgames
p149
aVadvertising
p150
aVsocial
p151
aV15-minutes
p152
aVchina
p153
aVitalian
p154
aVaustin
p155
aVbook
p156
aVtext-messages
p157
aVsoftware
p158
aVinsurance
p159
aV1-percent
p160
aVaustralian
p161
aVlove
p162
aVapple
p163
aVrevenue
p164
aVcommunication
p165
aVapp
p166
aVwashington
p167
aVwall-st
p168
aVentrepreneur
p169
aVsearch-engine
p170
aVfashion
p171
aVamericans
p172
aVtechnology-companies
p173
aVbusiness-models
p174
aVspanish
p175
aVcisco
p176
aVgoogle-glass
p177
aVstrategy
p178
aVgeorge
p179
aVcloud
p180
aVengineer
p181
aVconference
p182
aVviral-videos
p183
aVmanagement
p184
aVservice
p185
aVunion
p186
aV20-percent
p187
aVphiladelphia
p188
aVbill-gates
p189
aVfrance
p190
aVpress-release
p191
aVbarack-obama
p192
aVmusic
p193
aViphone
p194
aVclinton
p195
aVseries
p196
aVhollywood
p197
aVvalley
p198
aVnational
p199
aVsouth-korea
p200
aVcomcast
p201
aVbusiness-model
p202
aV24-hours
p203
aVisrael
p204
aVhealth-care
p205
aVnorth
p206
aVireland
p207
aVsquare
p208
aVbloomberg
p209
aVmiddle-east
p210
aVcompany
p211
aVpaypal
p212
aVyahoo
p213
aVwall-street
p214
aVphone
p215
aVus-world
p216
aVatlantic
p217
aVwestern
p218
aVrussian
p219
aVmark-zuckerberg
p220
aVatlanta
p221
aVarizona
p222
aVwhite
p223
aVsupreme-court
p224
aVobama
p225
aVpresident-barack-obama
p226
aVgeorgia
p227
aVlast-month
p228
aV90-percent
p229
aVstanford
p230
aVfamily-members
p231
aVscience
p232
aVcanadian
p233
aVlast-week
p234
aVgovernor
p235
aV20-years
p236
aVproject
p237
aVwindows
p238
aVnational-security-agency
p239
aVassociated-press
p240
aVcredit-card
p241
aVvideo
p242
aV70-percent
p243
aVrussia
p244
aVnew-yorker
p245
aVhistory
p246
aVcontrol
p247
aVbeijing
p248
aVsocial-media
p249
aVindonesia
p250
aVmany-people
p251
aVcomputer-science
p252
aVmexico
p253
aVboston
p254
aVofficial
p255
aVindia
p256
aVfacebook-page
p257
aVcurrency
p258
aVchennai
p259
aVbarcelona
p260
aVsequoia-capital
p261
aVsilicon-valley
p262
aVtechnology
p263
aV10-percent
p264
aVamericas
p265
aVinformation
p266
aVhong-kong
p267
aVunited
p268
aVitaly
p269
aV12-months
p270
aVdallas
p271
aVmedia
p272
aVbrand
p273
aVinterest-rates
p274
aVexecutive-director
p275
aVmachine
p276
aVapplication
p277
aVgoogle-play
p278
aVuser-base
p279
aVdigital
p280
aVwinter-olympics
p281
aVdepartment
p282
aVswitzerland
p283
aVandroid
p284
aVdocument
p285
aVmanhattan
p286
aVchannel
p287
aVeuropean
p288
aVnew-york-times
p289
aVdelhi
p290
aVwall-street-journal
p291
aVcongress
p292
aVsingapore
p293
aVafrican
p294
aVmountain-view
p295
aVdirector
p296
aVbrooklyn
p297
aVdistrict
p298
aVgermany
p299
aVmassachusetts
p300
aVstudent
p301
aVlatin-america
p302
aVpresident
p303
aVguardian
p304
aVamerica
p305
aVaffordable-care-act
p306
aVpresident-obama
p307
aVtimes
p308
aVbuilding
p309
aVcenter
p310
aVcustomer-service
p311
aVsamsung
p312
aVmobile
p313
aVvice-president
p314
aVnorth-america
p315
aVyoutube
p316
aVamazon
p317
aVsan-francisco
p318
aVsports
p319
aVbottom-line
p320
aVintelligence
p321
aVenglish
p322
aVoracle
p323
aVorganization
p324
aVwashington-post
p325
aVdemocratic
p326
aVmiddle-class
p327
aVmicrosoft
p328
aVnorth-carolina
p329
aVcapital-markets
p330
a.