(lp0
Vcompany
p1
aVfacebook
p2
aVbusiness
p3
aVgoogle
p4
aVnew-york
p5
aVamerican
p6
aVtwitter
p7
aVunited-states
p8
aVindia
p9
aVproduct
p10
aVservice
p11
aVstartup
p12
aVwashington
p13
aVmicrosoft
p14
aVobama
p15
aVtechnology
p16
aVapple
p17
aVuniversity
p18
aVapp
p19
aVandroid
p20
aVamerica
p21
aVchina
p22
aVplatform
p23
aVpercent
p24
aVindian
p25
aVcustomer
p26
aVsilicon-valley
p27
aVsan-francisco
p28
aVsochi
p29
aVrepublican
p30
aVgovernment
p31
aVpeople
p32
aVcongress
p33
aVnew-york-times
p34
aVcalifornia
p35
aVhouse
p36
aVsuper-bowl
p37
aVrussia
p38
aVcontent
p39
aVinformation
p40
aViphone
p41
aVmillion
p42
aVproblem
p43
aVolympic
p44
aVnetwork
p45
aVcountry
p46
aVexperience
p47
aVnew-york-city
p48
aVicio
p49
aVbritish
p50
aVyoutube
p51
aVprogram
p52
aV20-years
p53
aVinvestor
p54
aVeurope
p55
aVlondon
p56
aVamazon
p57
aVrussian
p58
aVgame
p59
aVinvestment
p60
aVlinkedin
p61
aVcommunity
p62
aVproject
p63
aVsoftware
p64
aVenglish
p65
aVwhite-house
p66
aVwall-street
p67
aVpresident-obama
p68
aVemployee
p69
aVchinese
p70
aVsenate
p71
aVindustry
p72
aVeuropean
p73
aVquestion
p74
aVlast-year
p75
aVcampaign
p76
aVfrench
p77
aVstartups
p78
aVinternet
p79
aVemail
p80
aVdemocratic
p81
aVwall-street-journal
p82
aVyahoo
p83
aVtechcrunch
p84
aV10-years
p85
aVpresident
p86
aVunited
p87
aVwebsite
p88
aVlos-angeles
p89
aVaccount
p90
aVjapan
p91
aVfounder
p92
aVblog-post
p93
aVtexas
p94
aVbarack-obama
p95
aVcanada
p96
aVfeature
p97
aVsocial-media
p98
aVsecurity
p99
aVvice-president
p100
aVsupport
p101
aVchicago
p102
aVentrepreneur
p103
aVfunding
p104
aVrevenue
p105
aVbuzzfeed
p106
aVpartner
p107
aVmobile
p108
aVmessage
p109
aVwinter-olympics
p110
aVclick
p111
aVfrance
p112
aVgerman
p113
aVdecision
p114
aVconsumer
p115
aVthings
p116
aVmarketing
p117
aVonline
p118
aVexample
p119
aVjapanese
p120
aVbusiness-model
p121
aVcapital
p122
aVresearch
p123
aVstudent
p124
aVflappy-bird
p125
aVafrica
p126
aVapplication
p127
aVaustralia
p128
aVnetflix
p129
aVvalentine
p130
aVsuccess
p131
aVwomen
p132
aVinstagram
p133
aVgermany
p134
aVopportunity
p135
aVfinance
p136
aVdeveloper
p137
aVapp-store
p138
aVsilicon
p139
aVsouth
p140
aVsolution
p141
aVsamsung
p142
aVsupreme-court
p143
aVchildren
p144
aVmanhattan
p145
aVceo
p146
aVboston
p147
aVemail-address
p148
aVenterprise
p149
aVgeorge
p150
aVmusic
p151
aVorganization
p152
aVcanadian
p153
aVteam
p154
aVsomeone
p155
aVflorida
p156
aVbrazil
p157
aVeconomy
p158
aVwashington-post
p159
aVbenefit
p160
aVlast-week
p161
aVmumbai
p162
aVstrategy
p163
aVreaders
p164
aVmiddle-east
p165
aVobamacare
p166
aVnew-jersey
p167
aVpinterest
p168
aVdepartment
p169
aVdelhi
p170
aVcomputer
p171
aVventure
p172
aVnorth
p173
aVconversation
p174
aVdemocrat
p175
aVuser-base
p176
aVrepublicans
p177
aVsmartphone
p178
aVsocial
p179
aVpresident-barack-obama
p180
aVbangalore
p181
aVvirginia
p182
aVunion
p183
aVus-world
p184
aVseed-funding
p185
aVsite
p186
aVhealth-care
p187
aVolympics
p188
aVaffordable-care-act
p189
aVcontrol
p190
aVengland
p191
aVangel-investors
p192
aVmichael
p193
aVlove
p194
aVnorth-america
p195
aVpayment
p196
aVharvard
p197
aVscience
p198
aVexecutive
p199
aVdavid
p200
aVfast-company
p201
aVdata
p202
aVmedia
p203
aVseattle
p204
aVprivacy
p205
aVassociated-press
p206
aV10-percent
p207
aVbitcoin
p208
aVbottom-line
p209
aVbloomberg
p210
aVeveryone
p211
aVwindows
p212
aVgames
p213
aVindonesia
p214
aVinterest
p215
aVinterview
p216
aVseries
p217
aVtailored
p218
aVsingapore
p219
aVarticle
p220
aV50-percent
p221
aVdesign
p222
aVdirector
p223
aVmanagement
p224
aVnorth-carolina
p225
aVuser-experience
p226
aVexecutive-director
p227
aVeducation
p228
aVmichigan
p229
aVatlanta
p230
aVbuzzfeed-english
p231
aVbuzzfeed-homepage
p232
aV20-percent
p233
aVstatement
p234
aVwork
p235
aVus-have
p236
aVgoogle-play
p237
aVjavascript
p238
aVcapital-markets
p239
aVflickr
p240
aVobama-administration
p241
aVpatient
p242
aVmaterial
p243
aVphilip-seymour-hoffman
p244
aVwatercooler
p245
aVversion
p246
aVpress-release
p247
aVsatya-nadella
p248
aVrelationship
p249
aVtech-companies
p250
aVdevelopment
p251
aVcomcast
p252
aVdont
p253
aVearth
p254
aVitunes
p255
aV40-percent
p256
aVventures
p257
aVvideo
p258
aVwestern
p259
aVmeeting
p260
aVmanager
p261
aVparis
p262
aVperformance
p263
aVconference
p264
aVculture
p265
aV15-years
p266
aV30-years
p267
aV500-startups
p268
aVapps
p269
aVaudience
p270
aVasian
p271
aVasset-management-read
p272
aVactivity
p273
aVadvertising
p274
aVcandidate
p275
aVcards
p276
aVstanford
p277
aVgeorgia
p278
aVlaw-school-degree
p279
aVdownload
p280
aVdropbox
p281
aVventure-capital
p282
aVwall-st
p283
aVtransaction
p284
aVspanish
p285
aVstory
p286
aVsuper
p287
aVnadella
p288
aVamericas
p289
aV80-percent
p290
aVfashion
p291
aVcommittee
p292
aVhollywood
p293
aVhuffington-post
p294
aVhealth
p295
aVgoldman-sachs
p296
aVinnovation
p297
aVintelligence
p298
aVgraduating
p299
aVpaper
p300
aVtraffic
p301
aVtime-warner-cable
p302
aVclinton
p303
aV90-percent
p304
aV24-hours
p305
aVpaypal
p306
aVnokia
p307
aVincrease
p308
aVinsurance
p309
aVskype
p310
aVproduct-development
p311
aVclimate-change
p312
aVdemocrats
p313
aVfamily-members
p314
aVtoronto
p315
aVtrack-record
p316
aVvideos
p317
aVhistory
p318
aVbill-gates
p319
aVchallenge
p320
aVapproach
p321
aVapps-software
p322
aVbrowser
p323
aVmiddle-class
p324
aVphiladelphia
p325
aVcollege
p326
aVcolorado
p327
aVspain
p328
aVsearch
p329
aVreddit
p330
aVritholtz
p331
aVpurchase
p332
aVquarter
p333
aVsnowden
p334
aVability
p335
aV1-percent
p336
aVgold-medal
p337
aVisrael
p338
aVhoffman
p339
aVexchange
p340
aVdistrict
p341
aVcoverage
p342
aVpennsylvania
p343
aVmountain-view
p344
aVmexico
p345
aVphotos
p346
aVmarch
p347
aV12-months
p348
aVaddress
p349
aVarizona
p350
aVweb
p351
aVtumblr
p352
aVstate-department
p353
aVstudents
p354
aVquora
p355
aVcloud
p356
aVdong-nguyen
p357
aVklout
p358
aVintel
p359
aVfrancisco
p360
aVfunding-round
p361
aVfreedom
p362
aVhouse-republicans
p363
aVillinois
p364
aVimmigration
p365
aVhardware
p366
aVgoogles
p367
aVlast-month
p368
aVtweets
p369
aVweather
p370
aVlocation
p371
aV30-percent
p372
aVbritain
p373
aVbusiness-models
p374
aV70-percent
p375
aVadvisor
p376
aVcenter
p377
aVdocument
p378
aVelection
p379
aVfeatures
p380
aVentrepreneurs
p381
aVcity
p382
aVdigital
p383
aVprivacy-policy
p384
aVproperty
p385
aVsteve-jobs
p386
aVread
p387
aVresearcher
p388
aVsearch-engine
p389
aVpractice
p390
aVmashable
p391
aVnational-security-agency
p392
aVnew-orleans
p393
aVlatin-america
p394
aVjanuary
p395
aVinterest-rates
p396
aVguardian
p397
aVtimes
p398
aVcustomer-service
p399
aVedward-snowden
p400
aV18-months
p401
aVbay-area
p402
aVafrican
p403
aVbusiness-owners
p404
aV10-minutes
p405
aVimmigration-reform
p406
aVindias
p407
aVitaly
p408
aVjob
p409
aVstock-market
p410
aVtechnology-companies
p411
aVnew-yorker
p412
aVpicture
p413
aVmeasure
p414
aVdata-centers
p415
aVfacebook-page
p416
aVflappy
p417
aVengineer
p418
aVwhite
p419
aVtreasury
p420
aVupdate
p421
aVunited-kingdom
p422
aVtext-messages
p423
aVvehicle
p424
aVswitzerland
p425
aVsoutheast-asia
p426
aVrequest
p427
aVrestaurant
p428
aVprovider
p429
aV15-minutes
p430
aVbook
p431
aVchannel
p432
aVattention
p433
aVaustin
p434
aVanalyst
p435
aVhawaii
p436
aVlaw-enforcement
p437
aVireland
p438
aVimage
p439
aVeverything
p440
aVevidence
p441
aVeast-coast
p442
aVdesigner
p443
aVdisney
p444
aVcisco
p445
aVmarket-share
p446
aVmany-people
p447
aVphone
p448
aVplay
p449
aVmarriage
p450
aVmessaging
p451
aVopinion
p452
aVoracle
p453
aVnational
p454
aVnew-yorkers
p455
aVnguyen
p456
aV25-years
p457
aVathlete
p458
aVauthority
p459
aV5-percent
p460
aVacquisition
p461
aVventure-capitalists
p462
aVviral-videos
p463
aVwisconsin
p464
aVwoody-allen
p465
aVworld-war-ii
p466
aVunion-address
p467
aVtech-industry
p468
aVsequoia-capital
p469
aVrelease
p470
aVresponse
p471
aVreuters
p472
aVrichard
p473
aVsports
p474
aVsochi-olympics
p475
aVdutch
p476
aVcurrency
p477
aVemployees
p478
aVcondition
p479
aVhealthcare
p480
aVfoursquare
p481
aVinvestigation
p482
aVgoogle-ventures
p483
aVgreat
p484
aVgoogle-glass
p485
aVhealth-insurance
p486
aVjames
p487
aVkentucky
p488
aVfriends
p489
aVturkey
p490
aVtwitter-account
p491
aVwindows-phone
p492
aVtime-warner
p493
aVnewspaper
p494
aVposition
p495
aVmotorola
p496
aVactor
p497
aVad-revenue
p498
aVcharacter
p499
aVatlantic
p500
aVcommerce
p501
aVcommunication
p502
aVcredit-card
p503
aVcustomer-base
p504
aVdelivery
p505
aVfederal-reserve
p506
aVfilm
p507
aVfinancial
p508
aVsnapchat
p509
aVsouth-africa
p510
aVsouth-korea
p511
aVsyria
p512
aVtech
p513
aVrs
p514
aVseahawks
p515
aVrepublican-party
p516
aVreading
p517
aVreporter
p518
aVretailer
p519
aVschool
p520
aVmissouri
p521
aVoffering
p522
aVmark-zuckerberg
p523
aVmassachusetts
p524
aVmachine
p525
aVflipkart
p526
aVfootball
p527
aVhong-kong
p528
aVhuman
p529
aVinfrastructure
p530
aVlabor
p531
aVlanguage
p532
aVvalley
p533
aVvietnam
p534
aVvladimir-putin
p535
aVfailure
p536
aVcompany-plans
p537
aVcomputer-science
p538
aVconnecticut
p539
aVchennai
p540
aVcolumbia
p541
aVeconomist
p542
aVdenver
p543
aVengagement
p544
aV60-percent
p545
aVaccelerator
p546
aVadobe
p547
aVbrand
p548
aVcategory
p549
aVchairman
p550
aVadministration
p551
aValabama
p552
aVamericans
p553
aVbrands
p554
aVbroncos
p555
aVbrooklyn
p556
aVbeijing
p557
aVblackberry
p558
aVblog-posts
p559
aVlenovo
p560
aVisraeli
p561
aVitalian
p562
aVjustice-department
p563
aVidentity
p564
aVswedish
p565
aVtarget
p566
aVsituation
p567
aVsochi-games
p568
aVsong
p569
aVpublisher
p570
aVquality
p571
aVrobert
p572
aVolympic-games
p573
aVmyntra
p574
aVnew-zealand
p575
aVmiami
p576
aVmother
p577
aVplanning
p578
aVpolice
p579
aVclimate
p580
aVconfirmation
p581
aVconnection
p582
aVdisease
p583
aVcredit-cards
p584
aVuser
p585
aVwater
p586
aVtweet
p587
aVtwitter-users
p588
aVunited-nations
p589
aVvalentine-s-day
p590
aVvalentines
p591
aVvalentines-day
p592
aVvancouver
p593
aVthursday
p594
aVtime-period
p595
aVwearable
p596
aVsoviet
p597
aVsearch-engines
p598
aVspending
p599
aVspending-time
p600
aVsquare
p601
aVstorm
p602
aVresident
p603
aVblack
p604
aVadvertiser
p605
aVcapitol-hill
p606
aVaustralian
p607
aV25-percent
p608
aV30-minutes
p609
aVairbnb
p610
aVapp-developers
p611
aVhospital
p612
aVfrank
p613
aVgithub
p614
aVgrowth
p615
aVjohnson
p616
aVjournalist
p617
aVjustice
p618
aVkansas
p619
aVleadership
p620
aVdaily
p621
aVdallas
p622
aVcode
p623
aVfamily
p624
aVdetroit
p625
aVpopulation
p626
aVnetherlands
p627
aVnew-delhi
p628
aVofficer
p629
aVminnesota
p630
aVmaryland
p631
aVmcconnell
p632
aVpage
p633
aVpacific
p634
aVpalo-alto
p635
aVphilippines
p636
aVmarketer
p637
aVopening-ceremony
p638
aVmitt-romney
p639
aVmorning
p640
aVmozilla
p641
aVbarcelona
p642
aVberkeley
p643
aVaccel-partners
p644
aVafghanistan
p645
aV100-percent
p646
aV2014-winter-olympics
p647
aVbusiness-leaders
p648
aVtelevision
p649
aVtime
p650
aVtuesday-night
p651
aVtwilio
p652
aVreceive-etsy-finds
p653
aVslate
p654
aVsnow
p655
aVsalesforce
p656
aVtech-world
p657
aVstarbucks
p658
aVproposal
p659
aVchrome
p660
aVclicking-register
p661
aVcoffee-shop
p662
aVcollege-students
p663
aVetsy-finds
p664
aVevent
p665
aVcontribution
p666
aVlearning
p667
aVgay
p668
aVgovernor
p669
aVimages
p670
aVjournal
p671
aVjournalism
p672
aVios-app
p673
aViphones
p674
aViphone-app
p675
aVgeorge-w
p676
aVgoldman
p677
aVgoogle-play-store
p678
aVlas-vegas
p679
aVlearn
p680
aVfollower
p681
aVjoe-biden
p682
aVhouston
p683
aVthailand
p684
aVwechat
p685
aVwelcome
p686
aVwikipedia
p687
aVvideo-games
p688
aVviolence
p689
aVyoung
p690
aVmidwest
p691
aVmovies
p692
aVnsa
p693
aVoakland
p694
aVoperation
p695
aVphone-numbers
p696
aVphoto
p697
aVportfolio
p698
aVmedia-attention
p699
aVmedia-company
p700
aVboehner
p701
aVbrain
p702
aVbusiness-development
p703
aVbusiness-insider
p704
aVcapitol
p705
aValaska
p706
aV75-percent
p707
aVapples
p708
aVattorney
p709
aVconcern
p710
aVcrowdfunding
p711
aVend-users
p712
aVfinland
p713
aVright-thing
p714
aVright-time
p715
aVspace
p716
aVtea-party
p717
aVteam-members
p718
aVtechnology-company
p719
aVsearch-results
p720
aVsecret
p721
aVscience-fiction
p722
aVscientist
p723
aVseattle-seahawks
p724
aVsenator
p725
aVright-direction
p726
aVright-way
p727
aVrevenue-growth
p728
aVspeaker
p729
aVspotify
p730
aVsteve
p731
aVstories
p732
aVmarketplace
p733
aVmartin
p734
aVmedicaid
p735
aVmedicare
p736
aVpartnership
p737
aVpersona
p738
aVlists
p739
aVlouisiana
p740
aVphone-interview
p741
aVportland
p742
aVmodel
p743
aVmoscow
p744
aVmountain
p745
aVobamas
p746
aVoscar
p747
aVideas
p748
aVinitiative
p749
aVinternational
p750
aVipad-app
p751
aVjackson
p752
aVforbes
p753
aVfun
p754
aVwilliam
p755
aVwinter-games
p756
aVwinter-storm
p757
aVtraining
p758
aVtuesday
p759
aVvote
p760
aVfeeling
p761
aVcontent-creators
p762
aVchris-christie
p763
aVdebt-ceiling
p764
aVdel
p765
aVdenver-broncos
p766
aVenergy
p767
aVepisode
p768
aVcustomer-experience
p769
aVcentury
p770
aVbarack
p771
aVbill-clinton
p772
aVbluetooth
p773
aV50-years
p774
aVactivist
p775
aV40-years
p776
aVallen
p777
aVanalytic
p778
aVandreessen-horowitz
p779
aVangellist
p780
aVanything
p781
aVapartment
p782
aVapp-stores
p783
aVcentral
p784
aVarkansas
p785
aVart
p786
aVbroadway
p787
aVbrother
p788
aV12-years
p789
aV21-st-century
p790
aV30-seconds
p791
aVbeatles
p792
aVblasio
p793
aVair-force
p794
aVfull-story
p795
aVim
p796
aVkickstarter-campaign
p797
aVkids
p798
aVgetty-images
p799
aVgmail
p800
aVgolden-globes
p801
aVgovernment-officials
p802
aVjordan
p803
aVgroupon
p804
aVhillary-clinton
p805
aVscott
p806
aVsurveillance
p807
aVsv-angel
p808
aVsweden
p809
aVsyrian
p810
aVteacher
p811
aVsign
p812
aVnorth-american
p813
aVpassword
p814
aVmarket-cap
p815
aVmedia-companies
p816
aVmessages
p817
aVneighborhood
p818
aVmistake
p819
aVlot
p820
aVmanagement-team
p821
aVpittsburgh
p822
aVcreate
p823
aVcreative
p824
aVdaily-beast
p825
aVdata-center
p826
aVdavis
p827
aVchris
p828
aVclients
p829
aVcloud-services
p830
aVcollection
p831
aVfacebooks
p832
aVfarm-bill
p833
aVfebruary
p834
aVfeedback
p835
aVfirefox
p836
aVcompetition
p837
aVconstruction
p838
aVemotion
p839
aVeconomic
p840
aVdevice
p841
aVdisplay
p842
aVverizon
p843
aVwearable-tech
p844
aVzynga
p845
aVthousand
p846
aVtickets
p847
aVukraine
p848
aVusa-today
p849
aVtreatment
p850
aVuber
p851
aVunemployment
p852
aVuser-data
p853
aVvalue-proposition
p854
aVwindows-8
p855
aVtemperature
p856
aVthompson
p857
aVsmartphones
p858
aVsoutheast
p859
aVstar-wars
p860
aVstatus-updates
p861
aVsan-diego
p862
aVpress-conference
p863
aVputin
p864
aVtaiwan
p865
aVtalent
p866
aVretirement
p867
aVsection
p868
aVseed-round
p869
aVservice-providers
p870
aVshaun-white
p871
aV5-years
p872
aVacademy
p873
aVadvisors
p874
aVassistant-professor
p875
aVathletes
p876
aVaustria
p877
aValbum
p878
aVandroid-app
p879
aVcharles
p880
aVbehavior
p881
aVboard
p882
aVbusiness-plan
p883
aV12-percent
p884
aV15-percent
p885
aV16-years
p886
aVgrocery-store
p887
aVlife
p888
aVfund
p889
aVfuture
p890
aVgain-access
p891
aVhttp
p892
aVice-storm
p893
aVkansas-city
p894
aVgates
p895
aVinstance
p896
aVinternet-access
p897
aVinvestors
p898
aViphone-5
p899
aVday-job
p900
aVdeath
p901
aVdebt-limit
p902
aVdecember
p903
aVdecember-2013
p904
aVdefense
p905
aVdevices
p906
aVcouples
p907
aVcustomers
p908
aVdaughter
p909
aVchristmas
p910
aVdonation
p911
aVdylan-farrow
p912
aVearning
p913
aVcomments-section
p914
aVcompetitor
p915
aVconcept
p916
aVcontact
p917
aVcontract
p918
aVenvironment
p919
aVexecutive-vice-president
p920
aVpeyton-manning
p921
aVmen
p922
aVmessaging-app
p923
aVparty
p924
aVnevada
p925
aVnew-hampshire
p926
aVnew-york-fashion-week
p927
aVnews
p928
aVnigeria
p929
aVmorgan-stanley
p930
aVmission
p931
aVmuseum
p932
aVmarijuana
p933
aVmexican
p934
aVoffice-space
p935
aVoklahoma
p936
aVpew-research-center
p937
aVplayers
p938
aVnielsen
p939
aVmap
p940
aVpeople-dont
p941
aVpeople-use
p942
aV10-days
p943
aV17-percent
p944
aV18-percent
p945
aV20-minutes
p946
aVanalysis
p947
aVanalytics
p948
aVandroid-apps
p949
aVaol
p950
aV6-months
p951
aVabc-news
p952
aVaccess
p953
aVbreast-cancer
p954
aVbrian
p955
aVcable
p956
aVblog
p957
aVuser-growth
p958
aVuser-interface
p959
aVventurebeat
p960
aVwatch
p961
aVy-combinator
p962
aVweb-site
p963
aVwoman
p964
aVsan-jose
p965
aVsouth-carolina
p966
aVsouthern
p967
aVstandard
p968
aVstartup-ecosystem
p969
aVsteve-ballmer
p970
aVreality
p971
aVresource
p972
aVted-cruz
p973
aVemail-addresses
p974
aVemployer
p975
aVend-result
p976
aVenter
p977
aVexecutive-officer
p978
aVeyes
p979
aVfederal
p980
aVfitness
p981
aVdemocratic-party
p982
aVconference-room
p983
aVcontent-marketing
p984
aVcheck
p985
aVchristie
p986
aVcitizen
p987
aVcoach
p988
aVcolumbia-university
p989
aVeastern-europe
p990
aVindividual
p991
aVinfluence
p992
a.