(lp0
Vnew-orleans
p1
aV70-percent
p2
aVchinese
p3
aVrestaurant
p4
aVgerman
p5
aVexecutive
p6
aVtech-companies
p7
aVviral-videos
p8
aVtime-warner-cable
p9
aVmanager
p10
aVpaper
p11
aVlondon
p12
aVasian
p13
aVcommittee
p14
aVmarket-share
p15
aVjapan
p16
aVillinois
p17
aVfast-company
p18
aVchildren
p19
aVcolorado
p20
aVweb
p21
aVlaw-enforcement
p22
aV10-minutes
p23
aVlast-month
p24
aVmumbai
p25
aVparis
p26
aVhuffington-post
p27
aVapps-software
p28
aVlast-year
p29
aVplatform
p30
aVprogram
p31
aVimmigration
p32
aVspain
p33
aVtime-warner
p34
aVwhite-house
p35
aVweather
p36
aVhealth
p37
aVwomen
p38
aVtexas
p39
aVattention
p40
aV50-percent
p41
aVaustralia
p42
aVmarch
p43
aVgovernment
p44
aVceo
p45
aVafrica
p46
aVmichigan
p47
aVwinter-olympics
p48
aVgoldman-sachs
p49
aVvirginia
p50
aVnew-york
p51
aVtraffic
p52
aVamazon
p53
aVswitzerland
p54
aVfacebook
p55
aVcanadian
p56
aVsuper-bowl
p57
aVrepublican
p58
aVseattle
p59
aVvalentine-s-day
p60
aVtoronto
p61
aVintel
p62
aV80-percent
p63
aVseed-funding
p64
aVcisco
p65
aVuniversity
p66
aVmichael
p67
aVdemocrat
p68
aVdetroit
p69
aVsoutheast-asia
p70
aVeast-coast
p71
aVnew-york-city
p72
aVunited-states
p73
aVteam
p74
aVapp-store
p75
aV30-years
p76
aVsecurity
p77
aVfrancisco
p78
aVdemocrats
p79
aVsteve-jobs
p80
aVcollege
p81
aVolympic
p82
aVgoogle
p83
aVengland
p84
aVpeople
p85
aVsenate
p86
aVhouse
p87
aVtwitter
p88
aVspanish
p89
aVcommunication
p90
aVjapanese
p91
aVculture
p92
aVcomputer
p93
aVdesign
p94
aVelection
p95
aVearth
p96
aVdownload
p97
aVcategory
p98
aVinvestment
p99
aVcanada
p100
aVafghanistan
p101
aVnokia
p102
aVcustomer-base
p103
aVnetwork
p104
aV10-years
p105
aVchicago
p106
aVuser-experience
p107
aVeconomist
p108
aVdata-centers
p109
aVresearch
p110
aV18-months
p111
aVindian
p112
aVolympics
p113
aVguardian
p114
aVlos-angeles
p115
aVbay-area
p116
aVemail
p117
aVdisney
p118
aVeurope
p119
aVturkey
p120
aVemail-address
p121
aVjavascript
p122
aVexchange
p123
aVmarketing
p124
aVmillion
p125
aVstate-department
p126
aVsochi-games
p127
aVfrench
p128
aVwater
p129
aVnew-jersey
p130
aVharvard
p131
aVcalifornia
p132
aVvietnam
p133
aVclimate-change
p134
aVarticle
p135
aVbangalore
p136
aVsuper
p137
aVgold-medal
p138
aVblog-post
p139
aVlaw-school-degree
p140
aV24-hours
p141
aVsearch
p142
aVstock-market
p143
aVproduct-development
p144
aVlanguage
p145
aVnetflix
p146
aVfreedom
p147
aVindustry
p148
aVbrazil
p149
aVflorida
p150
aVmissouri
p151
aVbritish
p152
aVdavid
p153
aVitunes
p154
aVamerican
p155
aVgames
p156
aVadvertising
p157
aVsocial
p158
aV15-minutes
p159
aVchina
p160
aVitalian
p161
aVnew-yorker
p162
aVbook
p163
aVtreasury
p164
aVsoftware
p165
aVinsurance
p166
aV1-percent
p167
aVaustralian
p168
aVunited-kingdom
p169
aVlove
p170
aVapple
p171
aVrevenue
p172
aVlatin-america
p173
aVapp
p174
aVwashington
p175
aVwall-st
p176
aVentrepreneur
p177
aVsearch-engine
p178
aVfashion
p179
aVamericans
p180
aVtechnology-companies
p181
aVbusiness-models
p182
aVobama-administration
p183
aVmany-people
p184
aVgoogle-glass
p185
aVstrategy
p186
aVgeorge
p187
aVcloud
p188
aVengineer
p189
aVconference
p190
aVcity
p191
aVmanagement
p192
aVservice
p193
aVunion
p194
aV20-percent
p195
aVphiladelphia
p196
aVbill-gates
p197
aVfrance
p198
aVpress-release
p199
aVbarack-obama
p200
aVmusic
p201
aViphone
p202
aVclinton
p203
aVseries
p204
aVhollywood
p205
aVvalley
p206
aVsouth-korea
p207
aVcomcast
p208
aVbusiness-model
p209
aVisrael
p210
aVnorth
p211
aVireland
p212
aVbloomberg
p213
aVmiddle-east
p214
aVcompany
p215
aVpaypal
p216
aVyahoo
p217
aVtext-messages
p218
aVwall-street
p219
aVphone
p220
aVus-world
p221
aVwestern
p222
aVrussian
p223
aVatlanta
p224
aVarizona
p225
aVwhite
p226
aVsupreme-court
p227
aVobama
p228
aVpresident-barack-obama
p229
aVgeorgia
p230
aVmiddle-class
p231
aV90-percent
p232
aV25-percent
p233
aVstanford
p234
aVfamily-members
p235
aVscience
p236
aV5-percent
p237
aVofficial
p238
aVlast-week
p239
aVkentucky
p240
aV20-years
p241
aVproject
p242
aVwindows
p243
aVmarriage
p244
aVassociated-press
p245
aVvideo
p246
aVproperty
p247
aVrussia
p248
aVhistory
p249
aVcontrol
p250
aVsocial-media
p251
aVnorth-america
p252
aVassociated
p253
aVmexico
p254
aVboston
p255
aVhealth-care
p256
aVindia
p257
aVcurrency
p258
aVbritain
p259
aVnational-security-agency
p260
aVsilicon-valley
p261
aVtechnology
p262
aVnorth-carolina
p263
aVamericas
p264
aVworld-war-ii
p265
aVinformation
p266
aVunited
p267
aVitaly
p268
aVexecutive-director
p269
aV12-months
p270
aVphilip-seymour-hoffman
p271
aVmedia
p272
aVsong
p273
aVinterest-rates
p274
aV10-percent
p275
aVmachine
p276
aVapplication
p277
aVgoogle-play
p278
aVuser-base
p279
aVdigital
p280
aVonline
p281
aVdepartment
p282
aVfunding-round
p283
aVandroid
p284
aVdocument
p285
aVtrack-record
p286
aVmanhattan
p287
aVchannel
p288
aVeuropean
p289
aVnew-york-times
p290
aVdelhi
p291
aVwall-street-journal
p292
aVcongress
p293
aVsingapore
p294
aVafrican
p295
aVvladimir-putin
p296
aVdutch
p297
aVmountain-view
p298
aVprivacy-policy
p299
aVdirector
p300
aVpennsylvania
p301
aVdistrict
p302
aVgermany
p303
aVmassachusetts
p304
aVstudent
p305
aVclimate
p306
aVimmigration-reform
p307
aVpresident
p308
aVamerica
p309
aVaffordable-care-act
p310
aVhouse-republicans
p311
aVpresident-obama
p312
aVtimes
p313
aVbuilding
p314
aVchennai
p315
aVcenter
p316
aVcustomer-service
p317
aVsamsung
p318
aVmobile
p319
aVaustin
p320
aVvice-president
p321
aVindonesia
p322
aVyoutube
p323
aVgame
p324
aVsan-francisco
p325
aVunion-address
p326
aVsports
p327
aVbottom-line
p328
aVintelligence
p329
aVenglish
p330
aVgreat
p331
aVorganization
p332
aVwashington-post
p333
aVdemocratic
p334
aVmicrosoft
p335
aVcapital-markets
p336
a.