(lp0
Vcompany
p1
aVfacebook
p2
aVgoogle
p3
aVnew-york
p4
aVamerican
p5
aVtwitter
p6
aVunited-states
p7
aVindia
p8
aVservice
p9
aVwashington
p10
aVobama
p11
aVtechnology
p12
aVmicrosoft
p13
aVuniversity
p14
aVandroid
p15
aVapple
p16
aVamerica
p17
aVindian
p18
aVapp
p19
aVchina
p20
aVplatform
p21
aVsan-francisco
p22
aVpeople
p23
aVgovernment
p24
aVsilicon-valley
p25
aVrepublican
p26
aVrussia
p27
aVcalifornia
p28
aVcongress
p29
aVhouse
p30
aVolympic
p31
aVnew-york-times
p32
aViphone
p33
aVinformation
p34
aVsuper-bowl
p35
aVmillion
p36
aVyoutube
p37
aVnetwork
p38
aVbritish
p39
aVnew-york-city
p40
aVrussian
p41
aV20-years
p42
aVprogram
p43
aVeurope
p44
aVlondon
p45
aVproject
p46
aVinvestment
p47
aVgame
p48
aVamazon
p49
aVsoftware
p50
aVwhite-house
p51
aVindustry
p52
aVenglish
p53
aVchinese
p54
aVpresident-obama
p55
aVlast-year
p56
aVsenate
p57
aVwall-street
p58
aVwall-street-journal
p59
aVfrench
p60
aVeuropean
p61
aVunited
p62
aVpresident
p63
aV10-years
p64
aVdemocratic
p65
aVjapan
p66
aVlos-angeles
p67
aVemail
p68
aVyahoo
p69
aVcanada
p70
aVsocial-media
p71
aVtexas
p72
aVbarack-obama
p73
aVblog-post
p74
aVchicago
p75
aVwinter-olympics
p76
aVsecurity
p77
aVvice-president
p78
aVentrepreneur
p79
aVonline
p80
aVnetflix
p81
aVfrance
p82
aVresearch
p83
aVbuilding
p84
aVbusiness-model
p85
aVjapanese
p86
aVrevenue
p87
aVofficial
p88
aVmarketing
p89
aVmobile
p90
aVstudent
p91
aVgerman
p92
aVaustralia
p93
aVwomen
p94
aVapplication
p95
aVafrica
p96
aVflorida
p97
aVboston
p98
aVgermany
p99
aVapp-store
p100
aVcanadian
p101
aVsamsung
p102
aVmumbai
p103
aVlove
p104
aVceo
p105
aVchildren
p106
aVemail-address
p107
aVolympics
p108
aVteam
p109
aVsupreme-court
p110
aVmusic
p111
aVnew-jersey
p112
aVdelhi
p113
aVstrategy
p114
aVus-world
p115
aVorganization
p116
aVmanhattan
p117
aVwashington-post
p118
aVbangalore
p119
aVbrazil
p120
aVcomputer
p121
aVgeorge
p122
aVmichael
p123
aVnorth
p124
aVpresident-barack-obama
p125
aVvirginia
p126
aVdemocrat
p127
aVscience
p128
aVhealth-care
p129
aVdepartment
p130
aVengland
p131
aVaffordable-care-act
p132
aVlast-week
p133
aVmiddle-east
p134
aVunion
p135
aVsocial
p136
aVcontrol
p137
aVuser-base
p138
aVindonesia
p139
aVfast-company
p140
aVseries
p141
aVdavid
p142
aVarticle
p143
aVharvard
p144
aVdesign
p145
aVsingapore
p146
aVseed-funding
p147
aVassociated-press
p148
aVbottom-line
p149
aV50-percent
p150
aVwestern
p151
aVearth
p152
aVnorth-america
p153
aVexecutive
p154
aVclimate-change
p155
aVculture
p156
aVbloomberg
p157
aV10-percent
p158
aVwindows
p159
aVnorth-carolina
p160
aVmedia
p161
aVmichigan
p162
aVseattle
p163
aV20-percent
p164
aVcapital-markets
p165
aVgames
p166
aVdirector
p167
aVmanager
p168
aVuser-experience
p169
aVvideo
p170
aVexecutive-director
p171
aVobama-administration
p172
aVatlanta
p173
aVconference
p174
aVcomcast
p175
aVmanagement
p176
aVjavascript
p177
aVlaw-school-degree
p178
aVhealth
p179
aVgoogle-play
p180
aVasian
p181
aVadvertising
p182
aV30-years
p183
aVwall-st
p184
aVtech-companies
p185
aVpress-release
p186
aVitunes
p187
aVhollywood
p188
aVclinton
p189
aVcommittee
p190
aVphilip-seymour-hoffman
p191
aVparis
p192
aV90-percent
p193
aV80-percent
p194
aVamericas
p195
aVfashion
p196
aVgeorgia
p197
aVhuffington-post
p198
aVcollege
p199
aVstanford
p200
aVsuper
p201
aVspanish
p202
aVtraffic
p203
aVexchange
p204
aVinsurance
p205
aVproduct-development
p206
aVhistory
p207
aVgold-medal
p208
aVmiddle-class
p209
aV24-hours
p210
aVcolorado
p211
aVdownload
p212
aVdemocrats
p213
aVgoldman-sachs
p214
aVintelligence
p215
aVtime-warner-cable
p216
aVtoronto
p217
aVapps-software
p218
aVlast-month
p219
aVsearch
p220
aVpaypal
p221
aVcity
p222
aVbill-gates
p223
aV1-percent
p224
aVspain
p225
aVstate-department
p226
aVsports
p227
aVpaper
p228
aVphone
p229
aVnokia
p230
aVfamily-members
p231
aVinterest-rates
p232
aVassociated
p233
aVbusiness-models
p234
aVcenter
p235
aVelection
p236
aVcustomer-service
p237
aVdocument
p238
aVmexico
p239
aVmany-people
p240
aVmarch
p241
aVtechnology-companies
p242
aVtrack-record
p243
aVphiladelphia
p244
aVbritain
p245
aVintel
p246
aVisrael
p247
aVfreedom
p248
aVfrancisco
p249
aVweather
p250
aVweb
p251
aVwhite
p252
aVtimes
p253
aVdigital
p254
aVdisney
p255
aVdistrict
p256
aVcloud
p257
aVmountain-view
p258
aVarizona
p259
aVbook
p260
aVpennsylvania
p261
aVproperty
p262
aVsearch-engine
p263
aVengineer
p264
aVhouse-republicans
p265
aVireland
p266
aVsteve-jobs
p267
aV70-percent
p268
aV10-minutes
p269
aV12-months
p270
aV18-months
p271
aVnew-orleans
p272
aVnational-security-agency
p273
aVkentucky
p274
aVlatin-america
p275
aVimmigration
p276
aVguardian
p277
aVitaly
p278
aVfunding-round
p279
aVprivacy-policy
p280
aVcurrency
p281
aV5-percent
p282
aVaustin
p283
aVstock-market
p284
aVswitzerland
p285
aVtreasury
p286
aVunited-kingdom
p287
aVsoutheast-asia
p288
aVtext-messages
p289
aVvladimir-putin
p290
aVunion-address
p291
aVrestaurant
p292
aVmassachusetts
p293
aVnew-yorker
p294
aVillinois
p295
aVimmigration-reform
p296
aVbay-area
p297
aVafrican
p298
aVeconomist
p299
aVdutch
p300
aVeast-coast
p301
aVcommunication
p302
aVcisco
p303
aVclimate
p304
aVdetroit
p305
aVchennai
p306
aVdata-centers
p307
aVmachine
p308
aVmarriage
p309
aVlaw-enforcement
p310
aVmissouri
p311
aVturkey
p312
aVsochi-games
p313
aVsong
p314
aVsouth-korea
p315
aVworld-war-ii
p316
aVvalentine-s-day
p317
aVvalley
p318
aVwater
p319
aVreuters
p320
aVamericans
p321
aV15-minutes
p322
aVattention
p323
aVhawaii
p324
aVgreat
p325
aVfacebook-page
p326
aVfriends
p327
aVgay
p328
aVhuman
p329
aVfederal-reserve
p330
aVgoogle-glass
p331
aVitalian
p332
aVsochi-olympics
p333
aVsoviet
p334
aVsyria
p335
aVviral-videos
p336
aVmarket-share
p337
aVafghanistan
p338
aVaustralian
p339
aV25-percent
p340
aVrichard
p341
aVreading
p342
aVplay
p343
aVphilippines
p344
aVphone-numbers
p345
aVreporter
p346
aVrepublican-party
p347
aVoracle
p348
aVcredit-card
p349
aVcredit-cards
p350
aVcustomer-base
p351
aVdallas
p352
aVcategory
p353
aVchannel
p354
aVdisease
p355
aVhealth-insurance
p356
aVfinancial
p357
aVgoogle-ventures
p358
aVvietnam
p359
aVwisconsin
p360
aVtwitter-account
p361
aVtech-industry
p362
aV100-percent
p363
aV2014-winter-olympics
p364
aV25-years
p365
aVnational
p366
aVlanguage
p367
aVlas-vegas
p368
aVnew-zealand
p369
aVnew-delhi
p370
aVnew-yorkers
p371
aVmark-zuckerberg
p372
aVjames
p373
aVmother
p374
aVmotorola
p375
aVgovernor
p376
aVinfrastructure
p377
aVisraeli
p378
aVhong-kong
p379
aVfailure
p380
aVolympic-games
p381
aVrelease
p382
aVschool
p383
aVapp-developers
p384
aVatlantic
p385
aVactor
p386
aVad-revenue
p387
aVbrooklyn
p388
aVswedish
p389
aVwindows-phone
p390
aVwoody-allen
p391
aVspace
p392
aVvancouver
p393
aVtime-warner
p394
aVunited-nations
p395
aVsequoia-capital
p396
aVvalentines-day
p397
aVstorm
p398
aVpolice
p399
aVnewspaper
p400
aVminnesota
p401
aVmitt-romney
p402
aVlabor
p403
aVfamily
p404
aV30-minutes
p405
aVbrand
p406
a.