(lp0
(S'GobarGuinness'
p1
VN 28\ufffd 30' 0'' / E 77\ufffd 10' 0''
p2
S'BBCIndia'
p3
S'digital-indians'
p4
I267600082
tp5
a(S'raju'
p6
S'New York, New York'
p7
g3
g4
I224180296
tp8
a(S'theRohitBansal'
p9
S'India'
p10
g3
g4
I215224249
tp11
a(S'lakshmirebecca'
p12
S'Bangalore'
p13
g3
g4
I178248558
tp14
a(S'sharmashradha'
p15
S'Bangalore '
p16
g3
g4
I171009315
tp17
a(S'sampitroda'
p18
V
p19
g3
g4
I147493686
tp20
a(S'kiranshaw'
p21
S'Bangalore'
p22
g3
g4
I145607857
tp23
a(S'mmathew1'
p24
S'Kerala'
p25
g3
g4
I103779164
tp26
a(S'krishnabharat'
p27
g19
g3
g4
I80784646
tp28
a(S'neerajroy'
p29
S'Bombay'
p30
g3
g4
I72097956
tp31
a(S'NaveenTewari'
p32
S'SFO or BLR'
p33
g3
g4
I67557021
tp34
a(S'neetukyazoonga'
p35
g19
g3
g4
I43563011
tp36
a(S'rvenk'
p37
S'bangalore india '
p38
g3
g4
I42414515
tp39
a(S'vkhosla'
p40
g19
g3
g4
I42226885
tp41
a(S'sbikh'
p42
S'New Delhi'
p43
g3
g4
I35745089
tp44
a(S'wadhwa'
p45
S'San Francisco'
p46
g3
g4
I32718488
tp47
a(S'shaileshrao'
p48
S'Everywhere/Nowhere/SG'
p49
g3
g4
I29395505
tp50
a(S'hitobs'
p51
S'New Delhi'
p52
g3
g4
I18630428
tp53
a(S'theamitsinghal'
p54
S'California'
p55
g3
g4
I18059898
tp56
a(S'vijayshekhar'
p57
S'New Delhi'
p58
g3
g4
I17239667
tp59
a.