(lp0
(S'questCNN'
p1
S'New York'
p2
S'cnni'
p3
S'business'
p4
I705091592
tp5
a(S'AlannaPetroff'
p6
S'London, U.K.'
p7
g3
g4
I474983217
tp8
a(S'CNNGlobalEx'
p9
S'Abu Dhabi'
p10
g3
g4
I390658067
tp11
a(S'IsaCNN'
p12
S'London'
p13
g3
g4
I388388260
tp14
a(S'IreneCNN'
p15
S'london'
p16
g3
g4
I385534328
tp17
a(S'calebsilver'
p18
S''
p19
g3
g4
I137911106
tp20
a(S'andrewcnn'
p21
S'Hong Kong'
p22
g3
g4
I133640329
tp23
a(S'JimBouldenCNN'
p24
S'London'
p25
g3
g4
I116658090
tp26
a(S'GayleCNN'
p27
S'New York'
p28
g3
g4
I108915866
tp29
a(S'JDefteriosCNN'
p30
g19
g3
g4
I107078762
tp31
a(S'CNNWBT'
p32
S'Hong Kong, London and New York'
p33
g3
g4
I89207310
tp34
a(S'NdosSantosCNN'
p35
S'London'
p36
g3
g4
I77444951
tp37
a(S'PoppyHarlowCNN'
p38
S'New York'
p39
g3
g4
I69480815
tp40
a(S'CharlesHodsnCNN'
p41
S'London'
p42
g3
g4
I62744004
tp43
a(S'markthompsoncnn'
p44
S'London'
p45
g3
g4
I56764010
tp46
a(S'maggielake'
p47
S'New York'
p48
g3
g4
I31432492
tp49
a(S'PepperReports'
p50
S'London'
p51
g3
g4
I20481586
tp52
a(S'richardquest'
p53
S'Worldwide'
p54
g3
g4
I16681542
tp55
a(S'CNNMoney'
p56
g19
g3
g4
I16184358
tp57
a(S'pennymanis'
p58
S'NYC'
p59
g3
g4
I14947386
tp60
a.