(lp0
(S'yoonrob'
p1
S'USA'
p2
S'CNNPolitics'
p3
S'cnn-political-team'
p4
I620618811
tp5
a(S'ErinBurnett'
p6
S'NY, NY'
p7
g3
g4
I322603418
tp8
a(S'CNNOpinion'
p9
S''
p10
g3
g4
I259074538
tp11
a(S'David_Gergen'
p12
S'Everywhere'
p13
g3
g4
I243291022
tp14
a(S'BryanMonroeCNN'
p15
S'Washington, DC'
p16
g3
g4
I236044880
tp17
a(S'KevinBohnCNN'
p18
S'Washington, D.C. '
p19
g3
g4
I128659076
tp20
a(S'ShanTravisCNN'
p21
S'Washington DC'
p22
g3
g4
I117809503
tp23
a(S'LisaDCNN'
p24
S'Washington, DC'
p25
g3
g4
I114050808
tp26
a(S'DanaBashCNN'
p27
S'Washington, D.C.'
p28
g3
g4
I108617810
tp29
a(S'adamplevycnn'
p30
g10
g3
g4
I89222289
tp31
a(S'TashaCNN'
p32
S'Washington, DC'
p33
g3
g4
I84164042
tp34
a(S'psteinhauserCNN'
p35
S'Washington DC'
p36
g3
g4
I82643763
tp37
a(S'CNNPR'
p38
g10
g3
g4
I71349174
tp39
a(S'wolfblitzer'
p40
S'Washington D.C.'
p41
g3
g4
I71294756
tp42
a(S'SamFeistCNN'
p43
S'Washington, D.C.'
p44
g3
g4
I47694175
tp45
a(S'brikeilarcnn'
p46
S'Washington, DC'
p47
g3
g4
I46817943
tp48
a(S'ErinMcPike'
p49
S'Washington, D.C.'
p50
g3
g4
I35027698
tp51
a(S'CNNSitRoom'
p52
S'Washington '
p53
g3
g4
I34310801
tp54
a(S'JohnKingCNN'
p55
S'Washington, D.C.'
p56
g3
g4
I30043495
tp57
a(S'crowleyCNN'
p58
S'Washington, DC'
p59
g3
g4
I27901418
tp60
a.