(lp0
(S'cqrcDataMine'
p1
S'Washington, DC'
p2
S'cspan'
p3
S'congressional-media'
p4
I567533818
tp5
a(S'RobMargetta'
p6
S''
p7
g3
g4
I408195377
tp8
a(S'MelissaAttias'
p9
S'Washington, D.C.'
p10
g3
g4
I347395654
tp11
a(S'ashuppy'
p12
S'Washington, DC/Nashville, TN'
p13
g3
g4
I345158526
tp14
a(S'StaceyGoers'
p15
S'Washington, D.C.'
p16
g3
g4
I326208966
tp17
a(S'LauraLitvan'
p18
S'Washington, D.C. '
p19
g3
g4
I313545488
tp20
a(S'CritterDJ'
p21
S'Washington D.C.'
p22
g3
g4
I301014412
tp23
a(S'ekhatami'
p24
S'Washington, DC'
p25
g3
g4
I285252127
tp26
a(S'BobCusack'
p27
S'Washington, DC'
p28
g3
g4
I266830495
tp29
a(S'clararitger'
p30
S'Washington, D.C.'
p31
g3
g4
I252456072
tp32
a(S'jjschatz'
p33
g7
g3
g4
I249384564
tp34
a(S'APAndrewTaylor'
p35
g7
g3
g4
I245412130
tp36
a(S'Emma_Dumain'
p37
S'Washington, D.C.'
p38
g3
g4
I243337600
tp39
a(S'singernews'
p40
S'Washington, DC'
p41
g3
g4
I242418441
tp42
a(S'emilyhholden'
p43
S'Washington, D.C.'
p44
g3
g4
I240135871
tp45
a(S'Neda_Semnani'
p46
S'D.C.'
p47
g3
g4
I227841653
tp48
a(S'KellyO'
p49
S'Washington, DC'
p50
g3
g4
I224320485
tp51
a(S'dcbigjohn'
p52
S'washington dc'
p53
g3
g4
I222622640
tp54
a(S'Gardner_LM'
p55
S'Washington, DC'
p56
g3
g4
I221563863
tp57
a(S'davidhawkings'
p58
S'Washington, D.C.'
p59
g3
g4
I218982732
tp60
a.