(lp0
(S'RepByrne'
p1
S'Southwest Alabama'
p2
S'cspan'
p3
S'members-of-congress'
p4
tp5
a(S'RepGuthrie'
p6
S"Kentucky's Second District"
p7
g3
g4
tp8
a(S'ChiesaNews'
p9
S'Washington, DC'
p10
g3
g4
tp11
a(S'Rep_Hunter'
p12
S''
p13
g3
g4
tp14
a(S'RepChrisSmith'
p15
g13
g3
g4
tp16
a(S'RepTimWalz'
p17
g13
g3
g4
tp18
a(S'RepJuanVargas'
p19
S'SD/Imperial Counties, CA'
p20
g3
g4
tp21
a(S'JuliaBrownley26'
p22
g13
g3
g4
tp23
a(S'RepCardenas'
p24
S'San Fernando Valley, CA'
p25
g3
g4
tp26
a(S'SteveScalise'
p27
S'Jefferson, LA'
p28
g3
g4
tp29
a(S'repmarkpocan'
p30
S'Madison, WI and Washington, DC'
p31
g3
g4
tp32
a(S'RepDonaldPayne'
p33
S'www.facebook.com/DonaldPayneJr'
p34
g3
g4
tp35
a(S'KeithRothfus'
p36
g13
g3
g4
tp37
a(S'RalphHallPress'
p38
S'4th District of Texas'
p39
g3
g4
tp40
a(S'RepScottPeters'
p41
S'San Diego, Poway, Coronado'
p42
g3
g4
tp43
a(S'RepMurphyFL'
p44
S'Florida 18'
p45
g3
g4
tp46
a(S'RepDavidValadao'
p47
S'Hanford, California'
p48
g3
g4
tp49
a(S'RepJBridenstine'
p50
g13
g3
g4
tp51
a(S'RepSinema'
p52
g13
g3
g4
tp53
a(S'RepRWilliams'
p54
S'Central Texas'
p55
g3
g4
tp56
a.