(lp0
(S'ChiesaNews'
p1
S'Washington, DC'
p2
S'cspan'
p3
S'senators'
p4
tp5
a(S'SenBrianSchatz'
p6
S''
p7
g3
g4
tp8
a(S'MartinHeinrich'
p9
g7
g3
g4
tp10
a(S'SenatorRisch'
p11
S'Boise & Washington, D.C.'
p12
g3
g4
tp13
a(S'SenatorBaldwin'
p14
S'Washington, D.C.'
p15
g3
g4
tp16
a(S'SenTedCruz'
p17
S'Houston, Texas'
p18
g3
g4
tp19
a(S'SenatorFischer'
p20
S'Washington, D.C.'
p21
g3
g4
tp22
a(S'SenAngusKing'
p23
g7
g3
g4
tp24
a(S'SenatorHeitkamp'
p25
g7
g3
g4
tp26
a(S'SenWarren'
p27
g7
g3
g4
tp28
a(S'MikeCrapo'
p29
S'Idaho & Washington, D.C.'
p30
g3
g4
tp31
a(S'SenThadCochran'
p32
g7
g3
g4
tp33
a(S'SaxbyChambliss'
p34
S'Georgia and Washington, DC'
p35
g3
g4
tp36
a(S'TesterPress'
p37
S'Montana'
p38
g3
g4
tp39
a(S'SenJackReed'
p40
S'Providence, Rhode Island'
p41
g3
g4
tp42
a(S'SenFeinstein'
p43
S'California'
p44
g3
g4
tp45
a(S'SenMarkPryor'
p46
S'Arkansas/DC'
p47
g3
g4
tp48
a(S'SenLandrieu'
p49
S'Louisiana'
p50
g3
g4
tp51
a(S'SenJohnHoeven'
p52
S'North Dakota'
p53
g3
g4
tp54
a(S'McConnellPress'
p55
g7
g3
g4
tp56
a.