(lp0
(S'RepByrne'
p1
S'Southwest Alabama'
p2
S'cspan'
p3
S'u-s-representatives'
p4
tp5
a(S'RepGuthrie'
p6
S"Kentucky's Second District"
p7
g3
g4
tp8
a(S'Rep_Hunter'
p9
S''
p10
g3
g4
tp11
a(S'RepChrisSmith'
p12
g10
g3
g4
tp13
a(S'RepTimWalz'
p14
g10
g3
g4
tp15
a(S'RepJuanVargas'
p16
S'SD/Imperial Counties, CA'
p17
g3
g4
tp18
a(S'JuliaBrownley26'
p19
g10
g3
g4
tp20
a(S'RepCardenas'
p21
S'San Fernando Valley, CA'
p22
g3
g4
tp23
a(S'SteveScalise'
p24
S'Jefferson, LA'
p25
g3
g4
tp26
a(S'repmarkpocan'
p27
S'Madison, WI and Washington, DC'
p28
g3
g4
tp29
a(S'RepDonaldPayne'
p30
S'www.facebook.com/DonaldPayneJr'
p31
g3
g4
tp32
a(S'KeithRothfus'
p33
g10
g3
g4
tp34
a(S'RalphHallPress'
p35
S'4th District of Texas'
p36
g3
g4
tp37
a(S'RepScottPeters'
p38
S'San Diego, Poway, Coronado'
p39
g3
g4
tp40
a(S'RepMurphyFL'
p41
S'Florida 18'
p42
g3
g4
tp43
a(S'RepDavidValadao'
p44
S'Hanford, California'
p45
g3
g4
tp46
a(S'RepCheri'
p47
S'Washington, DC & Illinois'
p48
g3
g4
tp49
a(S'RepJBridenstine'
p50
g10
g3
g4
tp51
a(S'RepKirkpatrick'
p52
S'Flagstaff, AZ'
p53
g3
g4
tp54
a(S'RepAndyBarr'
p55
S'Lexington, KY'
p56
g3
g4
tp57
a.