(lp0
(S'RepByrne'
p1
S'Southwest Alabama'
p2
S'cspan'
p3
S'members-of-congress'
p4
L2253968388L
tp5
a(S'RepGuthrie'
p6
S"Kentucky's Second District"
p7
g3
g4
I1908143071
tp8
a(S'ChiesaNews'
p9
S'Washington, DC'
p10
g3
g4
I1550836628
tp11
a(S'Rep_Hunter'
p12
S''
p13
g3
g4
I1305596696
tp14
a(S'RepChrisSmith'
p15
g13
g3
g4
I1289319271
tp16
a(S'RepTimWalz'
p17
g13
g3
g4
I1262814457
tp18
a(S'RepJuanVargas'
p19
S'SD/Imperial Counties, CA'
p20
g3
g4
I1260172386
tp21
a(S'JuliaBrownley26'
p22
g13
g3
g4
I1243902714
tp23
a(S'RepCardenas'
p24
S'San Fernando Valley, CA'
p25
g3
g4
I1222257180
tp26
a(S'SteveScalise'
p27
S'Jefferson, LA'
p28
g3
g4
I1209417007
tp29
a(S'repmarkpocan'
p30
S'Madison, WI and Washington, DC'
p31
g3
g4
I1206227149
tp32
a(S'RepDonaldPayne'
p33
S'www.facebook.com/DonaldPayneJr'
p34
g3
g4
I1155335864
tp35
a(S'KeithRothfus'
p36
g13
g3
g4
I1155212191
tp37
a(S'RalphHallPress'
p38
S'4th District of Texas'
p39
g3
g4
I1154894353
tp40
a(S'RepScottPeters'
p41
S'San Diego, Poway, Coronado'
p42
g3
g4
I1135486501
tp43
a(S'RepMurphyFL'
p44
S'Florida 18'
p45
g3
g4
I1128781184
tp46
a(S'RepDavidValadao'
p47
S'Hanford, California'
p48
g3
g4
I1128514404
tp49
a(S'RepJBridenstine'
p50
g13
g3
g4
I1092757885
tp51
a(S'RepSinema'
p52
g13
g3
g4
I1080844782
tp53
a(S'RepRWilliams'
p54
S'Central Texas'
p55
g3
g4
I1077446982
tp56
a.