(lp0
(S'ChiesaNews'
p1
S'Washington, DC'
p2
S'cspan'
p3
S'senators'
p4
I1550836628
tp5
a(S'SenBrianSchatz'
p6
S''
p7
g3
g4
I1262099252
tp8
a(S'MartinHeinrich'
p9
g7
g3
g4
I1099199839
tp10
a(S'SenatorRisch'
p11
S'Boise & Washington, D.C.'
p12
g3
g4
I1096059529
tp13
a(S'SenatorBaldwin'
p14
S'Washington, D.C.'
p15
g3
g4
I1074518754
tp16
a(S'SenTedCruz'
p17
S'Houston, Texas'
p18
g3
g4
I1074480192
tp19
a(S'SenatorFischer'
p20
S'Washington, D.C.'
p21
g3
g4
I1071402577
tp22
a(S'SenAngusKing'
p23
g7
g3
g4
I1068481578
tp24
a(S'SenatorHeitkamp'
p25
g7
g3
g4
I1061029050
tp26
a(S'SenWarren'
p27
g7
g3
g4
I970207298
tp28
a(S'MikeCrapo'
p29
S'Idaho & Washington, D.C.'
p30
g3
g4
I600463589
tp31
a(S'SenThadCochran'
p32
g7
g3
g4
I555474658
tp33
a(S'SaxbyChambliss'
p34
S'Georgia and Washington, DC'
p35
g3
g4
I538185166
tp36
a(S'TesterPress'
p37
S'Montana'
p38
g3
g4
I515822213
tp39
a(S'SenJackReed'
p40
S'Providence, Rhode Island'
p41
g3
g4
I486694111
tp42
a(S'SenFeinstein'
p43
S'California'
p44
g3
g4
I476256944
tp45
a(S'SenMarkPryor'
p46
S'Arkansas/DC'
p47
g3
g4
I426655227
tp48
a(S'SenLandrieu'
p49
S'Louisiana'
p50
g3
g4
I413466731
tp51
a(S'SenJohnHoeven'
p52
S'North Dakota'
p53
g3
g4
I382791093
tp54
a(S'McConnellPress'
p55
g7
g3
g4
I339822881
tp56
a.