(lp0
(S'LuxNarayan'
p1
S''
p2
S'dkhare'
p3
S'india-tech-and-vc'
p4
L2305036938L
tp5
a(S'AccelIndiaVC'
p6
g2
g3
g4
L2217277746L
tp7
a(S'rajul_g'
p8
S'Delhi'
p9
g3
g4
L2190064435L
tp10
a(S'letsventurein'
p11
S'Bangalore, India'
p12
g3
g4
I1592754374
tp13
a(S'Palaashventures'
p14
S'New Delhi'
p15
g3
g4
I1388717143
tp16
a(S'qubecell'
p17
g2
g3
g4
I1358600304
tp18
a(S'OmnivoreAgtech'
p19
S'Mumbai, India'
p20
g3
g4
I1335783577
tp21
a(S'500India'
p22
S'India'
p23
g3
g4
I1140949538
tp24
a(S'shariqueorg'
p25
S'Stanford, California'
p26
g3
g4
I1080046014
tp27
a(S'SrijanCapital'
p28
S'Bangalore, India'
p29
g3
g4
I1075615932
tp30
a(S'SVB_India'
p31
S'Mumbai'
p32
g3
g4
I914383508
tp33
a(S'PowaiLV'
p34
S'Bombay, India'
p35
g3
g4
I837521594
tp36
a(S'KaranMohla'
p37
S'India'
p38
g3
g4
I823057368
tp39
a(S'91springboard'
p40
S'New Delhi'
p41
g3
g4
I777729385
tp42
a(S'oneassist_in'
p43
S'India'
p44
g3
g4
I742789974
tp45
a(S'radusuma'
p46
g2
g3
g4
I736566428
tp47
a(S'limeroadcom'
p48
g2
g3
g4
I715499154
tp49
a(S'ajitbalakrish'
p50
S'Bombay, India'
p51
g3
g4
I636832928
tp52
a(S'naren_nexus'
p53
g2
g3
g4
I634970451
tp54
a(S'Owlwatch1'
p55
g2
g3
g4
I624530137
tp56
a.