(lp0
(S'LuxNarayan'
p1
S''
p2
S'dkhare'
p3
S'india-tech-and-vc'
p4
tp5
a(S'AccelIndiaVC'
p6
g2
g3
g4
tp7
a(S'rajul_g'
p8
S'Delhi'
p9
g3
g4
tp10
a(S'letsventurein'
p11
S'Bangalore, India'
p12
g3
g4
tp13
a(S'Palaashventures'
p14
S'New Delhi'
p15
g3
g4
tp16
a(S'qubecell'
p17
g2
g3
g4
tp18
a(S'OmnivoreAgtech'
p19
S'Mumbai, India'
p20
g3
g4
tp21
a(S'500India'
p22
S'India'
p23
g3
g4
tp24
a(S'shariqueorg'
p25
S'Stanford, California'
p26
g3
g4
tp27
a(S'SrijanCapital'
p28
S'Bangalore, India'
p29
g3
g4
tp30
a(S'SVB_India'
p31
S'Mumbai'
p32
g3
g4
tp33
a(S'PowaiLV'
p34
S'Bombay, India'
p35
g3
g4
tp36
a(S'KaranMohla'
p37
S'India'
p38
g3
g4
tp39
a(S'91springboard'
p40
S'New Delhi'
p41
g3
g4
tp42
a(S'oneassist_in'
p43
S'India'
p44
g3
g4
tp45
a(S'radusuma'
p46
g2
g3
g4
tp47
a(S'limeroadcom'
p48
g2
g3
g4
tp49
a(S'ajitbalakrish'
p50
S'Bombay, India'
p51
g3
g4
tp52
a(S'naren_nexus'
p53
g2
g3
g4
tp54
a(S'Owlwatch1'
p55
g2
g3
g4
tp56
a.