(lp0
(S'KamBrothers'
p1
S'33.921109, -118.387953'
p2
S'espn'
p3
S'espn-los-angeles'
p4
tp5
a(S'ESPNLosAngeles'
p6
S'Los Angeles'
p7
g3
g4
tp8
a(S'ericneel'
p9
S''
p10
g3
g4
tp11
a(S'LAIreland'
p12
S'Los Angeles, CA'
p13
g3
g4
tp14
a(S'ESPNLA710'
p15
S'Los Angeles, CA'
p16
g3
g4
tp17
a(S'ESPN_Pac12blog'
p18
g10
g3
g4
tp19
a(S'jadande'
p20
S'West Coast'
p21
g3
g4
tp22
a(S'mcten'
p23
S'Los Angeles, CA'
p24
g3
g4
tp25
a(S'jonweisman'
p26
S'Los Angeles, CA'
p27
g3
g4
tp28
a(S'ArashMarkazi'
p29
S'Los Angeles, CA'
p30
g3
g4
tp31
a(S'ramonashelburne'
p32
S'Los Angeles'
p33
g3
g4
tp34
a(S'VeniceMase'
p35
g10
g3
g4
tp36
a.