(lp0
(S'ESPNJoeyMac'
p1
S'Boston'
p2
S'espn'
p3
S'espn-boston'
p4
I113402951
tp5
a(S'GordonEdes'
p6
S'Boston'
p7
g3
g4
I89033940
tp8
a(S'ESPNForsberg'
p9
S'Boston, MA'
p10
g3
g4
I79806078
tp11
a(S'MikeReiss'
p12
S'Foxborough, MA'
p13
g3
g4
I35017255
tp14
a(S'ESPNBoston'
p15
S'Boston, Mass.'
p16
g3
g4
I26031372
tp17
a.