(lp0
(S'KamBrothers'
p1
S'33.921109, -118.387953'
p2
S'espn'
p3
S'espn-los-angeles'
p4
I98499376
tp5
a(S'ESPNLosAngeles'
p6
S'Los Angeles'
p7
g3
g4
I92911662
tp8
a(S'ericneel'
p9
S''
p10
g3
g4
I47469126
tp11
a(S'LAIreland'
p12
S'Los Angeles, CA'
p13
g3
g4
I34541677
tp14
a(S'ESPNLA710'
p15
S'Los Angeles, CA'
p16
g3
g4
I26117205
tp17
a(S'ESPN_Pac12blog'
p18
g10
g3
g4
I23979480
tp19
a(S'jadande'
p20
S'West Coast'
p21
g3
g4
I23778898
tp22
a(S'mcten'
p23
S'Los Angeles, CA'
p24
g3
g4
I22494516
tp25
a(S'jonweisman'
p26
S'Los Angeles, CA'
p27
g3
g4
I19948030
tp28
a(S'ArashMarkazi'
p29
S'Los Angeles, CA'
p30
g3
g4
I17617227
tp31
a(S'ramonashelburne'
p32
S'Los Angeles'
p33
g3
g4
I17507250
tp34
a(S'VeniceMase'
p35
g10
g3
g4
I17506698
tp36
a.