(lp0
(S'PTI_News'
p1
S'New Delhi, India'
p2
S'ETPolitics'
p3
S'politics-tweets'
p4
I245687754
tp5
a(S'timesnow'
p6
S'India'
p7
g3
g4
I240649814
tp8
a(S'ETNOWlive'
p9
S'India'
p10
g3
g4
I225012752
tp11
a(S'arunavabiswas'
p12
V
p13
g3
g4
I56406832
tp14
a(S'ETPolitics'
p15
S'New Delhi, India'
p16
g3
g4
I38624666
tp17
a(S'ETOpinion'
p18
S'New Delhi, India'
p19
g3
g4
I36322857
tp20
a.