(lp0
(S'JimGerlach'
p1
(lp2
(lp3
ccopy_reg
_reconstructor
p4
(cdjango.utils.safestring
SafeText
p5
c__builtin__
unicode
p6
Vsan-francisco-usa
p7
tp8
Rp9
ag4
(g5
g6
Vnew-york-usa
p10
tp11
Rp12
ag4
(g5
g6
Vboston-usa
p13
tp14
Rp15
a(lp16
(lp17
g4
(g5
g6
Vpolitics
p18
tp19
Rp20
atp21
a(S'maggielake'
p22
(lp23
(lp24
(lp25
g4
(g5
g6
Vnew-york-usa
p26
tp27
Rp28
a(lp29
g4
(g5
g6
Vbusiness
p30
tp31
Rp32
atp33
a(S'JakePeavy_44'
p34
(lp35
g4
(g5
g6
Vnew-york-usa
p36
tp37
Rp38
a(lp39
g4
(g5
g6
Vsan-francisco-usa
p40
tp41
Rp42
ag4
(g5
g6
Vnew-york-usa
p43
tp44
Rp45
ag4
(g5
g6
Vboston-usa
p46
tp47
Rp48
a(lp49
g4
(g5
g6
Vboston-usa
p50
tp51
Rp52
a(lp53
g4
(g5
g6
Vsports
p54
tp55
Rp56
atp57
a(S'WillMHDavies'
p58
(lp59
g4
(g5
g6
Vbangalore-india
p60
tp61
Rp62
a(lp63
(lp64
g4
(g5
g6
Vbangalore-india
p65
tp66
Rp67
a(lp68
g4
(g5
g6
Vsports
p69
tp70
Rp71
atp72
a(S'eltongallegly24'
p73
(lp74
(lp75
g4
(g5
g6
Vsan-francisco-usa
p76
tp77
Rp78
ag4
(g5
g6
Vnew-york-usa
p79
tp80
Rp81
ag4
(g5
g6
Vboston-usa
p82
tp83
Rp84
a(lp85
(lp86
g4
(g5
g6
Vpolitics
p87
tp88
Rp89
atp90
a(S'CollectiveSoul'
p91
(lp92
(lp93
(lp94
g4
(g5
g6
Vnew-york-usa
p95
tp96
Rp97
a(lp98
g4
(g5
g6
Ventertainment
p99
tp100
Rp101
atp102
a(S'JohnStamos'
p103
(lp104
(lp105
(lp106
g4
(g5
g6
Vsan-francisco-usa
p107
tp108
Rp109
a(lp110
g4
(g5
g6
Ventertainment
p111
tp112
Rp113
atp114
a(S'MrAlanCooper'
p115
(lp116
g4
(g5
g6
Vsan-francisco-usa
p117
tp118
Rp119
a(lp120
(lp121
g4
(g5
g6
Vsan-francisco-usa
p122
tp123
Rp124
a(lp125
g4
(g5
g6
Vtechnology
p126
tp127
Rp128
ag4
(g5
g6
Vbusiness
p129
tp130
Rp131
atp132
a(S'Chad_Hurley'
p133
(lp134
(lp135
(lp136
g4
(g5
g6
Vsan-francisco-usa
p137
tp138
Rp139
a(lp140
g4
(g5
g6
Vtechnology
p141
tp142
Rp143
atp144
a(S'JasonFalls'
p145
(lp146
(lp147
(lp148
g4
(g5
g6
Vnew-york-usa
p149
tp150
Rp151
a(lp152
g4
(g5
g6
Vtechnology
p153
tp154
Rp155
atp156
a(S'heatherarussell'
p157
(lp158
g4
(g5
g6
Vsan-francisco-usa
p159
tp160
Rp161
a(lp162
(lp163
g4
(g5
g6
Vlondon-uk
p164
tp165
Rp166
a(lp167
g4
(g5
g6
Vtechnology
p168
tp169
Rp170
ag4
(g5
g6
Vbusiness
p171
tp172
Rp173
atp174
a(S'jackschofield'
p175
(lp176
(lp177
(lp178
g4
(g5
g6
Vlondon-uk
p179
tp180
Rp181
a(lp182
g4
(g5
g6
Vtechnology
p183
tp184
Rp185
atp186
a(S'johncbussey'
p187
(lp188
(lp189
(lp190
g4
(g5
g6
Vnew-york-usa
p191
tp192
Rp193
a(lp194
g4
(g5
g6
Vbusiness
p195
tp196
Rp197
atp198
a(S'abnormalreturns'
p199
(lp200
(lp201
(lp202
(lp203
g4
(g5
g6
Vbusiness
p204
tp205
Rp206
atp207
a(S'reggiew55'
p208
(lp209
(lp210
g4
(g5
g6
Vsan-francisco-usa
p211
tp212
Rp213
ag4
(g5
g6
Vnew-york-usa
p214
tp215
Rp216
ag4
(g5
g6
Vboston-usa
p217
tp218
Rp219
a(lp220
(lp221
g4
(g5
g6
Vsports
p222
tp223
Rp224
atp225
a(S'SenBrianSchatz'
p226
(lp227
(lp228
g4
(g5
g6
Vsan-francisco-usa
p229
tp230
Rp231
ag4
(g5
g6
Vnew-york-usa
p232
tp233
Rp234
ag4
(g5
g6
Vboston-usa
p235
tp236
Rp237
a(lp238
(lp239
g4
(g5
g6
Vpolitics
p240
tp241
Rp242
atp243
a(S'sorayadarabi'
p244
(lp245
(lp246
(lp247
g4
(g5
g6
Vnew-york-usa
p248
tp249
Rp250
a(lp251
g4
(g5
g6
Vtechnology
p252
tp253
Rp254
atp255
a(S'DaveSitek'
p256
(lp257
(lp258
(lp259
(lp260
g4
(g5
g6
Ventertainment
p261
tp262
Rp263
atp264
a(S'TheRealSimonCho'
p265
(lp266
(lp267
(lp268
g4
(g5
g6
Vnew-york-usa
p269
tp270
Rp271
a(lp272
g4
(g5
g6
Vsports
p273
tp274
Rp275
atp276
a(S'ESPNBoston'
p277
(lp278
(lp279
g4
(g5
g6
Vboston-usa
p280
tp281
Rp282
a(lp283
g4
(g5
g6
Vboston-usa
p284
tp285
Rp286
a(lp287
g4
(g5
g6
Vsports
p288
tp289
Rp290
atp291
a(S'Busted_Racquet'
p292
(lp293
g4
(g5
g6
Vlondon-uk
p294
tp295
Rp296
a(lp297
(lp298
(lp299
g4
(g5
g6
Vsports
p300
tp301
Rp302
atp303
a(S'GlobeKranish'
p304
(lp305
g4
(g5
g6
Vnew-york-usa
p306
tp307
Rp308
a(lp309
(lp310
(lp311
g4
(g5
g6
Vpolitics
p312
tp313
Rp314
atp315
a(S'maryjblige'
p316
(lp317
(lp318
(lp319
(lp320
g4
(g5
g6
Ventertainment
p321
tp322
Rp323
atp324
a(S'Eminem'
p325
(lp326
(lp327
(lp328
(lp329
g4
(g5
g6
Ventertainment
p330
tp331
Rp332
atp333
a(S'alyssahhenry'
p334
(lp335
(lp336
(lp337
(lp338
g4
(g5
g6
Vtechnology
p339
tp340
Rp341
ag4
(g5
g6
Vbusiness
p342
tp343
Rp344
atp345
a(S'RalphHallPress'
p346
(lp347
(lp348
g4
(g5
g6
Vsan-francisco-usa
p349
tp350
Rp351
ag4
(g5
g6
Vnew-york-usa
p352
tp353
Rp354
ag4
(g5
g6
Vboston-usa
p355
tp356
Rp357
a(lp358
(lp359
g4
(g5
g6
Vpolitics
p360
tp361
Rp362
atp363
a(S'xbrlplanet'
p364
(lp365
(lp366
(lp367
g4
(g5
g6
Vlondon-uk
p368
tp369
Rp370
a(lp371
g4
(g5
g6
Vbusiness
p372
tp373
Rp374
atp375
a(S'rajul_g'
p376
(lp377
(lp378
(lp379
g4
(g5
g6
Vmumbai-india
p380
tp381
Rp382
a(lp383
g4
(g5
g6
Vtechnology
p384
tp385
Rp386
ag4
(g5
g6
Vbusiness
p387
tp388
Rp389
atp390
a(S'BansalSmita_'
p391
(lp392
(lp393
g4
(g5
g6
Vbangalore-india
p394
tp395
Rp396
ag4
(g5
g6
Vmumbai-india
p397
tp398
Rp399
a(lp400
(lp401
g4
(g5
g6
Ventertainment
p402
tp403
Rp404
atp405
a(S'RepCardenas'
p406
(lp407
(lp408
g4
(g5
g6
Vsan-francisco-usa
p409
tp410
Rp411
ag4
(g5
g6
Vnew-york-usa
p412
tp413
Rp414
ag4
(g5
g6
Vboston-usa
p415
tp416
Rp417
a(lp418
g4
(g5
g6
Vsan-francisco-usa
p419
tp420
Rp421
a(lp422
g4
(g5
g6
Vpolitics
p423
tp424
Rp425
atp426
a(S'RepGusBilirakis'
p427
(lp428
g4
(g5
g6
Vnew-york-usa
p429
tp430
Rp431
a(lp432
(lp433
(lp434
g4
(g5
g6
Vpolitics
p435
tp436
Rp437
atp438
a(S'MikeCrapo'
p439
(lp440
g4
(g5
g6
Vnew-york-usa
p441
tp442
Rp443
a(lp444
g4
(g5
g6
Vsan-francisco-usa
p445
tp446
Rp447
ag4
(g5
g6
Vnew-york-usa
p448
tp449
Rp450
ag4
(g5
g6
Vboston-usa
p451
tp452
Rp453
a(lp454
(lp455
g4
(g5
g6
Vpolitics
p456
tp457
Rp458
atp459
a(S'cnetkara'
p460
(lp461
g4
(g5
g6
Vsan-francisco-usa
p462
tp463
Rp464
a(lp465
(lp466
g4
(g5
g6
Vsan-francisco-usa
p467
tp468
Rp469
a(lp470
g4
(g5
g6
Vtechnology
p471
tp472
Rp473
atp474
a(S'IsaCNN'
p475
(lp476
g4
(g5
g6
Vlondon-uk
p477
tp478
Rp479
a(lp480
(lp481
g4
(g5
g6
Vlondon-uk
p482
tp483
Rp484
a(lp485
g4
(g5
g6
Vbusiness
p486
tp487
Rp488
atp489
a(S'RalphLoura'
p490
(lp491
g4
(g5
g6
Vsan-francisco-usa
p492
tp493
Rp494
a(lp495
(lp496
g4
(g5
g6
Vsan-francisco-usa
p497
tp498
Rp499
a(lp500
g4
(g5
g6
Vtechnology
p501
tp502
Rp503
ag4
(g5
g6
Vbusiness
p504
tp505
Rp506
atp507
a(S'RepMikeQuigley'
p508
(lp509
(lp510
g4
(g5
g6
Vsan-francisco-usa
p511
tp512
Rp513
ag4
(g5
g6
Vnew-york-usa
p514
tp515
Rp516
ag4
(g5
g6
Vboston-usa
p517
tp518
Rp519
a(lp520
(lp521
g4
(g5
g6
Vpolitics
p522
tp523
Rp524
atp525
a(S'GA'
p526
(lp527
(lp528
g4
(g5
g6
Vnew-york-usa
p529
tp530
Rp531
a(lp532
g4
(g5
g6
Vnew-york-usa
p533
tp534
Rp535
a(lp536
g4
(g5
g6
Vtechnology
p537
tp538
Rp539
atp540
a(S'si_mlb'
p541
(lp542
(lp543
(lp544
(lp545
g4
(g5
g6
Vsports
p546
tp547
Rp548
atp549
a(S'diginomica'
p550
(lp551
(lp552
(lp553
(lp554
g4
(g5
g6
Vtechnology
p555
tp556
Rp557
atp558
a(S'ESPN_Pac12blog'
p559
(lp560
(lp561
g4
(g5
g6
Vsan-francisco-usa
p562
tp563
Rp564
a(lp565
(lp566
g4
(g5
g6
Vsports
p567
tp568
Rp569
atp570
a(S'brianboyer'
p571
(lp572
g4
(g5
g6
Vnew-york-usa
p573
tp574
Rp575
a(lp576
(lp577
(lp578
g4
(g5
g6
Vtechnology
p579
tp580
Rp581
atp582
a(S'KaiserChiefs'
p583
(lp584
g4
(g5
g6
Vlondon-uk
p585
tp586
Rp587
a(lp588
(lp589
g4
(g5
g6
Vlondon-uk
p590
tp591
Rp592
a(lp593
g4
(g5
g6
Ventertainment
p594
tp595
Rp596
atp597
a(S'braziliangirls'
p598
(lp599
g4
(g5
g6
Vnew-york-usa
p600
tp601
Rp602
a(lp603
(lp604
g4
(g5
g6
Vnew-york-usa
p605
tp606
Rp607
a(lp608
g4
(g5
g6
Ventertainment
p609
tp610
Rp611
atp612
a(S'ThisIsRobThomas'
p613
(lp614
(lp615
(lp616
g4
(g5
g6
Vnew-york-usa
p617
tp618
Rp619
a(lp620
g4
(g5
g6
Ventertainment
p621
tp622
Rp623
atp624
a(S'singernews'
p625
(lp626
g4
(g5
g6
Vnew-york-usa
p627
tp628
Rp629
a(lp630
g4
(g5
g6
Vsan-francisco-usa
p631
tp632
Rp633
ag4
(g5
g6
Vnew-york-usa
p634
tp635
Rp636
ag4
(g5
g6
Vboston-usa
p637
tp638
Rp639
a(lp640
(lp641
g4
(g5
g6
Vpolitics
p642
tp643
Rp644
atp645
a(S'kellanlutz'
p646
(lp647
(lp648
(lp649
g4
(g5
g6
Vsan-francisco-usa
p650
tp651
Rp652
a(lp653
g4
(g5
g6
Ventertainment
p654
tp655
Rp656
atp657
a(S'GallagherBilly'
p658
(lp659
(lp660
(lp661
g4
(g5
g6
Vsan-francisco-usa
p662
tp663
Rp664
a(lp665
g4
(g5
g6
Vtechnology
p666
tp667
Rp668
atp669
a(S'LisaDCNN'
p670
(lp671
g4
(g5
g6
Vnew-york-usa
p672
tp673
Rp674
a(lp675
(lp676
(lp677
g4
(g5
g6
Vpolitics
p678
tp679
Rp680
atp681
a(S'Gardner_LM'
p682
(lp683
g4
(g5
g6
Vnew-york-usa
p684
tp685
Rp686
a(lp687
g4
(g5
g6
Vsan-francisco-usa
p688
tp689
Rp690
ag4
(g5
g6
Vnew-york-usa
p691
tp692
Rp693
ag4
(g5
g6
Vboston-usa
p694
tp695
Rp696
a(lp697
(lp698
g4
(g5
g6
Vpolitics
p699
tp700
Rp701
atp702
a(S'RepByrne'
p703
(lp704
(lp705
g4
(g5
g6
Vsan-francisco-usa
p706
tp707
Rp708
ag4
(g5
g6
Vnew-york-usa
p709
tp710
Rp711
ag4
(g5
g6
Vboston-usa
p712
tp713
Rp714
a(lp715
(lp716
g4
(g5
g6
Vpolitics
p717
tp718
Rp719
atp720
a(S'sciencetechnews'
p721
(lp722
(lp723
(lp724
g4
(g5
g6
Vsan-francisco-usa
p725
tp726
Rp727
ag4
(g5
g6
Vnew-york-usa
p728
tp729
Rp730
ag4
(g5
g6
Vboston-usa
p731
tp732
Rp733
a(lp734
g4
(g5
g6
Vtechnology
p735
tp736
Rp737
atp738
a(S'Owlwatch1'
p739
(lp740
(lp741
(lp742
(lp743
g4
(g5
g6
Vtechnology
p744
tp745
Rp746
ag4
(g5
g6
Vbusiness
p747
tp748
Rp749
atp750
a(S'johnsonwhitney'
p751
(lp752
(lp753
(lp754
g4
(g5
g6
Vboston-usa
p755
tp756
Rp757
a(lp758
g4
(g5
g6
Vbusiness
p759
tp760
Rp761
atp762
a(S'SenWarren'
p763
(lp764
(lp765
g4
(g5
g6
Vsan-francisco-usa
p766
tp767
Rp768
ag4
(g5
g6
Vnew-york-usa
p769
tp770
Rp771
ag4
(g5
g6
Vboston-usa
p772
tp773
Rp774
a(lp775
(lp776
g4
(g5
g6
Vpolitics
p777
tp778
Rp779
atp780
a(S'peterthiel'
p781
(lp782
g4
(g5
g6
Vsan-francisco-usa
p783
tp784
Rp785
a(lp786
(lp787
g4
(g5
g6
Vsan-francisco-usa
p788
tp789
Rp790
a(lp791
g4
(g5
g6
Vtechnology
p792
tp793
Rp794
atp795
a(S'agoramedia'
p796
(lp797
(lp798
(lp799
g4
(g5
g6
Vlondon-uk
p800
tp801
Rp802
a(lp803
g4
(g5
g6
Vbusiness
p804
tp805
Rp806
atp807
a(S'IlvesToomas'
p808
(lp809
g4
(g5
g6
Vlondon-uk
p810
tp811
Rp812
a(lp813
(lp814
(lp815
g4
(g5
g6
Vpolitics
p816
tp817
Rp818
atp819
a(S'NicolasMaduro'
p820
(lp821
(lp822
(lp823
(lp824
g4
(g5
g6
Vpolitics
p825
tp826
Rp827
atp828
a(S'mkung'
p829
(lp830
(lp831
(lp832
g4
(g5
g6
Vsan-francisco-usa
p833
tp834
Rp835
a(lp836
g4
(g5
g6
Ventertainment
p837
tp838
Rp839
atp840
a(S'johnbattelle'
p841
(lp842
(lp843
(lp844
g4
(g5
g6
Vsan-francisco-usa
p845
tp846
Rp847
a(lp848
g4
(g5
g6
Vtechnology
p849
tp850
Rp851
atp852
a(S'TeamCoco'
p853
(lp854
g4
(g5
g6
Vsan-francisco-usa
p855
tp856
Rp857
a(lp858
(lp859
g4
(g5
g6
Vsan-francisco-usa
p860
tp861
Rp862
ag4
(g5
g6
Vnew-york-usa
p863
tp864
Rp865
ag4
(g5
g6
Vboston-usa
p866
tp867
Rp868
a(lp869
g4
(g5
g6
Ventertainment
p870
tp871
Rp872
atp873
a(S'Nasiji'
p874
(lp875
(lp876
(lp877
(lp878
g4
(g5
g6
Vtechnology
p879
tp880
Rp881
atp882
a(S'JPosnanski'
p883
(lp884
g4
(g5
g6
Vnew-york-usa
p885
tp886
Rp887
a(lp888
(lp889
(lp890
g4
(g5
g6
Vsports
p891
tp892
Rp893
atp894
a(S'ElizabethHurley'
p895
(lp896
g4
(g5
g6
Vlondon-uk
p897
tp898
Rp899
a(lp900
(lp901
g4
(g5
g6
Vlondon-uk
p902
tp903
Rp904
a(lp905
g4
(g5
g6
Ventertainment
p906
tp907
Rp908
atp909
a(S'WSJdailyfix'
p910
(lp911
(lp912
(lp913
g4
(g5
g6
Vnew-york-usa
p914
tp915
Rp916
a(lp917
g4
(g5
g6
Vsports
p918
tp919
Rp920
atp921
a(S'AndyNewellskier'
p922
(lp923
g4
(g5
g6
Vboston-usa
p924
tp925
Rp926
a(lp927
(lp928
(lp929
g4
(g5
g6
Vsports
p930
tp931
Rp932
atp933
a(S'dimpy_mahajan'
p934
(lp935
(lp936
g4
(g5
g6
Vbangalore-india
p937
tp938
Rp939
ag4
(g5
g6
Vmumbai-india
p940
tp941
Rp942
a(lp943
(lp944
g4
(g5
g6
Ventertainment
p945
tp946
Rp947
atp948
a(S'McConnellPress'
p949
(lp950
(lp951
g4
(g5
g6
Vsan-francisco-usa
p952
tp953
Rp954
ag4
(g5
g6
Vnew-york-usa
p955
tp956
Rp957
ag4
(g5
g6
Vboston-usa
p958
tp959
Rp960
a(lp961
(lp962
g4
(g5
g6
Vpolitics
p963
tp964
Rp965
atp966
a(S'ManishaThakor'
p967
(lp968
(lp969
(lp970
(lp971
g4
(g5
g6
Vbusiness
p972
tp973
Rp974
atp975
a(S'DrPhilRoe'
p976
(lp977
(lp978
g4
(g5
g6
Vsan-francisco-usa
p979
tp980
Rp981
ag4
(g5
g6
Vnew-york-usa
p982
tp983
Rp984
ag4
(g5
g6
Vboston-usa
p985
tp986
Rp987
a(lp988
(lp989
g4
(g5
g6
Vpolitics
p990
tp991
Rp992
atp993
a(S'ArashMarkazi'
p994
(lp995
(lp996
g4
(g5
g6
Vsan-francisco-usa
p997
tp998
Rp999
a(lp1000
g4
(g5
g6
Vsan-francisco-usa
p1001
tp1002
Rp1003
a(lp1004
g4
(g5
g6
Vsports
p1005
tp1006
Rp1007
atp1008
a(S'D_Brown4'
p1009
(lp1010
(lp1011
g4
(g5
g6
Vsan-francisco-usa
p1012
tp1013
Rp1014
ag4
(g5
g6
Vnew-york-usa
p1015
tp1016
Rp1017
ag4
(g5
g6
Vboston-usa
p1018
tp1019
Rp1020
a(lp1021
(lp1022
g4
(g5
g6
Vsports
p1023
tp1024
Rp1025
atp1026
a(S'CNNOpinion'
p1027
(lp1028
(lp1029
(lp1030
(lp1031
g4
(g5
g6
Vpolitics
p1032
tp1033
Rp1034
atp1035
a(S'markhoppus'
p1036
(lp1037
g4
(g5
g6
Vsan-francisco-usa
p1038
tp1039
Rp1040
a(lp1041
(lp1042
g4
(g5
g6
Vsan-francisco-usa
p1043
tp1044
Rp1045
a(lp1046
g4
(g5
g6
Ventertainment
p1047
tp1048
Rp1049
atp1050
a(S'LScola4'
p1051
(lp1052
(lp1053
g4
(g5
g6
Vsan-francisco-usa
p1054
tp1055
Rp1056
ag4
(g5
g6
Vnew-york-usa
p1057
tp1058
Rp1059
ag4
(g5
g6
Vboston-usa
p1060
tp1061
Rp1062
a(lp1063
(lp1064
g4
(g5
g6
Vsports
p1065
tp1066
Rp1067
atp1068
a(S'jaredfavole'
p1069
(lp1070
g4
(g5
g6
Vnew-york-usa
p1071
tp1072
Rp1073
a(lp1074
(lp1075
g4
(g5
g6
Vsan-francisco-usa
p1076
tp1077
Rp1078
ag4
(g5
g6
Vnew-york-usa
p1079
tp1080
Rp1081
ag4
(g5
g6
Vboston-usa
p1082
tp1083
Rp1084
a(lp1085
g4
(g5
g6
Vpolitics
p1086
tp1087
Rp1088
ag4
(g5
g6
Vbusiness
p1089
tp1090
Rp1091
atp1092
a(S'DrewFromTV'
p1093
(lp1094
(lp1095
(lp1096
g4
(g5
g6
Vsan-francisco-usa
p1097
tp1098
Rp1099
a(lp1100
g4
(g5
g6
Ventertainment
p1101
tp1102
Rp1103
atp1104
a(S'MartinHeinrich'
p1105
(lp1106
(lp1107
g4
(g5
g6
Vsan-francisco-usa
p1108
tp1109
Rp1110
ag4
(g5
g6
Vnew-york-usa
p1111
tp1112
Rp1113
ag4
(g5
g6
Vboston-usa
p1114
tp1115
Rp1116
a(lp1117
(lp1118
g4
(g5
g6
Vpolitics
p1119
tp1120
Rp1121
atp1122
a(S'RyanRuggiero'
p1123
(lp1124
(lp1125
(lp1126
(lp1127
g4
(g5
g6
Vbusiness
p1128
tp1129
Rp1130
atp1131
a(S'SenatorRisch'
p1132
(lp1133
g4
(g5
g6
Vsan-francisco-usa
p1134
tp1135
Rp1136
a(lp1137
g4
(g5
g6
Vsan-francisco-usa
p1138
tp1139
Rp1140
ag4
(g5
g6
Vnew-york-usa
p1141
tp1142
Rp1143
ag4
(g5
g6
Vboston-usa
p1144
tp1145
Rp1146
a(lp1147
(lp1148
g4
(g5
g6
Vpolitics
p1149
tp1150
Rp1151
atp1152
a(S'EYJr'
p1153
(lp1154
(lp1155
g4
(g5
g6
Vsan-francisco-usa
p1156
tp1157
Rp1158
ag4
(g5
g6
Vnew-york-usa
p1159
tp1160
Rp1161
ag4
(g5
g6
Vboston-usa
p1162
tp1163
Rp1164
a(lp1165
g4
(g5
g6
Vnew-york-usa
p1166
tp1167
Rp1168
a(lp1169
g4
(g5
g6
Vsports
p1170
tp1171
Rp1172
atp1173
a(S'LouBonica'
p1174
(lp1175
g4
(g5
g6
Vnew-york-usa
p1176
tp1177
Rp1178
a(lp1179
(lp1180
(lp1181
g4
(g5
g6
Vtechnology
p1182
tp1183
Rp1184
ag4
(g5
g6
Vbusiness
p1185
tp1186
Rp1187
atp1188
a(S'ShiraOvide'
p1189
(lp1190
g4
(g5
g6
Vsan-francisco-usa
p1191
tp1192
Rp1193
a(lp1194
(lp1195
g4
(g5
g6
Vsan-francisco-usa
p1196
tp1197
Rp1198
a(lp1199
g4
(g5
g6
Vtechnology
p1200
tp1201
Rp1202
atp1203
a(S'MeenalMistry'
p1204
(lp1205
(lp1206
(lp1207
g4
(g5
g6
Vnew-york-usa
p1208
tp1209
Rp1210
a(lp1211
g4
(g5
g6
Ventertainment
p1212
tp1213
Rp1214
atp1215
a(S'AThornton14'
p1216
(lp1217
(lp1218
g4
(g5
g6
Vsan-francisco-usa
p1219
tp1220
Rp1221
ag4
(g5
g6
Vnew-york-usa
p1222
tp1223
Rp1224
ag4
(g5
g6
Vboston-usa
p1225
tp1226
Rp1227
a(lp1228
(lp1229
g4
(g5
g6
Vsports
p1230
tp1231
Rp1232
atp1233
a(S'cjknutsen'
p1234
(lp1235
(lp1236
(lp1237
(lp1238
g4
(g5
g6
Ventertainment
p1239
tp1240
Rp1241
atp1242
a(S'therealmix'
p1243
(lp1244
(lp1245
(lp1246
(lp1247
g4
(g5
g6
Ventertainment
p1248
tp1249
Rp1250
atp1251
a(S'YahooSportsMMA'
p1252
(lp1253
(lp1254
(lp1255
g4
(g5
g6
Vsan-francisco-usa
p1256
tp1257
Rp1258
a(lp1259
g4
(g5
g6
Vsports
p1260
tp1261
Rp1262
atp1263
a(S'tomkrazit'
p1264
(lp1265
(lp1266
(lp1267
(lp1268
g4
(g5
g6
Vtechnology
p1269
tp1270
Rp1271
atp1272
a(S'YahooSportNCAAB'
p1273
(lp1274
(lp1275
(lp1276
g4
(g5
g6
Vsan-francisco-usa
p1277
tp1278
Rp1279
a(lp1280
g4
(g5
g6
Vsports
p1281
tp1282
Rp1283
atp1284
a(S'TheRealEve'
p1285
(lp1286
(lp1287
(lp1288
(lp1289
g4
(g5
g6
Ventertainment
p1290
tp1291
Rp1292
atp1293
a(S'illwil21'
p1294
(lp1295
g4
(g5
g6
Vnew-york-usa
p1296
tp1297
Rp1298
a(lp1299
g4
(g5
g6
Vsan-francisco-usa
p1300
tp1301
Rp1302
ag4
(g5
g6
Vnew-york-usa
p1303
tp1304
Rp1305
ag4
(g5
g6
Vboston-usa
p1306
tp1307
Rp1308
a(lp1309
g4
(g5
g6
Vnew-york-usa
p1310
tp1311
Rp1312
a(lp1313
g4
(g5
g6
Vsports
p1314
tp1315
Rp1316
atp1317
a(S'SenSherrodBrown'
p1318
(lp1319
(lp1320
g4
(g5
g6
Vsan-francisco-usa
p1321
tp1322
Rp1323
ag4
(g5
g6
Vnew-york-usa
p1324
tp1325
Rp1326
ag4
(g5
g6
Vboston-usa
p1327
tp1328
Rp1329
a(lp1330
g4
(g5
g6
Vnew-york-usa
p1331
tp1332
Rp1333
a(lp1334
g4
(g5
g6
Vpolitics
p1335
tp1336
Rp1337
atp1338
a(S'twitalytic'
p1339
(lp1340
(lp1341
(lp1342
(lp1343
g4
(g5
g6
Vtechnology
p1344
tp1345
Rp1346
atp1347
a(S'CalumMercer'
p1348
(lp1349
g4
(g5
g6
Vlondon-uk
p1350
tp1351
Rp1352
a(lp1353
(lp1354
g4
(g5
g6
Vlondon-uk
p1355
tp1356
Rp1357
a(lp1358
g4
(g5
g6
Vbusiness
p1359
tp1360
Rp1361
atp1362
a(S'marissamayer'
p1363
(lp1364
(lp1365
(lp1366
g4
(g5
g6
Vsan-francisco-usa
p1367
tp1368
Rp1369
a(lp1370
g4
(g5
g6
Vtechnology
p1371
tp1372
Rp1373
atp1374
a(S'SenLandrieu'
p1375
(lp1376
g4
(g5
g6
Vnew-york-usa
p1377
tp1378
Rp1379
a(lp1380
g4
(g5
g6
Vsan-francisco-usa
p1381
tp1382
Rp1383
ag4
(g5
g6
Vnew-york-usa
p1384
tp1385
Rp1386
ag4
(g5
g6
Vboston-usa
p1387
tp1388
Rp1389
a(lp1390
(lp1391
g4
(g5
g6
Vpolitics
p1392
tp1393
Rp1394
atp1395
a(S'mscordell'
p1396
(lp1397
(lp1398
(lp1399
(lp1400
g4
(g5
g6
Vtechnology
p1401
tp1402
Rp1403
ag4
(g5
g6
Vbusiness
p1404
tp1405
Rp1406
atp1407
a(S'MLCWatkins'
p1408
(lp1409
(lp1410
(lp1411
(lp1412
g4
(g5
g6
Vbusiness
p1413
tp1414
Rp1415
atp1416
a(S'EldergillCNN'
p1417
(lp1418
g4
(g5
g6
Vlondon-uk
p1419
tp1420
Rp1421
a(lp1422
(lp1423
g4
(g5
g6
Vlondon-uk
p1424
tp1425
Rp1426
a(lp1427
g4
(g5
g6
Vsports
p1428
tp1429
Rp1430
atp1431
a(S'Nate_Cohn'
p1432
(lp1433
g4
(g5
g6
Vnew-york-usa
p1434
tp1435
Rp1436
a(lp1437
(lp1438
(lp1439
g4
(g5
g6
Vpolitics
p1440
tp1441
Rp1442
atp1443
a(S'path'
p1444
(lp1445
(lp1446
g4
(g5
g6
Vsan-francisco-usa
p1447
tp1448
Rp1449
a(lp1450
g4
(g5
g6
Vsan-francisco-usa
p1451
tp1452
Rp1453
a(lp1454
g4
(g5
g6
Vtechnology
p1455
tp1456
Rp1457
atp1458
a(S'kylieminogue'
p1459
(lp1460
(lp1461
(lp1462
(lp1463
g4
(g5
g6
Ventertainment
p1464
tp1465
Rp1466
atp1467
a(S'CNET'
p1468
(lp1469
g4
(g5
g6
Vsan-francisco-usa
p1470
tp1471
Rp1472
a(lp1473
(lp1474
g4
(g5
g6
Vsan-francisco-usa
p1475
tp1476
Rp1477
a(lp1478
g4
(g5
g6
Vtechnology
p1479
tp1480
Rp1481
atp1482
a(S'cqrcDataMine'
p1483
(lp1484
g4
(g5
g6
Vnew-york-usa
p1485
tp1486
Rp1487
a(lp1488
g4
(g5
g6
Vsan-francisco-usa
p1489
tp1490
Rp1491
ag4
(g5
g6
Vnew-york-usa
p1492
tp1493
Rp1494
ag4
(g5
g6
Vboston-usa
p1495
tp1496
Rp1497
a(lp1498
(lp1499
g4
(g5
g6
Vpolitics
p1500
tp1501
Rp1502
atp1503
a(S'SenThadCochran'
p1504
(lp1505
(lp1506
g4
(g5
g6
Vsan-francisco-usa
p1507
tp1508
Rp1509
ag4
(g5
g6
Vnew-york-usa
p1510
tp1511
Rp1512
ag4
(g5
g6
Vboston-usa
p1513
tp1514
Rp1515
a(lp1516
(lp1517
g4
(g5
g6
Vpolitics
p1518
tp1519
Rp1520
atp1521
a(S'CarolMeersch'
p1522
(lp1523
(lp1524
(lp1525
(lp1526
g4
(g5
g6
Vbusiness
p1527
tp1528
Rp1529
atp1530
a(S'jcrasnick'
p1531
(lp1532
(lp1533
(lp1534
(lp1535
g4
(g5
g6
Vsports
p1536
tp1537
Rp1538
atp1539
a(S'Sayantanigosh'
p1540
(lp1541
g4
(g5
g6
Vbangalore-india
p1542
tp1543
Rp1544
a(lp1545
g4
(g5
g6
Vbangalore-india
p1546
tp1547
Rp1548
ag4
(g5
g6
Vmumbai-india
p1549
tp1550
Rp1551
a(lp1552
(lp1553
g4
(g5
g6
Ventertainment
p1554
tp1555
Rp1556
atp1557
a(S'DionNissenbaum'
p1558
(lp1559
(lp1560
(lp1561
(lp1562
g4
(g5
g6
Vpolitics
p1563
tp1564
Rp1565
ag4
(g5
g6
Vbusiness
p1566
tp1567
Rp1568
atp1569
a(S'hchimoff'
p1570
(lp1571
(lp1572
(lp1573
(lp1574
g4
(g5
g6
Vbusiness
p1575
tp1576
Rp1577
atp1578
a(S'Elenahight'
p1579
(lp1580
(lp1581
(lp1582
(lp1583
g4
(g5
g6
Vsports
p1584
tp1585
Rp1586
atp1587
a(S'mcten'
p1588
(lp1589
(lp1590
g4
(g5
g6
Vsan-francisco-usa
p1591
tp1592
Rp1593
a(lp1594
g4
(g5
g6
Vsan-francisco-usa
p1595
tp1596
Rp1597
a(lp1598
g4
(g5
g6
Vsports
p1599
tp1600
Rp1601
atp1602
a(S'SocialTimes'
p1603
(lp1604
(lp1605
(lp1606
g4
(g5
g6
Vsan-francisco-usa
p1607
tp1608
Rp1609
a(lp1610
g4
(g5
g6
Vtechnology
p1611
tp1612
Rp1613
atp1614
a(S'JonesTheMarkets'
p1615
(lp1616
(lp1617
(lp1618
(lp1619
g4
(g5
g6
Vbusiness
p1620
tp1621
Rp1622
atp1623
a(S'keithlaw'
p1624
(lp1625
g4
(g5
g6
Vnew-york-usa
p1626
tp1627
Rp1628
a(lp1629
(lp1630
(lp1631
g4
(g5
g6
Vsports
p1632
tp1633
Rp1634
atp1635
a(S'LeeNguyen24'
p1636
(lp1637
(lp1638
g4
(g5
g6
Vsan-francisco-usa
p1639
tp1640
Rp1641
ag4
(g5
g6
Vnew-york-usa
p1642
tp1643
Rp1644
ag4
(g5
g6
Vlondon-uk
p1645
tp1646
Rp1647
ag4
(g5
g6
Vboston-usa
p1648
tp1649
Rp1650
a(lp1651
(lp1652
g4
(g5
g6
Vsports
p1653
tp1654
Rp1655
atp1656
a(S'dreeves1'
p1657
(lp1658
(lp1659
(lp1660
(lp1661
g4
(g5
g6
Vtechnology
p1662
tp1663
Rp1664
atp1665
a(S'ddlovato'
p1666
(lp1667
g4
(g5
g6
Vnew-york-usa
p1668
tp1669
Rp1670
a(lp1671
(lp1672
(lp1673
g4
(g5
g6
Ventertainment
p1674
tp1675
Rp1676
atp1677
a(S'kaifulee'
p1678
(lp1679
(lp1680
(lp1681
(lp1682
g4
(g5
g6
Vtechnology
p1683
tp1684
Rp1685
ag4
(g5
g6
Vbusiness
p1686
tp1687
Rp1688
atp1689
a(S'jadande'
p1690
(lp1691
g4
(g5
g6
Vsan-francisco-usa
p1692
tp1693
Rp1694
a(lp1695
g4
(g5
g6
Vsan-francisco-usa
p1696
tp1697
Rp1698
a(lp1699
(lp1700
g4
(g5
g6
Vsports
p1701
tp1702
Rp1703
atp1704
a(S'DennyMdotcom'
p1705
(lp1706
g4
(g5
g6
Vnew-york-usa
p1707
tp1708
Rp1709
a(lp1710
(lp1711
(lp1712
g4
(g5
g6
Vsports
p1713
tp1714
Rp1715
atp1716
a(S'CabinetSL'
p1717
(lp1718
(lp1719
(lp1720
(lp1721
g4
(g5
g6
Vpolitics
p1722
tp1723
Rp1724
atp1725
a(S'gov'
p1726
(lp1727
g4
(g5
g6
Vnew-york-usa
p1728
tp1729
Rp1730
a(lp1731
(lp1732
(lp1733
g4
(g5
g6
Vpolitics
p1734
tp1735
Rp1736
atp1737
a(S'SocialGrow'
p1738
(lp1739
(lp1740
(lp1741
g4
(g5
g6
Vboston-usa
p1742
tp1743
Rp1744
a(lp1745
g4
(g5
g6
Vbusiness
p1746
tp1747
Rp1748
atp1749
a(S'JimBouldenCNN'
p1750
(lp1751
g4
(g5
g6
Vlondon-uk
p1752
tp1753
Rp1754
a(lp1755
(lp1756
g4
(g5
g6
Vlondon-uk
p1757
tp1758
Rp1759
a(lp1760
g4
(g5
g6
Vbusiness
p1761
tp1762
Rp1763
atp1764
a(S'BreakingWeb'
p1765
(lp1766
(lp1767
(lp1768
(lp1769
g4
(g5
g6
Vtechnology
p1770
tp1771
Rp1772
atp1773
a(S'RepAdamSmith'
p1774
(lp1775
(lp1776
g4
(g5
g6
Vsan-francisco-usa
p1777
tp1778
Rp1779
ag4
(g5
g6
Vnew-york-usa
p1780
tp1781
Rp1782
ag4
(g5
g6
Vboston-usa
p1783
tp1784
Rp1785
a(lp1786
(lp1787
g4
(g5
g6
Vpolitics
p1788
tp1789
Rp1790
atp1791
a(S'verge'
p1792
(lp1793
(lp1794
(lp1795
(lp1796
g4
(g5
g6
Vtechnology
p1797
tp1798
Rp1799
atp1800
a(S'SenMarkPryor'
p1801
(lp1802
g4
(g5
g6
Vnew-york-usa
p1803
tp1804
Rp1805
a(lp1806
g4
(g5
g6
Vsan-francisco-usa
p1807
tp1808
Rp1809
ag4
(g5
g6
Vnew-york-usa
p1810
tp1811
Rp1812
ag4
(g5
g6
Vboston-usa
p1813
tp1814
Rp1815
a(lp1816
(lp1817
g4
(g5
g6
Vpolitics
p1818
tp1819
Rp1820
atp1821
a(S'CurtisErickson'
p1822
(lp1823
g4
(g5
g6
Vsan-francisco-usa
p1824
tp1825
Rp1826
a(lp1827
(lp1828
(lp1829
g4
(g5
g6
Vbusiness
p1830
tp1831
Rp1832
atp1833
a(S'xanalter'
p1834
(lp1835
(lp1836
(lp1837
(lp1838
g4
(g5
g6
Ventertainment
p1839
tp1840
Rp1841
atp1842
a(S'SteveScalise'
p1843
(lp1844
(lp1845
g4
(g5
g6
Vsan-francisco-usa
p1846
tp1847
Rp1848
ag4
(g5
g6
Vnew-york-usa
p1849
tp1850
Rp1851
ag4
(g5
g6
Vboston-usa
p1852
tp1853
Rp1854
a(lp1855
(lp1856
g4
(g5
g6
Vpolitics
p1857
tp1858
Rp1859
atp1860
a(S'CNNWBT'
p1861
(lp1862
g4
(g5
g6
Vbangalore-india
p1863
tp1864
Rp1865
a(lp1866
(lp1867
g4
(g5
g6
Vbangalore-india
p1868
tp1869
Rp1870
a(lp1871
g4
(g5
g6
Vbusiness
p1872
tp1873
Rp1874
atp1875
a(S'SenAngusKing'
p1876
(lp1877
(lp1878
g4
(g5
g6
Vsan-francisco-usa
p1879
tp1880
Rp1881
ag4
(g5
g6
Vnew-york-usa
p1882
tp1883
Rp1884
ag4
(g5
g6
Vboston-usa
p1885
tp1886
Rp1887
a(lp1888
(lp1889
g4
(g5
g6
Vpolitics
p1890
tp1891
Rp1892
atp1893
a(S'krisallenband'
p1894
(lp1895
(lp1896
(lp1897
(lp1898
g4
(g5
g6
Ventertainment
p1899
tp1900
Rp1901
atp1902
a(S'cupalwaysfull'
p1903
(lp1904
(lp1905
g4
(g5
g6
Vbangalore-india
p1906
tp1907
Rp1908
ag4
(g5
g6
Vmumbai-india
p1909
tp1910
Rp1911
a(lp1912
g4
(g5
g6
Vmumbai-india
p1913
tp1914
Rp1915
a(lp1916
g4
(g5
g6
Ventertainment
p1917
tp1918
Rp1919
atp1920
a(S'KaranMohla'
p1921
(lp1922
g4
(g5
g6
Vmumbai-india
p1923
tp1924
Rp1925
a(lp1926
(lp1927
(lp1928
g4
(g5
g6
Vtechnology
p1929
tp1930
Rp1931
ag4
(g5
g6
Vbusiness
p1932
tp1933
Rp1934
atp1935
a(S'NATOlibrary'
p1936
(lp1937
(lp1938
(lp1939
(lp1940
g4
(g5
g6
Vpolitics
p1941
tp1942
Rp1943
atp1944
a(S'NatalieAbrams'
p1945
(lp1946
(lp1947
(lp1948
g4
(g5
g6
Vsan-francisco-usa
p1949
tp1950
Rp1951
a(lp1952
g4
(g5
g6
Ventertainment
p1953
tp1954
Rp1955
atp1956
a(S'kategilescnn'
p1957
(lp1958
(lp1959
(lp1960
(lp1961
g4
(g5
g6
Vsports
p1962
tp1963
Rp1964
atp1965
a(S'ESPNLosAngeles'
p1966
(lp1967
g4
(g5
g6
Vsan-francisco-usa
p1968
tp1969
Rp1970
a(lp1971
g4
(g5
g6
Vsan-francisco-usa
p1972
tp1973
Rp1974
a(lp1975
g4
(g5
g6
Vsan-francisco-usa
p1976
tp1977
Rp1978
a(lp1979
g4
(g5
g6
Vsports
p1980
tp1981
Rp1982
atp1983
a(S'romanscharf'
p1984
(lp1985
(lp1986
(lp1987
g4
(g5
g6
Vsan-francisco-usa
p1988
tp1989
Rp1990
a(lp1991
g4
(g5
g6
Vtechnology
p1992
tp1993
Rp1994
ag4
(g5
g6
Vbusiness
p1995
tp1996
Rp1997
atp1998
a(S'jtimberlake'
p1999
(lp2000
(lp2001
(lp2002
(lp2003
g4
(g5
g6
Ventertainment
p2004
tp2005
Rp2006
atp2007
a(S'BaltimoreCFO'
p2008
(lp2009
g4
(g5
g6
Vnew-york-usa
p2010
tp2011
Rp2012
a(lp2013
(lp2014
g4
(g5
g6
Vnew-york-usa
p2015
tp2016
Rp2017
a(lp2018
g4
(g5
g6
Vbusiness
p2019
tp2020
Rp2021
atp2022
a(S'IAmSteveHarvey'
p2023
(lp2024
(lp2025
(lp2026
(lp2027
g4
(g5
g6
Ventertainment
p2028
tp2029
Rp2030
atp2031
a(S'AffiliateMgt'
p2032
(lp2033
(lp2034
(lp2035
(lp2036
g4
(g5
g6
Vbusiness
p2037
tp2038
Rp2039
atp2040
a(S'nickconfessore'
p2041
(lp2042
(lp2043
(lp2044
(lp2045
g4
(g5
g6
Vpolitics
p2046
tp2047
Rp2048
atp2049
a(S'shinyoung_park'
p2050
(lp2051
g4
(g5
g6
Vsan-francisco-usa
p2052
tp2053
Rp2054
a(lp2055
(lp2056
g4
(g5
g6
Vsan-francisco-usa
p2057
tp2058
Rp2059
a(lp2060
g4
(g5
g6
Vtechnology
p2061
tp2062
Rp2063
ag4
(g5
g6
Vbusiness
p2064
tp2065
Rp2066
atp2067
a(S'Arubin'
p2068
(lp2069
g4
(g5
g6
Vsan-francisco-usa
p2070
tp2071
Rp2072
a(lp2073
(lp2074
g4
(g5
g6
Vsan-francisco-usa
p2075
tp2076
Rp2077
a(lp2078
g4
(g5
g6
Vtechnology
p2079
tp2080
Rp2081
ag4
(g5
g6
Vbusiness
p2082
tp2083
Rp2084
atp2085
a(S'NdamukongSuh'
p2086
(lp2087
(lp2088
(lp2089
(lp2090
g4
(g5
g6
Vsports
p2091
tp2092
Rp2093
atp2094
a(S'bwreedbgr'
p2095
(lp2096
(lp2097
(lp2098
(lp2099
g4
(g5
g6
Vtechnology
p2100
tp2101
Rp2102
atp2103
a(S'richardquest'
p2104
(lp2105
g4
(g5
g6
Vnew-york-usa
p2106
tp2107
Rp2108
a(lp2109
(lp2110
(lp2111
g4
(g5
g6
Vbusiness
p2112
tp2113
Rp2114
atp2115
a(S'akstanwyck'
p2116
(lp2117
(lp2118
(lp2119
(lp2120
g4
(g5
g6
Ventertainment
p2121
tp2122
Rp2123
atp2124
a(S'NapolitanoWSJ'
p2125
(lp2126
g4
(g5
g6
Vbangalore-india
p2127
tp2128
Rp2129
a(lp2130
(lp2131
g4
(g5
g6
Vbangalore-india
p2132
tp2133
Rp2134
a(lp2135
g4
(g5
g6
Ventertainment
p2136
tp2137
Rp2138
atp2139
a(S'EHolmesWSJ'
p2140
(lp2141
(lp2142
(lp2143
g4
(g5
g6
Vnew-york-usa
p2144
tp2145
Rp2146
a(lp2147
g4
(g5
g6
Vbusiness
p2148
tp2149
Rp2150
ag4
(g5
g6
Ventertainment
p2151
tp2152
Rp2153
atp2154
a(S'goldiehawn'
p2155
(lp2156
g4
(g5
g6
Vsan-francisco-usa
p2157
tp2158
Rp2159
a(lp2160
(lp2161
(lp2162
g4
(g5
g6
Ventertainment
p2163
tp2164
Rp2165
atp2166
a(S'BusinessDesk'
p2167
(lp2168
g4
(g5
g6
Vlondon-uk
p2169
tp2170
Rp2171
a(lp2172
(lp2173
g4
(g5
g6
Vlondon-uk
p2174
tp2175
Rp2176
a(lp2177
g4
(g5
g6
Vbusiness
p2178
tp2179
Rp2180
atp2181
a(S'SVB_India'
p2182
(lp2183
(lp2184
(lp2185
g4
(g5
g6
Vmumbai-india
p2186
tp2187
Rp2188
a(lp2189
g4
(g5
g6
Vtechnology
p2190
tp2191
Rp2192
ag4
(g5
g6
Vbusiness
p2193
tp2194
Rp2195
atp2196
a(S'Registaan'
p2197
(lp2198
(lp2199
g4
(g5
g6
Vbangalore-india
p2200
tp2201
Rp2202
ag4
(g5
g6
Vmumbai-india
p2203
tp2204
Rp2205
a(lp2206
(lp2207
g4
(g5
g6
Ventertainment
p2208
tp2209
Rp2210
atp2211
a(S'WSJLife'
p2212
(lp2213
(lp2214
(lp2215
g4
(g5
g6
Vnew-york-usa
p2216
tp2217
Rp2218
a(lp2219
g4
(g5
g6
Ventertainment
p2220
tp2221
Rp2222
atp2223
a(S'FutureBoy'
p2224
(lp2225
(lp2226
(lp2227
g4
(g5
g6
Vlondon-uk
p2228
tp2229
Rp2230
a(lp2231
g4
(g5
g6
Vtechnology
p2232
tp2233
Rp2234
atp2235
a(S'radusuma'
p2236
(lp2237
(lp2238
(lp2239
(lp2240
g4
(g5
g6
Vtechnology
p2241
tp2242
Rp2243
ag4
(g5
g6
Vbusiness
p2244
tp2245
Rp2246
atp2247
a(S'CharlesHodsnCNN'
p2248
(lp2249
g4
(g5
g6
Vlondon-uk
p2250
tp2251
Rp2252
a(lp2253
(lp2254
g4
(g5
g6
Vlondon-uk
p2255
tp2256
Rp2257
a(lp2258
g4
(g5
g6
Vbusiness
p2259
tp2260
Rp2261
atp2262
a(S'coreyboles'
p2263
(lp2264
g4
(g5
g6
Vnew-york-usa
p2265
tp2266
Rp2267
a(lp2268
(lp2269
(lp2270
g4
(g5
g6
Vpolitics
p2271
tp2272
Rp2273
atp2274
a(S'BobKellyAbreu'
p2275
(lp2276
(lp2277
g4
(g5
g6
Vsan-francisco-usa
p2278
tp2279
Rp2280
ag4
(g5
g6
Vnew-york-usa
p2281
tp2282
Rp2283
ag4
(g5
g6
Vboston-usa
p2284
tp2285
Rp2286
a(lp2287
(lp2288
g4
(g5
g6
Vsports
p2289
tp2290
Rp2291
atp2292
a(S'stuwoo'
p2293
(lp2294
(lp2295
(lp2296
g4
(g5
g6
Vnew-york-usa
p2297
tp2298
Rp2299
a(lp2300
g4
(g5
g6
Vsports
p2301
tp2302
Rp2303
atp2304
a(S'CNNGlobalEx'
p2305
(lp2306
g4
(g5
g6
Vmumbai-india
p2307
tp2308
Rp2309
a(lp2310
(lp2311
(lp2312
g4
(g5
g6
Vbusiness
p2313
tp2314
Rp2315
atp2316
a(S'kevinrose'
p2317
(lp2318
(lp2319
(lp2320
g4
(g5
g6
Vsan-francisco-usa
p2321
tp2322
Rp2323
a(lp2324
g4
(g5
g6
Vtechnology
p2325
tp2326
Rp2327
atp2328
a(S'BradZiegler'
p2329
(lp2330
(lp2331
g4
(g5
g6
Vsan-francisco-usa
p2332
tp2333
Rp2334
ag4
(g5
g6
Vnew-york-usa
p2335
tp2336
Rp2337
ag4
(g5
g6
Vboston-usa
p2338
tp2339
Rp2340
a(lp2341
(lp2342
g4
(g5
g6
Vsports
p2343
tp2344
Rp2345
atp2346
a(S'SAPresident'
p2347
(lp2348
g4
(g5
g6
Vbangalore-india
p2349
tp2350
Rp2351
a(lp2352
(lp2353
(lp2354
g4
(g5
g6
Vpolitics
p2355
tp2356
Rp2357
atp2358
a(S'GeoffAaron'
p2359
(lp2360
(lp2361
(lp2362
(lp2363
g4
(g5
g6
Vsports
p2364
tp2365
Rp2366
atp2367
a(S'TheRahulMahajan'
p2368
(lp2369
g4
(g5
g6
Vmumbai-india
p2370
tp2371
Rp2372
a(lp2373
g4
(g5
g6
Vbangalore-india
p2374
tp2375
Rp2376
ag4
(g5
g6
Vmumbai-india
p2377
tp2378
Rp2379
a(lp2380
g4
(g5
g6
Vmumbai-india
p2381
tp2382
Rp2383
a(lp2384
g4
(g5
g6
Ventertainment
p2385
tp2386
Rp2387
atp2388
a(S'qubecell'
p2389
(lp2390
(lp2391
(lp2392
(lp2393
g4
(g5
g6
Vtechnology
p2394
tp2395
Rp2396
ag4
(g5
g6
Vbusiness
p2397
tp2398
Rp2399
atp2400
a(S'KAKA'
p2401
(lp2402
(lp2403
g4
(g5
g6
Vsan-francisco-usa
p2404
tp2405
Rp2406
ag4
(g5
g6
Vnew-york-usa
p2407
tp2408
Rp2409
ag4
(g5
g6
Vlondon-uk
p2410
tp2411
Rp2412
ag4
(g5
g6
Vboston-usa
p2413
tp2414
Rp2415
a(lp2416
(lp2417
g4
(g5
g6
Vsports
p2418
tp2419
Rp2420
atp2421
a(S'charlesrotblut'
p2422
(lp2423
(lp2424
(lp2425
(lp2426
g4
(g5
g6
Vbusiness
p2427
tp2428
Rp2429
atp2430
a(S'AlecMacGillis'
p2431
(lp2432
(lp2433
(lp2434
(lp2435
g4
(g5
g6
Vpolitics
p2436
tp2437
Rp2438
atp2439
a(S'limeroadcom'
p2440
(lp2441
(lp2442
(lp2443
(lp2444
g4
(g5
g6
Vtechnology
p2445
tp2446
Rp2447
ag4
(g5
g6
Vbusiness
p2448
tp2449
Rp2450
atp2451
a(S'AccelIndiaVC'
p2452
(lp2453
(lp2454
(lp2455
(lp2456
g4
(g5
g6
Vtechnology
p2457
tp2458
Rp2459
ag4
(g5
g6
Vbusiness
p2460
tp2461
Rp2462
atp2463
a(S'Sortable'
p2464
(lp2465
(lp2466
g4
(g5
g6
Vnew-york-usa
p2467
tp2468
Rp2469
a(lp2470
(lp2471
g4
(g5
g6
Vtechnology
p2472
tp2473
Rp2474
atp2475
a(S'KevinClarkWSJ'
p2476
(lp2477
(lp2478
(lp2479
g4
(g5
g6
Vnew-york-usa
p2480
tp2481
Rp2482
a(lp2483
g4
(g5
g6
Vsports
p2484
tp2485
Rp2486
atp2487
a(S'IreneCNN'
p2488
(lp2489
g4
(g5
g6
Vlondon-uk
p2490
tp2491
Rp2492
a(lp2493
(lp2494
g4
(g5
g6
Vlondon-uk
p2495
tp2496
Rp2497
a(lp2498
g4
(g5
g6
Vbusiness
p2499
tp2500
Rp2501
atp2502
a(S'kashhill'
p2503
(lp2504
(lp2505
(lp2506
g4
(g5
g6
Vsan-francisco-usa
p2507
tp2508
Rp2509
a(lp2510
g4
(g5
g6
Vbusiness
p2511
tp2512
Rp2513
atp2514
a(S'RHCJO'
p2515
(lp2516
(lp2517
(lp2518
(lp2519
g4
(g5
g6
Vpolitics
p2520
tp2521
Rp2522
atp2523
a(S'KimNewsome'
p2524
(lp2525
g4
(g5
g6
Vnew-york-usa
p2526
tp2527
Rp2528
a(lp2529
(lp2530
g4
(g5
g6
Vnew-york-usa
p2531
tp2532
Rp2533
a(lp2534
g4
(g5
g6
Vsports
p2535
tp2536
Rp2537
atp2538
a(S'willmauldin'
p2539
(lp2540
g4
(g5
g6
Vnew-york-usa
p2541
tp2542
Rp2543
a(lp2544
(lp2545
(lp2546
g4
(g5
g6
Vpolitics
p2547
tp2548
Rp2549
atp2550
a(S'_suhasidhami'
p2551
(lp2552
(lp2553
g4
(g5
g6
Vbangalore-india
p2554
tp2555
Rp2556
ag4
(g5
g6
Vmumbai-india
p2557
tp2558
Rp2559
a(lp2560
(lp2561
g4
(g5
g6
Ventertainment
p2562
tp2563
Rp2564
atp2565
a(S'kimbalabs'
p2566
(lp2567
(lp2568
g4
(g5
g6
Vsan-francisco-usa
p2569
tp2570
Rp2571
a(lp2572
g4
(g5
g6
Vsan-francisco-usa
p2573
tp2574
Rp2575
a(lp2576
g4
(g5
g6
Vtechnology
p2577
tp2578
Rp2579
atp2580
a(S'Ronny_Turiaf'
p2581
(lp2582
g4
(g5
g6
Vsan-francisco-usa
p2583
tp2584
Rp2585
a(lp2586
g4
(g5
g6
Vsan-francisco-usa
p2587
tp2588
Rp2589
ag4
(g5
g6
Vnew-york-usa
p2590
tp2591
Rp2592
ag4
(g5
g6
Vboston-usa
p2593
tp2594
Rp2595
a(lp2596
(lp2597
g4
(g5
g6
Vsports
p2598
tp2599
Rp2600
atp2601
a(S'BridgetCarey'
p2602
(lp2603
(lp2604
(lp2605
g4
(g5
g6
Vnew-york-usa
p2606
tp2607
Rp2608
a(lp2609
g4
(g5
g6
Vtechnology
p2610
tp2611
Rp2612
atp2613
a(S'jimchair'
p2614
(lp2615
(lp2616
(lp2617
(lp2618
g4
(g5
g6
Vsports
p2619
tp2620
Rp2621
atp2622
a(S'RyanSauers'
p2623
(lp2624
(lp2625
(lp2626
g4
(g5
g6
Vnew-york-usa
p2627
tp2628
Rp2629
a(lp2630
g4
(g5
g6
Vbusiness
p2631
tp2632
Rp2633
atp2634
a(S'dougkwarner'
p2635
(lp2636
g4
(g5
g6
Vsan-francisco-usa
p2637
tp2638
Rp2639
a(lp2640
(lp2641
(lp2642
g4
(g5
g6
Vtechnology
p2643
tp2644
Rp2645
ag4
(g5
g6
Vbusiness
p2646
tp2647
Rp2648
atp2649
a(S'swissteam'
p2650
(lp2651
(lp2652
(lp2653
(lp2654
g4
(g5
g6
Vsports
p2655
tp2656
Rp2657
atp2658
a(S'BeckyQuick'
p2659
(lp2660
(lp2661
(lp2662
(lp2663
g4
(g5
g6
Vbusiness
p2664
tp2665
Rp2666
atp2667
a(S'WHLive'
p2668
(lp2669
g4
(g5
g6
Vnew-york-usa
p2670
tp2671
Rp2672
a(lp2673
(lp2674
(lp2675
g4
(g5
g6
Vpolitics
p2676
tp2677
Rp2678
atp2679
a(S'davidhawkings'
p2680
(lp2681
g4
(g5
g6
Vnew-york-usa
p2682
tp2683
Rp2684
a(lp2685
g4
(g5
g6
Vsan-francisco-usa
p2686
tp2687
Rp2688
ag4
(g5
g6
Vnew-york-usa
p2689
tp2690
Rp2691
ag4
(g5
g6
Vboston-usa
p2692
tp2693
Rp2694
a(lp2695
(lp2696
g4
(g5
g6
Vpolitics
p2697
tp2698
Rp2699
atp2700
a(S'foodspotting'
p2701
(lp2702
g4
(g5
g6
Vnew-york-usa
p2703
tp2704
Rp2705
a(lp2706
g4
(g5
g6
Vnew-york-usa
p2707
tp2708
Rp2709
a(lp2710
(lp2711
g4
(g5
g6
Vtechnology
p2712
tp2713
Rp2714
atp2715
a(S'BloombergView'
p2716
(lp2717
(lp2718
(lp2719
g4
(g5
g6
Vnew-york-usa
p2720
tp2721
Rp2722
a(lp2723
g4
(g5
g6
Vpolitics
p2724
tp2725
Rp2726
atp2727
a(S'expensify'
p2728
(lp2729
(lp2730
g4
(g5
g6
Vsan-francisco-usa
p2731
tp2732
Rp2733
a(lp2734
g4
(g5
g6
Vsan-francisco-usa
p2735
tp2736
Rp2737
a(lp2738
g4
(g5
g6
Vtechnology
p2739
tp2740
Rp2741
atp2742
a(S'ronnyejones'
p2743
(lp2744
(lp2745
(lp2746
(lp2747
g4
(g5
g6
Vtechnology
p2748
tp2749
Rp2750
ag4
(g5
g6
Vbusiness
p2751
tp2752
Rp2753
atp2754
a(S'murraymatt'
p2755
(lp2756
(lp2757
(lp2758
g4
(g5
g6
Vnew-york-usa
p2759
tp2760
Rp2761
a(lp2762
g4
(g5
g6
Vbusiness
p2763
tp2764
Rp2765
atp2766
a(S'titojackson5'
p2767
(lp2768
(lp2769
(lp2770
(lp2771
g4
(g5
g6
Ventertainment
p2772
tp2773
Rp2774
atp2775
a(S'WSJmarkets'
p2776
(lp2777
(lp2778
(lp2779
g4
(g5
g6
Vnew-york-usa
p2780
tp2781
Rp2782
a(lp2783
g4
(g5
g6
Vbusiness
p2784
tp2785
Rp2786
atp2787
a(S'DanBarbarisi'
p2788
(lp2789
(lp2790
(lp2791
g4
(g5
g6
Vnew-york-usa
p2792
tp2793
Rp2794
a(lp2795
g4
(g5
g6
Vsports
p2796
tp2797
Rp2798
atp2799
a(S'businessnews'
p2800
(lp2801
(lp2802
(lp2803
(lp2804
g4
(g5
g6
Vbusiness
p2805
tp2806
Rp2807
atp2808
a(S'BachusAL06'
p2809
(lp2810
(lp2811
g4
(g5
g6
Vsan-francisco-usa
p2812
tp2813
Rp2814
ag4
(g5
g6
Vnew-york-usa
p2815
tp2816
Rp2817
ag4
(g5
g6
Vboston-usa
p2818
tp2819
Rp2820
a(lp2821
(lp2822
g4
(g5
g6
Vpolitics
p2823
tp2824
Rp2825
atp2826
a(S'B_Wagner'
p2827
(lp2828
(lp2829
(lp2830
g4
(g5
g6
Vboston-usa
p2831
tp2832
Rp2833
a(lp2834
g4
(g5
g6
Vbusiness
p2835
tp2836
Rp2837
atp2838
a(S'VeniceMase'
p2839
(lp2840
(lp2841
g4
(g5
g6
Vsan-francisco-usa
p2842
tp2843
Rp2844
a(lp2845
(lp2846
g4
(g5
g6
Vsports
p2847
tp2848
Rp2849
atp2850
a(S'scottylago'
p2851
(lp2852
(lp2853
(lp2854
(lp2855
g4
(g5
g6
Vsports
p2856
tp2857
Rp2858
atp2859
a(S'PandoDaily'
p2860
(lp2861
g4
(g5
g6
Vsan-francisco-usa
p2862
tp2863
Rp2864
a(lp2865
(lp2866
g4
(g5
g6
Vsan-francisco-usa
p2867
tp2868
Rp2869
a(lp2870
g4
(g5
g6
Vtechnology
p2871
tp2872
Rp2873
atp2874
a(S'PSBJ_Tech'
p2875
(lp2876
(lp2877
(lp2878
(lp2879
g4
(g5
g6
Vtechnology
p2880
tp2881
Rp2882
atp2883
a(S'LAIreland'
p2884
(lp2885
(lp2886
g4
(g5
g6
Vsan-francisco-usa
p2887
tp2888
Rp2889
a(lp2890
g4
(g5
g6
Vsan-francisco-usa
p2891
tp2892
Rp2893
a(lp2894
g4
(g5
g6
Vsports
p2895
tp2896
Rp2897
atp2898
a(S'EdwardNorton'
p2899
(lp2900
(lp2901
(lp2902
g4
(g5
g6
Vnew-york-usa
p2903
tp2904
Rp2905
a(lp2906
g4
(g5
g6
Ventertainment
p2907
tp2908
Rp2909
atp2910
a(S'IvankaTrump'
p2911
(lp2912
(lp2913
(lp2914
g4
(g5
g6
Vnew-york-usa
p2915
tp2916
Rp2917
a(lp2918
g4
(g5
g6
Vbusiness
p2919
tp2920
Rp2921
ag4
(g5
g6
Ventertainment
p2922
tp2923
Rp2924
atp2925
a(S'YahooBDL'
p2926
(lp2927
(lp2928
(lp2929
(lp2930
g4
(g5
g6
Vsports
p2931
tp2932
Rp2933
atp2934
a(S'JoyLinFN'
p2935
(lp2936
g4
(g5
g6
Vnew-york-usa
p2937
tp2938
Rp2939
a(lp2940
(lp2941
(lp2942
g4
(g5
g6
Vpolitics
p2943
tp2944
Rp2945
atp2946
a(S'MGortat'
p2947
(lp2948
g4
(g5
g6
Vnew-york-usa
p2949
tp2950
Rp2951
a(lp2952
g4
(g5
g6
Vsan-francisco-usa
p2953
tp2954
Rp2955
ag4
(g5
g6
Vnew-york-usa
p2956
tp2957
Rp2958
ag4
(g5
g6
Vboston-usa
p2959
tp2960
Rp2961
a(lp2962
(lp2963
g4
(g5
g6
Vsports
p2964
tp2965
Rp2966
atp2967
a(S'manbearwolf'
p2968
(lp2969
(lp2970
g4
(g5
g6
Vsan-francisco-usa
p2971
tp2972
Rp2973
ag4
(g5
g6
Vnew-york-usa
p2974
tp2975
Rp2976
ag4
(g5
g6
Vboston-usa
p2977
tp2978
Rp2979
a(lp2980
(lp2981
g4
(g5
g6
Vsports
p2982
tp2983
Rp2984
atp2985
a(S'JohnPaczkowski'
p2986
(lp2987
(lp2988
(lp2989
(lp2990
g4
(g5
g6
Vtechnology
p2991
tp2992
Rp2993
atp2994
a(S'HHShkMohd'
p2995
(lp2996
(lp2997
(lp2998
(lp2999
g4
(g5
g6
Vpolitics
p3000
tp3001
Rp3002
atp3003
a(S'reidcherlin'
p3004
(lp3005
(lp3006
(lp3007
(lp3008
g4
(g5
g6
Vpolitics
p3009
tp3010
Rp3011
atp3012
a(S'gigabarb'
p3013
(lp3014
(lp3015
(lp3016
g4
(g5
g6
Vboston-usa
p3017
tp3018
Rp3019
a(lp3020
g4
(g5
g6
Vtechnology
p3021
tp3022
Rp3023
atp3024
a(S'brkend'
p3025
(lp3026
(lp3027
(lp3028
(lp3029
g4
(g5
g6
Vpolitics
p3030
tp3031
Rp3032
atp3033
a(S'WSJarts'
p3034
(lp3035
(lp3036
(lp3037
g4
(g5
g6
Vnew-york-usa
p3038
tp3039
Rp3040
a(lp3041
g4
(g5
g6
Ventertainment
p3042
tp3043
Rp3044
atp3045
a(S'PeakePoetics'
p3046
(lp3047
g4
(g5
g6
Vlondon-uk
p3048
tp3049
Rp3050
a(lp3051
(lp3052
g4
(g5
g6
Vlondon-uk
p3053
tp3054
Rp3055
a(lp3056
g4
(g5
g6
Vtechnology
p3057
tp3058
Rp3059
ag4
(g5
g6
Vbusiness
p3060
tp3061
Rp3062
atp3063
a(S'robbierogers'
p3064
(lp3065
(lp3066
g4
(g5
g6
Vsan-francisco-usa
p3067
tp3068
Rp3069
ag4
(g5
g6
Vnew-york-usa
p3070
tp3071
Rp3072
ag4
(g5
g6
Vlondon-uk
p3073
tp3074
Rp3075
ag4
(g5
g6
Vboston-usa
p3076
tp3077
Rp3078
a(lp3079
(lp3080
g4
(g5
g6
Vsports
p3081
tp3082
Rp3083
atp3084
a(S'AndreaBargnani'
p3085
(lp3086
(lp3087
g4
(g5
g6
Vsan-francisco-usa
p3088
tp3089
Rp3090
ag4
(g5
g6
Vnew-york-usa
p3091
tp3092
Rp3093
ag4
(g5
g6
Vboston-usa
p3094
tp3095
Rp3096
a(lp3097
(lp3098
g4
(g5
g6
Vsports
p3099
tp3100
Rp3101
atp3102
a(S'RepCheri'
p3103
(lp3104
(lp3105
g4
(g5
g6
Vsan-francisco-usa
p3106
tp3107
Rp3108
ag4
(g5
g6
Vnew-york-usa
p3109
tp3110
Rp3111
ag4
(g5
g6
Vboston-usa
p3112
tp3113
Rp3114
a(lp3115
(lp3116
g4
(g5
g6
Vpolitics
p3117
tp3118
Rp3119
atp3120
a(S'RobLowe'
p3121
(lp3122
g4
(g5
g6
Vsan-francisco-usa
p3123
tp3124
Rp3125
a(lp3126
(lp3127
g4
(g5
g6
Vsan-francisco-usa
p3128
tp3129
Rp3130
a(lp3131
g4
(g5
g6
Ventertainment
p3132
tp3133
Rp3134
atp3135
a(S'ChicMeetsGeek'
p3136
(lp3137
(lp3138
(lp3139
g4
(g5
g6
Vsan-francisco-usa
p3140
tp3141
Rp3142
a(lp3143
g4
(g5
g6
Vtechnology
p3144
tp3145
Rp3146
atp3147
a(S'JustinArmsden9'
p3148
(lp3149
g4
(g5
g6
Vbangalore-india
p3150
tp3151
Rp3152
a(lp3153
(lp3154
(lp3155
g4
(g5
g6
Vsports
p3156
tp3157
Rp3158
atp3159
a(S'NdosSantosCNN'
p3160
(lp3161
g4
(g5
g6
Vlondon-uk
p3162
tp3163
Rp3164
a(lp3165
(lp3166
g4
(g5
g6
Vlondon-uk
p3167
tp3168
Rp3169
a(lp3170
g4
(g5
g6
Vbusiness
p3171
tp3172
Rp3173
atp3174
a(S'SocialFlow'
p3175
(lp3176
(lp3177
g4
(g5
g6
Vnew-york-usa
p3178
tp3179
Rp3180
a(lp3181
g4
(g5
g6
Vnew-york-usa
p3182
tp3183
Rp3184
a(lp3185
g4
(g5
g6
Vtechnology
p3186
tp3187
Rp3188
atp3189
a(S'letsventurein'
p3190
(lp3191
(lp3192
(lp3193
g4
(g5
g6
Vbangalore-india
p3194
tp3195
Rp3196
a(lp3197
g4
(g5
g6
Vtechnology
p3198
tp3199
Rp3200
ag4
(g5
g6
Vbusiness
p3201
tp3202
Rp3203
atp3204
a(S'ramansundar'
p3205
(lp3206
(lp3207
g4
(g5
g6
Vbangalore-india
p3208
tp3209
Rp3210
ag4
(g5
g6
Vmumbai-india
p3211
tp3212
Rp3213
a(lp3214
(lp3215
g4
(g5
g6
Vsports
p3216
tp3217
Rp3218
atp3219
a(S'gabrielspitz'
p3220
(lp3221
(lp3222
(lp3223
(lp3224
g4
(g5
g6
Vtechnology
p3225
tp3226
Rp3227
ag4
(g5
g6
Vbusiness
p3228
tp3229
Rp3230
atp3231
a(S'LarsLuv'
p3232
(lp3233
g4
(g5
g6
Vsan-francisco-usa
p3234
tp3235
Rp3236
a(lp3237
(lp3238
g4
(g5
g6
Vsan-francisco-usa
p3239
tp3240
Rp3241
a(lp3242
g4
(g5
g6
Vtechnology
p3243
tp3244
Rp3245
ag4
(g5
g6
Vbusiness
p3246
tp3247
Rp3248
atp3249
a(S'rosariodawson'
p3250
(lp3251
(lp3252
(lp3253
(lp3254
g4
(g5
g6
Vpolitics
p3255
tp3256
Rp3257
atp3258
a(S'secure_cloud'
p3259
(lp3260
(lp3261
(lp3262
(lp3263
g4
(g5
g6
Vtechnology
p3264
tp3265
Rp3266
atp3267
a(S'businessinsider'
p3268
(lp3269
(lp3270
(lp3271
g4
(g5
g6
Vnew-york-usa
p3272
tp3273
Rp3274
a(lp3275
g4
(g5
g6
Vbusiness
p3276
tp3277
Rp3278
atp3279
a(S'timseymour'
p3280
(lp3281
(lp3282
(lp3283
g4
(g5
g6
Vnew-york-usa
p3284
tp3285
Rp3286
a(lp3287
g4
(g5
g6
Vbusiness
p3288
tp3289
Rp3290
atp3291
a(S'AugmentedReal'
p3292
(lp3293
(lp3294
(lp3295
(lp3296
g4
(g5
g6
Vtechnology
p3297
tp3298
Rp3299
atp3300
a(S'lizstephen'
p3301
(lp3302
g4
(g5
g6
Vsan-francisco-usa
p3303
tp3304
Rp3305
a(lp3306
(lp3307
(lp3308
g4
(g5
g6
Vsports
p3309
tp3310
Rp3311
atp3312
a(S'c11ro'
p3313
(lp3314
(lp3315
g4
(g5
g6
Vsan-francisco-usa
p3316
tp3317
Rp3318
ag4
(g5
g6
Vnew-york-usa
p3319
tp3320
Rp3321
ag4
(g5
g6
Vlondon-uk
p3322
tp3323
Rp3324
ag4
(g5
g6
Vboston-usa
p3325
tp3326
Rp3327
a(lp3328
(lp3329
g4
(g5
g6
Vsports
p3330
tp3331
Rp3332
atp3333
a(S'KristinCav'
p3334
(lp3335
(lp3336
(lp3337
(lp3338
g4
(g5
g6
Ventertainment
p3339
tp3340
Rp3341
atp3342
a(S'SI_ENewman'
p3343
(lp3344
g4
(g5
g6
Vnew-york-usa
p3345
tp3346
Rp3347
a(lp3348
(lp3349
g4
(g5
g6
Vnew-york-usa
p3350
tp3351
Rp3352
a(lp3353
g4
(g5
g6
Vsports
p3354
tp3355
Rp3356
atp3357
a(S'MarketSleddogg'
p3358
(lp3359
(lp3360
(lp3361
(lp3362
g4
(g5
g6
Vbusiness
p3363
tp3364
Rp3365
atp3366
a(S'Adweek'
p3367
(lp3368
(lp3369
(lp3370
g4
(g5
g6
Vnew-york-usa
p3371
tp3372
Rp3373
a(lp3374
g4
(g5
g6
Vbusiness
p3375
tp3376
Rp3377
atp3378
a(S'ConanOBrien'
p3379
(lp3380
g4
(g5
g6
Vsan-francisco-usa
p3381
tp3382
Rp3383
a(lp3384
(lp3385
g4
(g5
g6
Vsan-francisco-usa
p3386
tp3387
Rp3388
a(lp3389
g4
(g5
g6
Ventertainment
p3390
tp3391
Rp3392
atp3393
a(S'puneetmehtanyc'
p3394
(lp3395
(lp3396
(lp3397
g4
(g5
g6
Vnew-york-usa
p3398
tp3399
Rp3400
a(lp3401
g4
(g5
g6
Vtechnology
p3402
tp3403
Rp3404
ag4
(g5
g6
Vbusiness
p3405
tp3406
Rp3407
atp3408
a(S'BillSimmons'
p3409
(lp3410
(lp3411
(lp3412
g4
(g5
g6
Vboston-usa
p3413
tp3414
Rp3415
a(lp3416
g4
(g5
g6
Vsports
p3417
tp3418
Rp3419
atp3420
a(S'SamWalkers'
p3421
(lp3422
(lp3423
(lp3424
(lp3425
g4
(g5
g6
Vsports
p3426
tp3427
Rp3428
atp3429
a(S'Matt_Barnes22'
p3430
(lp3431
g4
(g5
g6
Vnew-york-usa
p3432
tp3433
Rp3434
a(lp3435
g4
(g5
g6
Vsan-francisco-usa
p3436
tp3437
Rp3438
ag4
(g5
g6
Vnew-york-usa
p3439
tp3440
Rp3441
ag4
(g5
g6
Vboston-usa
p3442
tp3443
Rp3444
a(lp3445
(lp3446
g4
(g5
g6
Vsports
p3447
tp3448
Rp3449
atp3450
a(S'RepDonaldPayne'
p3451
(lp3452
(lp3453
g4
(g5
g6
Vsan-francisco-usa
p3454
tp3455
Rp3456
ag4
(g5
g6
Vnew-york-usa
p3457
tp3458
Rp3459
ag4
(g5
g6
Vboston-usa
p3460
tp3461
Rp3462
a(lp3463
(lp3464
g4
(g5
g6
Vpolitics
p3465
tp3466
Rp3467
atp3468
a(S'IamAmirJohnson'
p3469
(lp3470
(lp3471
g4
(g5
g6
Vsan-francisco-usa
p3472
tp3473
Rp3474
ag4
(g5
g6
Vnew-york-usa
p3475
tp3476
Rp3477
ag4
(g5
g6
Vboston-usa
p3478
tp3479
Rp3480
a(lp3481
(lp3482
g4
(g5
g6
Vsports
p3483
tp3484
Rp3485
atp3486
a(S'RepKirkpatrick'
p3487
(lp3488
(lp3489
g4
(g5
g6
Vsan-francisco-usa
p3490
tp3491
Rp3492
ag4
(g5
g6
Vnew-york-usa
p3493
tp3494
Rp3495
ag4
(g5
g6
Vboston-usa
p3496
tp3497
Rp3498
a(lp3499
(lp3500
g4
(g5
g6
Vpolitics
p3501
tp3502
Rp3503
atp3504
a(S'geneliad'
p3505
(lp3506
(lp3507
(lp3508
(lp3509
g4
(g5
g6
Ventertainment
p3510
tp3511
Rp3512
atp3513
a(S'ForsythJenn'
p3514
(lp3515
(lp3516
(lp3517
(lp3518
g4
(g5
g6
Vbusiness
p3519
tp3520
Rp3521
atp3522
a(S'alexthomascnn'
p3523
(lp3524
g4
(g5
g6
Vlondon-uk
p3525
tp3526
Rp3527
a(lp3528
(lp3529
g4
(g5
g6
Vlondon-uk
p3530
tp3531
Rp3532
a(lp3533
g4
(g5
g6
Vsports
p3534
tp3535
Rp3536
atp3537
a(S'ESPNJoeyMac'
p3538
(lp3539
(lp3540
g4
(g5
g6
Vboston-usa
p3541
tp3542
Rp3543
a(lp3544
g4
(g5
g6
Vboston-usa
p3545
tp3546
Rp3547
a(lp3548
g4
(g5
g6
Vsports
p3549
tp3550
Rp3551
atp3552
a(S'BenFolds'
p3553
(lp3554
(lp3555
(lp3556
(lp3557
g4
(g5
g6
Ventertainment
p3558
tp3559
Rp3560
atp3561
a(S'terryteachout'
p3562
(lp3563
(lp3564
(lp3565
g4
(g5
g6
Vnew-york-usa
p3566
tp3567
Rp3568
a(lp3569
g4
(g5
g6
Ventertainment
p3570
tp3571
Rp3572
atp3573
a(S'forstall'
p3574
(lp3575
(lp3576
(lp3577
g4
(g5
g6
Vsan-francisco-usa
p3578
tp3579
Rp3580
a(lp3581
g4
(g5
g6
Vtechnology
p3582
tp3583
Rp3584
ag4
(g5
g6
Vbusiness
p3585
tp3586
Rp3587
atp3588
a(S'mckaycnn'
p3589
(lp3590
g4
(g5
g6
Vnew-york-usa
p3591
tp3592
Rp3593
a(lp3594
(lp3595
g4
(g5
g6
Vnew-york-usa
p3596
tp3597
Rp3598
a(lp3599
g4
(g5
g6
Vsports
p3600
tp3601
Rp3602
atp3603
a(S'john_gotts'
p3604
(lp3605
(lp3606
(lp3607
(lp3608
g4
(g5
g6
Vtechnology
p3609
tp3610
Rp3611
ag4
(g5
g6
Vbusiness
p3612
tp3613
Rp3614
atp3615
a(S'MelissaAttias'
p3616
(lp3617
g4
(g5
g6
Vnew-york-usa
p3618
tp3619
Rp3620
a(lp3621
g4
(g5
g6
Vsan-francisco-usa
p3622
tp3623
Rp3624
ag4
(g5
g6
Vnew-york-usa
p3625
tp3626
Rp3627
ag4
(g5
g6
Vboston-usa
p3628
tp3629
Rp3630
a(lp3631
(lp3632
g4
(g5
g6
Vpolitics
p3633
tp3634
Rp3635
atp3636
a(S'jrpsaki'
p3637
(lp3638
g4
(g5
g6
Vnew-york-usa
p3639
tp3640
Rp3641
a(lp3642
(lp3643
(lp3644
g4
(g5
g6
Vpolitics
p3645
tp3646
Rp3647
atp3648
a(S'StacyKeibler'
p3649
(lp3650
g4
(g5
g6
Vsan-francisco-usa
p3651
tp3652
Rp3653
a(lp3654
(lp3655
g4
(g5
g6
Vsan-francisco-usa
p3656
tp3657
Rp3658
a(lp3659
g4
(g5
g6
Ventertainment
p3660
tp3661
Rp3662
atp3663
a(S'TopicfireNews'
p3664
(lp3665
(lp3666
(lp3667
g4
(g5
g6
Vsan-francisco-usa
p3668
tp3669
Rp3670
a(lp3671
g4
(g5
g6
Vtechnology
p3672
tp3673
Rp3674
atp3675
a(S'majornelson'
p3676
(lp3677
(lp3678
(lp3679
(lp3680
g4
(g5
g6
Vtechnology
p3681
tp3682
Rp3683
atp3684
a(S'SeungheeSuh'
p3685
(lp3686
(lp3687
(lp3688
g4
(g5
g6
Vnew-york-usa
p3689
tp3690
Rp3691
a(lp3692
g4
(g5
g6
Ventertainment
p3693
tp3694
Rp3695
atp3696
a(S'drubytcio'
p3697
(lp3698
(lp3699
(lp3700
(lp3701
g4
(g5
g6
Vtechnology
p3702
tp3703
Rp3704
ag4
(g5
g6
Vbusiness
p3705
tp3706
Rp3707
atp3708
a(S'JDefteriosCNN'
p3709
(lp3710
(lp3711
(lp3712
(lp3713
g4
(g5
g6
Vbusiness
p3714
tp3715
Rp3716
atp3717
a(S'BillCassidy'
p3718
(lp3719
(lp3720
g4
(g5
g6
Vsan-francisco-usa
p3721
tp3722
Rp3723
ag4
(g5
g6
Vnew-york-usa
p3724
tp3725
Rp3726
ag4
(g5
g6
Vboston-usa
p3727
tp3728
Rp3729
a(lp3730
(lp3731
g4
(g5
g6
Vpolitics
p3732
tp3733
Rp3734
atp3735
a(S'JBCMKTR'
p3736
(lp3737
(lp3738
(lp3739
g4
(g5
g6
Vnew-york-usa
p3740
tp3741
Rp3742
a(lp3743
g4
(g5
g6
Vbusiness
p3744
tp3745
Rp3746
atp3747
a(S'barbarachai'
p3748
(lp3749
(lp3750
(lp3751
g4
(g5
g6
Vnew-york-usa
p3752
tp3753
Rp3754
a(lp3755
g4
(g5
g6
Ventertainment
p3756
tp3757
Rp3758
atp3759
a(S'aqualungmusic'
p3760
(lp3761
g4
(g5
g6
Vsan-francisco-usa
p3762
tp3763
Rp3764
a(lp3765
(lp3766
g4
(g5
g6
Vsan-francisco-usa
p3767
tp3768
Rp3769
a(lp3770
g4
(g5
g6
Ventertainment
p3771
tp3772
Rp3773
atp3774
a(S'itspetergabriel'
p3775
(lp3776
(lp3777
(lp3778
g4
(g5
g6
Vlondon-uk
p3779
tp3780
Rp3781
a(lp3782
g4
(g5
g6
Ventertainment
p3783
tp3784
Rp3785
atp3786
a(S'iamsrk'
p3787
(lp3788
(lp3789
(lp3790
(lp3791
g4
(g5
g6
Ventertainment
p3792
tp3793
Rp3794
atp3795
a(S'EdwardLuce'
p3796
(lp3797
(lp3798
(lp3799
(lp3800
g4
(g5
g6
Vbusiness
p3801
tp3802
Rp3803
atp3804
a(S'CraigyFerg'
p3805
(lp3806
(lp3807
(lp3808
(lp3809
g4
(g5
g6
Ventertainment
p3810
tp3811
Rp3812
atp3813
a(S'prodweek'
p3814
(lp3815
(lp3816
(lp3817
(lp3818
g4
(g5
g6
Ventertainment
p3819
tp3820
Rp3821
atp3822
a(S'InfoGrok'
p3823
(lp3824
g4
(g5
g6
Vlondon-uk
p3825
tp3826
Rp3827
a(lp3828
(lp3829
g4
(g5
g6
Vlondon-uk
p3830
tp3831
Rp3832
a(lp3833
g4
(g5
g6
Vbusiness
p3834
tp3835
Rp3836
atp3837
a(S'SenatorFischer'
p3838
(lp3839
g4
(g5
g6
Vnew-york-usa
p3840
tp3841
Rp3842
a(lp3843
g4
(g5
g6
Vsan-francisco-usa
p3844
tp3845
Rp3846
ag4
(g5
g6
Vnew-york-usa
p3847
tp3848
Rp3849
ag4
(g5
g6
Vboston-usa
p3850
tp3851
Rp3852
a(lp3853
(lp3854
g4
(g5
g6
Vpolitics
p3855
tp3856
Rp3857
atp3858
a(S'ESPNForsberg'
p3859
(lp3860
(lp3861
g4
(g5
g6
Vboston-usa
p3862
tp3863
Rp3864
a(lp3865
g4
(g5
g6
Vboston-usa
p3866
tp3867
Rp3868
a(lp3869
g4
(g5
g6
Vsports
p3870
tp3871
Rp3872
atp3873
a(S'Servant_Leaders'
p3874
(lp3875
g4
(g5
g6
Vsan-francisco-usa
p3876
tp3877
Rp3878
a(lp3879
(lp3880
g4
(g5
g6
Vsan-francisco-usa
p3881
tp3882
Rp3883
a(lp3884
g4
(g5
g6
Vbusiness
p3885
tp3886
Rp3887
atp3888
a(S'catherinedavis1'
p3889
(lp3890
(lp3891
(lp3892
g4
(g5
g6
Vnew-york-usa
p3893
tp3894
Rp3895
a(lp3896
g4
(g5
g6
Vbusiness
p3897
tp3898
Rp3899
atp3900
a(S'YouTubePolitics'
p3901
(lp3902
(lp3903
(lp3904
(lp3905
g4
(g5
g6
Vpolitics
p3906
tp3907
Rp3908
atp3909
a(S'PrimeMinistry'
p3910
(lp3911
(lp3912
(lp3913
(lp3914
g4
(g5
g6
Vpolitics
p3915
tp3916
Rp3917
atp3918
a(S'AndrewShortMX29'
p3919
(lp3920
(lp3921
(lp3922
(lp3923
g4
(g5
g6
Vsports
p3924
tp3925
Rp3926
atp3927
a(S'IurieLeanca'
p3928
(lp3929
(lp3930
(lp3931
(lp3932
g4
(g5
g6
Vpolitics
p3933
tp3934
Rp3935
atp3936
a(S'ewoyke'
p3937
(lp3938
(lp3939
(lp3940
g4
(g5
g6
Vnew-york-usa
p3941
tp3942
Rp3943
a(lp3944
g4
(g5
g6
Vtechnology
p3945
tp3946
Rp3947
atp3948
a(S'RecruiterCTO'
p3949
(lp3950
g4
(g5
g6
Vboston-usa
p3951
tp3952
Rp3953
a(lp3954
(lp3955
(lp3956
g4
(g5
g6
Vtechnology
p3957
tp3958
Rp3959
ag4
(g5
g6
Vbusiness
p3960
tp3961
Rp3962
atp3963
a(S'CNezzy'
p3964
(lp3965
(lp3966
(lp3967
(lp3968
g4
(g5
g6
Vsports
p3969
tp3970
Rp3971
atp3972
a(S'EricMorath'
p3973
(lp3974
g4
(g5
g6
Vnew-york-usa
p3975
tp3976
Rp3977
a(lp3978
(lp3979
(lp3980
g4
(g5
g6
Vbusiness
p3981
tp3982
Rp3983
atp3984
a(S'loic'
p3985
(lp3986
g4
(g5
g6
Vsan-francisco-usa
p3987
tp3988
Rp3989
a(lp3990
(lp3991
g4
(g5
g6
Vsan-francisco-usa
p3992
tp3993
Rp3994
a(lp3995
g4
(g5
g6
Vtechnology
p3996
tp3997
Rp3998
atp3999
a(S'KAzubuike7'
p4000
(lp4001
(lp4002
g4
(g5
g6
Vsan-francisco-usa
p4003
tp4004
Rp4005
ag4
(g5
g6
Vnew-york-usa
p4006
tp4007
Rp4008
ag4
(g5
g6
Vboston-usa
p4009
tp4010
Rp4011
a(lp4012
(lp4013
g4
(g5
g6
Vsports
p4014
tp4015
Rp4016
atp4017
a(S'BloombergNews'
p4018
(lp4019
(lp4020
(lp4021
g4
(g5
g6
Vnew-york-usa
p4022
tp4023
Rp4024
a(lp4025
g4
(g5
g6
Vbusiness
p4026
tp4027
Rp4028
atp4029
a(S'thekillers'
p4030
(lp4031
g4
(g5
g6
Vsan-francisco-usa
p4032
tp4033
Rp4034
a(lp4035
(lp4036
(lp4037
g4
(g5
g6
Ventertainment
p4038
tp4039
Rp4040
atp4041
a(S'ms_mktg'
p4042
(lp4043
(lp4044
(lp4045
(lp4046
g4
(g5
g6
Vbusiness
p4047
tp4048
Rp4049
atp4050
a(S'Rep_Hunter'
p4051
(lp4052
(lp4053
g4
(g5
g6
Vsan-francisco-usa
p4054
tp4055
Rp4056
ag4
(g5
g6
Vnew-york-usa
p4057
tp4058
Rp4059
ag4
(g5
g6
Vboston-usa
p4060
tp4061
Rp4062
a(lp4063
(lp4064
g4
(g5
g6
Vpolitics
p4065
tp4066
Rp4067
atp4068
a(S'Recode'
p4069
(lp4070
(lp4071
(lp4072
g4
(g5
g6
Vsan-francisco-usa
p4073
tp4074
Rp4075
a(lp4076
g4
(g5
g6
Vtechnology
p4077
tp4078
Rp4079
atp4080
a(S'yext'
p4081
(lp4082
(lp4083
g4
(g5
g6
Vnew-york-usa
p4084
tp4085
Rp4086
a(lp4087
g4
(g5
g6
Vnew-york-usa
p4088
tp4089
Rp4090
a(lp4091
g4
(g5
g6
Vtechnology
p4092
tp4093
Rp4094
atp4095
a(S'aliciamundy'
p4096
(lp4097
(lp4098
(lp4099
(lp4100
g4
(g5
g6
Vpolitics
p4101
tp4102
Rp4103
atp4104
a(S'500India'
p4105
(lp4106
g4
(g5
g6
Vmumbai-india
p4107
tp4108
Rp4109
a(lp4110
(lp4111
(lp4112
g4
(g5
g6
Vtechnology
p4113
tp4114
Rp4115
ag4
(g5
g6
Vbusiness
p4116
tp4117
Rp4118
atp4119
a(S'YahooSportNCAAF'
p4120
(lp4121
(lp4122
(lp4123
g4
(g5
g6
Vsan-francisco-usa
p4124
tp4125
Rp4126
a(lp4127
g4
(g5
g6
Vsports
p4128
tp4129
Rp4130
atp4131
a(S'gregbretzz'
p4132
(lp4133
(lp4134
(lp4135
(lp4136
g4
(g5
g6
Vsports
p4137
tp4138
Rp4139
atp4140
a(S'SanDiegoCFO'
p4141
(lp4142
g4
(g5
g6
Vsan-francisco-usa
p4143
tp4144
Rp4145
a(lp4146
(lp4147
(lp4148
g4
(g5
g6
Vbusiness
p4149
tp4150
Rp4151
atp4152
a(S'ericneel'
p4153
(lp4154
(lp4155
g4
(g5
g6
Vsan-francisco-usa
p4156
tp4157
Rp4158
a(lp4159
(lp4160
g4
(g5
g6
Vsports
p4161
tp4162
Rp4163
atp4164
a(S'SmallBizCPA'
p4165
(lp4166
g4
(g5
g6
Vnew-york-usa
p4167
tp4168
Rp4169
a(lp4170
(lp4171
(lp4172
g4
(g5
g6
Vbusiness
p4173
tp4174
Rp4175
atp4176
a(S'robjective'
p4177
(lp4178
g4
(g5
g6
Vsan-francisco-usa
p4179
tp4180
Rp4181
a(lp4182
(lp4183
g4
(g5
g6
Vsan-francisco-usa
p4184
tp4185
Rp4186
a(lp4187
g4
(g5
g6
Vtechnology
p4188
tp4189
Rp4190
ag4
(g5
g6
Vbusiness
p4191
tp4192
Rp4193
atp4194
a(S'EW'
p4195
(lp4196
(lp4197
(lp4198
g4
(g5
g6
Vnew-york-usa
p4199
tp4200
Rp4201
a(lp4202
g4
(g5
g6
Ventertainment
p4203
tp4204
Rp4205
atp4206
a(S'BenWyattCNN'
p4207
(lp4208
g4
(g5
g6
Vlondon-uk
p4209
tp4210
Rp4211
a(lp4212
(lp4213
g4
(g5
g6
Vlondon-uk
p4214
tp4215
Rp4216
a(lp4217
g4
(g5
g6
Vsports
p4218
tp4219
Rp4220
atp4221
a(S'nextstop'
p4222
(lp4223
(lp4224
g4
(g5
g6
Vsan-francisco-usa
p4225
tp4226
Rp4227
a(lp4228
g4
(g5
g6
Vsan-francisco-usa
p4229
tp4230
Rp4231
a(lp4232
g4
(g5
g6
Vtechnology
p4233
tp4234
Rp4235
atp4236
a(S'mattholliday7'
p4237
(lp4238
(lp4239
g4
(g5
g6
Vsan-francisco-usa
p4240
tp4241
Rp4242
ag4
(g5
g6
Vnew-york-usa
p4243
tp4244
Rp4245
ag4
(g5
g6
Vboston-usa
p4246
tp4247
Rp4248
a(lp4249
(lp4250
g4
(g5
g6
Vsports
p4251
tp4252
Rp4253
atp4254
a(S'DanAldridge1'
p4255
(lp4256
(lp4257
(lp4258
g4
(g5
g6
Vsan-francisco-usa
p4259
tp4260
Rp4261
ag4
(g5
g6
Vnew-york-usa
p4262
tp4263
Rp4264
ag4
(g5
g6
Vboston-usa
p4265
tp4266
Rp4267
a(lp4268
g4
(g5
g6
Vtechnology
p4269
tp4270
Rp4271
ag4
(g5
g6
Vbusiness
p4272
tp4273
Rp4274
atp4275
a(S'bzcohen'
p4276
(lp4277
(lp4278
(lp4279
g4
(g5
g6
Vnew-york-usa
p4280
tp4281
Rp4282
a(lp4283
g4
(g5
g6
Vsports
p4284
tp4285
Rp4286
atp4287
a(S'VivianDsena06'
p4288
(lp4289
(lp4290
g4
(g5
g6
Vbangalore-india
p4291
tp4292
Rp4293
ag4
(g5
g6
Vmumbai-india
p4294
tp4295
Rp4296
a(lp4297
g4
(g5
g6
Vmumbai-india
p4298
tp4299
Rp4300
a(lp4301
g4
(g5
g6
Ventertainment
p4302
tp4303
Rp4304
atp4305
a(S'brikeilarcnn'
p4306
(lp4307
g4
(g5
g6
Vnew-york-usa
p4308
tp4309
Rp4310
a(lp4311
(lp4312
(lp4313
g4
(g5
g6
Vpolitics
p4314
tp4315
Rp4316
atp4317
a(S'GCGodfrey'
p4318
(lp4319
g4
(g5
g6
Vlondon-uk
p4320
tp4321
Rp4322
a(lp4323
(lp4324
g4
(g5
g6
Vlondon-uk
p4325
tp4326
Rp4327
a(lp4328
g4
(g5
g6
Vbusiness
p4329
tp4330
Rp4331
atp4332
a(S'Joba_44'
p4333
(lp4334
(lp4335
g4
(g5
g6
Vsan-francisco-usa
p4336
tp4337
Rp4338
ag4
(g5
g6
Vnew-york-usa
p4339
tp4340
Rp4341
ag4
(g5
g6
Vboston-usa
p4342
tp4343
Rp4344
a(lp4345
(lp4346
g4
(g5
g6
Vsports
p4347
tp4348
Rp4349
atp4350
a(S'PressLift'
p4351
(lp4352
(lp4353
g4
(g5
g6
Vnew-york-usa
p4354
tp4355
Rp4356
a(lp4357
g4
(g5
g6
Vnew-york-usa
p4358
tp4359
Rp4360
a(lp4361
g4
(g5
g6
Vtechnology
p4362
tp4363
Rp4364
atp4365
a(S'ScottMAustin'
p4366
(lp4367
(lp4368
(lp4369
g4
(g5
g6
Vnew-york-usa
p4370
tp4371
Rp4372
a(lp4373
g4
(g5
g6
Vtechnology
p4374
tp4375
Rp4376
atp4377
a(S'PJCrowley'
p4378
(lp4379
g4
(g5
g6
Vnew-york-usa
p4380
tp4381
Rp4382
a(lp4383
(lp4384
(lp4385
g4
(g5
g6
Vpolitics
p4386
tp4387
Rp4388
atp4389
a(S'johndmckinnon'
p4390
(lp4391
g4
(g5
g6
Vnew-york-usa
p4392
tp4393
Rp4394
a(lp4395
(lp4396
(lp4397
g4
(g5
g6
Vpolitics
p4398
tp4399
Rp4400
atp4401
a(S'CNBC'
p4402
(lp4403
(lp4404
(lp4405
(lp4406
g4
(g5
g6
Vtechnology
p4407
tp4408
Rp4409
atp4410
a(S'YOYOGRA'
p4411
(lp4412
g4
(g5
g6
Vlondon-uk
p4413
tp4414
Rp4415
a(lp4416
(lp4417
(lp4418
g4
(g5
g6
Vtechnology
p4419
tp4420
Rp4421
ag4
(g5
g6
Vbusiness
p4422
tp4423
Rp4424
atp4425
a(S'youngwhiteside'
p4426
(lp4427
(lp4428
g4
(g5
g6
Vsan-francisco-usa
p4429
tp4430
Rp4431
ag4
(g5
g6
Vnew-york-usa
p4432
tp4433
Rp4434
ag4
(g5
g6
Vboston-usa
p4435
tp4436
Rp4437
a(lp4438
(lp4439
g4
(g5
g6
Vsports
p4440
tp4441
Rp4442
atp4443
a(S'susankellogg'
p4444
(lp4445
g4
(g5
g6
Vnew-york-usa
p4446
tp4447
Rp4448
a(lp4449
(lp4450
(lp4451
g4
(g5
g6
Vtechnology
p4452
tp4453
Rp4454
ag4
(g5
g6
Vbusiness
p4455
tp4456
Rp4457
atp4458
a(S'TurntableLive'
p4459
(lp4460
(lp4461
g4
(g5
g6
Vnew-york-usa
p4462
tp4463
Rp4464
a(lp4465
g4
(g5
g6
Vnew-york-usa
p4466
tp4467
Rp4468
a(lp4469
g4
(g5
g6
Vtechnology
p4470
tp4471
Rp4472
atp4473
a(S'ShaliniWSJ'
p4474
(lp4475
(lp4476
(lp4477
g4
(g5
g6
Vnew-york-usa
p4478
tp4479
Rp4480
a(lp4481
g4
(g5
g6
Vtechnology
p4482
tp4483
Rp4484
atp4485
a(S'MonarchieBe'
p4486
(lp4487
(lp4488
(lp4489
(lp4490
g4
(g5
g6
Vpolitics
p4491
tp4492
Rp4493
atp4494
a(S'donal888'
p4495
(lp4496
g4
(g5
g6
Vsan-francisco-usa
p4497
tp4498
Rp4499
a(lp4500
(lp4501
g4
(g5
g6
Vsan-francisco-usa
p4502
tp4503
Rp4504
a(lp4505
g4
(g5
g6
Vtechnology
p4506
tp4507
Rp4508
atp4509
a(S'NukeGold'
p4510
(lp4511
(lp4512
(lp4513
(lp4514
g4
(g5
g6
Vtechnology
p4515
tp4516
Rp4517
ag4
(g5
g6
Vbusiness
p4518
tp4519
Rp4520
atp4521
a(S'JohnAByrne'
p4522
(lp4523
(lp4524
(lp4525
(lp4526
g4
(g5
g6
Vbusiness
p4527
tp4528
Rp4529
atp4530
a(S'cheald'
p4531
(lp4532
(lp4533
(lp4534
(lp4535
g4
(g5
g6
Vtechnology
p4536
tp4537
Rp4538
atp4539
a(S'PiaCatton'
p4540
(lp4541
(lp4542
(lp4543
g4
(g5
g6
Vnew-york-usa
p4544
tp4545
Rp4546
a(lp4547
g4
(g5
g6
Ventertainment
p4548
tp4549
Rp4550
atp4551
a(S'bigleaguestew'
p4552
(lp4553
g4
(g5
g6
Vnew-york-usa
p4554
tp4555
Rp4556
a(lp4557
(lp4558
(lp4559
g4
(g5
g6
Vsports
p4560
tp4561
Rp4562
atp4563
a(S'HerringWSJ'
p4564
(lp4565
(lp4566
(lp4567
g4
(g5
g6
Vnew-york-usa
p4568
tp4569
Rp4570
a(lp4571
g4
(g5
g6
Vsports
p4572
tp4573
Rp4574
atp4575
a(S'espn'
p4576
(lp4577
g4
(g5
g6
Vnew-york-usa
p4578
tp4579
Rp4580
a(lp4581
(lp4582
(lp4583
g4
(g5
g6
Vsports
p4584
tp4585
Rp4586
atp4587
a(S'pingfm'
p4588
(lp4589
(lp4590
g4
(g5
g6
Vsan-francisco-usa
p4591
tp4592
Rp4593
a(lp4594
g4
(g5
g6
Vsan-francisco-usa
p4595
tp4596
Rp4597
a(lp4598
g4
(g5
g6
Vtechnology
p4599
tp4600
Rp4601
atp4602
a(S'ritholtz'
p4603
(lp4604
g4
(g5
g6
Vnew-york-usa
p4605
tp4606
Rp4607
a(lp4608
(lp4609
g4
(g5
g6
Vnew-york-usa
p4610
tp4611
Rp4612
a(lp4613
g4
(g5
g6
Vbusiness
p4614
tp4615
Rp4616
atp4617
a(S'IstanaRakyat'
p4618
(lp4619
(lp4620
(lp4621
(lp4622
g4
(g5
g6
Vpolitics
p4623
tp4624
Rp4625
atp4626
a(S'TiredPony'
p4627
(lp4628
(lp4629
(lp4630
(lp4631
g4
(g5
g6
Ventertainment
p4632
tp4633
Rp4634
atp4635
a(S'amywinehouse'
p4636
(lp4637
g4
(g5
g6
Vlondon-uk
p4638
tp4639
Rp4640
a(lp4641
(lp4642
g4
(g5
g6
Vlondon-uk
p4643
tp4644
Rp4645
a(lp4646
g4
(g5
g6
Ventertainment
p4647
tp4648
Rp4649
atp4650
a(S'91springboard'
p4651
(lp4652
(lp4653
(lp4654
g4
(g5
g6
Vmumbai-india
p4655
tp4656
Rp4657
a(lp4658
g4
(g5
g6
Vtechnology
p4659
tp4660
Rp4661
ag4
(g5
g6
Vbusiness
p4662
tp4663
Rp4664
atp4665
a(S'MichelleObama'
p4666
(lp4667
(lp4668
(lp4669
(lp4670
g4
(g5
g6
Vpolitics
p4671
tp4672
Rp4673
atp4674
a(S'vkhosla'
p4675
(lp4676
(lp4677
(lp4678
(lp4679
g4
(g5
g6
Vtechnology
p4680
tp4681
Rp4682
atp4683
a(S'daiwaka'
p4684
(lp4685
g4
(g5
g6
Vsan-francisco-usa
p4686
tp4687
Rp4688
a(lp4689
(lp4690
g4
(g5
g6
Vsan-francisco-usa
p4691
tp4692
Rp4693
a(lp4694
g4
(g5
g6
Vtechnology
p4695
tp4696
Rp4697
atp4698
a(S'dwaynederosario'
p4699
(lp4700
(lp4701
g4
(g5
g6
Vsan-francisco-usa
p4702
tp4703
Rp4704
ag4
(g5
g6
Vnew-york-usa
p4705
tp4706
Rp4707
ag4
(g5
g6
Vlondon-uk
p4708
tp4709
Rp4710
ag4
(g5
g6
Vboston-usa
p4711
tp4712
Rp4713
a(lp4714
(lp4715
g4
(g5
g6
Vsports
p4716
tp4717
Rp4718
atp4719
a(S'YahooCagewriter'
p4720
(lp4721
(lp4722
(lp4723
(lp4724
g4
(g5
g6
Vsports
p4725
tp4726
Rp4727
atp4728
a(S'GuyKawasaki'
p4729
(lp4730
(lp4731
(lp4732
g4
(g5
g6
Vsan-francisco-usa
p4733
tp4734
Rp4735
a(lp4736
g4
(g5
g6
Vtechnology
p4737
tp4738
Rp4739
atp4740
a(S'GQPolitics'
p4741
(lp4742
(lp4743
(lp4744
(lp4745
g4
(g5
g6
Vpolitics
p4746
tp4747
Rp4748
atp4749
a(S'Evan3Longoria'
p4750
(lp4751
(lp4752
g4
(g5
g6
Vsan-francisco-usa
p4753
tp4754
Rp4755
ag4
(g5
g6
Vnew-york-usa
p4756
tp4757
Rp4758
ag4
(g5
g6
Vboston-usa
p4759
tp4760
Rp4761
a(lp4762
(lp4763
g4
(g5
g6
Vsports
p4764
tp4765
Rp4766
atp4767
a(S'CarlyforCA'
p4768
(lp4769
g4
(g5
g6
Vsan-francisco-usa
p4770
tp4771
Rp4772
a(lp4773
(lp4774
g4
(g5
g6
Vsan-francisco-usa
p4775
tp4776
Rp4777
a(lp4778
g4
(g5
g6
Vpolitics
p4779
tp4780
Rp4781
atp4782
a(S'JoshLevs'
p4783
(lp4784
(lp4785
(lp4786
(lp4787
g4
(g5
g6
Vtechnology
p4788
tp4789
Rp4790
atp4791
a(S'followforeman'
p4792
(lp4793
(lp4794
(lp4795
(lp4796
g4
(g5
g6
Vtechnology
p4797
tp4798
Rp4799
ag4
(g5
g6
Vbusiness
p4800
tp4801
Rp4802
atp4803
a(S'briancushing56'
p4804
(lp4805
(lp4806
(lp4807
g4
(g5
g6
Vnew-york-usa
p4808
tp4809
Rp4810
a(lp4811
g4
(g5
g6
Vsports
p4812
tp4813
Rp4814
atp4815
a(S'AleBedoya17'
p4816
(lp4817
(lp4818
g4
(g5
g6
Vsan-francisco-usa
p4819
tp4820
Rp4821
ag4
(g5
g6
Vnew-york-usa
p4822
tp4823
Rp4824
ag4
(g5
g6
Vlondon-uk
p4825
tp4826
Rp4827
ag4
(g5
g6
Vboston-usa
p4828
tp4829
Rp4830
a(lp4831
g4
(g5
g6
Vnew-york-usa
p4832
tp4833
Rp4834
a(lp4835
g4
(g5
g6
Vsports
p4836
tp4837
Rp4838
atp4839
a(S'CarrieFFisher'
p4840
(lp4841
(lp4842
(lp4843
g4
(g5
g6
Vsan-francisco-usa
p4844
tp4845
Rp4846
a(lp4847
g4
(g5
g6
Ventertainment
p4848
tp4849
Rp4850
atp4851
a(S'kikkanimal'
p4852
(lp4853
(lp4854
(lp4855
(lp4856
g4
(g5
g6
Vsports
p4857
tp4858
Rp4859
atp4860
a(S'JimWoolwine'
p4861
(lp4862
(lp4863
(lp4864
(lp4865
g4
(g5
g6
Vbusiness
p4866
tp4867
Rp4868
atp4869
a(S'SrijanCapital'
p4870
(lp4871
(lp4872
(lp4873
g4
(g5
g6
Vbangalore-india
p4874
tp4875
Rp4876
a(lp4877
g4
(g5
g6
Vtechnology
p4878
tp4879
Rp4880
ag4
(g5
g6
Vbusiness
p4881
tp4882
Rp4883
atp4884
a(S'KatieS'
p4885
(lp4886
g4
(g5
g6
Vlondon-uk
p4887
tp4888
Rp4889
a(lp4890
(lp4891
(lp4892
g4
(g5
g6
Vtechnology
p4893
tp4894
Rp4895
atp4896
a(S'Jason'
p4897
(lp4898
g4
(g5
g6
Vsan-francisco-usa
p4899
tp4900
Rp4901
a(lp4902
(lp4903
(lp4904
g4
(g5
g6
Vtechnology
p4905
tp4906
Rp4907
atp4908
a(S'Classical'
p4909
(lp4910
(lp4911
(lp4912
(lp4913
g4
(g5
g6
Vsports
p4914
tp4915
Rp4916
atp4917
a(S'nmasidlover'
p4918
(lp4919
(lp4920
(lp4921
(lp4922
g4
(g5
g6
Ventertainment
p4923
tp4924
Rp4925
atp4926
a(S'QueenNoor'
p4927
(lp4928
(lp4929
(lp4930
(lp4931
g4
(g5
g6
Vpolitics
p4932
tp4933
Rp4934
atp4935
a(S'kristina_oneill'
p4936
(lp4937
(lp4938
(lp4939
g4
(g5
g6
Vnew-york-usa
p4940
tp4941
Rp4942
a(lp4943
g4
(g5
g6
Ventertainment
p4944
tp4945
Rp4946
atp4947
a(S'geoffreyfowler'
p4948
(lp4949
g4
(g5
g6
Vsan-francisco-usa
p4950
tp4951
Rp4952
a(lp4953
(lp4954
g4
(g5
g6
Vsan-francisco-usa
p4955
tp4956
Rp4957
a(lp4958
g4
(g5
g6
Vtechnology
p4959
tp4960
Rp4961
atp4962
a(S'Bachscore'
p4963
(lp4964
(lp4965
(lp4966
g4
(g5
g6
Vnew-york-usa
p4967
tp4968
Rp4969
a(lp4970
g4
(g5
g6
Vsports
p4971
tp4972
Rp4973
atp4974
a(S'ericschmidt'
p4975
(lp4976
(lp4977
(lp4978
g4
(g5
g6
Vsan-francisco-usa
p4979
tp4980
Rp4981
a(lp4982
g4
(g5
g6
Vtechnology
p4983
tp4984
Rp4985
ag4
(g5
g6
Vbusiness
p4986
tp4987
Rp4988
atp4989
a(S'sst2001'
p4990
(lp4991
(lp4992
(lp4993
(lp4994
g4
(g5
g6
Vtechnology
p4995
tp4996
Rp4997
ag4
(g5
g6
Vbusiness
p4998
tp4999
Rp5000
atp5001
a(S'eliclemens'
p5002
(lp5003
(lp5004
(lp5005
(lp5006
g4
(g5
g6
Vbusiness
p5007
tp5008
Rp5009
atp5010
a(S'WSJspeakeasy'
p5011
(lp5012
(lp5013
(lp5014
g4
(g5
g6
Vsan-francisco-usa
p5015
tp5016
Rp5017
a(lp5018
g4
(g5
g6
Ventertainment
p5019
tp5020
Rp5021
atp5022
a(S'plancast'
p5023
(lp5024
(lp5025
g4
(g5
g6
Vsan-francisco-usa
p5026
tp5027
Rp5028
a(lp5029
g4
(g5
g6
Vsan-francisco-usa
p5030
tp5031
Rp5032
a(lp5033
g4
(g5
g6
Vtechnology
p5034
tp5035
Rp5036
atp5037
a(S'ahamzawi'
p5038
(lp5039
(lp5040
(lp5041
g4
(g5
g6
Vlondon-uk
p5042
tp5043
Rp5044
a(lp5045
g4
(g5
g6
Vtechnology
p5046
tp5047
Rp5048
ag4
(g5
g6
Vbusiness
p5049
tp5050
Rp5051
atp5052
a(S'RepJBridenstine'
p5053
(lp5054
(lp5055
g4
(g5
g6
Vsan-francisco-usa
p5056
tp5057
Rp5058
ag4
(g5
g6
Vnew-york-usa
p5059
tp5060
Rp5061
ag4
(g5
g6
Vboston-usa
p5062
tp5063
Rp5064
a(lp5065
(lp5066
g4
(g5
g6
Vpolitics
p5067
tp5068
Rp5069
atp5070
a(S'susanmernit'
p5071
(lp5072
(lp5073
(lp5074
(lp5075
g4
(g5
g6
Vtechnology
p5076
tp5077
Rp5078
atp5079
a(S'jkrim'
p5080
(lp5081
g4
(g5
g6
Vsan-francisco-usa
p5082
tp5083
Rp5084
a(lp5085
(lp5086
g4
(g5
g6
Vsan-francisco-usa
p5087
tp5088
Rp5089
a(lp5090
g4
(g5
g6
Vtechnology
p5091
tp5092
Rp5093
atp5094
a(S'caydeeandjeremy'
p5095
(lp5096
(lp5097
(lp5098
(lp5099
g4
(g5
g6
Vsports
p5100
tp5101
Rp5102
atp5103
a(S'CleggJon'
p5104
(lp5105
(lp5106
(lp5107
g4
(g5
g6
Vnew-york-usa
p5108
tp5109
Rp5110
a(lp5111
g4
(g5
g6
Vsports
p5112
tp5113
Rp5114
atp5115
a(S'jareddiamond'
p5116
(lp5117
(lp5118
(lp5119
g4
(g5
g6
Vnew-york-usa
p5120
tp5121
Rp5122
a(lp5123
g4
(g5
g6
Vsports
p5124
tp5125
Rp5126
atp5127
a(S'stacyluft'
p5128
(lp5129
(lp5130
(lp5131
g4
(g5
g6
Vnew-york-usa
p5132
tp5133
Rp5134
a(lp5135
g4
(g5
g6
Vbusiness
p5136
tp5137
Rp5138
atp5139
a(S'ashuppy'
p5140
(lp5141
g4
(g5
g6
Vnew-york-usa
p5142
tp5143
Rp5144
a(lp5145
g4
(g5
g6
Vsan-francisco-usa
p5146
tp5147
Rp5148
ag4
(g5
g6
Vnew-york-usa
p5149
tp5150
Rp5151
ag4
(g5
g6
Vboston-usa
p5152
tp5153
Rp5154
a(lp5155
(lp5156
g4
(g5
g6
Vpolitics
p5157
tp5158
Rp5159
atp5160
a(S'JuliaBrownley26'
p5161
(lp5162
(lp5163
g4
(g5
g6
Vsan-francisco-usa
p5164
tp5165
Rp5166
ag4
(g5
g6
Vnew-york-usa
p5167
tp5168
Rp5169
ag4
(g5
g6
Vboston-usa
p5170
tp5171
Rp5172
a(lp5173
(lp5174
g4
(g5
g6
Vpolitics
p5175
tp5176
Rp5177
atp5178
a(S'JoeMcCurdyCNN'
p5179
(lp5180
(lp5181
(lp5182
g4
(g5
g6
Vnew-york-usa
p5183
tp5184
Rp5185
a(lp5186
g4
(g5
g6
Vsports
p5187
tp5188
Rp5189
atp5190
a(S'TonyPerkins'
p5191
(lp5192
g4
(g5
g6
Vsan-francisco-usa
p5193
tp5194
Rp5195
a(lp5196
(lp5197
g4
(g5
g6
Vsan-francisco-usa
p5198
tp5199
Rp5200
a(lp5201
g4
(g5
g6
Vtechnology
p5202
tp5203
Rp5204
atp5205
a(S'PrensaMichelle'
p5206
(lp5207
(lp5208
(lp5209
(lp5210
g4
(g5
g6
Vpolitics
p5211
tp5212
Rp5213
atp5214
a(S'GeraldFSeib'
p5215
(lp5216
g4
(g5
g6
Vnew-york-usa
p5217
tp5218
Rp5219
a(lp5220
(lp5221
(lp5222
g4
(g5
g6
Vbusiness
p5223
tp5224
Rp5225
atp5226
a(S'YahooSportsMLB'
p5227
(lp5228
(lp5229
(lp5230
g4
(g5
g6
Vsan-francisco-usa
p5231
tp5232
Rp5233
a(lp5234
g4
(g5
g6
Vsports
p5235
tp5236
Rp5237
atp5238
a(S'ErinBurnett'
p5239
(lp5240
(lp5241
(lp5242
g4
(g5
g6
Vnew-york-usa
p5243
tp5244
Rp5245
a(lp5246
g4
(g5
g6
Vpolitics
p5247
tp5248
Rp5249
atp5250
a(S'TesterPress'
p5251
(lp5252
g4
(g5
g6
Vsan-francisco-usa
p5253
tp5254
Rp5255
a(lp5256
g4
(g5
g6
Vsan-francisco-usa
p5257
tp5258
Rp5259
ag4
(g5
g6
Vnew-york-usa
p5260
tp5261
Rp5262
ag4
(g5
g6
Vboston-usa
p5263
tp5264
Rp5265
a(lp5266
(lp5267
g4
(g5
g6
Vpolitics
p5268
tp5269
Rp5270
atp5271
a(S'rayalexsmith'
p5272
(lp5273
(lp5274
(lp5275
g4
(g5
g6
Vnew-york-usa
p5276
tp5277
Rp5278
a(lp5279
g4
(g5
g6
Ventertainment
p5280
tp5281
Rp5282
atp5283
a(S'BryanMonroeCNN'
p5284
(lp5285
g4
(g5
g6
Vnew-york-usa
p5286
tp5287
Rp5288
a(lp5289
(lp5290
(lp5291
g4
(g5
g6
Vpolitics
p5292
tp5293
Rp5294
atp5295
a(S'DeanHeller'
p5296
(lp5297
(lp5298
g4
(g5
g6
Vsan-francisco-usa
p5299
tp5300
Rp5301
ag4
(g5
g6
Vnew-york-usa
p5302
tp5303
Rp5304
ag4
(g5
g6
Vboston-usa
p5305
tp5306
Rp5307
a(lp5308
(lp5309
g4
(g5
g6
Vpolitics
p5310
tp5311
Rp5312
atp5313
a(S'MichaelDell'
p5314
(lp5315
(lp5316
(lp5317
(lp5318
g4
(g5
g6
Vtechnology
p5319
tp5320
Rp5321
ag4
(g5
g6
Vbusiness
p5322
tp5323
Rp5324
atp5325
a(S'MylesKennedy'
p5326
(lp5327
(lp5328
(lp5329
(lp5330
g4
(g5
g6
Ventertainment
p5331
tp5332
Rp5333
atp5334
a(S'maduro_en'
p5335
(lp5336
(lp5337
(lp5338
(lp5339
g4
(g5
g6
Vpolitics
p5340
tp5341
Rp5342
atp5343
a(S'mashstartups'
p5344
(lp5345
(lp5346
g4
(g5
g6
Vsan-francisco-usa
p5347
tp5348
Rp5349
ag4
(g5
g6
Vnew-york-usa
p5350
tp5351
Rp5352
a(lp5353
g4
(g5
g6
Vnew-york-usa
p5354
tp5355
Rp5356
a(lp5357
g4
(g5
g6
Vtechnology
p5358
tp5359
Rp5360
atp5361
a(S'AnilKapoor'
p5362
(lp5363
(lp5364
g4
(g5
g6
Vbangalore-india
p5365
tp5366
Rp5367
ag4
(g5
g6
Vmumbai-india
p5368
tp5369
Rp5370
a(lp5371
(lp5372
g4
(g5
g6
Ventertainment
p5373
tp5374
Rp5375
atp5376
a(S'dmac1'
p5377
(lp5378
g4
(g5
g6
Vsan-francisco-usa
p5379
tp5380
Rp5381
a(lp5382
(lp5383
g4
(g5
g6
Vsan-francisco-usa
p5384
tp5385
Rp5386
a(lp5387
g4
(g5
g6
Vtechnology
p5388
tp5389
Rp5390
atp5391
a(S'Speedskater01'
p5392
(lp5393
g4
(g5
g6
Vboston-usa
p5394
tp5395
Rp5396
a(lp5397
(lp5398
(lp5399
g4
(g5
g6
Vsports
p5400
tp5401
Rp5402
atp5403
a(S'TeamFreebirdXC'
p5404
(lp5405
(lp5406
(lp5407
(lp5408
g4
(g5
g6
Vsports
p5409
tp5410
Rp5411
atp5412
a(S'pennymanis'
p5413
(lp5414
g4
(g5
g6
Vnew-york-usa
p5415
tp5416
Rp5417
a(lp5418
(lp5419
g4
(g5
g6
Vnew-york-usa
p5420
tp5421
Rp5422
a(lp5423
g4
(g5
g6
Vbusiness
p5424
tp5425
Rp5426
atp5427
a(S'gunsnroses'
p5428
(lp5429
(lp5430
(lp5431
(lp5432
g4
(g5
g6
Ventertainment
p5433
tp5434
Rp5435
atp5436
a(S'mark_harvey'
p5437
(lp5438
(lp5439
(lp5440
(lp5441
g4
(g5
g6
Vtechnology
p5442
tp5443
Rp5444
ag4
(g5
g6
Vbusiness
p5445
tp5446
Rp5447
atp5448
a(S'broganmedia'
p5449
(lp5450
(lp5451
(lp5452
(lp5453
g4
(g5
g6
Vtechnology
p5454
tp5455
Rp5456
ag4
(g5
g6
Vbusiness
p5457
tp5458
Rp5459
atp5460
a(S'cnntech'
p5461
(lp5462
(lp5463
(lp5464
g4
(g5
g6
Vnew-york-usa
p5465
tp5466
Rp5467
a(lp5468
g4
(g5
g6
Vtechnology
p5469
tp5470
Rp5471
atp5472
a(S'paulpluschkell'
p5473
(lp5474
g4
(g5
g6
Vsan-francisco-usa
p5475
tp5476
Rp5477
a(lp5478
(lp5479
g4
(g5
g6
Vsan-francisco-usa
p5480
tp5481
Rp5482
a(lp5483
g4
(g5
g6
Vtechnology
p5484
tp5485
Rp5486
ag4
(g5
g6
Vbusiness
p5487
tp5488
Rp5489
atp5490
a(S'EmergingEurope'
p5491
(lp5492
(lp5493
(lp5494
(lp5495
g4
(g5
g6
Vbusiness
p5496
tp5497
Rp5498
atp5499
a(S'csampson43'
p5500
(lp5501
(lp5502
g4
(g5
g6
Vsan-francisco-usa
p5503
tp5504
Rp5505
ag4
(g5
g6
Vnew-york-usa
p5506
tp5507
Rp5508
ag4
(g5
g6
Vboston-usa
p5509
tp5510
Rp5511
a(lp5512
(lp5513
g4
(g5
g6
Vsports
p5514
tp5515
Rp5516
atp5517
a(S'julianbarnes'
p5518
(lp5519
g4
(g5
g6
Vnew-york-usa
p5520
tp5521
Rp5522
a(lp5523
(lp5524
(lp5525
g4
(g5
g6
Vpolitics
p5526
tp5527
Rp5528
atp5529
a(S'pnut'
p5530
(lp5531
(lp5532
(lp5533
(lp5534
g4
(g5
g6
Ventertainment
p5535
tp5536
Rp5537
atp5538
a(S'DirtyTackle'
p5539
(lp5540
(lp5541
(lp5542
(lp5543
g4
(g5
g6
Vsports
p5544
tp5545
Rp5546
atp5547
a(S'iansherr'
p5548
(lp5549
g4
(g5
g6
Vsan-francisco-usa
p5550
tp5551
Rp5552
a(lp5553
(lp5554
g4
(g5
g6
Vsan-francisco-usa
p5555
tp5556
Rp5557
a(lp5558
g4
(g5
g6
Vtechnology
p5559
tp5560
Rp5561
atp5562
a(S'clararitger'
p5563
(lp5564
g4
(g5
g6
Vnew-york-usa
p5565
tp5566
Rp5567
a(lp5568
g4
(g5
g6
Vsan-francisco-usa
p5569
tp5570
Rp5571
ag4
(g5
g6
Vnew-york-usa
p5572
tp5573
Rp5574
ag4
(g5
g6
Vboston-usa
p5575
tp5576
Rp5577
a(lp5578
(lp5579
g4
(g5
g6
Vpolitics
p5580
tp5581
Rp5582
atp5583
a(S'ajitbalakrish'
p5584
(lp5585
(lp5586
(lp5587
g4
(g5
g6
Vmumbai-india
p5588
tp5589
Rp5590
a(lp5591
g4
(g5
g6
Vtechnology
p5592
tp5593
Rp5594
ag4
(g5
g6
Vbusiness
p5595
tp5596
Rp5597
atp5598
a(S'KhilRajRegmi'
p5599
(lp5600
(lp5601
(lp5602
(lp5603
g4
(g5
g6
Vpolitics
p5604
tp5605
Rp5606
atp5607
a(S'meghna1malik'
p5608
(lp5609
(lp5610
g4
(g5
g6
Vbangalore-india
p5611
tp5612
Rp5613
ag4
(g5
g6
Vmumbai-india
p5614
tp5615
Rp5616
a(lp5617
(lp5618
g4
(g5
g6
Ventertainment
p5619
tp5620
Rp5621
atp5622
a(S'AjazkhanActor'
p5623
(lp5624
(lp5625
g4
(g5
g6
Vbangalore-india
p5626
tp5627
Rp5628
ag4
(g5
g6
Vmumbai-india
p5629
tp5630
Rp5631
a(lp5632
(lp5633
g4
(g5
g6
Ventertainment
p5634
tp5635
Rp5636
atp5637
a(S'APAndrewTaylor'
p5638
(lp5639
(lp5640
g4
(g5
g6
Vsan-francisco-usa
p5641
tp5642
Rp5643
ag4
(g5
g6
Vnew-york-usa
p5644
tp5645
Rp5646
ag4
(g5
g6
Vboston-usa
p5647
tp5648
Rp5649
a(lp5650
(lp5651
g4
(g5
g6
Vpolitics
p5652
tp5653
Rp5654
atp5655
a(S'SaraMurray'
p5656
(lp5657
(lp5658
(lp5659
(lp5660
g4
(g5
g6
Vbusiness
p5661
tp5662
Rp5663
atp5664
a(S'RepSinema'
p5665
(lp5666
(lp5667
g4
(g5
g6
Vsan-francisco-usa
p5668
tp5669
Rp5670
ag4
(g5
g6
Vnew-york-usa
p5671
tp5672
Rp5673
ag4
(g5
g6
Vboston-usa
p5674
tp5675
Rp5676
a(lp5677
(lp5678
g4
(g5
g6
Vpolitics
p5679
tp5680
Rp5681
atp5682
a(S'applespotlight'
p5683
(lp5684
g4
(g5
g6
Vsan-francisco-usa
p5685
tp5686
Rp5687
a(lp5688
(lp5689
g4
(g5
g6
Vsan-francisco-usa
p5690
tp5691
Rp5692
a(lp5693
g4
(g5
g6
Vtechnology
p5694
tp5695
Rp5696
atp5697
a(S'BryFitz'
p5698
(lp5699
g4
(g5
g6
Vnew-york-usa
p5700
tp5701
Rp5702
a(lp5703
(lp5704
g4
(g5
g6
Vnew-york-usa
p5705
tp5706
Rp5707
a(lp5708
g4
(g5
g6
Vtechnology
p5709
tp5710
Rp5711
atp5712
a(S'RyuSpaeth'
p5713
(lp5714
(lp5715
(lp5716
(lp5717
g4
(g5
g6
Vpolitics
p5718
tp5719
Rp5720
atp5721
a(S'SI_Faces'
p5722
(lp5723
(lp5724
(lp5725
g4
(g5
g6
Vnew-york-usa
p5726
tp5727
Rp5728
a(lp5729
g4
(g5
g6
Vsports
p5730
tp5731
Rp5732
atp5733
a(S'TashaCNN'
p5734
(lp5735
g4
(g5
g6
Vnew-york-usa
p5736
tp5737
Rp5738
a(lp5739
(lp5740
(lp5741
g4
(g5
g6
Vpolitics
p5742
tp5743
Rp5744
atp5745
a(S'TechCityNews'
p5746
(lp5747
g4
(g5
g6
Vlondon-uk
p5748
tp5749
Rp5750
a(lp5751
(lp5752
g4
(g5
g6
Vlondon-uk
p5753
tp5754
Rp5755
a(lp5756
g4
(g5
g6
Vtechnology
p5757
tp5758
Rp5759
atp5760
a(S'SarahPalinUSA'
p5761
(lp5762
(lp5763
(lp5764
(lp5765
g4
(g5
g6
Vpolitics
p5766
tp5767
Rp5768
atp5769
a(S'gerardtbaker'
p5770
(lp5771
(lp5772
(lp5773
g4
(g5
g6
Vnew-york-usa
p5774
tp5775
Rp5776
a(lp5777
g4
(g5
g6
Vbusiness
p5778
tp5779
Rp5780
atp5781
a(S'naren_nexus'
p5782
(lp5783
(lp5784
(lp5785
(lp5786
g4
(g5
g6
Vtechnology
p5787
tp5788
Rp5789
ag4
(g5
g6
Vbusiness
p5790
tp5791
Rp5792
atp5793
a(S'wsjMelanie'
p5794
(lp5795
(lp5796
(lp5797
(lp5798
g4
(g5
g6
Vpolitics
p5799
tp5800
Rp5801
atp5802
a(S'LauraLitvan'
p5803
(lp5804
g4
(g5
g6
Vnew-york-usa
p5805
tp5806
Rp5807
a(lp5808
g4
(g5
g6
Vsan-francisco-usa
p5809
tp5810
Rp5811
ag4
(g5
g6
Vnew-york-usa
p5812
tp5813
Rp5814
ag4
(g5
g6
Vboston-usa
p5815
tp5816
Rp5817
a(lp5818
(lp5819
g4
(g5
g6
Vpolitics
p5820
tp5821
Rp5822
atp5823
a(S'chicagotheband'
p5824
(lp5825
(lp5826
(lp5827
(lp5828
g4
(g5
g6
Ventertainment
p5829
tp5830
Rp5831
atp5832
a(S'jolieodell'
p5833
(lp5834
(lp5835
(lp5836
(lp5837
g4
(g5
g6
Vtechnology
p5838
tp5839
Rp5840
atp5841
a(S'Farah_Pandith'
p5842
(lp5843
(lp5844
(lp5845
(lp5846
g4
(g5
g6
Vpolitics
p5847
tp5848
Rp5849
atp5850
a(S'JBoorstin'
p5851
(lp5852
(lp5853
(lp5854
g4
(g5
g6
Vsan-francisco-usa
p5855
tp5856
Rp5857
a(lp5858
g4
(g5
g6
Vbusiness
p5859
tp5860
Rp5861
atp5862
a(S'RobertWalzer'
p5863
(lp5864
(lp5865
(lp5866
g4
(g5
g6
Vnew-york-usa
p5867
tp5868
Rp5869
a(lp5870
g4
(g5
g6
Ventertainment
p5871
tp5872
Rp5873
atp5874
a(S'JessBravin'
p5875
(lp5876
g4
(g5
g6
Vnew-york-usa
p5877
tp5878
Rp5879
a(lp5880
(lp5881
(lp5882
g4
(g5
g6
Vpolitics
p5883
tp5884
Rp5885
atp5886
a(S'WSJBizEd'
p5887
(lp5888
(lp5889
(lp5890
(lp5891
g4
(g5
g6
Vbusiness
p5892
tp5893
Rp5894
atp5895
a(S'GiaMantegna'
p5896
(lp5897
g4
(g5
g6
Vsan-francisco-usa
p5898
tp5899
Rp5900
a(lp5901
(lp5902
g4
(g5
g6
Vsan-francisco-usa
p5903
tp5904
Rp5905
a(lp5906
g4
(g5
g6
Ventertainment
p5907
tp5908
Rp5909
atp5910
a(S'HassanRouhani'
p5911
(lp5912
(lp5913
(lp5914
(lp5915
g4
(g5
g6
Vpolitics
p5916
tp5917
Rp5918
atp5919
a(S'MuhammadMorsi'
p5920
(lp5921
g4
(g5
g6
Vlondon-uk
p5922
tp5923
Rp5924
a(lp5925
(lp5926
(lp5927
g4
(g5
g6
Vpolitics
p5928
tp5929
Rp5930
atp5931
a(S'ashleesimpson'
p5932
(lp5933
(lp5934
(lp5935
g4
(g5
g6
Vsan-francisco-usa
p5936
tp5937
Rp5938
a(lp5939
g4
(g5
g6
Ventertainment
p5940
tp5941
Rp5942
atp5943
a(S'germanotes'
p5944
(lp5945
(lp5946
(lp5947
(lp5948
g4
(g5
g6
Vsports
p5949
tp5950
Rp5951
atp5952
a(S'MaryLuWSJ'
p5953
(lp5954
g4
(g5
g6
Vnew-york-usa
p5955
tp5956
Rp5957
a(lp5958
(lp5959
(lp5960
g4
(g5
g6
Vbusiness
p5961
tp5962
Rp5963
atp5964
a(S'cotweet'
p5965
(lp5966
(lp5967
g4
(g5
g6
Vsan-francisco-usa
p5968
tp5969
Rp5970
a(lp5971
g4
(g5
g6
Vsan-francisco-usa
p5972
tp5973
Rp5974
a(lp5975
g4
(g5
g6
Vtechnology
p5976
tp5977
Rp5978
atp5979
a(S'BigDaddySHaag'
p5980
(lp5981
(lp5982
(lp5983
(lp5984
g4
(g5
g6
Vtechnology
p5985
tp5986
Rp5987
ag4
(g5
g6
Vbusiness
p5988
tp5989
Rp5990
atp5991
a(S'Asifazimasif'
p5992
(lp5993
(lp5994
g4
(g5
g6
Vbangalore-india
p5995
tp5996
Rp5997
ag4
(g5
g6
Vmumbai-india
p5998
tp5999
Rp6000
a(lp6001
(lp6002
g4
(g5
g6
Ventertainment
p6003
tp6004
Rp6005
atp6006
a(S'negativedunks'
p6007
(lp6008
(lp6009
(lp6010
g4
(g5
g6
Vboston-usa
p6011
tp6012
Rp6013
a(lp6014
g4
(g5
g6
Vsports
p6015
tp6016
Rp6017
atp6018
a(S'NewsMashup'
p6019
(lp6020
(lp6021
(lp6022
(lp6023
g4
(g5
g6
Vbusiness
p6024
tp6025
Rp6026
atp6027
a(S'Quora'
p6028
(lp6029
(lp6030
g4
(g5
g6
Vsan-francisco-usa
p6031
tp6032
Rp6033
a(lp6034
g4
(g5
g6
Vsan-francisco-usa
p6035
tp6036
Rp6037
a(lp6038
g4
(g5
g6
Vtechnology
p6039
tp6040
Rp6041
atp6042
a(S'rihanna'
p6043
(lp6044
(lp6045
(lp6046
(lp6047
g4
(g5
g6
Ventertainment
p6048
tp6049
Rp6050
atp6051
a(S'randizuckerberg'
p6052
(lp6053
(lp6054
(lp6055
g4
(g5
g6
Vsan-francisco-usa
p6056
tp6057
Rp6058
a(lp6059
g4
(g5
g6
Vtechnology
p6060
tp6061
Rp6062
atp6063
a(S'_KaranMehra'
p6064
(lp6065
g4
(g5
g6
Vmumbai-india
p6066
tp6067
Rp6068
a(lp6069
g4
(g5
g6
Vbangalore-india
p6070
tp6071
Rp6072
ag4
(g5
g6
Vmumbai-india
p6073
tp6074
Rp6075
a(lp6076
g4
(g5
g6
Vmumbai-india
p6077
tp6078
Rp6079
a(lp6080
g4
(g5
g6
Ventertainment
p6081
tp6082
Rp6083
atp6084
a(S'zaarly'
p6085
(lp6086
(lp6087
g4
(g5
g6
Vnew-york-usa
p6088
tp6089
Rp6090
a(lp6091
(lp6092
g4
(g5
g6
Vtechnology
p6093
tp6094
Rp6095
atp6096
a(S'BarrosoEU'
p6097
(lp6098
g4
(g5
g6
Vlondon-uk
p6099
tp6100
Rp6101
a(lp6102
(lp6103
(lp6104
g4
(g5
g6
Vpolitics
p6105
tp6106
Rp6107
atp6108
a(S'boygenius'
p6109
(lp6110
g4
(g5
g6
Vnew-york-usa
p6111
tp6112
Rp6113
a(lp6114
(lp6115
(lp6116
g4
(g5
g6
Vtechnology
p6117
tp6118
Rp6119
atp6120
a(S'NKingofDC'
p6121
(lp6122
g4
(g5
g6
Vnew-york-usa
p6123
tp6124
Rp6125
a(lp6126
(lp6127
(lp6128
g4
(g5
g6
Vpolitics
p6129
tp6130
Rp6131
atp6132
a(S'johnlshea'
p6133
(lp6134
(lp6135
(lp6136
g4
(g5
g6
Vboston-usa
p6137
tp6138
Rp6139
a(lp6140
g4
(g5
g6
Vtechnology
p6141
tp6142
Rp6143
ag4
(g5
g6
Vbusiness
p6144
tp6145
Rp6146
atp6147
a(S'PepperReports'
p6148
(lp6149
g4
(g5
g6
Vlondon-uk
p6150
tp6151
Rp6152
a(lp6153
(lp6154
g4
(g5
g6
Vlondon-uk
p6155
tp6156
Rp6157
a(lp6158
g4
(g5
g6
Vbusiness
p6159
tp6160
Rp6161
atp6162
a(S'timberners_lee'
p6163
(lp6164
(lp6165
(lp6166
g4
(g5
g6
Vboston-usa
p6167
tp6168
Rp6169
a(lp6170
g4
(g5
g6
Vtechnology
p6171
tp6172
Rp6173
ag4
(g5
g6
Vbusiness
p6174
tp6175
Rp6176
atp6177
a(S'c0ates'
p6178
(lp6179
(lp6180
(lp6181
(lp6182
g4
(g5
g6
Vbusiness
p6183
tp6184
Rp6185
atp6186
a(S'claychristensen'
p6187
(lp6188
(lp6189
(lp6190
g4
(g5
g6
Vboston-usa
p6191
tp6192
Rp6193
a(lp6194
g4
(g5
g6
Vbusiness
p6195
tp6196
Rp6197
atp6198
a(S'JUP_8TL'
p6199
(lp6200
g4
(g5
g6
Vnew-york-usa
p6201
tp6202
Rp6203
a(lp6204
g4
(g5
g6
Vsan-francisco-usa
p6205
tp6206
Rp6207
ag4
(g5
g6
Vnew-york-usa
p6208
tp6209
Rp6210
ag4
(g5
g6
Vboston-usa
p6211
tp6212
Rp6213
a(lp6214
g4
(g5
g6
Vnew-york-usa
p6215
tp6216
Rp6217
a(lp6218
g4
(g5
g6
Vsports
p6219
tp6220
Rp6221
atp6222
a(S'jasonWSJ'
p6223
(lp6224
(lp6225
(lp6226
(lp6227
g4
(g5
g6
Vsports
p6228
tp6229
Rp6230
atp6231
a(S'mikelascut'
p6232
(lp6233
(lp6234
(lp6235
(lp6236
g4
(g5
g6
Vbusiness
p6237
tp6238
Rp6239
atp6240
a(S'IDGagne'
p6241
(lp6242
(lp6243
(lp6244
(lp6245
g4
(g5
g6
Vtechnology
p6246
tp6247
Rp6248
atp6249
a(S'twilio'
p6250
(lp6251
(lp6252
g4
(g5
g6
Vsan-francisco-usa
p6253
tp6254
Rp6255
a(lp6256
g4
(g5
g6
Vsan-francisco-usa
p6257
tp6258
Rp6259
a(lp6260
g4
(g5
g6
Vtechnology
p6261
tp6262
Rp6263
atp6264
a(S'igorbobic'
p6265
(lp6266
g4
(g5
g6
Vnew-york-usa
p6267
tp6268
Rp6269
a(lp6270
(lp6271
(lp6272
g4
(g5
g6
Vpolitics
p6273
tp6274
Rp6275
atp6276
a(S'richardbranson'
p6277
(lp6278
(lp6279
(lp6280
(lp6281
g4
(g5
g6
Vbusiness
p6282
tp6283
Rp6284
atp6285
a(S'sidharth_shukla'
p6286
(lp6287
(lp6288
g4
(g5
g6
Vbangalore-india
p6289
tp6290
Rp6291
ag4
(g5
g6
Vmumbai-india
p6292
tp6293
Rp6294
a(lp6295
(lp6296
g4
(g5
g6
Ventertainment
p6297
tp6298
Rp6299
atp6300
a(S'SenatorBaldwin'
p6301
(lp6302
g4
(g5
g6
Vnew-york-usa
p6303
tp6304
Rp6305
a(lp6306
g4
(g5
g6
Vsan-francisco-usa
p6307
tp6308
Rp6309
ag4
(g5
g6
Vnew-york-usa
p6310
tp6311
Rp6312
ag4
(g5
g6
Vboston-usa
p6313
tp6314
Rp6315
a(lp6316
(lp6317
g4
(g5
g6
Vpolitics
p6318
tp6319
Rp6320
atp6321
a(S'YahooSportsNBA'
p6322
(lp6323
(lp6324
(lp6325
g4
(g5
g6
Vsan-francisco-usa
p6326
tp6327
Rp6328
a(lp6329
g4
(g5
g6
Vsports
p6330
tp6331
Rp6332
atp6333
a(S'lynnlaaa'
p6334
(lp6335
g4
(g5
g6
Vsan-francisco-usa
p6336
tp6337
Rp6338
a(lp6339
(lp6340
g4
(g5
g6
Vsan-francisco-usa
p6341
tp6342
Rp6343
a(lp6344
g4
(g5
g6
Vtechnology
p6345
tp6346
Rp6347
atp6348
a(S'katyperry'
p6349
(lp6350
g4
(g5
g6
Vboston-usa
p6351
tp6352
Rp6353
a(lp6354
(lp6355
(lp6356
g4
(g5
g6
Ventertainment
p6357
tp6358
Rp6359
atp6360
a(S'JoeLieberman'
p6361
(lp6362
(lp6363
g4
(g5
g6
Vsan-francisco-usa
p6364
tp6365
Rp6366
ag4
(g5
g6
Vnew-york-usa
p6367
tp6368
Rp6369
ag4
(g5
g6
Vboston-usa
p6370
tp6371
Rp6372
a(lp6373
(lp6374
g4
(g5
g6
Vpolitics
p6375
tp6376
Rp6377
atp6378
a(S'rmartinelli'
p6379
(lp6380
(lp6381
(lp6382
(lp6383
g4
(g5
g6
Vpolitics
p6384
tp6385
Rp6386
atp6387
a(S'IAMQUEENLATIFAH'
p6388
(lp6389
(lp6390
(lp6391
(lp6392
g4
(g5
g6
Ventertainment
p6393
tp6394
Rp6395
atp6396
a(S'CYpresidency'
p6397
(lp6398
(lp6399
(lp6400
(lp6401
g4
(g5
g6
Vpolitics
p6402
tp6403
Rp6404
atp6405
a(S'davemorin'
p6406
(lp6407
(lp6408
g4
(g5
g6
Vsan-francisco-usa
p6409
tp6410
Rp6411
a(lp6412
g4
(g5
g6
Vsan-francisco-usa
p6413
tp6414
Rp6415
a(lp6416
g4
(g5
g6
Vtechnology
p6417
tp6418
Rp6419
atp6420
a(S'PSOE'
p6421
(lp6422
(lp6423
(lp6424
(lp6425
g4
(g5
g6
Vpolitics
p6426
tp6427
Rp6428
atp6429
a(S'fucktwtr'
p6430
(lp6431
(lp6432
(lp6433
(lp6434
g4
(g5
g6
Vtechnology
p6435
tp6436
Rp6437
ag4
(g5
g6
Vbusiness
p6438
tp6439
Rp6440
atp6441
a(S'mrvincecarter15'
p6442
(lp6443
(lp6444
g4
(g5
g6
Vsan-francisco-usa
p6445
tp6446
Rp6447
ag4
(g5
g6
Vnew-york-usa
p6448
tp6449
Rp6450
ag4
(g5
g6
Vboston-usa
p6451
tp6452
Rp6453
a(lp6454
(lp6455
g4
(g5
g6
Vsports
p6456
tp6457
Rp6458
atp6459
a(S'SteveForbesCEO'
p6460
(lp6461
(lp6462
(lp6463
g4
(g5
g6
Vnew-york-usa
p6464
tp6465
Rp6466
a(lp6467
g4
(g5
g6
Vbusiness
p6468
tp6469
Rp6470
atp6471
a(S'sonar'
p6472
(lp6473
(lp6474
g4
(g5
g6
Vnew-york-usa
p6475
tp6476
Rp6477
a(lp6478
g4
(g5
g6
Vnew-york-usa
p6479
tp6480
Rp6481
a(lp6482
g4
(g5
g6
Vtechnology
p6483
tp6484
Rp6485
atp6486
a(S'russellcrowe'
p6487
(lp6488
g4
(g5
g6
Vsan-francisco-usa
p6489
tp6490
Rp6491
a(lp6492
(lp6493
(lp6494
g4
(g5
g6
Ventertainment
p6495
tp6496
Rp6497
atp6498
a(S'Jim_Moran'
p6499
(lp6500
(lp6501
g4
(g5
g6
Vsan-francisco-usa
p6502
tp6503
Rp6504
ag4
(g5
g6
Vnew-york-usa
p6505
tp6506
Rp6507
ag4
(g5
g6
Vboston-usa
p6508
tp6509
Rp6510
a(lp6511
(lp6512
g4
(g5
g6
Vpolitics
p6513
tp6514
Rp6515
atp6516
a(S'iambigbaby11'
p6517
(lp6518
(lp6519
g4
(g5
g6
Vsan-francisco-usa
p6520
tp6521
Rp6522
ag4
(g5
g6
Vnew-york-usa
p6523
tp6524
Rp6525
ag4
(g5
g6
Vboston-usa
p6526
tp6527
Rp6528
a(lp6529
g4
(g5
g6
Vsan-francisco-usa
p6530
tp6531
Rp6532
a(lp6533
g4
(g5
g6
Vsports
p6534
tp6535
Rp6536
atp6537
a(S'presedinte_md'
p6538
(lp6539
(lp6540
(lp6541
(lp6542
g4
(g5
g6
Vpolitics
p6543
tp6544
Rp6545
atp6546
a(S'ColleenMNelson'
p6547
(lp6548
g4
(g5
g6
Vnew-york-usa
p6549
tp6550
Rp6551
a(lp6552
(lp6553
(lp6554
g4
(g5
g6
Vpolitics
p6555
tp6556
Rp6557
atp6558
a(S'deespeak'
p6559
(lp6560
g4
(g5
g6
Vmumbai-india
p6561
tp6562
Rp6563
a(lp6564
(lp6565
(lp6566
g4
(g5
g6
Ventertainment
p6567
tp6568
Rp6569
atp6570
a(S'techledes'
p6571
(lp6572
g4
(g5
g6
Vsan-francisco-usa
p6573
tp6574
Rp6575
a(lp6576
(lp6577
g4
(g5
g6
Vsan-francisco-usa
p6578
tp6579
Rp6580
a(lp6581
g4
(g5
g6
Vtechnology
p6582
tp6583
Rp6584
atp6585
a(S'TheAtlanticTECH'
p6586
(lp6587
g4
(g5
g6
Vnew-york-usa
p6588
tp6589
Rp6590
a(lp6591
(lp6592
(lp6593
g4
(g5
g6
Vtechnology
p6594
tp6595
Rp6596
atp6597
a(S'robboerman'
p6598
(lp6599
g4
(g5
g6
Vlondon-uk
p6600
tp6601
Rp6602
a(lp6603
(lp6604
(lp6605
g4
(g5
g6
Vtechnology
p6606
tp6607
Rp6608
ag4
(g5
g6
Vbusiness
p6609
tp6610
Rp6611
atp6612
a(S'SenJackReed'
p6613
(lp6614
g4
(g5
g6
Vboston-usa
p6615
tp6616
Rp6617
a(lp6618
g4
(g5
g6
Vsan-francisco-usa
p6619
tp6620
Rp6621
ag4
(g5
g6
Vnew-york-usa
p6622
tp6623
Rp6624
ag4
(g5
g6
Vboston-usa
p6625
tp6626
Rp6627
a(lp6628
(lp6629
g4
(g5
g6
Vpolitics
p6630
tp6631
Rp6632
atp6633
a(S'Palaashventures'
p6634
(lp6635
(lp6636
(lp6637
g4
(g5
g6
Vmumbai-india
p6638
tp6639
Rp6640
a(lp6641
g4
(g5
g6
Vtechnology
p6642
tp6643
Rp6644
ag4
(g5
g6
Vbusiness
p6645
tp6646
Rp6647
atp6648
a(S'RepJimMatheson'
p6649
(lp6650
(lp6651
g4
(g5
g6
Vsan-francisco-usa
p6652
tp6653
Rp6654
ag4
(g5
g6
Vnew-york-usa
p6655
tp6656
Rp6657
ag4
(g5
g6
Vboston-usa
p6658
tp6659
Rp6660
a(lp6661
(lp6662
g4
(g5
g6
Vpolitics
p6663
tp6664
Rp6665
atp6666
a(S'OmnivoreAgtech'
p6667
(lp6668
(lp6669
(lp6670
g4
(g5
g6
Vmumbai-india
p6671
tp6672
Rp6673
a(lp6674
g4
(g5
g6
Vtechnology
p6675
tp6676
Rp6677
ag4
(g5
g6
Vbusiness
p6678
tp6679
Rp6680
atp6681
a(S'landondonovan'
p6682
(lp6683
g4
(g5
g6
Vsan-francisco-usa
p6684
tp6685
Rp6686
a(lp6687
g4
(g5
g6
Vsan-francisco-usa
p6688
tp6689
Rp6690
ag4
(g5
g6
Vnew-york-usa
p6691
tp6692
Rp6693
ag4
(g5
g6
Vlondon-uk
p6694
tp6695
Rp6696
ag4
(g5
g6
Vboston-usa
p6697
tp6698
Rp6699
a(lp6700
(lp6701
g4
(g5
g6
Vsports
p6702
tp6703
Rp6704
atp6705
a(S'markthompsoncnn'
p6706
(lp6707
g4
(g5
g6
Vlondon-uk
p6708
tp6709
Rp6710
a(lp6711
(lp6712
g4
(g5
g6
Vlondon-uk
p6713
tp6714
Rp6715
a(lp6716
g4
(g5
g6
Vbusiness
p6717
tp6718
Rp6719
atp6720
a(S'joejonas'
p6721
(lp6722
(lp6723
(lp6724
(lp6725
g4
(g5
g6
Ventertainment
p6726
tp6727
Rp6728
atp6729
a(S'JozyAltidore'
p6730
(lp6731
(lp6732
g4
(g5
g6
Vsan-francisco-usa
p6733
tp6734
Rp6735
ag4
(g5
g6
Vnew-york-usa
p6736
tp6737
Rp6738
ag4
(g5
g6
Vlondon-uk
p6739
tp6740
Rp6741
ag4
(g5
g6
Vboston-usa
p6742
tp6743
Rp6744
a(lp6745
(lp6746
g4
(g5
g6
Vsports
p6747
tp6748
Rp6749
atp6750
a(S'davidaxelrod'
p6751
(lp6752
(lp6753
(lp6754
(lp6755
g4
(g5
g6
Vpolitics
p6756
tp6757
Rp6758
atp6759
a(S'psteinhauserCNN'
p6760
(lp6761
g4
(g5
g6
Vnew-york-usa
p6762
tp6763
Rp6764
a(lp6765
(lp6766
(lp6767
g4
(g5
g6
Vpolitics
p6768
tp6769
Rp6770
atp6771
a(S'zoesaldana'
p6772
(lp6773
(lp6774
(lp6775
(lp6776
g4
(g5
g6
Ventertainment
p6777
tp6778
Rp6779
atp6780
a(S'KevinBohnCNN'
p6781
(lp6782
g4
(g5
g6
Vnew-york-usa
p6783
tp6784
Rp6785
a(lp6786
(lp6787
(lp6788
g4
(g5
g6
Vpolitics
p6789
tp6790
Rp6791
atp6792
a(S'RepMcClintock'
p6793
(lp6794
g4
(g5
g6
Vnew-york-usa
p6795
tp6796
Rp6797
a(lp6798
g4
(g5
g6
Vsan-francisco-usa
p6799
tp6800
Rp6801
ag4
(g5
g6
Vnew-york-usa
p6802
tp6803
Rp6804
ag4
(g5
g6
Vboston-usa
p6805
tp6806
Rp6807
a(lp6808
(lp6809
g4
(g5
g6
Vpolitics
p6810
tp6811
Rp6812
atp6813
a(S'cringely'
p6814
(lp6815
(lp6816
(lp6817
(lp6818
g4
(g5
g6
Vtechnology
p6819
tp6820
Rp6821
atp6822
a(S'jerrykerns'
p6823
(lp6824
(lp6825
(lp6826
(lp6827
g4
(g5
g6
Vbusiness
p6828
tp6829
Rp6830
atp6831
a(S'ReformedBroker'
p6832
(lp6833
(lp6834
(lp6835
(lp6836
g4
(g5
g6
Vbusiness
p6837
tp6838
Rp6839
atp6840
a(S'MinPres'
p6841
(lp6842
(lp6843
(lp6844
(lp6845
g4
(g5
g6
Vpolitics
p6846
tp6847
Rp6848
atp6849
a(S'vgmac'
p6850
(lp6851
g4
(g5
g6
Vnew-york-usa
p6852
tp6853
Rp6854
a(lp6855
(lp6856
(lp6857
g4
(g5
g6
Vbusiness
p6858
tp6859
Rp6860
atp6861
a(S'IMKristenBell'
p6862
(lp6863
(lp6864
(lp6865
g4
(g5
g6
Vsan-francisco-usa
p6866
tp6867
Rp6868
a(lp6869
g4
(g5
g6
Ventertainment
p6870
tp6871
Rp6872
atp6873
a(S'WojYahooNBA'
p6874
(lp6875
(lp6876
(lp6877
(lp6878
g4
(g5
g6
Vsports
p6879
tp6880
Rp6881
atp6882
a(S'macon44'
p6883
(lp6884
g4
(g5
g6
Vnew-york-usa
p6885
tp6886
Rp6887
a(lp6888
(lp6889
(lp6890
g4
(g5
g6
Vtechnology
p6891
tp6892
Rp6893
atp6894
a(S'boniver'
p6895
(lp6896
(lp6897
(lp6898
(lp6899
g4
(g5
g6
Ventertainment
p6900
tp6901
Rp6902
atp6903
a(S'BethSchepens'
p6904
(lp6905
g4
(g5
g6
Vlondon-uk
p6906
tp6907
Rp6908
a(lp6909
(lp6910
g4
(g5
g6
Vlondon-uk
p6911
tp6912
Rp6913
a(lp6914
g4
(g5
g6
Ventertainment
p6915
tp6916
Rp6917
atp6918
a(S'GordonEdes'
p6919
(lp6920
(lp6921
g4
(g5
g6
Vboston-usa
p6922
tp6923
Rp6924
a(lp6925
g4
(g5
g6
Vboston-usa
p6926
tp6927
Rp6928
a(lp6929
g4
(g5
g6
Vsports
p6930
tp6931
Rp6932
atp6933
a(S'PresYameen'
p6934
(lp6935
(lp6936
(lp6937
(lp6938
g4
(g5
g6
Vpolitics
p6939
tp6940
Rp6941
atp6942
a(S'RyanDempsterFDN'
p6943
(lp6944
(lp6945
g4
(g5
g6
Vsan-francisco-usa
p6946
tp6947
Rp6948
ag4
(g5
g6
Vnew-york-usa
p6949
tp6950
Rp6951
ag4
(g5
g6
Vboston-usa
p6952
tp6953
Rp6954
a(lp6955
(lp6956
g4
(g5
g6
Vsports
p6957
tp6958
Rp6959
atp6960
a(S'RepGuthrie'
p6961
(lp6962
(lp6963
g4
(g5
g6
Vsan-francisco-usa
p6964
tp6965
Rp6966
ag4
(g5
g6
Vnew-york-usa
p6967
tp6968
Rp6969
ag4
(g5
g6
Vboston-usa
p6970
tp6971
Rp6972
a(lp6973
(lp6974
g4
(g5
g6
Vpolitics
p6975
tp6976
Rp6977
atp6978
a(S'klout'
p6979
(lp6980
g4
(g5
g6
Vsan-francisco-usa
p6981
tp6982
Rp6983
a(lp6984
g4
(g5
g6
Vsan-francisco-usa
p6985
tp6986
Rp6987
a(lp6988
g4
(g5
g6
Vsan-francisco-usa
p6989
tp6990
Rp6991
a(lp6992
g4
(g5
g6
Vtechnology
p6993
tp6994
Rp6995
atp6996
a(S'arrington'
p6997
(lp6998
(lp6999
(lp7000
g4
(g5
g6
Vsan-francisco-usa
p7001
tp7002
Rp7003
a(lp7004
g4
(g5
g6
Vtechnology
p7005
tp7006
Rp7007
ag4
(g5
g6
Vbusiness
p7008
tp7009
Rp7010
atp7011
a(S'GovernmentZA'
p7012
(lp7013
(lp7014
(lp7015
(lp7016
g4
(g5
g6
Vpolitics
p7017
tp7018
Rp7019
atp7020
a(S'peterlauria3'
p7021
(lp7022
(lp7023
(lp7024
g4
(g5
g6
Vnew-york-usa
p7025
tp7026
Rp7027
a(lp7028
g4
(g5
g6
Vtechnology
p7029
tp7030
Rp7031
atp7032
a(S'depechemode'
p7033
(lp7034
(lp7035
(lp7036
(lp7037
g4
(g5
g6
Ventertainment
p7038
tp7039
Rp7040
atp7041
a(S'AndersFoghR'
p7042
(lp7043
(lp7044
(lp7045
(lp7046
g4
(g5
g6
Vpolitics
p7047
tp7048
Rp7049
atp7050
a(S'mikewilke'
p7051
(lp7052
g4
(g5
g6
Vsan-francisco-usa
p7053
tp7054
Rp7055
a(lp7056
(lp7057
(lp7058
g4
(g5
g6
Vbusiness
p7059
tp7060
Rp7061
atp7062
a(S'jack_welch'
p7063
(lp7064
(lp7065
(lp7066
(lp7067
g4
(g5
g6
Vbusiness
p7068
tp7069
Rp7070
atp7071
a(S'thurrott'
p7072
(lp7073
g4
(g5
g6
Vboston-usa
p7074
tp7075
Rp7076
a(lp7077
(lp7078
(lp7079
g4
(g5
g6
Vtechnology
p7080
tp7081
Rp7082
atp7083
a(S'randyyeip'
p7084
(lp7085
(lp7086
(lp7087
g4
(g5
g6
Vnew-york-usa
p7088
tp7089
Rp7090
a(lp7091
g4
(g5
g6
Vpolitics
p7092
tp7093
Rp7094
atp7095
a(S'WSJdigits'
p7096
(lp7097
(lp7098
(lp7099
g4
(g5
g6
Vnew-york-usa
p7100
tp7101
Rp7102
a(lp7103
g4
(g5
g6
Vtechnology
p7104
tp7105
Rp7106
atp7107
a(S'shariqueorg'
p7108
(lp7109
(lp7110
(lp7111
g4
(g5
g6
Vsan-francisco-usa
p7112
tp7113
Rp7114
a(lp7115
g4
(g5
g6
Vtechnology
p7116
tp7117
Rp7118
ag4
(g5
g6
Vbusiness
p7119
tp7120
Rp7121
atp7122
a(S'NicolasSarkozy'
p7123
(lp7124
(lp7125
(lp7126
(lp7127
g4
(g5
g6
Vpolitics
p7128
tp7129
Rp7130
atp7131
a(S'Christieluge'
p7132
(lp7133
g4
(g5
g6
Vsan-francisco-usa
p7134
tp7135
Rp7136
a(lp7137
(lp7138
(lp7139
g4
(g5
g6
Vsports
p7140
tp7141
Rp7142
atp7143
a(S'Manilla'
p7144
(lp7145
(lp7146
g4
(g5
g6
Vnew-york-usa
p7147
tp7148
Rp7149
a(lp7150
g4
(g5
g6
Vnew-york-usa
p7151
tp7152
Rp7153
a(lp7154
g4
(g5
g6
Vtechnology
p7155
tp7156
Rp7157
atp7158
a(S'colea45'
p7159
(lp7160
(lp7161
g4
(g5
g6
Vsan-francisco-usa
p7162
tp7163
Rp7164
ag4
(g5
g6
Vnew-york-usa
p7165
tp7166
Rp7167
ag4
(g5
g6
Vboston-usa
p7168
tp7169
Rp7170
a(lp7171
(lp7172
g4
(g5
g6
Vsports
p7173
tp7174
Rp7175
atp7176
a(S'charlie_white'
p7177
(lp7178
g4
(g5
g6
Vnew-york-usa
p7179
tp7180
Rp7181
a(lp7182
(lp7183
(lp7184
g4
(g5
g6
Vtechnology
p7185
tp7186
Rp7187
atp7188
a(S'JonErlichman'
p7189
(lp7190
g4
(g5
g6
Vsan-francisco-usa
p7191
tp7192
Rp7193
a(lp7194
(lp7195
g4
(g5
g6
Vsan-francisco-usa
p7196
tp7197
Rp7198
a(lp7199
g4
(g5
g6
Vtechnology
p7200
tp7201
Rp7202
atp7203
a(S'kanyewest'
p7204
(lp7205
(lp7206
(lp7207
(lp7208
g4
(g5
g6
Ventertainment
p7209
tp7210
Rp7211
atp7212
a(S'euHvR'
p7213
(lp7214
(lp7215
(lp7216
(lp7217
g4
(g5
g6
Vpolitics
p7218
tp7219
Rp7220
atp7221
a(S'elvainadine'
p7222
(lp7223
(lp7224
(lp7225
g4
(g5
g6
Vnew-york-usa
p7226
tp7227
Rp7228
a(lp7229
g4
(g5
g6
Ventertainment
p7230
tp7231
Rp7232
atp7233
a(S'HuffPostBiz'
p7234
(lp7235
(lp7236
(lp7237
(lp7238
g4
(g5
g6
Vbusiness
p7239
tp7240
Rp7241
atp7242
a(S'DAVIDprice14'
p7243
(lp7244
(lp7245
g4
(g5
g6
Vsan-francisco-usa
p7246
tp7247
Rp7248
ag4
(g5
g6
Vnew-york-usa
p7249
tp7250
Rp7251
ag4
(g5
g6
Vboston-usa
p7252
tp7253
Rp7254
a(lp7255
(lp7256
g4
(g5
g6
Vsports
p7257
tp7258
Rp7259
atp7260
a(S'PMOIndia'
p7261
(lp7262
g4
(g5
g6
Vmumbai-india
p7263
tp7264
Rp7265
a(lp7266
(lp7267
g4
(g5
g6
Vmumbai-india
p7268
tp7269
Rp7270
a(lp7271
g4
(g5
g6
Vpolitics
p7272
tp7273
Rp7274
atp7275
a(S'SeekingAlphaTek'
p7276
(lp7277
(lp7278
(lp7279
(lp7280
g4
(g5
g6
Vtechnology
p7281
tp7282
Rp7283
atp7284
a(S'wjeffmartin'
p7285
(lp7286
(lp7287
(lp7288
(lp7289
g4
(g5
g6
Vtechnology
p7290
tp7291
Rp7292
ag4
(g5
g6
Vbusiness
p7293
tp7294
Rp7295
atp7296
a(S'IamArrtiPuuri'
p7297
(lp7298
(lp7299
g4
(g5
g6
Vbangalore-india
p7300
tp7301
Rp7302
ag4
(g5
g6
Vmumbai-india
p7303
tp7304
Rp7305
a(lp7306
(lp7307
g4
(g5
g6
Ventertainment
p7308
tp7309
Rp7310
atp7311
a(S'wsjrock'
p7312
(lp7313
(lp7314
(lp7315
g4
(g5
g6
Vnew-york-usa
p7316
tp7317
Rp7318
a(lp7319
g4
(g5
g6
Ventertainment
p7320
tp7321
Rp7322
atp7323
a(S'RepScottPeters'
p7324
(lp7325
(lp7326
g4
(g5
g6
Vsan-francisco-usa
p7327
tp7328
Rp7329
ag4
(g5
g6
Vnew-york-usa
p7330
tp7331
Rp7332
ag4
(g5
g6
Vboston-usa
p7333
tp7334
Rp7335
a(lp7336
(lp7337
g4
(g5
g6
Vpolitics
p7338
tp7339
Rp7340
atp7341
a(S'KerrySOMalley'
p7342
(lp7343
(lp7344
(lp7345
(lp7346
g4
(g5
g6
Vbusiness
p7347
tp7348
Rp7349
atp7350
a(S'CBSMoneyWatch'
p7351
(lp7352
(lp7353
(lp7354
g4
(g5
g6
Vnew-york-usa
p7355
tp7356
Rp7357
a(lp7358
g4
(g5
g6
Vbusiness
p7359
tp7360
Rp7361
atp7362
a(S'skillshare'
p7363
(lp7364
(lp7365
g4
(g5
g6
Vnew-york-usa
p7366
tp7367
Rp7368
a(lp7369
g4
(g5
g6
Vnew-york-usa
p7370
tp7371
Rp7372
a(lp7373
g4
(g5
g6
Vtechnology
p7374
tp7375
Rp7376
atp7377
a(S'teamreboot'
p7378
(lp7379
(lp7380
(lp7381
g4
(g5
g6
Vnew-york-usa
p7382
tp7383
Rp7384
a(lp7385
g4
(g5
g6
Vtechnology
p7386
tp7387
Rp7388
ag4
(g5
g6
Vbusiness
p7389
tp7390
Rp7391
atp7392
a(S'RepBrianHiggins'
p7393
(lp7394
(lp7395
(lp7396
(lp7397
g4
(g5
g6
Vpolitics
p7398
tp7399
Rp7400
atp7401
a(S'boogiecousins'
p7402
(lp7403
(lp7404
g4
(g5
g6
Vsan-francisco-usa
p7405
tp7406
Rp7407
ag4
(g5
g6
Vnew-york-usa
p7408
tp7409
Rp7410
ag4
(g5
g6
Vboston-usa
p7411
tp7412
Rp7413
a(lp7414
(lp7415
g4
(g5
g6
Vsports
p7416
tp7417
Rp7418
atp7419
a(S'RepRonPaul'
p7420
(lp7421
(lp7422
g4
(g5
g6
Vsan-francisco-usa
p7423
tp7424
Rp7425
ag4
(g5
g6
Vnew-york-usa
p7426
tp7427
Rp7428
ag4
(g5
g6
Vboston-usa
p7429
tp7430
Rp7431
a(lp7432
(lp7433
g4
(g5
g6
Vpolitics
p7434
tp7435
Rp7436
atp7437
a(S'jrcelski'
p7438
(lp7439
g4
(g5
g6
Vbangalore-india
p7440
tp7441
Rp7442
a(lp7443
(lp7444
(lp7445
g4
(g5
g6
Vsports
p7446
tp7447
Rp7448
atp7449
a(S'RyanRottman'
p7450
(lp7451
(lp7452
(lp7453
g4
(g5
g6
Vsan-francisco-usa
p7454
tp7455
Rp7456
a(lp7457
g4
(g5
g6
Ventertainment
p7458
tp7459
Rp7460
atp7461
a(S'yoonrob'
p7462
(lp7463
(lp7464
(lp7465
g4
(g5
g6
Vsan-francisco-usa
p7466
tp7467
Rp7468
ag4
(g5
g6
Vnew-york-usa
p7469
tp7470
Rp7471
ag4
(g5
g6
Vboston-usa
p7472
tp7473
Rp7474
a(lp7475
g4
(g5
g6
Vpolitics
p7476
tp7477
Rp7478
atp7479
a(S'JeffFletcherOCR'
p7480
(lp7481
g4
(g5
g6
Vsan-francisco-usa
p7482
tp7483
Rp7484
a(lp7485
(lp7486
g4
(g5
g6
Vsan-francisco-usa
p7487
tp7488
Rp7489
a(lp7490
g4
(g5
g6
Vsports
p7491
tp7492
Rp7493
atp7494
a(S'SI_PeterKing'
p7495
(lp7496
(lp7497
(lp7498
(lp7499
g4
(g5
g6
Vsports
p7500
tp7501
Rp7502
atp7503
a(S'GreenDay'
p7504
(lp7505
(lp7506
(lp7507
g4
(g5
g6
Vsan-francisco-usa
p7508
tp7509
Rp7510
a(lp7511
g4
(g5
g6
Ventertainment
p7512
tp7513
Rp7514
atp7515
a(S'dcbigjohn'
p7516
(lp7517
g4
(g5
g6
Vnew-york-usa
p7518
tp7519
Rp7520
a(lp7521
g4
(g5
g6
Vsan-francisco-usa
p7522
tp7523
Rp7524
ag4
(g5
g6
Vnew-york-usa
p7525
tp7526
Rp7527
ag4
(g5
g6
Vboston-usa
p7528
tp7529
Rp7530
a(lp7531
(lp7532
g4
(g5
g6
Vpolitics
p7533
tp7534
Rp7535
atp7536
a(S'OnlineCFO'
p7537
(lp7538
g4
(g5
g6
Vboston-usa
p7539
tp7540
Rp7541
a(lp7542
(lp7543
g4
(g5
g6
Vsan-francisco-usa
p7544
tp7545
Rp7546
ag4
(g5
g6
Vnew-york-usa
p7547
tp7548
Rp7549
ag4
(g5
g6
Vboston-usa
p7550
tp7551
Rp7552
a(lp7553
g4
(g5
g6
Vbusiness
p7554
tp7555
Rp7556
atp7557
a(S'RBlumenstein'
p7558
(lp7559
(lp7560
(lp7561
(lp7562
g4
(g5
g6
Vbusiness
p7563
tp7564
Rp7565
atp7566
a(S'SenatorHeitkamp'
p7567
(lp7568
(lp7569
g4
(g5
g6
Vsan-francisco-usa
p7570
tp7571
Rp7572
ag4
(g5
g6
Vnew-york-usa
p7573
tp7574
Rp7575
ag4
(g5
g6
Vboston-usa
p7576
tp7577
Rp7578
a(lp7579
(lp7580
g4
(g5
g6
Vpolitics
p7581
tp7582
Rp7583
atp7584
a(S'evanspiegel'
p7585
(lp7586
(lp7587
(lp7588
g4
(g5
g6
Vsan-francisco-usa
p7589
tp7590
Rp7591
a(lp7592
g4
(g5
g6
Vtechnology
p7593
tp7594
Rp7595
ag4
(g5
g6
Vbusiness
p7596
tp7597
Rp7598
atp7599
a(S'GabbyGiffords'
p7600
(lp7601
(lp7602
g4
(g5
g6
Vsan-francisco-usa
p7603
tp7604
Rp7605
ag4
(g5
g6
Vnew-york-usa
p7606
tp7607
Rp7608
ag4
(g5
g6
Vboston-usa
p7609
tp7610
Rp7611
a(lp7612
(lp7613
g4
(g5
g6
Vpolitics
p7614
tp7615
Rp7616
atp7617
a(S'damianpaletta'
p7618
(lp7619
g4
(g5
g6
Vnew-york-usa
p7620
tp7621
Rp7622
a(lp7623
(lp7624
(lp7625
g4
(g5
g6
Vbusiness
p7626
tp7627
Rp7628
atp7629
a(S'thisisdspan'
p7630
(lp7631
(lp7632
g4
(g5
g6
Vsan-francisco-usa
p7633
tp7634
Rp7635
ag4
(g5
g6
Vnew-york-usa
p7636
tp7637
Rp7638
ag4
(g5
g6
Vboston-usa
p7639
tp7640
Rp7641
a(lp7642
(lp7643
g4
(g5
g6
Vsports
p7644
tp7645
Rp7646
atp7647
a(S'nicoleleeCNET'
p7648
(lp7649
(lp7650
(lp7651
g4
(g5
g6
Vsan-francisco-usa
p7652
tp7653
Rp7654
a(lp7655
g4
(g5
g6
Vtechnology
p7656
tp7657
Rp7658
atp7659
a(S'MeGovernment'
p7660
(lp7661
g4
(g5
g6
Vlondon-uk
p7662
tp7663
Rp7664
a(lp7665
(lp7666
(lp7667
g4
(g5
g6
Vpolitics
p7668
tp7669
Rp7670
atp7671
a(S'rangeva'
p7672
(lp7673
g4
(g5
g6
Vlondon-uk
p7674
tp7675
Rp7676
a(lp7677
(lp7678
(lp7679
g4
(g5
g6
Vtechnology
p7680
tp7681
Rp7682
ag4
(g5
g6
Vbusiness
p7683
tp7684
Rp7685
atp7686
a(S'BillGates'
p7687
(lp7688
(lp7689
(lp7690
(lp7691
g4
(g5
g6
Vtechnology
p7692
tp7693
Rp7694
ag4
(g5
g6
Vbusiness
p7695
tp7696
Rp7697
atp7698
a(S'greivisvasquez'
p7699
(lp7700
(lp7701
g4
(g5
g6
Vsan-francisco-usa
p7702
tp7703
Rp7704
ag4
(g5
g6
Vnew-york-usa
p7705
tp7706
Rp7707
ag4
(g5
g6
Vboston-usa
p7708
tp7709
Rp7710
a(lp7711
(lp7712
g4
(g5
g6
Vsports
p7713
tp7714
Rp7715
atp7716
a(S'ReggieBush'
p7717
(lp7718
(lp7719
(lp7720
(lp7721
g4
(g5
g6
Ventertainment
p7722
tp7723
Rp7724
atp7725
a(S'ITValueCreator'
p7726
(lp7727
g4
(g5
g6
Vnew-york-usa
p7728
tp7729
Rp7730
a(lp7731
(lp7732
(lp7733
g4
(g5
g6
Vtechnology
p7734
tp7735
Rp7736
ag4
(g5
g6
Vbusiness
p7737
tp7738
Rp7739
atp7740
a(S'Reddy'
p7741
(lp7742
g4
(g5
g6
Vnew-york-usa
p7743
tp7744
Rp7745
a(lp7746
(lp7747
(lp7748
g4
(g5
g6
Vbusiness
p7749
tp7750
Rp7751
atp7752
a(S'YahooDevilBall'
p7753
(lp7754
g4
(g5
g6
Vnew-york-usa
p7755
tp7756
Rp7757
a(lp7758
(lp7759
(lp7760
g4
(g5
g6
Vsports
p7761
tp7762
Rp7763
atp7764
a(S'jjschatz'
p7765
(lp7766
(lp7767
g4
(g5
g6
Vsan-francisco-usa
p7768
tp7769
Rp7770
ag4
(g5
g6
Vnew-york-usa
p7771
tp7772
Rp7773
ag4
(g5
g6
Vboston-usa
p7774
tp7775
Rp7776
a(lp7777
(lp7778
g4
(g5
g6
Vpolitics
p7779
tp7780
Rp7781
atp7782
a(S'iamwill'
p7783
(lp7784
(lp7785
(lp7786
(lp7787
g4
(g5
g6
Ventertainment
p7788
tp7789
Rp7790
atp7791
a(S'RonBrownstein'
p7792
(lp7793
g4
(g5
g6
Vnew-york-usa
p7794
tp7795
Rp7796
a(lp7797
(lp7798
(lp7799
g4
(g5
g6
Vpolitics
p7800
tp7801
Rp7802
atp7803
a(S'daveburdick'
p7804
(lp7805
(lp7806
(lp7807
(lp7808
g4
(g5
g6
Ventertainment
p7809
tp7810
Rp7811
atp7812
a(S'rokornot'
p7813
(lp7814
g4
(g5
g6
Vsan-francisco-usa
p7815
tp7816
Rp7817
a(lp7818
g4
(g5
g6
Vsan-francisco-usa
p7819
tp7820
Rp7821
ag4
(g5
g6
Vnew-york-usa
p7822
tp7823
Rp7824
ag4
(g5
g6
Vboston-usa
p7825
tp7826
Rp7827
a(lp7828
g4
(g5
g6
Vsan-francisco-usa
p7829
tp7830
Rp7831
a(lp7832
g4
(g5
g6
Vsports
p7833
tp7834
Rp7835
atp7836
a(S'CarmenSense'
p7837
(lp7838
g4
(g5
g6
Vnew-york-usa
p7839
tp7840
Rp7841
a(lp7842
(lp7843
g4
(g5
g6
Vnew-york-usa
p7844
tp7845
Rp7846
a(lp7847
g4
(g5
g6
Vbusiness
p7848
tp7849
Rp7850
atp7851
a(S'ItsStephRice'
p7852
(lp7853
(lp7854
(lp7855
(lp7856
g4
(g5
g6
Vsports
p7857
tp7858
Rp7859
atp7860
a(S'dkberman'
p7861
(lp7862
(lp7863
(lp7864
g4
(g5
g6
Vnew-york-usa
p7865
tp7866
Rp7867
a(lp7868
g4
(g5
g6
Vbusiness
p7869
tp7870
Rp7871
atp7872
a(S'WSJ'
p7873
(lp7874
(lp7875
(lp7876
g4
(g5
g6
Vnew-york-usa
p7877
tp7878
Rp7879
a(lp7880
g4
(g5
g6
Vbusiness
p7881
tp7882
Rp7883
atp7884
a(S'udi_nir'
p7885
(lp7886
(lp7887
(lp7888
(lp7889
g4
(g5
g6
Vtechnology
p7890
tp7891
Rp7892
ag4
(g5
g6
Vbusiness
p7893
tp7894
Rp7895
atp7896
a(S'Padmasree'
p7897
(lp7898
g4
(g5
g6
Vsan-francisco-usa
p7899
tp7900
Rp7901
a(lp7902
(lp7903
g4
(g5
g6
Vsan-francisco-usa
p7904
tp7905
Rp7906
a(lp7907
g4
(g5
g6
Vtechnology
p7908
tp7909
Rp7910
atp7911
a(S'Nas'
p7912
(lp7913
g4
(g5
g6
Vnew-york-usa
p7914
tp7915
Rp7916
a(lp7917
(lp7918
g4
(g5
g6
Vnew-york-usa
p7919
tp7920
Rp7921
a(lp7922
g4
(g5
g6
Ventertainment
p7923
tp7924
Rp7925
atp7926
a(S'ESPNLA710'
p7927
(lp7928
(lp7929
g4
(g5
g6
Vsan-francisco-usa
p7930
tp7931
Rp7932
a(lp7933
g4
(g5
g6
Vsan-francisco-usa
p7934
tp7935
Rp7936
a(lp7937
g4
(g5
g6
Vsports
p7938
tp7939
Rp7940
atp7941
a(S'BuzzFeedAndrew'
p7942
(lp7943
g4
(g5
g6
Vnew-york-usa
p7944
tp7945
Rp7946
a(lp7947
(lp7948
g4
(g5
g6
Vnew-york-usa
p7949
tp7950
Rp7951
a(lp7952
g4
(g5
g6
Vpolitics
p7953
tp7954
Rp7955
atp7956
a(S'DrWaheedH'
p7957
(lp7958
(lp7959
(lp7960
(lp7961
g4
(g5
g6
Vpolitics
p7962
tp7963
Rp7964
atp7965
a(S'myspacetom'
p7966
(lp7967
(lp7968
(lp7969
g4
(g5
g6
Vsan-francisco-usa
p7970
tp7971
Rp7972
a(lp7973
g4
(g5
g6
Vtechnology
p7974
tp7975
Rp7976
atp7977
a(S'MauriceEdu'
p7978
(lp7979
(lp7980
g4
(g5
g6
Vsan-francisco-usa
p7981
tp7982
Rp7983
ag4
(g5
g6
Vnew-york-usa
p7984
tp7985
Rp7986
ag4
(g5
g6
Vlondon-uk
p7987
tp7988
Rp7989
ag4
(g5
g6
Vboston-usa
p7990
tp7991
Rp7992
a(lp7993
(lp7994
g4
(g5
g6
Vsports
p7995
tp7996
Rp7997
atp7998
a(S'andrewcnn'
p7999
(lp8000
g4
(g5
g6
Vbangalore-india
p8001
tp8002
Rp8003
a(lp8004
(lp8005
g4
(g5
g6
Vbangalore-india
p8006
tp8007
Rp8008
a(lp8009
g4
(g5
g6
Vbusiness
p8010
tp8011
Rp8012
atp8013
a(S'marketingplaza'
p8014
(lp8015
(lp8016
(lp8017
g4
(g5
g6
Vsan-francisco-usa
p8018
tp8019
Rp8020
ag4
(g5
g6
Vnew-york-usa
p8021
tp8022
Rp8023
ag4
(g5
g6
Vboston-usa
p8024
tp8025
Rp8026
a(lp8027
g4
(g5
g6
Vbusiness
p8028
tp8029
Rp8030
atp8031
a(S'PowaiLV'
p8032
(lp8033
(lp8034
(lp8035
g4
(g5
g6
Vmumbai-india
p8036
tp8037
Rp8038
a(lp8039
g4
(g5
g6
Vtechnology
p8040
tp8041
Rp8042
ag4
(g5
g6
Vbusiness
p8043
tp8044
Rp8045
atp8046
a(S'posterous'
p8047
(lp8048
(lp8049
g4
(g5
g6
Vsan-francisco-usa
p8050
tp8051
Rp8052
a(lp8053
g4
(g5
g6
Vsan-francisco-usa
p8054
tp8055
Rp8056
a(lp8057
g4
(g5
g6
Vtechnology
p8058
tp8059
Rp8060
atp8061
a(S'DuncanBannatyne'
p8062
(lp8063
(lp8064
(lp8065
g4
(g5
g6
Vlondon-uk
p8066
tp8067
Rp8068
a(lp8069
g4
(g5
g6
Vbusiness
p8070
tp8071
Rp8072
atp8073
a(S'BonJovi'
p8074
(lp8075
(lp8076
(lp8077
g4
(g5
g6
Vnew-york-usa
p8078
tp8079
Rp8080
a(lp8081
g4
(g5
g6
Ventertainment
p8082
tp8083
Rp8084
atp8085
a(S'PatrickWillis52'
p8086
(lp8087
(lp8088
(lp8089
(lp8090
g4
(g5
g6
Vsports
p8091
tp8092
Rp8093
atp8094
a(S'EricKintz'
p8095
(lp8096
(lp8097
(lp8098
g4
(g5
g6
Vsan-francisco-usa
p8099
tp8100
Rp8101
a(lp8102
g4
(g5
g6
Vtechnology
p8103
tp8104
Rp8105
ag4
(g5
g6
Vbusiness
p8106
tp8107
Rp8108
atp8109
a(S'jjasonchow'
p8110
(lp8111
g4
(g5
g6
Vbangalore-india
p8112
tp8113
Rp8114
a(lp8115
(lp8116
g4
(g5
g6
Vbangalore-india
p8117
tp8118
Rp8119
a(lp8120
g4
(g5
g6
Ventertainment
p8121
tp8122
Rp8123
atp8124
a(S'PressSec'
p8125
(lp8126
(lp8127
(lp8128
g4
(g5
g6
Vsan-francisco-usa
p8129
tp8130
Rp8131
ag4
(g5
g6
Vnew-york-usa
p8132
tp8133
Rp8134
ag4
(g5
g6
Vboston-usa
p8135
tp8136
Rp8137
a(lp8138
g4
(g5
g6
Vpolitics
p8139
tp8140
Rp8141
atp8142
a(S'RepMurphyFL'
p8143
(lp8144
(lp8145
g4
(g5
g6
Vsan-francisco-usa
p8146
tp8147
Rp8148
ag4
(g5
g6
Vnew-york-usa
p8149
tp8150
Rp8151
ag4
(g5
g6
Vboston-usa
p8152
tp8153
Rp8154
a(lp8155
(lp8156
g4
(g5
g6
Vpolitics
p8157
tp8158
Rp8159
atp8160
a(S'WSJpolitics'
p8161
(lp8162
g4
(g5
g6
Vnew-york-usa
p8163
tp8164
Rp8165
a(lp8166
(lp8167
(lp8168
g4
(g5
g6
Vpolitics
p8169
tp8170
Rp8171
atp8172
a(S'McKQuarterly'
p8173
(lp8174
g4
(g5
g6
Vsan-francisco-usa
p8175
tp8176
Rp8177
a(lp8178
(lp8179
(lp8180
g4
(g5
g6
Vbusiness
p8181
tp8182
Rp8183
atp8184
a(S'paulg'
p8185
(lp8186
(lp8187
(lp8188
(lp8189
g4
(g5
g6
Vtechnology
p8190
tp8191
Rp8192
atp8193
a(S'thegeoff2000'
p8194
(lp8195
(lp8196
(lp8197
(lp8198
g4
(g5
g6
Vsports
p8199
tp8200
Rp8201
atp8202
a(S'IvanBabikov'
p8203
(lp8204
g4
(g5
g6
Vsan-francisco-usa
p8205
tp8206
Rp8207
a(lp8208
(lp8209
(lp8210
g4
(g5
g6
Vsports
p8211
tp8212
Rp8213
atp8214
a(S'RogerWCheng'
p8215
(lp8216
(lp8217
(lp8218
g4
(g5
g6
Vnew-york-usa
p8219
tp8220
Rp8221
a(lp8222
g4
(g5
g6
Vtechnology
p8223
tp8224
Rp8225
atp8226
a(S'fwd'
p8227
(lp8228
(lp8229
(lp8230
(lp8231
g4
(g5
g6
Vtechnology
p8232
tp8233
Rp8234
atp8235
a(S'Techland'
p8236
(lp8237
(lp8238
(lp8239
(lp8240
g4
(g5
g6
Vtechnology
p8241
tp8242
Rp8243
atp8244
a(S'JTandNL'
p8245
(lp8246
(lp8247
(lp8248
(lp8249
g4
(g5
g6
Ventertainment
p8250
tp8251
Rp8252
atp8253
a(S'YahooDagger'
p8254
(lp8255
(lp8256
(lp8257
(lp8258
g4
(g5
g6
Vsports
p8259
tp8260
Rp8261
atp8262
a(S'StaceyGoers'
p8263
(lp8264
g4
(g5
g6
Vnew-york-usa
p8265
tp8266
Rp8267
a(lp8268
g4
(g5
g6
Vsan-francisco-usa
p8269
tp8270
Rp8271
ag4
(g5
g6
Vnew-york-usa
p8272
tp8273
Rp8274
ag4
(g5
g6
Vboston-usa
p8275
tp8276
Rp8277
a(lp8278
(lp8279
g4
(g5
g6
Vpolitics
p8280
tp8281
Rp8282
atp8283
a(S'timoreilly'
p8284
(lp8285
(lp8286
(lp8287
g4
(g5
g6
Vsan-francisco-usa
p8288
tp8289
Rp8290
a(lp8291
g4
(g5
g6
Vtechnology
p8292
tp8293
Rp8294
atp8295
a(S'EyeOfJackieChan'
p8296
(lp8297
(lp8298
(lp8299
(lp8300
g4
(g5
g6
Ventertainment
p8301
tp8302
Rp8303
atp8304
a(S'MattFutterman'
p8305
(lp8306
(lp8307
(lp8308
(lp8309
g4
(g5
g6
Vsports
p8310
tp8311
Rp8312
atp8313
a(S'SaxbyChambliss'
p8314
(lp8315
g4
(g5
g6
Vnew-york-usa
p8316
tp8317
Rp8318
a(lp8319
g4
(g5
g6
Vsan-francisco-usa
p8320
tp8321
Rp8322
ag4
(g5
g6
Vnew-york-usa
p8323
tp8324
Rp8325
ag4
(g5
g6
Vboston-usa
p8326
tp8327
Rp8328
a(lp8329
(lp8330
g4
(g5
g6
Vpolitics
p8331
tp8332
Rp8333
atp8334
a(S'RamiHamdalla'
p8335
(lp8336
(lp8337
(lp8338
(lp8339
g4
(g5
g6
Vpolitics
p8340
tp8341
Rp8342
atp8343
a(S'calebsilver'
p8344
(lp8345
(lp8346
(lp8347
(lp8348
g4
(g5
g6
Vbusiness
p8349
tp8350
Rp8351
atp8352
a(S'robynpeterson'
p8353
(lp8354
(lp8355
(lp8356
g4
(g5
g6
Vnew-york-usa
p8357
tp8358
Rp8359
a(lp8360
g4
(g5
g6
Vtechnology
p8361
tp8362
Rp8363
atp8364
a(S'sportsdeskCNN'
p8365
(lp8366
g4
(g5
g6
Vnew-york-usa
p8367
tp8368
Rp8369
a(lp8370
(lp8371
g4
(g5
g6
Vnew-york-usa
p8372
tp8373
Rp8374
a(lp8375
g4
(g5
g6
Vsports
p8376
tp8377
Rp8378
atp8379
a(S'cloudcontacts'
p8380
(lp8381
(lp8382
g4
(g5
g6
Vsan-francisco-usa
p8383
tp8384
Rp8385
a(lp8386
(lp8387
g4
(g5
g6
Vtechnology
p8388
tp8389
Rp8390
atp8391
a(S'TheSocialCFO'
p8392
(lp8393
(lp8394
(lp8395
(lp8396
g4
(g5
g6
Vbusiness
p8397
tp8398
Rp8399
atp8400
a(S'gautam_rode'
p8401
(lp8402
(lp8403
g4
(g5
g6
Vbangalore-india
p8404
tp8405
Rp8406
ag4
(g5
g6
Vmumbai-india
p8407
tp8408
Rp8409
a(lp8410
(lp8411
g4
(g5
g6
Ventertainment
p8412
tp8413
Rp8414
atp8415
a(S'YahooPuckDaddy'
p8416
(lp8417
(lp8418
(lp8419
(lp8420
g4
(g5
g6
Vsports
p8421
tp8422
Rp8423
atp8424
a(S'SenBobCorker'
p8425
(lp8426
(lp8427
g4
(g5
g6
Vsan-francisco-usa
p8428
tp8429
Rp8430
ag4
(g5
g6
Vnew-york-usa
p8431
tp8432
Rp8433
ag4
(g5
g6
Vboston-usa
p8434
tp8435
Rp8436
a(lp8437
(lp8438
g4
(g5
g6
Vpolitics
p8439
tp8440
Rp8441
atp8442
a(S'SenJohnHoeven'
p8443
(lp8444
(lp8445
g4
(g5
g6
Vsan-francisco-usa
p8446
tp8447
Rp8448
ag4
(g5
g6
Vnew-york-usa
p8449
tp8450
Rp8451
ag4
(g5
g6
Vboston-usa
p8452
tp8453
Rp8454
a(lp8455
(lp8456
g4
(g5
g6
Vpolitics
p8457
tp8458
Rp8459
atp8460
a(S'GarySinise'
p8461
(lp8462
(lp8463
(lp8464
g4
(g5
g6
Vsan-francisco-usa
p8465
tp8466
Rp8467
ag4
(g5
g6
Vnew-york-usa
p8468
tp8469
Rp8470
ag4
(g5
g6
Vboston-usa
p8471
tp8472
Rp8473
a(lp8474
g4
(g5
g6
Ventertainment
p8475
tp8476
Rp8477
atp8478
a(S'WSJSports'
p8479
(lp8480
(lp8481
(lp8482
g4
(g5
g6
Vnew-york-usa
p8483
tp8484
Rp8485
a(lp8486
g4
(g5
g6
Vsports
p8487
tp8488
Rp8489
atp8490
a(S'howardlindzon'
p8491
(lp8492
(lp8493
(lp8494
(lp8495
g4
(g5
g6
Vtechnology
p8496
tp8497
Rp8498
ag4
(g5
g6
Vbusiness
p8499
tp8500
Rp8501
atp8502
a(S'JDMahama'
p8503
(lp8504
(lp8505
(lp8506
(lp8507
g4
(g5
g6
Vpolitics
p8508
tp8509
Rp8510
atp8511
a(S'tomweirsports'
p8512
(lp8513
(lp8514
(lp8515
(lp8516
g4
(g5
g6
Vsports
p8517
tp8518
Rp8519
atp8520
a(S'BinkleyOnStyle'
p8521
(lp8522
g4
(g5
g6
Vsan-francisco-usa
p8523
tp8524
Rp8525
a(lp8526
(lp8527
g4
(g5
g6
Vsan-francisco-usa
p8528
tp8529
Rp8530
a(lp8531
g4
(g5
g6
Ventertainment
p8532
tp8533
Rp8534
atp8535
a(S'MedvedevRussiaE'
p8536
(lp8537
(lp8538
(lp8539
(lp8540
g4
(g5
g6
Vpolitics
p8541
tp8542
Rp8543
atp8544
a(S'gregskidmore'
p8545
(lp8546
g4
(g5
g6
Vnew-york-usa
p8547
tp8548
Rp8549
a(lp8550
(lp8551
(lp8552
g4
(g5
g6
Vbusiness
p8553
tp8554
Rp8555
atp8556
a(S'jonathaneppers'
p8557
(lp8558
(lp8559
(lp8560
(lp8561
g4
(g5
g6
Vtechnology
p8562
tp8563
Rp8564
atp8565
a(S'Pink'
p8566
(lp8567
(lp8568
(lp8569
g4
(g5
g6
Vsan-francisco-usa
p8570
tp8571
Rp8572
a(lp8573
g4
(g5
g6
Ventertainment
p8574
tp8575
Rp8576
atp8577
a(S'patricknorton'
p8578
(lp8579
(lp8580
(lp8581
g4
(g5
g6
Vsan-francisco-usa
p8582
tp8583
Rp8584
ag4
(g5
g6
Vnew-york-usa
p8585
tp8586
Rp8587
ag4
(g5
g6
Vboston-usa
p8588
tp8589
Rp8590
a(lp8591
g4
(g5
g6
Vtechnology
p8592
tp8593
Rp8594
atp8595
a(S'ForbesOpinion'
p8596
(lp8597
(lp8598
(lp8599
g4
(g5
g6
Vnew-york-usa
p8600
tp8601
Rp8602
a(lp8603
g4
(g5
g6
Vbusiness
p8604
tp8605
Rp8606
atp8607
a(S'StevenEBryant'
p8608
(lp8609
g4
(g5
g6
Vnew-york-usa
p8610
tp8611
Rp8612
a(lp8613
(lp8614
(lp8615
g4
(g5
g6
Vbusiness
p8616
tp8617
Rp8618
atp8619
a(S'RepAndyBarr'
p8620
(lp8621
(lp8622
g4
(g5
g6
Vsan-francisco-usa
p8623
tp8624
Rp8625
ag4
(g5
g6
Vnew-york-usa
p8626
tp8627
Rp8628
ag4
(g5
g6
Vboston-usa
p8629
tp8630
Rp8631
a(lp8632
(lp8633
g4
(g5
g6
Vpolitics
p8634
tp8635
Rp8636
atp8637
a(S'RepChrisSmith'
p8638
(lp8639
(lp8640
g4
(g5
g6
Vsan-francisco-usa
p8641
tp8642
Rp8643
ag4
(g5
g6
Vnew-york-usa
p8644
tp8645
Rp8646
ag4
(g5
g6
Vboston-usa
p8647
tp8648
Rp8649
a(lp8650
(lp8651
g4
(g5
g6
Vpolitics
p8652
tp8653
Rp8654
atp8655
a(S'Gorman_Siobhan'
p8656
(lp8657
(lp8658
(lp8659
(lp8660
g4
(g5
g6
Vpolitics
p8661
tp8662
Rp8663
atp8664
a(S'VoteMarsha'
p8665
(lp8666
(lp8667
g4
(g5
g6
Vsan-francisco-usa
p8668
tp8669
Rp8670
ag4
(g5
g6
Vnew-york-usa
p8671
tp8672
Rp8673
ag4
(g5
g6
Vboston-usa
p8674
tp8675
Rp8676
a(lp8677
(lp8678
g4
(g5
g6
Vpolitics
p8679
tp8680
Rp8681
atp8682
a(S'ekhatami'
p8683
(lp8684
g4
(g5
g6
Vnew-york-usa
p8685
tp8686
Rp8687
a(lp8688
g4
(g5
g6
Vsan-francisco-usa
p8689
tp8690
Rp8691
ag4
(g5
g6
Vnew-york-usa
p8692
tp8693
Rp8694
ag4
(g5
g6
Vboston-usa
p8695
tp8696
Rp8697
a(lp8698
(lp8699
g4
(g5
g6
Vpolitics
p8700
tp8701
Rp8702
atp8703
a(S'RobMargetta'
p8704
(lp8705
(lp8706
g4
(g5
g6
Vsan-francisco-usa
p8707
tp8708
Rp8709
ag4
(g5
g6
Vnew-york-usa
p8710
tp8711
Rp8712
ag4
(g5
g6
Vboston-usa
p8713
tp8714
Rp8715
a(lp8716
(lp8717
g4
(g5
g6
Vpolitics
p8718
tp8719
Rp8720
atp8721
a(S'BenParamore'
p8722
(lp8723
g4
(g5
g6
Vnew-york-usa
p8724
tp8725
Rp8726
a(lp8727
(lp8728
(lp8729
g4
(g5
g6
Vbusiness
p8730
tp8731
Rp8732
atp8733
a(S'prcavacosilva'
p8734
(lp8735
(lp8736
(lp8737
(lp8738
g4
(g5
g6
Vpolitics
p8739
tp8740
Rp8741
atp8742
a(S'CNNPR'
p8743
(lp8744
(lp8745
(lp8746
(lp8747
g4
(g5
g6
Vpolitics
p8748
tp8749
Rp8750
atp8751
a(S'CindyCrawford'
p8752
(lp8753
g4
(g5
g6
Vsan-francisco-usa
p8754
tp8755
Rp8756
a(lp8757
(lp8758
g4
(g5
g6
Vsan-francisco-usa
p8759
tp8760
Rp8761
a(lp8762
g4
(g5
g6
Ventertainment
p8763
tp8764
Rp8765
atp8766
a(S'LilTunechi'
p8767
(lp8768
(lp8769
(lp8770
(lp8771
g4
(g5
g6
Ventertainment
p8772
tp8773
Rp8774
atp8775
a(S'MHPshow'
p8776
(lp8777
(lp8778
(lp8779
g4
(g5
g6
Vnew-york-usa
p8780
tp8781
Rp8782
a(lp8783
g4
(g5
g6
Vpolitics
p8784
tp8785
Rp8786
atp8787
a(S'anandmahindra'
p8788
(lp8789
(lp8790
(lp8791
g4
(g5
g6
Vmumbai-india
p8792
tp8793
Rp8794
a(lp8795
g4
(g5
g6
Vbusiness
p8796
tp8797
Rp8798
atp8799
a(S'TechnoBuffalo'
p8800
(lp8801
(lp8802
(lp8803
(lp8804
g4
(g5
g6
Vtechnology
p8805
tp8806
Rp8807
atp8808
a(S'mrcoolone1'
p8809
(lp8810
(lp8811
(lp8812
(lp8813
g4
(g5
g6
Vbusiness
p8814
tp8815
Rp8816
atp8817
a(S'shrepfur'
p8818
(lp8819
g4
(g5
g6
Vnew-york-usa
p8820
tp8821
Rp8822
a(lp8823
(lp8824
(lp8825
g4
(g5
g6
Vtechnology
p8826
tp8827
Rp8828
ag4
(g5
g6
Vbusiness
p8829
tp8830
Rp8831
atp8832
a(S'emjbanks'
p8833
(lp8834
(lp8835
(lp8836
g4
(g5
g6
Vnew-york-usa
p8837
tp8838
Rp8839
a(lp8840
g4
(g5
g6
Vtechnology
p8841
tp8842
Rp8843
atp8844
a(S'georgezachary'
p8845
(lp8846
g4
(g5
g6
Vsan-francisco-usa
p8847
tp8848
Rp8849
a(lp8850
(lp8851
g4
(g5
g6
Vsan-francisco-usa
p8852
tp8853
Rp8854
a(lp8855
g4
(g5
g6
Vtechnology
p8856
tp8857
Rp8858
ag4
(g5
g6
Vbusiness
p8859
tp8860
Rp8861
atp8862
a(S'BackType'
p8863
(lp8864
(lp8865
g4
(g5
g6
Vsan-francisco-usa
p8866
tp8867
Rp8868
a(lp8869
g4
(g5
g6
Vsan-francisco-usa
p8870
tp8871
Rp8872
a(lp8873
g4
(g5
g6
Vtechnology
p8874
tp8875
Rp8876
atp8877
a(S'pedropintotv'
p8878
(lp8879
g4
(g5
g6
Vlondon-uk
p8880
tp8881
Rp8882
a(lp8883
(lp8884
g4
(g5
g6
Vlondon-uk
p8885
tp8886
Rp8887
a(lp8888
g4
(g5
g6
Vsports
p8889
tp8890
Rp8891
atp8892
a(S'RenttheRunway'
p8893
(lp8894
(lp8895
g4
(g5
g6
Vnew-york-usa
p8896
tp8897
Rp8898
a(lp8899
g4
(g5
g6
Vnew-york-usa
p8900
tp8901
Rp8902
a(lp8903
g4
(g5
g6
Vtechnology
p8904
tp8905
Rp8906
atp8907
a(S'BillPlaschke'
p8908
(lp8909
(lp8910
(lp8911
g4
(g5
g6
Vsan-francisco-usa
p8912
tp8913
Rp8914
a(lp8915
g4
(g5
g6
Vsports
p8916
tp8917
Rp8918
atp8919
a(S'SBYudhoyono'
p8920
(lp8921
(lp8922
(lp8923
(lp8924
g4
(g5
g6
Vpolitics
p8925
tp8926
Rp8927
atp8928
a(S'JonHeymanCBS'
p8929
(lp8930
(lp8931
(lp8932
g4
(g5
g6
Vnew-york-usa
p8933
tp8934
Rp8935
a(lp8936
g4
(g5
g6
Vsports
p8937
tp8938
Rp8939
atp8940
a(S'BrianCostaWSJ'
p8941
(lp8942
(lp8943
(lp8944
g4
(g5
g6
Vnew-york-usa
p8945
tp8946
Rp8947
a(lp8948
g4
(g5
g6
Vsports
p8949
tp8950
Rp8951
atp8952
a(S'film_girl'
p8953
(lp8954
(lp8955
(lp8956
g4
(g5
g6
Vnew-york-usa
p8957
tp8958
Rp8959
a(lp8960
g4
(g5
g6
Vtechnology
p8961
tp8962
Rp8963
atp8964
a(S'esofge'
p8965
(lp8966
(lp8967
(lp8968
(lp8969
g4
(g5
g6
Vtechnology
p8970
tp8971
Rp8972
atp8973
a(S'thebravery'
p8974
(lp8975
g4
(g5
g6
Vsan-francisco-usa
p8976
tp8977
Rp8978
a(lp8979
(lp8980
g4
(g5
g6
Vsan-francisco-usa
p8981
tp8982
Rp8983
a(lp8984
g4
(g5
g6
Ventertainment
p8985
tp8986
Rp8987
atp8988
a(S'CNNSitRoom'
p8989
(lp8990
g4
(g5
g6
Vnew-york-usa
p8991
tp8992
Rp8993
a(lp8994
(lp8995
(lp8996
g4
(g5
g6
Vpolitics
p8997
tp8998
Rp8999
atp9000
a(S'kristinapet'
p9001
(lp9002
g4
(g5
g6
Vnew-york-usa
p9003
tp9004
Rp9005
a(lp9006
(lp9007
(lp9008
g4
(g5
g6
Vpolitics
p9009
tp9010
Rp9011
ag4
(g5
g6
Vbusiness
p9012
tp9013
Rp9014
atp9015
a(S'David_Gergen'
p9016
(lp9017
(lp9018
(lp9019
(lp9020
g4
(g5
g6
Vpolitics
p9021
tp9022
Rp9023
atp9024
a(S'SnapGoods'
p9025
(lp9026
(lp9027
g4
(g5
g6
Vnew-york-usa
p9028
tp9029
Rp9030
a(lp9031
(lp9032
g4
(g5
g6
Vtechnology
p9033
tp9034
Rp9035
atp9036
a(S'chr1sa'
p9037
(lp9038
g4
(g5
g6
Vsan-francisco-usa
p9039
tp9040
Rp9041
a(lp9042
(lp9043
(lp9044
g4
(g5
g6
Vtechnology
p9045
tp9046
Rp9047
atp9048
a(S'darrylktaft'
p9049
(lp9050
(lp9051
(lp9052
(lp9053
g4
(g5
g6
Vtechnology
p9054
tp9055
Rp9056
atp9057
a(S'lassecgen'
p9058
(lp9059
(lp9060
(lp9061
(lp9062
g4
(g5
g6
Vpolitics
p9063
tp9064
Rp9065
atp9066
a(S'WSJMoneyBeat'
p9067
(lp9068
(lp9069
(lp9070
g4
(g5
g6
Vnew-york-usa
p9071
tp9072
Rp9073
a(lp9074
g4
(g5
g6
Vbusiness
p9075
tp9076
Rp9077
atp9078
a(S'repmarkpocan'
p9079
(lp9080
(lp9081
g4
(g5
g6
Vsan-francisco-usa
p9082
tp9083
Rp9084
ag4
(g5
g6
Vnew-york-usa
p9085
tp9086
Rp9087
ag4
(g5
g6
Vboston-usa
p9088
tp9089
Rp9090
a(lp9091
(lp9092
g4
(g5
g6
Vpolitics
p9093
tp9094
Rp9095
atp9096
a(S'orenjacob'
p9097
(lp9098
g4
(g5
g6
Vnew-york-usa
p9099
tp9100
Rp9101
a(lp9102
(lp9103
(lp9104
g4
(g5
g6
Vtechnology
p9105
tp9106
Rp9107
atp9108
a(S'LalitKModi'
p9109
(lp9110
(lp9111
g4
(g5
g6
Vbangalore-india
p9112
tp9113
Rp9114
ag4
(g5
g6
Vmumbai-india
p9115
tp9116
Rp9117
a(lp9118
(lp9119
g4
(g5
g6
Vsports
p9120
tp9121
Rp9122
atp9123
a(S'hellikerk'
p9124
(lp9125
(lp9126
(lp9127
(lp9128
g4
(g5
g6
Vsports
p9129
tp9130
Rp9131
atp9132
a(S'GregPorto'
p9133
(lp9134
g4
(g5
g6
Vnew-york-usa
p9135
tp9136
Rp9137
a(lp9138
(lp9139
(lp9140
g4
(g5
g6
Vbusiness
p9141
tp9142
Rp9143
atp9144
a(S'KristinDSantos'
p9145
(lp9146
g4
(g5
g6
Vsan-francisco-usa
p9147
tp9148
Rp9149
a(lp9150
(lp9151
g4
(g5
g6
Vsan-francisco-usa
p9152
tp9153
Rp9154
a(lp9155
g4
(g5
g6
Ventertainment
p9156
tp9157
Rp9158
atp9159
a(S'Maelezo1'
p9160
(lp9161
(lp9162
(lp9163
(lp9164
g4
(g5
g6
Vpolitics
p9165
tp9166
Rp9167
atp9168
a(S'YamiGautam_YG'
p9169
(lp9170
(lp9171
g4
(g5
g6
Vbangalore-india
p9172
tp9173
Rp9174
ag4
(g5
g6
Vmumbai-india
p9175
tp9176
Rp9177
a(lp9178
(lp9179
g4
(g5
g6
Ventertainment
p9180
tp9181
Rp9182
atp9183
a(S'GuyMansueto'
p9184
(lp9185
(lp9186
(lp9187
(lp9188
g4
(g5
g6
Vbusiness
p9189
tp9190
Rp9191
atp9192
a(S'ENews'
p9193
(lp9194
(lp9195
(lp9196
g4
(g5
g6
Vsan-francisco-usa
p9197
tp9198
Rp9199
a(lp9200
g4
(g5
g6
Ventertainment
p9201
tp9202
Rp9203
atp9204
a(S'CritterDJ'
p9205
(lp9206
g4
(g5
g6
Vnew-york-usa
p9207
tp9208
Rp9209
a(lp9210
g4
(g5
g6
Vsan-francisco-usa
p9211
tp9212
Rp9213
ag4
(g5
g6
Vnew-york-usa
p9214
tp9215
Rp9216
ag4
(g5
g6
Vboston-usa
p9217
tp9218
Rp9219
a(lp9220
g4
(g5
g6
Vnew-york-usa
p9221
tp9222
Rp9223
a(lp9224
g4
(g5
g6
Vpolitics
p9225
tp9226
Rp9227
atp9228
a(S'julianobelletti'
p9229
(lp9230
(lp9231
g4
(g5
g6
Vsan-francisco-usa
p9232
tp9233
Rp9234
ag4
(g5
g6
Vnew-york-usa
p9235
tp9236
Rp9237
ag4
(g5
g6
Vlondon-uk
p9238
tp9239
Rp9240
ag4
(g5
g6
Vboston-usa
p9241
tp9242
Rp9243
a(lp9244
(lp9245
g4
(g5
g6
Vsports
p9246
tp9247
Rp9248
atp9249
a(S'YahooSportsBox'
p9250
(lp9251
(lp9252
(lp9253
g4
(g5
g6
Vsan-francisco-usa
p9254
tp9255
Rp9256
a(lp9257
g4
(g5
g6
Vsports
p9258
tp9259
Rp9260
atp9261
a(S'karincaifaCNN'
p9262
(lp9263
g4
(g5
g6
Vnew-york-usa
p9264
tp9265
Rp9266
a(lp9267
(lp9268
(lp9269
g4
(g5
g6
Vtechnology
p9270
tp9271
Rp9272
atp9273
a(S'Malaysia_Gov'
p9274
(lp9275
(lp9276
(lp9277
(lp9278
g4
(g5
g6
Vpolitics
p9279
tp9280
Rp9281
atp9282
a(S'NiketanMadhok'
p9283
(lp9284
(lp9285
g4
(g5
g6
Vbangalore-india
p9286
tp9287
Rp9288
ag4
(g5
g6
Vmumbai-india
p9289
tp9290
Rp9291
a(lp9292
g4
(g5
g6
Vmumbai-india
p9293
tp9294
Rp9295
a(lp9296
g4
(g5
g6
Ventertainment
p9297
tp9298
Rp9299
atp9300
a(S'MargvelashviliG'
p9301
(lp9302
g4
(g5
g6
Vlondon-uk
p9303
tp9304
Rp9305
a(lp9306
(lp9307
(lp9308
g4
(g5
g6
Vpolitics
p9309
tp9310
Rp9311
atp9312
a(S'DanGraziano'
p9313
(lp9314
(lp9315
(lp9316
g4
(g5
g6
Vnew-york-usa
p9317
tp9318
Rp9319
a(lp9320
g4
(g5
g6
Vtechnology
p9321
tp9322
Rp9323
atp9324
a(S'Pinterest'
p9325
(lp9326
(lp9327
g4
(g5
g6
Vsan-francisco-usa
p9328
tp9329
Rp9330
a(lp9331
g4
(g5
g6
Vsan-francisco-usa
p9332
tp9333
Rp9334
a(lp9335
g4
(g5
g6
Vtechnology
p9336
tp9337
Rp9338
atp9339
a(S'JayGlazer'
p9340
(lp9341
(lp9342
(lp9343
(lp9344
g4
(g5
g6
Vsports
p9345
tp9346
Rp9347
atp9348
a(S'marthacoakley'
p9349
(lp9350
(lp9351
(lp9352
(lp9353
g4
(g5
g6
Vpolitics
p9354
tp9355
Rp9356
atp9357
a(S'SenFeinstein'
p9358
(lp9359
g4
(g5
g6
Vsan-francisco-usa
p9360
tp9361
Rp9362
a(lp9363
g4
(g5
g6
Vsan-francisco-usa
p9364
tp9365
Rp9366
ag4
(g5
g6
Vnew-york-usa
p9367
tp9368
Rp9369
ag4
(g5
g6
Vboston-usa
p9370
tp9371
Rp9372
a(lp9373
g4
(g5
g6
Vsan-francisco-usa
p9374
tp9375
Rp9376
a(lp9377
g4
(g5
g6
Vpolitics
p9378
tp9379
Rp9380
atp9381
a(S'pierre'
p9382
(lp9383
(lp9384
(lp9385
(lp9386
g4
(g5
g6
Vtechnology
p9387
tp9388
Rp9389
atp9390
a(S'realDonaldTrump'
p9391
(lp9392
(lp9393
(lp9394
g4
(g5
g6
Vnew-york-usa
p9395
tp9396
Rp9397
a(lp9398
g4
(g5
g6
Vbusiness
p9399
tp9400
Rp9401
atp9402
a(S'tumblr'
p9403
(lp9404
(lp9405
g4
(g5
g6
Vnew-york-usa
p9406
tp9407
Rp9408
a(lp9409
g4
(g5
g6
Vnew-york-usa
p9410
tp9411
Rp9412
a(lp9413
g4
(g5
g6
Vtechnology
p9414
tp9415
Rp9416
atp9417
a(S'BNPolitics'
p9418
(lp9419
(lp9420
(lp9421
(lp9422
g4
(g5
g6
Vpolitics
p9423
tp9424
Rp9425
atp9426
a(S'ChiesaNews'
p9427
(lp9428
g4
(g5
g6
Vnew-york-usa
p9429
tp9430
Rp9431
a(lp9432
g4
(g5
g6
Vsan-francisco-usa
p9433
tp9434
Rp9435
ag4
(g5
g6
Vnew-york-usa
p9436
tp9437
Rp9438
ag4
(g5
g6
Vboston-usa
p9439
tp9440
Rp9441
a(lp9442
(lp9443
g4
(g5
g6
Vpolitics
p9444
tp9445
Rp9446
atp9447
a(S'behaviorgap'
p9448
(lp9449
(lp9450
(lp9451
(lp9452
g4
(g5
g6
Vbusiness
p9453
tp9454
Rp9455
atp9456
a(S'radiohead'
p9457
(lp9458
(lp9459
(lp9460
g4
(g5
g6
Vlondon-uk
p9461
tp9462
Rp9463
a(lp9464
g4
(g5
g6
Ventertainment
p9465
tp9466
Rp9467
atp9468
a(S'nytimestech'
p9469
(lp9470
(lp9471
(lp9472
g4
(g5
g6
Vnew-york-usa
p9473
tp9474
Rp9475
a(lp9476
g4
(g5
g6
Vtechnology
p9477
tp9478
Rp9479
atp9480
a(S'WSJbusiness'
p9481
(lp9482
(lp9483
(lp9484
g4
(g5
g6
Vnew-york-usa
p9485
tp9486
Rp9487
a(lp9488
g4
(g5
g6
Vbusiness
p9489
tp9490
Rp9491
atp9492
a(S'shakira'
p9493
(lp9494
(lp9495
(lp9496
(lp9497
g4
(g5
g6
Ventertainment
p9498
tp9499
Rp9500
atp9501
a(S'siobhanehughes'
p9502
(lp9503
(lp9504
(lp9505
(lp9506
g4
(g5
g6
Vpolitics
p9507
tp9508
Rp9509
atp9510
a(S'janetadamy'
p9511
(lp9512
g4
(g5
g6
Vnew-york-usa
p9513
tp9514
Rp9515
a(lp9516
(lp9517
(lp9518
g4
(g5
g6
Vpolitics
p9519
tp9520
Rp9521
atp9522
a(S'RepTimWalz'
p9523
(lp9524
(lp9525
g4
(g5
g6
Vsan-francisco-usa
p9526
tp9527
Rp9528
ag4
(g5
g6
Vnew-york-usa
p9529
tp9530
Rp9531
ag4
(g5
g6
Vboston-usa
p9532
tp9533
Rp9534
a(lp9535
(lp9536
g4
(g5
g6
Vpolitics
p9537
tp9538
Rp9539
atp9540
a(S'newsyc20'
p9541
(lp9542
(lp9543
(lp9544
g4
(g5
g6
Vsan-francisco-usa
p9545
tp9546
Rp9547
a(lp9548
g4
(g5
g6
Vtechnology
p9549
tp9550
Rp9551
atp9552
a(S'kurtdietrich'
p9553
(lp9554
(lp9555
(lp9556
g4
(g5
g6
Vnew-york-usa
p9557
tp9558
Rp9559
a(lp9560
g4
(g5
g6
Ventertainment
p9561
tp9562
Rp9563
atp9564
a(S'PTI'
p9565
(lp9566
g4
(g5
g6
Vnew-york-usa
p9567
tp9568
Rp9569
a(lp9570
(lp9571
(lp9572
g4
(g5
g6
Vsports
p9573
tp9574
Rp9575
atp9576
a(S'stuholden'
p9577
(lp9578
g4
(g5
g6
Vnew-york-usa
p9579
tp9580
Rp9581
a(lp9582
g4
(g5
g6
Vsan-francisco-usa
p9583
tp9584
Rp9585
ag4
(g5
g6
Vnew-york-usa
p9586
tp9587
Rp9588
ag4
(g5
g6
Vlondon-uk
p9589
tp9590
Rp9591
ag4
(g5
g6
Vboston-usa
p9592
tp9593
Rp9594
a(lp9595
(lp9596
g4
(g5
g6
Vsports
p9597
tp9598
Rp9599
atp9600
a(S'adamplevycnn'
p9601
(lp9602
(lp9603
(lp9604
(lp9605
g4
(g5
g6
Vpolitics
p9606
tp9607
Rp9608
atp9609
a(S'RealRonHoward'
p9610
(lp9611
g4
(g5
g6
Vsan-francisco-usa
p9612
tp9613
Rp9614
a(lp9615
(lp9616
g4
(g5
g6
Vsan-francisco-usa
p9617
tp9618
Rp9619
a(lp9620
g4
(g5
g6
Ventertainment
p9621
tp9622
Rp9623
atp9624
a(S'emilyparkhurst'
p9625
(lp9626
(lp9627
(lp9628
(lp9629
g4
(g5
g6
Vtechnology
p9630
tp9631
Rp9632
atp9633
a(S'MissyElliott'
p9634
(lp9635
(lp9636
(lp9637
(lp9638
g4
(g5
g6
Ventertainment
p9639
tp9640
Rp9641
atp9642
a(S'HuffPostTech'
p9643
(lp9644
g4
(g5
g6
Vnew-york-usa
p9645
tp9646
Rp9647
a(lp9648
(lp9649
g4
(g5
g6
Vnew-york-usa
p9650
tp9651
Rp9652
a(lp9653
g4
(g5
g6
Vtechnology
p9654
tp9655
Rp9656
atp9657
a(S'PoppyHarlowCNN'
p9658
(lp9659
(lp9660
(lp9661
g4
(g5
g6
Vnew-york-usa
p9662
tp9663
Rp9664
a(lp9665
g4
(g5
g6
Vbusiness
p9666
tp9667
Rp9668
atp9669
a(S'DannyDeVito'
p9670
(lp9671
g4
(g5
g6
Vsan-francisco-usa
p9672
tp9673
Rp9674
a(lp9675
(lp9676
g4
(g5
g6
Vsan-francisco-usa
p9677
tp9678
Rp9679
a(lp9680
g4
(g5
g6
Ventertainment
p9681
tp9682
Rp9683
atp9684
a(S'MikeReiss'
p9685
(lp9686
(lp9687
g4
(g5
g6
Vboston-usa
p9688
tp9689
Rp9690
a(lp9691
(lp9692
g4
(g5
g6
Vsports
p9693
tp9694
Rp9695
atp9696
a(S'fearlesscomp'
p9697
(lp9698
(lp9699
(lp9700
g4
(g5
g6
Vnew-york-usa
p9701
tp9702
Rp9703
a(lp9704
g4
(g5
g6
Vbusiness
p9705
tp9706
Rp9707
atp9708
a(S'worldofapple'
p9709
(lp9710
(lp9711
(lp9712
(lp9713
g4
(g5
g6
Vtechnology
p9714
tp9715
Rp9716
atp9717
a(S'finstoryteller'
p9718
(lp9719
g4
(g5
g6
Vsan-francisco-usa
p9720
tp9721
Rp9722
a(lp9723
(lp9724
(lp9725
g4
(g5
g6
Vbusiness
p9726
tp9727
Rp9728
atp9729
a(S'GroupMe'
p9730
(lp9731
(lp9732
g4
(g5
g6
Vnew-york-usa
p9733
tp9734
Rp9735
a(lp9736
g4
(g5
g6
Vnew-york-usa
p9737
tp9738
Rp9739
a(lp9740
g4
(g5
g6
Vtechnology
p9741
tp9742
Rp9743
atp9744
a(S'OkieFields'
p9745
(lp9746
(lp9747
g4
(g5
g6
Vsan-francisco-usa
p9748
tp9749
Rp9750
ag4
(g5
g6
Vnew-york-usa
p9751
tp9752
Rp9753
ag4
(g5
g6
Vboston-usa
p9754
tp9755
Rp9756
a(lp9757
(lp9758
g4
(g5
g6
Vsports
p9759
tp9760
Rp9761
atp9762
a(S'giladpn'
p9763
(lp9764
(lp9765
(lp9766
(lp9767
g4
(g5
g6
Vtechnology
p9768
tp9769
Rp9770
ag4
(g5
g6
Vbusiness
p9771
tp9772
Rp9773
atp9774
a(S'racheldodes'
p9775
(lp9776
(lp9777
(lp9778
(lp9779
g4
(g5
g6
Ventertainment
p9780
tp9781
Rp9782
atp9783
a(S'TheTechStartups'
p9784
(lp9785
(lp9786
g4
(g5
g6
Vnew-york-usa
p9787
tp9788
Rp9789
a(lp9790
g4
(g5
g6
Vnew-york-usa
p9791
tp9792
Rp9793
a(lp9794
g4
(g5
g6
Vtechnology
p9795
tp9796
Rp9797
atp9798
a(S'TFletchernordic'
p9799
(lp9800
g4
(g5
g6
Vsan-francisco-usa
p9801
tp9802
Rp9803
a(lp9804
(lp9805
(lp9806
g4
(g5
g6
Vsports
p9807
tp9808
Rp9809
atp9810
a(S'alydudek'
p9811
(lp9812
(lp9813
(lp9814
(lp9815
g4
(g5
g6
Vsports
p9816
tp9817
Rp9818
atp9819
a(S'aliciakeys'
p9820
(lp9821
(lp9822
(lp9823
g4
(g5
g6
Vnew-york-usa
p9824
tp9825
Rp9826
a(lp9827
g4
(g5
g6
Ventertainment
p9828
tp9829
Rp9830
atp9831
a(S'RepRWilliams'
p9832
(lp9833
g4
(g5
g6
Vnew-york-usa
p9834
tp9835
Rp9836
a(lp9837
g4
(g5
g6
Vsan-francisco-usa
p9838
tp9839
Rp9840
ag4
(g5
g6
Vnew-york-usa
p9841
tp9842
Rp9843
ag4
(g5
g6
Vboston-usa
p9844
tp9845
Rp9846
a(lp9847
(lp9848
g4
(g5
g6
Vpolitics
p9849
tp9850
Rp9851
atp9852
a(S'CharlieDavies9'
p9853
(lp9854
(lp9855
g4
(g5
g6
Vsan-francisco-usa
p9856
tp9857
Rp9858
ag4
(g5
g6
Vnew-york-usa
p9859
tp9860
Rp9861
ag4
(g5
g6
Vlondon-uk
p9862
tp9863
Rp9864
ag4
(g5
g6
Vboston-usa
p9865
tp9866
Rp9867
a(lp9868
g4
(g5
g6
Vboston-usa
p9869
tp9870
Rp9871
a(lp9872
g4
(g5
g6
Vsports
p9873
tp9874
Rp9875
atp9876
a(S'BobCusack'
p9877
(lp9878
g4
(g5
g6
Vnew-york-usa
p9879
tp9880
Rp9881
a(lp9882
g4
(g5
g6
Vsan-francisco-usa
p9883
tp9884
Rp9885
ag4
(g5
g6
Vnew-york-usa
p9886
tp9887
Rp9888
ag4
(g5
g6
Vboston-usa
p9889
tp9890
Rp9891
a(lp9892
(lp9893
g4
(g5
g6
Vpolitics
p9894
tp9895
Rp9896
atp9897
a(S'DanielMcCutchen'
p9898
(lp9899
g4
(g5
g6
Vnew-york-usa
p9900
tp9901
Rp9902
a(lp9903
g4
(g5
g6
Vsan-francisco-usa
p9904
tp9905
Rp9906
ag4
(g5
g6
Vnew-york-usa
p9907
tp9908
Rp9909
ag4
(g5
g6
Vboston-usa
p9910
tp9911
Rp9912
a(lp9913
(lp9914
g4
(g5
g6
Vsports
p9915
tp9916
Rp9917
atp9918
a(S'SamirAlRifai'
p9919
(lp9920
(lp9921
(lp9922
(lp9923
g4
(g5
g6
Vpolitics
p9924
tp9925
Rp9926
atp9927
a(S'mattmireles'
p9928
(lp9929
(lp9930
g4
(g5
g6
Vsan-francisco-usa
p9931
tp9932
Rp9933
a(lp9934
g4
(g5
g6
Vsan-francisco-usa
p9935
tp9936
Rp9937
a(lp9938
g4
(g5
g6
Vtechnology
p9939
tp9940
Rp9941
atp9942
a(S'YahooSports_NFL'
p9943
(lp9944
(lp9945
(lp9946
g4
(g5
g6
Vsan-francisco-usa
p9947
tp9948
Rp9949
a(lp9950
g4
(g5
g6
Vsports
p9951
tp9952
Rp9953
atp9954
a(S'JohnKingCNN'
p9955
(lp9956
g4
(g5
g6
Vnew-york-usa
p9957
tp9958
Rp9959
a(lp9960
(lp9961
(lp9962
g4
(g5
g6
Vpolitics
p9963
tp9964
Rp9965
atp9966
a(S'RepJuanVargas'
p9967
(lp9968
(lp9969
g4
(g5
g6
Vsan-francisco-usa
p9970
tp9971
Rp9972
ag4
(g5
g6
Vnew-york-usa
p9973
tp9974
Rp9975
ag4
(g5
g6
Vboston-usa
p9976
tp9977
Rp9978
a(lp9979
g4
(g5
g6
Vsan-francisco-usa
p9980
tp9981
Rp9982
a(lp9983
g4
(g5
g6
Vpolitics
p9984
tp9985
Rp9986
atp9987
a(S'BAnderson_30'
p9988
(lp9989
(lp9990
g4
(g5
g6
Vsan-francisco-usa
p9991
tp9992
Rp9993
ag4
(g5
g6
Vnew-york-usa
p9994
tp9995
Rp9996
ag4
(g5
g6
Vboston-usa
p9997
tp9998
Rp9999
a(lp10000
(lp10001
g4
(g5
g6
Vsports
p10002
tp10003
Rp10004
atp10005
a(S'KrisAllen'
p10006
(lp10007
(lp10008
(lp10009
(lp10010
g4
(g5
g6
Ventertainment
p10011
tp10012
Rp10013
atp10014
a(S'ramonashelburne'
p10015
(lp10016
g4
(g5
g6
Vsan-francisco-usa
p10017
tp10018
Rp10019
a(lp10020
g4
(g5
g6
Vsan-francisco-usa
p10021
tp10022
Rp10023
a(lp10024
g4
(g5
g6
Vsan-francisco-usa
p10025
tp10026
Rp10027
a(lp10028
g4
(g5
g6
Vsports
p10029
tp10030
Rp10031
atp10032
a(S'GregJaros'
p10033
(lp10034
(lp10035
(lp10036
(lp10037
g4
(g5
g6
Vtechnology
p10038
tp10039
Rp10040
ag4
(g5
g6
Vbusiness
p10041
tp10042
Rp10043
atp10044
a(S'TimOBrien'
p10045
(lp10046
(lp10047
(lp10048
g4
(g5
g6
Vnew-york-usa
p10049
tp10050
Rp10051
a(lp10052
g4
(g5
g6
Vbusiness
p10053
tp10054
Rp10055
atp10056
a(S'MichaelKitces'
p10057
(lp10058
(lp10059
(lp10060
(lp10061
g4
(g5
g6
Vbusiness
p10062
tp10063
Rp10064
atp10065
a(S'FrankMullens'
p10066
(lp10067
g4
(g5
g6
Vsan-francisco-usa
p10068
tp10069
Rp10070
a(lp10071
(lp10072
g4
(g5
g6
Vsan-francisco-usa
p10073
tp10074
Rp10075
a(lp10076
g4
(g5
g6
Vbusiness
p10077
tp10078
Rp10079
atp10080
a(S'SamFeistCNN'
p10081
(lp10082
g4
(g5
g6
Vnew-york-usa
p10083
tp10084
Rp10085
a(lp10086
(lp10087
(lp10088
g4
(g5
g6
Vpolitics
p10089
tp10090
Rp10091
atp10092
a(S'GordonKljestan'
p10093
(lp10094
(lp10095
g4
(g5
g6
Vsan-francisco-usa
p10096
tp10097
Rp10098
ag4
(g5
g6
Vnew-york-usa
p10099
tp10100
Rp10101
ag4
(g5
g6
Vlondon-uk
p10102
tp10103
Rp10104
ag4
(g5
g6
Vboston-usa
p10105
tp10106
Rp10107
a(lp10108
(lp10109
g4
(g5
g6
Vsports
p10110
tp10111
Rp10112
atp10113
a(S'TimJHanrahan'
p10114
(lp10115
g4
(g5
g6
Vnew-york-usa
p10116
tp10117
Rp10118
a(lp10119
(lp10120
(lp10121
g4
(g5
g6
Vpolitics
p10122
tp10123
Rp10124
ag4
(g5
g6
Vbusiness
p10125
tp10126
Rp10127
atp10128
a(S'SenTedCruz'
p10129
(lp10130
g4
(g5
g6
Vnew-york-usa
p10131
tp10132
Rp10133
a(lp10134
g4
(g5
g6
Vsan-francisco-usa
p10135
tp10136
Rp10137
ag4
(g5
g6
Vnew-york-usa
p10138
tp10139
Rp10140
ag4
(g5
g6
Vboston-usa
p10141
tp10142
Rp10143
a(lp10144
(lp10145
g4
(g5
g6
Vpolitics
p10146
tp10147
Rp10148
atp10149
a(S'accomplsh'
p10150
(lp10151
g4
(g5
g6
Vnew-york-usa
p10152
tp10153
Rp10154
a(lp10155
g4
(g5
g6
Vnew-york-usa
p10156
tp10157
Rp10158
a(lp10159
g4
(g5
g6
Vnew-york-usa
p10160
tp10161
Rp10162
a(lp10163
g4
(g5
g6
Vtechnology
p10164
tp10165
Rp10166
atp10167
a(S'emilyhholden'
p10168
(lp10169
g4
(g5
g6
Vnew-york-usa
p10170
tp10171
Rp10172
a(lp10173
g4
(g5
g6
Vsan-francisco-usa
p10174
tp10175
Rp10176
ag4
(g5
g6
Vnew-york-usa
p10177
tp10178
Rp10179
ag4
(g5
g6
Vboston-usa
p10180
tp10181
Rp10182
a(lp10183
(lp10184
g4
(g5
g6
Vpolitics
p10185
tp10186
Rp10187
atp10188
a(S'CNNMoney'
p10189
(lp10190
(lp10191
(lp10192
(lp10193
g4
(g5
g6
Vbusiness
p10194
tp10195
Rp10196
atp10197
a(S'ShaniDavis'
p10198
(lp10199
(lp10200
(lp10201
(lp10202
g4
(g5
g6
Vsports
p10203
tp10204
Rp10205
atp10206
a(S'CB_fundings'
p10207
(lp10208
(lp10209
(lp10210
(lp10211
g4
(g5
g6
Vtechnology
p10212
tp10213
Rp10214
atp10215
a(S'DanaBashCNN'
p10216
(lp10217
g4
(g5
g6
Vnew-york-usa
p10218
tp10219
Rp10220
a(lp10221
(lp10222
(lp10223
g4
(g5
g6
Vpolitics
p10224
tp10225
Rp10226
atp10227
a(S'YahooSportsGolf'
p10228
(lp10229
(lp10230
(lp10231
g4
(g5
g6
Vsan-francisco-usa
p10232
tp10233
Rp10234
a(lp10235
g4
(g5
g6
Vsports
p10236
tp10237
Rp10238
atp10239
a(S'cparrino'
p10240
(lp10241
(lp10242
(lp10243
g4
(g5
g6
Vlondon-uk
p10244
tp10245
Rp10246
a(lp10247
g4
(g5
g6
Vbusiness
p10248
tp10249
Rp10250
atp10251
a(S'terrybaddoo'
p10252
(lp10253
g4
(g5
g6
Vnew-york-usa
p10254
tp10255
Rp10256
a(lp10257
(lp10258
g4
(g5
g6
Vnew-york-usa
p10259
tp10260
Rp10261
a(lp10262
g4
(g5
g6
Vsports
p10263
tp10264
Rp10265
atp10266
a(S'stickybits'
p10267
(lp10268
(lp10269
g4
(g5
g6
Vnew-york-usa
p10270
tp10271
Rp10272
a(lp10273
(lp10274
g4
(g5
g6
Vtechnology
p10275
tp10276
Rp10277
atp10278
a(S'SuzyWelch'
p10279
(lp10280
(lp10281
(lp10282
(lp10283
g4
(g5
g6
Vbusiness
p10284
tp10285
Rp10286
atp10287
a(S'mbahamoute'
p10288
(lp10289
g4
(g5
g6
Vnew-york-usa
p10290
tp10291
Rp10292
a(lp10293
g4
(g5
g6
Vsan-francisco-usa
p10294
tp10295
Rp10296
ag4
(g5
g6
Vnew-york-usa
p10297
tp10298
Rp10299
ag4
(g5
g6
Vboston-usa
p10300
tp10301
Rp10302
a(lp10303
(lp10304
g4
(g5
g6
Vsports
p10305
tp10306
Rp10307
atp10308
a(S'oneassist_in'
p10309
(lp10310
g4
(g5
g6
Vmumbai-india
p10311
tp10312
Rp10313
a(lp10314
(lp10315
(lp10316
g4
(g5
g6
Vtechnology
p10317
tp10318
Rp10319
ag4
(g5
g6
Vbusiness
p10320
tp10321
Rp10322
atp10323
a(S'RealTracyMorgan'
p10324
(lp10325
g4
(g5
g6
Vnew-york-usa
p10326
tp10327
Rp10328
a(lp10329
(lp10330
g4
(g5
g6
Vnew-york-usa
p10331
tp10332
Rp10333
a(lp10334
g4
(g5
g6
Ventertainment
p10335
tp10336
Rp10337
atp10338
a(S'RepDavidValadao'
p10339
(lp10340
(lp10341
g4
(g5
g6
Vsan-francisco-usa
p10342
tp10343
Rp10344
ag4
(g5
g6
Vnew-york-usa
p10345
tp10346
Rp10347
ag4
(g5
g6
Vboston-usa
p10348
tp10349
Rp10350
a(lp10351
g4
(g5
g6
Vsan-francisco-usa
p10352
tp10353
Rp10354
a(lp10355
g4
(g5
g6
Vpolitics
p10356
tp10357
Rp10358
atp10359
a(S'MedvedevRussia'
p10360
(lp10361
(lp10362
(lp10363
(lp10364
g4
(g5
g6
Vpolitics
p10365
tp10366
Rp10367
atp10368
a(S'theChrisMarsh'
p10369
(lp10370
g4
(g5
g6
Vsan-francisco-usa
p10371
tp10372
Rp10373
a(lp10374
(lp10375
(lp10376
g4
(g5
g6
Vtechnology
p10377
tp10378
Rp10379
ag4
(g5
g6
Vbusiness
p10380
tp10381
Rp10382
atp10383
a(S'Robert_Aderholt'
p10384
(lp10385
(lp10386
g4
(g5
g6
Vsan-francisco-usa
p10387
tp10388
Rp10389
ag4
(g5
g6
Vnew-york-usa
p10390
tp10391
Rp10392
ag4
(g5
g6
Vboston-usa
p10393
tp10394
Rp10395
a(lp10396
(lp10397
g4
(g5
g6
Vpolitics
p10398
tp10399
Rp10400
atp10401
a(S'jmkikwete'
p10402
(lp10403
g4
(g5
g6
Vmumbai-india
p10404
tp10405
Rp10406
a(lp10407
(lp10408
(lp10409
g4
(g5
g6
Vpolitics
p10410
tp10411
Rp10412
atp10413
a(S'grbj'
p10414
(lp10415
(lp10416
(lp10417
(lp10418
g4
(g5
g6
Vbusiness
p10419
tp10420
Rp10421
atp10422
a(S'ChristianMagoon'
p10423
(lp10424
(lp10425
(lp10426
(lp10427
g4
(g5
g6
Vbusiness
p10428
tp10429
Rp10430
atp10431
a(S'techopedia'
p10432
(lp10433
g4
(g5
g6
Vnew-york-usa
p10434
tp10435
Rp10436
a(lp10437
(lp10438
(lp10439
g4
(g5
g6
Vtechnology
p10440
tp10441
Rp10442
atp10443
a(S'questCNN'
p10444
(lp10445
(lp10446
(lp10447
g4
(g5
g6
Vnew-york-usa
p10448
tp10449
Rp10450
a(lp10451
g4
(g5
g6
Vbusiness
p10452
tp10453
Rp10454
atp10455
a(S'tracycorrigan'
p10456
(lp10457
(lp10458
(lp10459
g4
(g5
g6
Vnew-york-usa
p10460
tp10461
Rp10462
a(lp10463
g4
(g5
g6
Vbusiness
p10464
tp10465
Rp10466
atp10467
a(S'crowleyCNN'
p10468
(lp10469
g4
(g5
g6
Vnew-york-usa
p10470
tp10471
Rp10472
a(lp10473
(lp10474
(lp10475
g4
(g5
g6
Vpolitics
p10476
tp10477
Rp10478
atp10479
a(S'vrinda_90'
p10480
(lp10481
(lp10482
g4
(g5
g6
Vbangalore-india
p10483
tp10484
Rp10485
ag4
(g5
g6
Vmumbai-india
p10486
tp10487
Rp10488
a(lp10489
g4
(g5
g6
Vmumbai-india
p10490
tp10491
Rp10492
a(lp10493
g4
(g5
g6
Ventertainment
p10494
tp10495
Rp10496
atp10497
a(S'PATRICKCNN'
p10498
(lp10499
g4
(g5
g6
Vnew-york-usa
p10500
tp10501
Rp10502
a(lp10503
(lp10504
g4
(g5
g6
Vnew-york-usa
p10505
tp10506
Rp10507
a(lp10508
g4
(g5
g6
Vsports
p10509
tp10510
Rp10511
atp10512
a(S'Bill_Gross'
p10513
(lp10514
g4
(g5
g6
Vsan-francisco-usa
p10515
tp10516
Rp10517
a(lp10518
(lp10519
g4
(g5
g6
Vsan-francisco-usa
p10520
tp10521
Rp10522
a(lp10523
g4
(g5
g6
Vtechnology
p10524
tp10525
Rp10526
ag4
(g5
g6
Vbusiness
p10527
tp10528
Rp10529
atp10530
a(S'LuxNarayan'
p10531
(lp10532
(lp10533
(lp10534
(lp10535
g4
(g5
g6
Vtechnology
p10536
tp10537
Rp10538
ag4
(g5
g6
Vbusiness
p10539
tp10540
Rp10541
atp10542
a(S'jonweisman'
p10543
(lp10544
(lp10545
g4
(g5
g6
Vsan-francisco-usa
p10546
tp10547
Rp10548
a(lp10549
g4
(g5
g6
Vsan-francisco-usa
p10550
tp10551
Rp10552
a(lp10553
g4
(g5
g6
Vsports
p10554
tp10555
Rp10556
atp10557
a(S'julpepitone'
p10558
(lp10559
(lp10560
(lp10561
(lp10562
g4
(g5
g6
Vtechnology
p10563
tp10564
Rp10565
atp10566
a(S'KateMilani'
p10567
(lp10568
g4
(g5
g6
Vnew-york-usa
p10569
tp10570
Rp10571
a(lp10572
(lp10573
(lp10574
g4
(g5
g6
Vpolitics
p10575
tp10576
Rp10577
atp10578
a(S'QueenRania'
p10579
(lp10580
(lp10581
(lp10582
(lp10583
g4
(g5
g6
Vpolitics
p10584
tp10585
Rp10586
atp10587
a(S'sergeybrinn'
p10588
(lp10589
(lp10590
(lp10591
(lp10592
g4
(g5
g6
Vtechnology
p10593
tp10594
Rp10595
ag4
(g5
g6
Vbusiness
p10596
tp10597
Rp10598
atp10599
a(S'SoyElChapu'
p10600
(lp10601
(lp10602
g4
(g5
g6
Vsan-francisco-usa
p10603
tp10604
Rp10605
ag4
(g5
g6
Vnew-york-usa
p10606
tp10607
Rp10608
ag4
(g5
g6
Vboston-usa
p10609
tp10610
Rp10611
a(lp10612
(lp10613
g4
(g5
g6
Vsports
p10614
tp10615
Rp10616
atp10617
a(S'adnys'
p10618
(lp10619
(lp10620
(lp10621
(lp10622
g4
(g5
g6
Vtechnology
p10623
tp10624
Rp10625
atp10626
a(S'EvelynRusli'
p10627
(lp10628
g4
(g5
g6
Vsan-francisco-usa
p10629
tp10630
Rp10631
a(lp10632
(lp10633
g4
(g5
g6
Vsan-francisco-usa
p10634
tp10635
Rp10636
a(lp10637
g4
(g5
g6
Vtechnology
p10638
tp10639
Rp10640
atp10641
a(S'wolfblitzer'
p10642
(lp10643
g4
(g5
g6
Vnew-york-usa
p10644
tp10645
Rp10646
a(lp10647
(lp10648
g4
(g5
g6
Vnew-york-usa
p10649
tp10650
Rp10651
a(lp10652
g4
(g5
g6
Vpolitics
p10653
tp10654
Rp10655
atp10656
a(S'CFOAlexSink'
p10657
(lp10658
(lp10659
(lp10660
(lp10661
g4
(g5
g6
Vbusiness
p10662
tp10663
Rp10664
atp10665
a(S'jeromezingg'
p10666
(lp10667
(lp10668
(lp10669
g4
(g5
g6
Vsan-francisco-usa
p10670
tp10671
Rp10672
ag4
(g5
g6
Vnew-york-usa
p10673
tp10674
Rp10675
ag4
(g5
g6
Vboston-usa
p10676
tp10677
Rp10678
a(lp10679
g4
(g5
g6
Vtechnology
p10680
tp10681
Rp10682
ag4
(g5
g6
Vbusiness
p10683
tp10684
Rp10685
atp10686
a(S'hmorgan422'
p10687
(lp10688
(lp10689
(lp10690
g4
(g5
g6
Vsan-francisco-usa
p10691
tp10692
Rp10693
a(lp10694
g4
(g5
g6
Vbusiness
p10695
tp10696
Rp10697
atp10698
a(S'FreddyAdu'
p10699
(lp10700
(lp10701
g4
(g5
g6
Vsan-francisco-usa
p10702
tp10703
Rp10704
ag4
(g5
g6
Vnew-york-usa
p10705
tp10706
Rp10707
ag4
(g5
g6
Vlondon-uk
p10708
tp10709
Rp10710
ag4
(g5
g6
Vboston-usa
p10711
tp10712
Rp10713
a(lp10714
g4
(g5
g6
Vsan-francisco-usa
p10715
tp10716
Rp10717
ag4
(g5
g6
Vnew-york-usa
p10718
tp10719
Rp10720
ag4
(g5
g6
Vboston-usa
p10721
tp10722
Rp10723
a(lp10724
g4
(g5
g6
Vsports
p10725
tp10726
Rp10727
atp10728
a(S'AlannaPetroff'
p10729
(lp10730
g4
(g5
g6
Vlondon-uk
p10731
tp10732
Rp10733
a(lp10734
(lp10735
g4
(g5
g6
Vlondon-uk
p10736
tp10737
Rp10738
a(lp10739
g4
(g5
g6
Vbusiness
p10740
tp10741
Rp10742
atp10743
a(S'ItsTheSituation'
p10744
(lp10745
(lp10746
(lp10747
(lp10748
g4
(g5
g6
Ventertainment
p10749
tp10750
Rp10751
atp10752
a(S'WorldSportCNN'
p10753
(lp10754
(lp10755
(lp10756
(lp10757
g4
(g5
g6
Vsports
p10758
tp10759
Rp10760
atp10761
a(S'LauraLandroWSJ'
p10762
(lp10763
(lp10764
(lp10765
(lp10766
g4
(g5
g6
Vbusiness
p10767
tp10768
Rp10769
atp10770
a(S'Neda_Semnani'
p10771
(lp10772
g4
(g5
g6
Vnew-york-usa
p10773
tp10774
Rp10775
a(lp10776
g4
(g5
g6
Vsan-francisco-usa
p10777
tp10778
Rp10779
ag4
(g5
g6
Vnew-york-usa
p10780
tp10781
Rp10782
ag4
(g5
g6
Vboston-usa
p10783
tp10784
Rp10785
a(lp10786
(lp10787
g4
(g5
g6
Vpolitics
p10788
tp10789
Rp10790
atp10791
a(S'kimjmurray'
p10792
(lp10793
(lp10794
(lp10795
(lp10796
g4
(g5
g6
Vbusiness
p10797
tp10798
Rp10799
atp10800
a(S'PEPE_LOBO'
p10801
(lp10802
g4
(g5
g6
Vnew-york-usa
p10803
tp10804
Rp10805
a(lp10806
(lp10807
(lp10808
g4
(g5
g6
Vpolitics
p10809
tp10810
Rp10811
atp10812
a(S'MattAntonelli9'
p10813
(lp10814
(lp10815
g4
(g5
g6
Vsan-francisco-usa
p10816
tp10817
Rp10818
ag4
(g5
g6
Vnew-york-usa
p10819
tp10820
Rp10821
ag4
(g5
g6
Vboston-usa
p10822
tp10823
Rp10824
a(lp10825
(lp10826
g4
(g5
g6
Vsports
p10827
tp10828
Rp10829
atp10830
a(S'MichaelFertman'
p10831
(lp10832
(lp10833
(lp10834
(lp10835
g4
(g5
g6
Vbusiness
p10836
tp10837
Rp10838
atp10839
a(S'DexterFowler'
p10840
(lp10841
(lp10842
g4
(g5
g6
Vsan-francisco-usa
p10843
tp10844
Rp10845
ag4
(g5
g6
Vnew-york-usa
p10846
tp10847
Rp10848
ag4
(g5
g6
Vboston-usa
p10849
tp10850
Rp10851
a(lp10852
(lp10853
g4
(g5
g6
Vsports
p10854
tp10855
Rp10856
atp10857
a(S'CasaCivilBR'
p10858
(lp10859
(lp10860
(lp10861
(lp10862
g4
(g5
g6
Vpolitics
p10863
tp10864
Rp10865
atp10866
a(S'KamBrothers'
p10867
(lp10868
g4
(g5
g6
Vsan-francisco-usa
p10869
tp10870
Rp10871
a(lp10872
g4
(g5
g6
Vsan-francisco-usa
p10873
tp10874
Rp10875
a(lp10876
(lp10877
g4
(g5
g6
Vsports
p10878
tp10879
Rp10880
atp10881
a(S'PierceBrosnan'
p10882
(lp10883
(lp10884
(lp10885
(lp10886
g4
(g5
g6
Ventertainment
p10887
tp10888
Rp10889
atp10890
a(S'businessgp'
p10891
(lp10892
(lp10893
(lp10894
g4
(g5
g6
Vlondon-uk
p10895
tp10896
Rp10897
a(lp10898
g4
(g5
g6
Vbusiness
p10899
tp10900
Rp10901
atp10902
a(S'giorakaplan'
p10903
(lp10904
(lp10905
(lp10906
(lp10907
g4
(g5
g6
Vtechnology
p10908
tp10909
Rp10910
ag4
(g5
g6
Vbusiness
p10911
tp10912
Rp10913
atp10914
a(S'BilbrayCA50'
p10915
(lp10916
(lp10917
g4
(g5
g6
Vsan-francisco-usa
p10918
tp10919
Rp10920
ag4
(g5
g6
Vnew-york-usa
p10921
tp10922
Rp10923
ag4
(g5
g6
Vboston-usa
p10924
tp10925
Rp10926
a(lp10927
g4
(g5
g6
Vsan-francisco-usa
p10928
tp10929
Rp10930
a(lp10931
g4
(g5
g6
Vpolitics
p10932
tp10933
Rp10934
atp10935
a(S'SteveCase'
p10936
(lp10937
g4
(g5
g6
Vnew-york-usa
p10938
tp10939
Rp10940
a(lp10941
(lp10942
(lp10943
g4
(g5
g6
Vtechnology
p10944
tp10945
Rp10946
atp10947
a(S'Emma_Dumain'
p10948
(lp10949
g4
(g5
g6
Vnew-york-usa
p10950
tp10951
Rp10952
a(lp10953
g4
(g5
g6
Vsan-francisco-usa
p10954
tp10955
Rp10956
ag4
(g5
g6
Vnew-york-usa
p10957
tp10958
Rp10959
ag4
(g5
g6
Vboston-usa
p10960
tp10961
Rp10962
a(lp10963
(lp10964
g4
(g5
g6
Vpolitics
p10965
tp10966
Rp10967
atp10968
a(S'benparr'
p10969
(lp10970
(lp10971
(lp10972
g4
(g5
g6
Vsan-francisco-usa
p10973
tp10974
Rp10975
a(lp10976
g4
(g5
g6
Vtechnology
p10977
tp10978
Rp10979
atp10980
a(S'justinbolsen'
p10981
(lp10982
(lp10983
(lp10984
g4
(g5
g6
Vnew-york-usa
p10985
tp10986
Rp10987
a(lp10988
g4
(g5
g6
Vsports
p10989
tp10990
Rp10991
atp10992
a(S'edatnews'
p10993
(lp10994
(lp10995
(lp10996
(lp10997
g4
(g5
g6
Vtechnology
p10998
tp10999
Rp11000
atp11001
a(S'_ravidubey'
p11002
(lp11003
(lp11004
g4
(g5
g6
Vbangalore-india
p11005
tp11006
Rp11007
ag4
(g5
g6
Vmumbai-india
p11008
tp11009
Rp11010
a(lp11011
(lp11012
g4
(g5
g6
Ventertainment
p11013
tp11014
Rp11015
atp11016
a(S'KellyO'
p11017
(lp11018
g4
(g5
g6
Vnew-york-usa
p11019
tp11020
Rp11021
a(lp11022
g4
(g5
g6
Vsan-francisco-usa
p11023
tp11024
Rp11025
ag4
(g5
g6
Vnew-york-usa
p11026
tp11027
Rp11028
ag4
(g5
g6
Vboston-usa
p11029
tp11030
Rp11031
a(lp11032
(lp11033
g4
(g5
g6
Vpolitics
p11034
tp11035
Rp11036
atp11037
a(S'ErinMcPike'
p11038
(lp11039
g4
(g5
g6
Vnew-york-usa
p11040
tp11041
Rp11042
a(lp11043
(lp11044
(lp11045
g4
(g5
g6
Vpolitics
p11046
tp11047
Rp11048
atp11049
a(S'RobManger'
p11050
(lp11051
(lp11052
(lp11053
g4
(g5
g6
Vnew-york-usa
p11054
tp11055
Rp11056
a(lp11057
g4
(g5
g6
Vbusiness
p11058
tp11059
Rp11060
atp11061
a(S'RalphJohnsonII'
p11062
(lp11063
(lp11064
(lp11065
(lp11066
g4
(g5
g6
Vtechnology
p11067
tp11068
Rp11069
ag4
(g5
g6
Vbusiness
p11070
tp11071
Rp11072
atp11073
a(S'cpassariello'
p11074
(lp11075
(lp11076
(lp11077
(lp11078
g4
(g5
g6
Ventertainment
p11079
tp11080
Rp11081
atp11082
a(S'farnamstreet'
p11083
(lp11084
g4
(g5
g6
Vboston-usa
p11085
tp11086
Rp11087
a(lp11088
(lp11089
(lp11090
g4
(g5
g6
Vbusiness
p11091
tp11092
Rp11093
atp11094
a(S'CIOsConnect'
p11095
(lp11096
g4
(g5
g6
Vsan-francisco-usa
p11097
tp11098
Rp11099
a(lp11100
(lp11101
(lp11102
g4
(g5
g6
Vtechnology
p11103
tp11104
Rp11105
ag4
(g5
g6
Vbusiness
p11106
tp11107
Rp11108
atp11109
a(S'GayleCNN'
p11110
(lp11111
(lp11112
(lp11113
g4
(g5
g6
Vnew-york-usa
p11114
tp11115
Rp11116
a(lp11117
g4
(g5
g6
Vbusiness
p11118
tp11119
Rp11120
atp11121
a(S'hanrahan52'
p11122
(lp11123
(lp11124
g4
(g5
g6
Vsan-francisco-usa
p11125
tp11126
Rp11127
ag4
(g5
g6
Vnew-york-usa
p11128
tp11129
Rp11130
ag4
(g5
g6
Vboston-usa
p11131
tp11132
Rp11133
a(lp11134
(lp11135
g4
(g5
g6
Vsports
p11136
tp11137
Rp11138
atp11139
a(S'WinRumors'
p11140
(lp11141
(lp11142
(lp11143
(lp11144
g4
(g5
g6
Vtechnology
p11145
tp11146
Rp11147
atp11148
a(S'thejointstaff'
p11149
(lp11150
(lp11151
(lp11152
g4
(g5
g6
Vnew-york-usa
p11153
tp11154
Rp11155
a(lp11156
g4
(g5
g6
Vpolitics
p11157
tp11158
Rp11159
atp11160
a(S'ShanTravisCNN'
p11161
(lp11162
g4
(g5
g6
Vnew-york-usa
p11163
tp11164
Rp11165
a(lp11166
(lp11167
(lp11168
g4
(g5
g6
Vpolitics
p11169
tp11170
Rp11171
atp11172
a(S'alyankovic'
p11173
(lp11174
g4
(g5
g6
Vsan-francisco-usa
p11175
tp11176
Rp11177
a(lp11178
(lp11179
g4
(g5
g6
Vsan-francisco-usa
p11180
tp11181
Rp11182
a(lp11183
g4
(g5
g6
Ventertainment
p11184
tp11185
Rp11186
atp11187
a(S'terryadamsbmx'
p11188
(lp11189
(lp11190
(lp11191
(lp11192
g4
(g5
g6
Vsports
p11193
tp11194
Rp11195
atp11196
a(S'silviobullara'
p11197
(lp11198
g4
(g5
g6
Vnew-york-usa
p11199
tp11200
Rp11201
a(lp11202
(lp11203
(lp11204
g4
(g5
g6
Vtechnology
p11205
tp11206
Rp11207
ag4
(g5
g6
Vbusiness
p11208
tp11209
Rp11210
atp11211
a(S'KeithRothfus'
p11212
(lp11213
(lp11214
g4
(g5
g6
Vsan-francisco-usa
p11215
tp11216
Rp11217
ag4
(g5
g6
Vnew-york-usa
p11218
tp11219
Rp11220
ag4
(g5
g6
Vboston-usa
p11221
tp11222
Rp11223
a(lp11224
(lp11225
g4
(g5
g6
Vpolitics
p11226
tp11227
Rp11228
atp11229
a(S'SarahBrownUK'
p11230
(lp11231
g4
(g5
g6
Vlondon-uk
p11232
tp11233
Rp11234
a(lp11235
(lp11236
g4
(g5
g6
Vlondon-uk
p11237
tp11238
Rp11239
a(lp11240
g4
(g5
g6
Vpolitics
p11241
tp11242
Rp11243
atp11244
a(S'daily'
p11245
(lp11246
(lp11247
(lp11248
(lp11249
g4
(g5
g6
Vtechnology
p11250
tp11251
Rp11252
atp11253
a(S'sanjayjee'
p11254
(lp11255
g4
(g5
g6
Vmumbai-india
p11256
tp11257
Rp11258
a(lp11259
(lp11260
(lp11261
g4
(g5
g6
Vbusiness
p11262
tp11263
Rp11264
atp11265
a(S'jeffsparshott'
p11266
(lp11267
g4
(g5
g6
Vnew-york-usa
p11268
tp11269
Rp11270
a(lp11271
(lp11272
(lp11273
g4
(g5
g6
Vbusiness
p11274
tp11275
Rp11276
atp11277
a(S'Fayarjomandi'
p11278
(lp11279
g4
(g5
g6
Vsan-francisco-usa
p11280
tp11281
Rp11282
a(lp11283
(lp11284
g4
(g5
g6
Vsan-francisco-usa
p11285
tp11286
Rp11287
a(lp11288
g4
(g5
g6
Vtechnology
p11289
tp11290
Rp11291
ag4
(g5
g6
Vbusiness
p11292
tp11293
Rp11294
atp11295
a(S'Forbes'
p11296
(lp11297
(lp11298
(lp11299
g4
(g5
g6
Vnew-york-usa
p11300
tp11301
Rp11302
a(lp11303
g4
(g5
g6
Vbusiness
p11304
tp11305
Rp11306
atp11307
a(S'JudgeTedPoe'
p11308
(lp11309
(lp11310
g4
(g5
g6
Vsan-francisco-usa
p11311
tp11312
Rp11313
ag4
(g5
g6
Vnew-york-usa
p11314
tp11315
Rp11316
ag4
(g5
g6
Vboston-usa
p11317
tp11318
Rp11319
a(lp11320
(lp11321
g4
(g5
g6
Vpolitics
p11322
tp11323
Rp11324
atp11325
a(S'nytmnews'
p11326
(lp11327
(lp11328
g4
(g5
g6
Vnew-york-usa
p11329
tp11330
Rp11331
a(lp11332
g4
(g5
g6
Vnew-york-usa
p11333
tp11334
Rp11335
a(lp11336
g4
(g5
g6
Vtechnology
p11337
tp11338
Rp11339
atp11340
a(S'azpresident'
p11341
(lp11342
(lp11343
(lp11344
(lp11345
g4
(g5
g6
Vpolitics
p11346
tp11347
Rp11348
atp11349
a.