(lp0
(S'JimGerlach'
p1
(lp2
(lp3
ccopy_reg
_reconstructor
p4
(cdjango.utils.safestring
SafeText
p5
c__builtin__
unicode
p6
Vsan-francisco-usa
p7
tp8
Rp9
ag4
(g5
g6
Vnew-york-usa
p10
tp11
Rp12
ag4
(g5
g6
Vboston-usa
p13
tp14
Rp15
a(lp16
(lp17
g4
(g5
g6
Vpolitics
p18
tp19
Rp20
atp21
a(S'maggielake'
p22
(lp23
(lp24
(lp25
g4
(g5
g6
Vnew-york-usa
p26
tp27
Rp28
a(lp29
g4
(g5
g6
Vbusiness
p30
tp31
Rp32
atp33
a(S'JakePeavy_44'
p34
(lp35
(lp36
g4
(g5
g6
Vsan-francisco-usa
p37
tp38
Rp39
ag4
(g5
g6
Vnew-york-usa
p40
tp41
Rp42
ag4
(g5
g6
Vboston-usa
p43
tp44
Rp45
a(lp46
g4
(g5
g6
Vboston-usa
p47
tp48
Rp49
a(lp50
g4
(g5
g6
Vsports
p51
tp52
Rp53
atp54
a(S'WillMHDavies'
p55
(lp56
(lp57
(lp58
g4
(g5
g6
Vbangalore-india
p59
tp60
Rp61
a(lp62
g4
(g5
g6
Vsports
p63
tp64
Rp65
atp66
a(S'eltongallegly24'
p67
(lp68
(lp69
g4
(g5
g6
Vsan-francisco-usa
p70
tp71
Rp72
ag4
(g5
g6
Vnew-york-usa
p73
tp74
Rp75
ag4
(g5
g6
Vboston-usa
p76
tp77
Rp78
a(lp79
(lp80
g4
(g5
g6
Vpolitics
p81
tp82
Rp83
atp84
a(S'CollectiveSoul'
p85
(lp86
(lp87
(lp88
g4
(g5
g6
Vnew-york-usa
p89
tp90
Rp91
a(lp92
g4
(g5
g6
Ventertainment
p93
tp94
Rp95
atp96
a(S'JohnStamos'
p97
(lp98
g4
(g5
g6
Vsan-francisco-usa
p99
tp100
Rp101
a(lp102
(lp103
g4
(g5
g6
Vsan-francisco-usa
p104
tp105
Rp106
a(lp107
g4
(g5
g6
Ventertainment
p108
tp109
Rp110
atp111
a(S'MrAlanCooper'
p112
(lp113
(lp114
(lp115
g4
(g5
g6
Vsan-francisco-usa
p116
tp117
Rp118
a(lp119
g4
(g5
g6
Vtechnology
p120
tp121
Rp122
ag4
(g5
g6
Vbusiness
p123
tp124
Rp125
atp126
a(S'Chad_Hurley'
p127
(lp128
(lp129
(lp130
g4
(g5
g6
Vsan-francisco-usa
p131
tp132
Rp133
a(lp134
g4
(g5
g6
Vtechnology
p135
tp136
Rp137
atp138
a(S'JasonFalls'
p139
(lp140
g4
(g5
g6
Vnew-york-usa
p141
tp142
Rp143
a(lp144
(lp145
g4
(g5
g6
Vnew-york-usa
p146
tp147
Rp148
a(lp149
g4
(g5
g6
Vtechnology
p150
tp151
Rp152
atp153
a(S'heatherarussell'
p154
(lp155
(lp156
(lp157
g4
(g5
g6
Vlondon-uk
p158
tp159
Rp160
a(lp161
g4
(g5
g6
Vtechnology
p162
tp163
Rp164
ag4
(g5
g6
Vbusiness
p165
tp166
Rp167
atp168
a(S'jackschofield'
p169
(lp170
g4
(g5
g6
Vlondon-uk
p171
tp172
Rp173
a(lp174
(lp175
g4
(g5
g6
Vlondon-uk
p176
tp177
Rp178
a(lp179
g4
(g5
g6
Vtechnology
p180
tp181
Rp182
atp183
a(S'johncbussey'
p184
(lp185
(lp186
(lp187
g4
(g5
g6
Vnew-york-usa
p188
tp189
Rp190
a(lp191
g4
(g5
g6
Vbusiness
p192
tp193
Rp194
atp195
a(S'abnormalreturns'
p196
(lp197
(lp198
(lp199
(lp200
g4
(g5
g6
Vbusiness
p201
tp202
Rp203
atp204
a(S'reggiew55'
p205
(lp206
(lp207
g4
(g5
g6
Vsan-francisco-usa
p208
tp209
Rp210
ag4
(g5
g6
Vnew-york-usa
p211
tp212
Rp213
ag4
(g5
g6
Vboston-usa
p214
tp215
Rp216
a(lp217
(lp218
g4
(g5
g6
Vsports
p219
tp220
Rp221
atp222
a(S'SenBrianSchatz'
p223
(lp224
(lp225
g4
(g5
g6
Vsan-francisco-usa
p226
tp227
Rp228
ag4
(g5
g6
Vnew-york-usa
p229
tp230
Rp231
ag4
(g5
g6
Vboston-usa
p232
tp233
Rp234
a(lp235
(lp236
g4
(g5
g6
Vpolitics
p237
tp238
Rp239
atp240
a(S'sorayadarabi'
p241
(lp242
g4
(g5
g6
Vnew-york-usa
p243
tp244
Rp245
a(lp246
(lp247
g4
(g5
g6
Vnew-york-usa
p248
tp249
Rp250
a(lp251
g4
(g5
g6
Vtechnology
p252
tp253
Rp254
atp255
a(S'DaveSitek'
p256
(lp257
(lp258
(lp259
(lp260
g4
(g5
g6
Ventertainment
p261
tp262
Rp263
atp264
a(S'TheRealSimonCho'
p265
(lp266
(lp267
(lp268
g4
(g5
g6
Vnew-york-usa
p269
tp270
Rp271
a(lp272
g4
(g5
g6
Vsports
p273
tp274
Rp275
atp276
a(S'ESPNBoston'
p277
(lp278
(lp279
g4
(g5
g6
Vboston-usa
p280
tp281
Rp282
a(lp283
g4
(g5
g6
Vboston-usa
p284
tp285
Rp286
a(lp287
g4
(g5
g6
Vsports
p288
tp289
Rp290
atp291
a(S'Busted_Racquet'
p292
(lp293
(lp294
(lp295
(lp296
g4
(g5
g6
Vsports
p297
tp298
Rp299
atp300
a(S'GlobeKranish'
p301
(lp302
(lp303
(lp304
(lp305
g4
(g5
g6
Vpolitics
p306
tp307
Rp308
atp309
a(S'maryjblige'
p310
(lp311
(lp312
(lp313
(lp314
g4
(g5
g6
Ventertainment
p315
tp316
Rp317
atp318
a(S'Eminem'
p319
(lp320
(lp321
(lp322
(lp323
g4
(g5
g6
Ventertainment
p324
tp325
Rp326
atp327
a(S'alyssahhenry'
p328
(lp329
g4
(g5
g6
Vsan-francisco-usa
p330
tp331
Rp332
a(lp333
(lp334
(lp335
g4
(g5
g6
Vtechnology
p336
tp337
Rp338
ag4
(g5
g6
Vbusiness
p339
tp340
Rp341
atp342
a(S'RalphHallPress'
p343
(lp344
(lp345
g4
(g5
g6
Vsan-francisco-usa
p346
tp347
Rp348
ag4
(g5
g6
Vnew-york-usa
p349
tp350
Rp351
ag4
(g5
g6
Vboston-usa
p352
tp353
Rp354
a(lp355
(lp356
g4
(g5
g6
Vpolitics
p357
tp358
Rp359
atp360
a(S'xbrlplanet'
p361
(lp362
(lp363
(lp364
g4
(g5
g6
Vlondon-uk
p365
tp366
Rp367
a(lp368
g4
(g5
g6
Vbusiness
p369
tp370
Rp371
atp372
a(S'rajul_g'
p373
(lp374
(lp375
(lp376
g4
(g5
g6
Vmumbai-india
p377
tp378
Rp379
a(lp380
g4
(g5
g6
Vtechnology
p381
tp382
Rp383
ag4
(g5
g6
Vbusiness
p384
tp385
Rp386
atp387
a(S'BansalSmita_'
p388
(lp389
(lp390
g4
(g5
g6
Vbangalore-india
p391
tp392
Rp393
ag4
(g5
g6
Vmumbai-india
p394
tp395
Rp396
a(lp397
(lp398
g4
(g5
g6
Ventertainment
p399
tp400
Rp401
atp402
a(S'RepCardenas'
p403
(lp404
(lp405
g4
(g5
g6
Vsan-francisco-usa
p406
tp407
Rp408
ag4
(g5
g6
Vnew-york-usa
p409
tp410
Rp411
ag4
(g5
g6
Vboston-usa
p412
tp413
Rp414
a(lp415
g4
(g5
g6
Vsan-francisco-usa
p416
tp417
Rp418
a(lp419
g4
(g5
g6
Vpolitics
p420
tp421
Rp422
atp423
a(S'RepGusBilirakis'
p424
(lp425
(lp426
(lp427
(lp428
g4
(g5
g6
Vpolitics
p429
tp430
Rp431
atp432
a(S'MikeCrapo'
p433
(lp434
(lp435
g4
(g5
g6
Vsan-francisco-usa
p436
tp437
Rp438
ag4
(g5
g6
Vnew-york-usa
p439
tp440
Rp441
ag4
(g5
g6
Vboston-usa
p442
tp443
Rp444
a(lp445
(lp446
g4
(g5
g6
Vpolitics
p447
tp448
Rp449
atp450
a(S'cnetkara'
p451
(lp452
(lp453
(lp454
g4
(g5
g6
Vsan-francisco-usa
p455
tp456
Rp457
a(lp458
g4
(g5
g6
Vtechnology
p459
tp460
Rp461
atp462
a(S'IsaCNN'
p463
(lp464
(lp465
(lp466
g4
(g5
g6
Vlondon-uk
p467
tp468
Rp469
a(lp470
g4
(g5
g6
Vbusiness
p471
tp472
Rp473
atp474
a(S'RalphLoura'
p475
(lp476
(lp477
(lp478
g4
(g5
g6
Vsan-francisco-usa
p479
tp480
Rp481
a(lp482
g4
(g5
g6
Vtechnology
p483
tp484
Rp485
ag4
(g5
g6
Vbusiness
p486
tp487
Rp488
atp489
a(S'RepMikeQuigley'
p490
(lp491
g4
(g5
g6
Vnew-york-usa
p492
tp493
Rp494
a(lp495
g4
(g5
g6
Vsan-francisco-usa
p496
tp497
Rp498
ag4
(g5
g6
Vnew-york-usa
p499
tp500
Rp501
ag4
(g5
g6
Vboston-usa
p502
tp503
Rp504
a(lp505
(lp506
g4
(g5
g6
Vpolitics
p507
tp508
Rp509
atp510
a(S'GA'
p511
(lp512
(lp513
g4
(g5
g6
Vnew-york-usa
p514
tp515
Rp516
a(lp517
g4
(g5
g6
Vnew-york-usa
p518
tp519
Rp520
a(lp521
g4
(g5
g6
Vtechnology
p522
tp523
Rp524
atp525
a(S'si_mlb'
p526
(lp527
(lp528
(lp529
(lp530
g4
(g5
g6
Vsports
p531
tp532
Rp533
atp534
a(S'diginomica'
p535
(lp536
(lp537
(lp538
(lp539
g4
(g5
g6
Vtechnology
p540
tp541
Rp542
atp543
a(S'ESPN_Pac12blog'
p544
(lp545
(lp546
g4
(g5
g6
Vsan-francisco-usa
p547
tp548
Rp549
a(lp550
(lp551
g4
(g5
g6
Vsports
p552
tp553
Rp554
atp555
a(S'brianboyer'
p556
(lp557
(lp558
(lp559
(lp560
g4
(g5
g6
Vtechnology
p561
tp562
Rp563
atp564
a(S'KaiserChiefs'
p565
(lp566
(lp567
(lp568
g4
(g5
g6
Vlondon-uk
p569
tp570
Rp571
a(lp572
g4
(g5
g6
Ventertainment
p573
tp574
Rp575
atp576
a(S'braziliangirls'
p577
(lp578
g4
(g5
g6
Vnew-york-usa
p579
tp580
Rp581
a(lp582
(lp583
g4
(g5
g6
Vnew-york-usa
p584
tp585
Rp586
a(lp587
g4
(g5
g6
Ventertainment
p588
tp589
Rp590
atp591
a(S'ThisIsRobThomas'
p592
(lp593
(lp594
(lp595
g4
(g5
g6
Vnew-york-usa
p596
tp597
Rp598
a(lp599
g4
(g5
g6
Ventertainment
p600
tp601
Rp602
atp603
a(S'singernews'
p604
(lp605
(lp606
g4
(g5
g6
Vsan-francisco-usa
p607
tp608
Rp609
ag4
(g5
g6
Vnew-york-usa
p610
tp611
Rp612
ag4
(g5
g6
Vboston-usa
p613
tp614
Rp615
a(lp616
(lp617
g4
(g5
g6
Vpolitics
p618
tp619
Rp620
atp621
a(S'kellanlutz'
p622
(lp623
g4
(g5
g6
Vsan-francisco-usa
p624
tp625
Rp626
a(lp627
(lp628
g4
(g5
g6
Vsan-francisco-usa
p629
tp630
Rp631
a(lp632
g4
(g5
g6
Ventertainment
p633
tp634
Rp635
atp636
a(S'GallagherBilly'
p637
(lp638
g4
(g5
g6
Vsan-francisco-usa
p639
tp640
Rp641
a(lp642
(lp643
g4
(g5
g6
Vsan-francisco-usa
p644
tp645
Rp646
a(lp647
g4
(g5
g6
Vtechnology
p648
tp649
Rp650
atp651
a(S'LisaDCNN'
p652
(lp653
(lp654
(lp655
(lp656
g4
(g5
g6
Vpolitics
p657
tp658
Rp659
atp660
a(S'Gardner_LM'
p661
(lp662
(lp663
g4
(g5
g6
Vsan-francisco-usa
p664
tp665
Rp666
ag4
(g5
g6
Vnew-york-usa
p667
tp668
Rp669
ag4
(g5
g6
Vboston-usa
p670
tp671
Rp672
a(lp673
(lp674
g4
(g5
g6
Vpolitics
p675
tp676
Rp677
atp678
a(S'RepByrne'
p679
(lp680
(lp681
g4
(g5
g6
Vsan-francisco-usa
p682
tp683
Rp684
ag4
(g5
g6
Vnew-york-usa
p685
tp686
Rp687
ag4
(g5
g6
Vboston-usa
p688
tp689
Rp690
a(lp691
(lp692
g4
(g5
g6
Vpolitics
p693
tp694
Rp695
atp696
a(S'sciencetechnews'
p697
(lp698
(lp699
(lp700
g4
(g5
g6
Vsan-francisco-usa
p701
tp702
Rp703
ag4
(g5
g6
Vnew-york-usa
p704
tp705
Rp706
ag4
(g5
g6
Vboston-usa
p707
tp708
Rp709
a(lp710
g4
(g5
g6
Vtechnology
p711
tp712
Rp713
atp714
a(S'Owlwatch1'
p715
(lp716
(lp717
(lp718
(lp719
g4
(g5
g6
Vtechnology
p720
tp721
Rp722
ag4
(g5
g6
Vbusiness
p723
tp724
Rp725
atp726
a(S'johnsonwhitney'
p727
(lp728
(lp729
(lp730
g4
(g5
g6
Vboston-usa
p731
tp732
Rp733
a(lp734
g4
(g5
g6
Vbusiness
p735
tp736
Rp737
atp738
a(S'SenWarren'
p739
(lp740
(lp741
g4
(g5
g6
Vsan-francisco-usa
p742
tp743
Rp744
ag4
(g5
g6
Vnew-york-usa
p745
tp746
Rp747
ag4
(g5
g6
Vboston-usa
p748
tp749
Rp750
a(lp751
(lp752
g4
(g5
g6
Vpolitics
p753
tp754
Rp755
atp756
a(S'peterthiel'
p757
(lp758
(lp759
(lp760
g4
(g5
g6
Vsan-francisco-usa
p761
tp762
Rp763
a(lp764
g4
(g5
g6
Vtechnology
p765
tp766
Rp767
atp768
a(S'agoramedia'
p769
(lp770
(lp771
(lp772
g4
(g5
g6
Vlondon-uk
p773
tp774
Rp775
a(lp776
g4
(g5
g6
Vbusiness
p777
tp778
Rp779
atp780
a(S'IlvesToomas'
p781
(lp782
(lp783
(lp784
(lp785
g4
(g5
g6
Vpolitics
p786
tp787
Rp788
atp789
a(S'NicolasMaduro'
p790
(lp791
g4
(g5
g6
Vnew-york-usa
p792
tp793
Rp794
a(lp795
(lp796
(lp797
g4
(g5
g6
Vpolitics
p798
tp799
Rp800
atp801
a(S'mkung'
p802
(lp803
(lp804
(lp805
g4
(g5
g6
Vsan-francisco-usa
p806
tp807
Rp808
a(lp809
g4
(g5
g6
Ventertainment
p810
tp811
Rp812
atp813
a(S'johnbattelle'
p814
(lp815
g4
(g5
g6
Vsan-francisco-usa
p816
tp817
Rp818
a(lp819
(lp820
g4
(g5
g6
Vsan-francisco-usa
p821
tp822
Rp823
a(lp824
g4
(g5
g6
Vtechnology
p825
tp826
Rp827
atp828
a(S'TeamCoco'
p829
(lp830
(lp831
(lp832
g4
(g5
g6
Vsan-francisco-usa
p833
tp834
Rp835
ag4
(g5
g6
Vnew-york-usa
p836
tp837
Rp838
ag4
(g5
g6
Vboston-usa
p839
tp840
Rp841
a(lp842
g4
(g5
g6
Ventertainment
p843
tp844
Rp845
atp846
a(S'Nasiji'
p847
(lp848
g4
(g5
g6
Vlondon-uk
p849
tp850
Rp851
a(lp852
(lp853
(lp854
g4
(g5
g6
Vtechnology
p855
tp856
Rp857
atp858
a(S'JPosnanski'
p859
(lp860
(lp861
(lp862
(lp863
g4
(g5
g6
Vsports
p864
tp865
Rp866
atp867
a(S'ElizabethHurley'
p868
(lp869
(lp870
(lp871
g4
(g5
g6
Vlondon-uk
p872
tp873
Rp874
a(lp875
g4
(g5
g6
Ventertainment
p876
tp877
Rp878
atp879
a(S'WSJdailyfix'
p880
(lp881
(lp882
(lp883
g4
(g5
g6
Vnew-york-usa
p884
tp885
Rp886
a(lp887
g4
(g5
g6
Vsports
p888
tp889
Rp890
atp891
a(S'AndyNewellskier'
p892
(lp893
(lp894
(lp895
(lp896
g4
(g5
g6
Vsports
p897
tp898
Rp899
atp900
a(S'dimpy_mahajan'
p901
(lp902
(lp903
g4
(g5
g6
Vbangalore-india
p904
tp905
Rp906
ag4
(g5
g6
Vmumbai-india
p907
tp908
Rp909
a(lp910
(lp911
g4
(g5
g6
Ventertainment
p912
tp913
Rp914
atp915
a(S'McConnellPress'
p916
(lp917
(lp918
g4
(g5
g6
Vsan-francisco-usa
p919
tp920
Rp921
ag4
(g5
g6
Vnew-york-usa
p922
tp923
Rp924
ag4
(g5
g6
Vboston-usa
p925
tp926
Rp927
a(lp928
(lp929
g4
(g5
g6
Vpolitics
p930
tp931
Rp932
atp933
a(S'ManishaThakor'
p934
(lp935
g4
(g5
g6
Vsan-francisco-usa
p936
tp937
Rp938
a(lp939
(lp940
(lp941
g4
(g5
g6
Vbusiness
p942
tp943
Rp944
atp945
a(S'DrPhilRoe'
p946
(lp947
(lp948
g4
(g5
g6
Vsan-francisco-usa
p949
tp950
Rp951
ag4
(g5
g6
Vnew-york-usa
p952
tp953
Rp954
ag4
(g5
g6
Vboston-usa
p955
tp956
Rp957
a(lp958
(lp959
g4
(g5
g6
Vpolitics
p960
tp961
Rp962
atp963
a(S'ArashMarkazi'
p964
(lp965
g4
(g5
g6
Vsan-francisco-usa
p966
tp967
Rp968
a(lp969
g4
(g5
g6
Vsan-francisco-usa
p970
tp971
Rp972
a(lp973
g4
(g5
g6
Vsan-francisco-usa
p974
tp975
Rp976
a(lp977
g4
(g5
g6
Vsports
p978
tp979
Rp980
atp981
a(S'D_Brown4'
p982
(lp983
(lp984
g4
(g5
g6
Vsan-francisco-usa
p985
tp986
Rp987
ag4
(g5
g6
Vnew-york-usa
p988
tp989
Rp990
ag4
(g5
g6
Vboston-usa
p991
tp992
Rp993
a(lp994
(lp995
g4
(g5
g6
Vsports
p996
tp997
Rp998
atp999
a(S'CNNOpinion'
p1000
(lp1001
(lp1002
(lp1003
(lp1004
g4
(g5
g6
Vpolitics
p1005
tp1006
Rp1007
atp1008
a(S'markhoppus'
p1009
(lp1010
(lp1011
(lp1012
g4
(g5
g6
Vsan-francisco-usa
p1013
tp1014
Rp1015
a(lp1016
g4
(g5
g6
Ventertainment
p1017
tp1018
Rp1019
atp1020
a(S'LScola4'
p1021
(lp1022
(lp1023
g4
(g5
g6
Vsan-francisco-usa
p1024
tp1025
Rp1026
ag4
(g5
g6
Vnew-york-usa
p1027
tp1028
Rp1029
ag4
(g5
g6
Vboston-usa
p1030
tp1031
Rp1032
a(lp1033
(lp1034
g4
(g5
g6
Vsports
p1035
tp1036
Rp1037
atp1038
a(S'jaredfavole'
p1039
(lp1040
(lp1041
(lp1042
g4
(g5
g6
Vsan-francisco-usa
p1043
tp1044
Rp1045
ag4
(g5
g6
Vnew-york-usa
p1046
tp1047
Rp1048
ag4
(g5
g6
Vboston-usa
p1049
tp1050
Rp1051
a(lp1052
g4
(g5
g6
Vpolitics
p1053
tp1054
Rp1055
ag4
(g5
g6
Vbusiness
p1056
tp1057
Rp1058
atp1059
a(S'DrewFromTV'
p1060
(lp1061
g4
(g5
g6
Vsan-francisco-usa
p1062
tp1063
Rp1064
a(lp1065
(lp1066
g4
(g5
g6
Vsan-francisco-usa
p1067
tp1068
Rp1069
a(lp1070
g4
(g5
g6
Ventertainment
p1071
tp1072
Rp1073
atp1074
a(S'MartinHeinrich'
p1075
(lp1076
(lp1077
g4
(g5
g6
Vsan-francisco-usa
p1078
tp1079
Rp1080
ag4
(g5
g6
Vnew-york-usa
p1081
tp1082
Rp1083
ag4
(g5
g6
Vboston-usa
p1084
tp1085
Rp1086
a(lp1087
(lp1088
g4
(g5
g6
Vpolitics
p1089
tp1090
Rp1091
atp1092
a(S'RyanRuggiero'
p1093
(lp1094
(lp1095
(lp1096
(lp1097
g4
(g5
g6
Vbusiness
p1098
tp1099
Rp1100
atp1101
a(S'SenatorRisch'
p1102
(lp1103
(lp1104
g4
(g5
g6
Vsan-francisco-usa
p1105
tp1106
Rp1107
ag4
(g5
g6
Vnew-york-usa
p1108
tp1109
Rp1110
ag4
(g5
g6
Vboston-usa
p1111
tp1112
Rp1113
a(lp1114
(lp1115
g4
(g5
g6
Vpolitics
p1116
tp1117
Rp1118
atp1119
a(S'EYJr'
p1120
(lp1121
g4
(g5
g6
Vnew-york-usa
p1122
tp1123
Rp1124
a(lp1125
g4
(g5
g6
Vsan-francisco-usa
p1126
tp1127
Rp1128
ag4
(g5
g6
Vnew-york-usa
p1129
tp1130
Rp1131
ag4
(g5
g6
Vboston-usa
p1132
tp1133
Rp1134
a(lp1135
g4
(g5
g6
Vnew-york-usa
p1136
tp1137
Rp1138
a(lp1139
g4
(g5
g6
Vsports
p1140
tp1141
Rp1142
atp1143
a(S'LouBonica'
p1144
(lp1145
(lp1146
(lp1147
(lp1148
g4
(g5
g6
Vtechnology
p1149
tp1150
Rp1151
ag4
(g5
g6
Vbusiness
p1152
tp1153
Rp1154
atp1155
a(S'ShiraOvide'
p1156
(lp1157
(lp1158
(lp1159
g4
(g5
g6
Vsan-francisco-usa
p1160
tp1161
Rp1162
a(lp1163
g4
(g5
g6
Vtechnology
p1164
tp1165
Rp1166
atp1167
a(S'MeenalMistry'
p1168
(lp1169
(lp1170
(lp1171
g4
(g5
g6
Vnew-york-usa
p1172
tp1173
Rp1174
a(lp1175
g4
(g5
g6
Ventertainment
p1176
tp1177
Rp1178
atp1179
a(S'AThornton14'
p1180
(lp1181
(lp1182
g4
(g5
g6
Vsan-francisco-usa
p1183
tp1184
Rp1185
ag4
(g5
g6
Vnew-york-usa
p1186
tp1187
Rp1188
ag4
(g5
g6
Vboston-usa
p1189
tp1190
Rp1191
a(lp1192
(lp1193
g4
(g5
g6
Vsports
p1194
tp1195
Rp1196
atp1197
a(S'cjknutsen'
p1198
(lp1199
(lp1200
(lp1201
(lp1202
g4
(g5
g6
Ventertainment
p1203
tp1204
Rp1205
atp1206
a(S'therealmix'
p1207
(lp1208
g4
(g5
g6
Vsan-francisco-usa
p1209
tp1210
Rp1211
a(lp1212
(lp1213
(lp1214
g4
(g5
g6
Ventertainment
p1215
tp1216
Rp1217
atp1218
a(S'YahooSportsMMA'
p1219
(lp1220
g4
(g5
g6
Vsan-francisco-usa
p1221
tp1222
Rp1223
a(lp1224
(lp1225
g4
(g5
g6
Vsan-francisco-usa
p1226
tp1227
Rp1228
a(lp1229
g4
(g5
g6
Vsports
p1230
tp1231
Rp1232
atp1233
a(S'tomkrazit'
p1234
(lp1235
g4
(g5
g6
Vsan-francisco-usa
p1236
tp1237
Rp1238
a(lp1239
(lp1240
(lp1241
g4
(g5
g6
Vtechnology
p1242
tp1243
Rp1244
atp1245
a(S'YahooSportNCAAB'
p1246
(lp1247
g4
(g5
g6
Vsan-francisco-usa
p1248
tp1249
Rp1250
a(lp1251
(lp1252
g4
(g5
g6
Vsan-francisco-usa
p1253
tp1254
Rp1255
a(lp1256
g4
(g5
g6
Vsports
p1257
tp1258
Rp1259
atp1260
a(S'TheRealEve'
p1261
(lp1262
(lp1263
(lp1264
(lp1265
g4
(g5
g6
Ventertainment
p1266
tp1267
Rp1268
atp1269
a(S'illwil21'
p1270
(lp1271
(lp1272
g4
(g5
g6
Vsan-francisco-usa
p1273
tp1274
Rp1275
ag4
(g5
g6
Vnew-york-usa
p1276
tp1277
Rp1278
ag4
(g5
g6
Vboston-usa
p1279
tp1280
Rp1281
a(lp1282
g4
(g5
g6
Vnew-york-usa
p1283
tp1284
Rp1285
a(lp1286
g4
(g5
g6
Vsports
p1287
tp1288
Rp1289
atp1290
a(S'SenSherrodBrown'
p1291
(lp1292
(lp1293
g4
(g5
g6
Vsan-francisco-usa
p1294
tp1295
Rp1296
ag4
(g5
g6
Vnew-york-usa
p1297
tp1298
Rp1299
ag4
(g5
g6
Vboston-usa
p1300
tp1301
Rp1302
a(lp1303
g4
(g5
g6
Vnew-york-usa
p1304
tp1305
Rp1306
a(lp1307
g4
(g5
g6
Vpolitics
p1308
tp1309
Rp1310
atp1311
a(S'twitalytic'
p1312
(lp1313
(lp1314
(lp1315
(lp1316
g4
(g5
g6
Vtechnology
p1317
tp1318
Rp1319
atp1320
a(S'CalumMercer'
p1321
(lp1322
g4
(g5
g6
Vlondon-uk
p1323
tp1324
Rp1325
a(lp1326
(lp1327
g4
(g5
g6
Vlondon-uk
p1328
tp1329
Rp1330
a(lp1331
g4
(g5
g6
Vbusiness
p1332
tp1333
Rp1334
atp1335
a(S'marissamayer'
p1336
(lp1337
(lp1338
(lp1339
g4
(g5
g6
Vsan-francisco-usa
p1340
tp1341
Rp1342
a(lp1343
g4
(g5
g6
Vtechnology
p1344
tp1345
Rp1346
atp1347
a(S'SenLandrieu'
p1348
(lp1349
(lp1350
g4
(g5
g6
Vsan-francisco-usa
p1351
tp1352
Rp1353
ag4
(g5
g6
Vnew-york-usa
p1354
tp1355
Rp1356
ag4
(g5
g6
Vboston-usa
p1357
tp1358
Rp1359
a(lp1360
(lp1361
g4
(g5
g6
Vpolitics
p1362
tp1363
Rp1364
atp1365
a(S'mscordell'
p1366
(lp1367
(lp1368
(lp1369
(lp1370
g4
(g5
g6
Vtechnology
p1371
tp1372
Rp1373
ag4
(g5
g6
Vbusiness
p1374
tp1375
Rp1376
atp1377
a(S'MLCWatkins'
p1378
(lp1379
(lp1380
(lp1381
(lp1382
g4
(g5
g6
Vbusiness
p1383
tp1384
Rp1385
atp1386
a(S'EldergillCNN'
p1387
(lp1388
(lp1389
(lp1390
g4
(g5
g6
Vlondon-uk
p1391
tp1392
Rp1393
a(lp1394
g4
(g5
g6
Vsports
p1395
tp1396
Rp1397
atp1398
a(S'Nate_Cohn'
p1399
(lp1400
(lp1401
(lp1402
(lp1403
g4
(g5
g6
Vpolitics
p1404
tp1405
Rp1406
atp1407
a(S'path'
p1408
(lp1409
(lp1410
g4
(g5
g6
Vsan-francisco-usa
p1411
tp1412
Rp1413
a(lp1414
g4
(g5
g6
Vsan-francisco-usa
p1415
tp1416
Rp1417
a(lp1418
g4
(g5
g6
Vtechnology
p1419
tp1420
Rp1421
atp1422
a(S'kylieminogue'
p1423
(lp1424
(lp1425
(lp1426
(lp1427
g4
(g5
g6
Ventertainment
p1428
tp1429
Rp1430
atp1431
a(S'CNET'
p1432
(lp1433
(lp1434
(lp1435
g4
(g5
g6
Vsan-francisco-usa
p1436
tp1437
Rp1438
a(lp1439
g4
(g5
g6
Vtechnology
p1440
tp1441
Rp1442
atp1443
a(S'cqrcDataMine'
p1444
(lp1445
(lp1446
g4
(g5
g6
Vsan-francisco-usa
p1447
tp1448
Rp1449
ag4
(g5
g6
Vnew-york-usa
p1450
tp1451
Rp1452
ag4
(g5
g6
Vboston-usa
p1453
tp1454
Rp1455
a(lp1456
(lp1457
g4
(g5
g6
Vpolitics
p1458
tp1459
Rp1460
atp1461
a(S'SenThadCochran'
p1462
(lp1463
(lp1464
g4
(g5
g6
Vsan-francisco-usa
p1465
tp1466
Rp1467
ag4
(g5
g6
Vnew-york-usa
p1468
tp1469
Rp1470
ag4
(g5
g6
Vboston-usa
p1471
tp1472
Rp1473
a(lp1474
(lp1475
g4
(g5
g6
Vpolitics
p1476
tp1477
Rp1478
atp1479
a(S'CarolMeersch'
p1480
(lp1481
g4
(g5
g6
Vlondon-uk
p1482
tp1483
Rp1484
a(lp1485
(lp1486
(lp1487
g4
(g5
g6
Vbusiness
p1488
tp1489
Rp1490
atp1491
a(S'jcrasnick'
p1492
(lp1493
(lp1494
(lp1495
(lp1496
g4
(g5
g6
Vsports
p1497
tp1498
Rp1499
atp1500
a(S'Sayantanigosh'
p1501
(lp1502
(lp1503
g4
(g5
g6
Vbangalore-india
p1504
tp1505
Rp1506
ag4
(g5
g6
Vmumbai-india
p1507
tp1508
Rp1509
a(lp1510
(lp1511
g4
(g5
g6
Ventertainment
p1512
tp1513
Rp1514
atp1515
a(S'DionNissenbaum'
p1516
(lp1517
(lp1518
(lp1519
(lp1520
g4
(g5
g6
Vpolitics
p1521
tp1522
Rp1523
ag4
(g5
g6
Vbusiness
p1524
tp1525
Rp1526
atp1527
a(S'hchimoff'
p1528
(lp1529
(lp1530
(lp1531
(lp1532
g4
(g5
g6
Vbusiness
p1533
tp1534
Rp1535
atp1536
a(S'Elenahight'
p1537
(lp1538
g4
(g5
g6
Vnew-york-usa
p1539
tp1540
Rp1541
a(lp1542
(lp1543
(lp1544
g4
(g5
g6
Vsports
p1545
tp1546
Rp1547
atp1548
a(S'mcten'
p1549
(lp1550
g4
(g5
g6
Vsan-francisco-usa
p1551
tp1552
Rp1553
a(lp1554
g4
(g5
g6
Vsan-francisco-usa
p1555
tp1556
Rp1557
a(lp1558
g4
(g5
g6
Vsan-francisco-usa
p1559
tp1560
Rp1561
a(lp1562
g4
(g5
g6
Vsports
p1563
tp1564
Rp1565
atp1566
a(S'SocialTimes'
p1567
(lp1568
(lp1569
(lp1570
g4
(g5
g6
Vsan-francisco-usa
p1571
tp1572
Rp1573
a(lp1574
g4
(g5
g6
Vtechnology
p1575
tp1576
Rp1577
atp1578
a(S'JonesTheMarkets'
p1579
(lp1580
(lp1581
(lp1582
(lp1583
g4
(g5
g6
Vbusiness
p1584
tp1585
Rp1586
atp1587
a(S'keithlaw'
p1588
(lp1589
(lp1590
(lp1591
(lp1592
g4
(g5
g6
Vsports
p1593
tp1594
Rp1595
atp1596
a(S'LeeNguyen24'
p1597
(lp1598
(lp1599
g4
(g5
g6
Vsan-francisco-usa
p1600
tp1601
Rp1602
ag4
(g5
g6
Vnew-york-usa
p1603
tp1604
Rp1605
ag4
(g5
g6
Vlondon-uk
p1606
tp1607
Rp1608
ag4
(g5
g6
Vboston-usa
p1609
tp1610
Rp1611
a(lp1612
(lp1613
g4
(g5
g6
Vsports
p1614
tp1615
Rp1616
atp1617
a(S'dreeves1'
p1618
(lp1619
(lp1620
(lp1621
(lp1622
g4
(g5
g6
Vtechnology
p1623
tp1624
Rp1625
atp1626
a(S'ddlovato'
p1627
(lp1628
(lp1629
(lp1630
(lp1631
g4
(g5
g6
Ventertainment
p1632
tp1633
Rp1634
atp1635
a(S'kaifulee'
p1636
(lp1637
(lp1638
(lp1639
(lp1640
g4
(g5
g6
Vtechnology
p1641
tp1642
Rp1643
ag4
(g5
g6
Vbusiness
p1644
tp1645
Rp1646
atp1647
a(S'jadande'
p1648
(lp1649
(lp1650
g4
(g5
g6
Vsan-francisco-usa
p1651
tp1652
Rp1653
a(lp1654
(lp1655
g4
(g5
g6
Vsports
p1656
tp1657
Rp1658
atp1659
a(S'DennyMdotcom'
p1660
(lp1661
(lp1662
(lp1663
(lp1664
g4
(g5
g6
Vsports
p1665
tp1666
Rp1667
atp1668
a(S'CabinetSL'
p1669
(lp1670
(lp1671
(lp1672
(lp1673
g4
(g5
g6
Vpolitics
p1674
tp1675
Rp1676
atp1677
a(S'gov'
p1678
(lp1679
(lp1680
(lp1681
(lp1682
g4
(g5
g6
Vpolitics
p1683
tp1684
Rp1685
atp1686
a(S'SocialGrow'
p1687
(lp1688
g4
(g5
g6
Vboston-usa
p1689
tp1690
Rp1691
a(lp1692
(lp1693
g4
(g5
g6
Vboston-usa
p1694
tp1695
Rp1696
a(lp1697
g4
(g5
g6
Vbusiness
p1698
tp1699
Rp1700
atp1701
a(S'JimBouldenCNN'
p1702
(lp1703
(lp1704
(lp1705
g4
(g5
g6
Vlondon-uk
p1706
tp1707
Rp1708
a(lp1709
g4
(g5
g6
Vbusiness
p1710
tp1711
Rp1712
atp1713
a(S'BreakingWeb'
p1714
(lp1715
(lp1716
(lp1717
(lp1718
g4
(g5
g6
Vtechnology
p1719
tp1720
Rp1721
atp1722
a(S'RepAdamSmith'
p1723
(lp1724
(lp1725
g4
(g5
g6
Vsan-francisco-usa
p1726
tp1727
Rp1728
ag4
(g5
g6
Vnew-york-usa
p1729
tp1730
Rp1731
ag4
(g5
g6
Vboston-usa
p1732
tp1733
Rp1734
a(lp1735
(lp1736
g4
(g5
g6
Vpolitics
p1737
tp1738
Rp1739
atp1740
a(S'verge'
p1741
(lp1742
g4
(g5
g6
Vmumbai-india
p1743
tp1744
Rp1745
a(lp1746
(lp1747
(lp1748
g4
(g5
g6
Vtechnology
p1749
tp1750
Rp1751
atp1752
a(S'SenMarkPryor'
p1753
(lp1754
(lp1755
g4
(g5
g6
Vsan-francisco-usa
p1756
tp1757
Rp1758
ag4
(g5
g6
Vnew-york-usa
p1759
tp1760
Rp1761
ag4
(g5
g6
Vboston-usa
p1762
tp1763
Rp1764
a(lp1765
(lp1766
g4
(g5
g6
Vpolitics
p1767
tp1768
Rp1769
atp1770
a(S'CurtisErickson'
p1771
(lp1772
(lp1773
(lp1774
(lp1775
g4
(g5
g6
Vbusiness
p1776
tp1777
Rp1778
atp1779
a(S'xanalter'
p1780
(lp1781
(lp1782
(lp1783
(lp1784
g4
(g5
g6
Ventertainment
p1785
tp1786
Rp1787
atp1788
a(S'SteveScalise'
p1789
(lp1790
(lp1791
g4
(g5
g6
Vsan-francisco-usa
p1792
tp1793
Rp1794
ag4
(g5
g6
Vnew-york-usa
p1795
tp1796
Rp1797
ag4
(g5
g6
Vboston-usa
p1798
tp1799
Rp1800
a(lp1801
(lp1802
g4
(g5
g6
Vpolitics
p1803
tp1804
Rp1805
atp1806
a(S'CNNWBT'
p1807
(lp1808
(lp1809
(lp1810
g4
(g5
g6
Vbangalore-india
p1811
tp1812
Rp1813
a(lp1814
g4
(g5
g6
Vbusiness
p1815
tp1816
Rp1817
atp1818
a(S'SenAngusKing'
p1819
(lp1820
(lp1821
g4
(g5
g6
Vsan-francisco-usa
p1822
tp1823
Rp1824
ag4
(g5
g6
Vnew-york-usa
p1825
tp1826
Rp1827
ag4
(g5
g6
Vboston-usa
p1828
tp1829
Rp1830
a(lp1831
(lp1832
g4
(g5
g6
Vpolitics
p1833
tp1834
Rp1835
atp1836
a(S'krisallenband'
p1837
(lp1838
g4
(g5
g6
Vnew-york-usa
p1839
tp1840
Rp1841
a(lp1842
(lp1843
(lp1844
g4
(g5
g6
Ventertainment
p1845
tp1846
Rp1847
atp1848
a(S'cupalwaysfull'
p1849
(lp1850
(lp1851
g4
(g5
g6
Vbangalore-india
p1852
tp1853
Rp1854
ag4
(g5
g6
Vmumbai-india
p1855
tp1856
Rp1857
a(lp1858
g4
(g5
g6
Vmumbai-india
p1859
tp1860
Rp1861
a(lp1862
g4
(g5
g6
Ventertainment
p1863
tp1864
Rp1865
atp1866
a(S'KaranMohla'
p1867
(lp1868
(lp1869
(lp1870
(lp1871
g4
(g5
g6
Vtechnology
p1872
tp1873
Rp1874
ag4
(g5
g6
Vbusiness
p1875
tp1876
Rp1877
atp1878
a(S'NATOlibrary'
p1879
(lp1880
g4
(g5
g6
Vlondon-uk
p1881
tp1882
Rp1883
a(lp1884
(lp1885
(lp1886
g4
(g5
g6
Vpolitics
p1887
tp1888
Rp1889
atp1890
a(S'NatalieAbrams'
p1891
(lp1892
(lp1893
(lp1894
g4
(g5
g6
Vsan-francisco-usa
p1895
tp1896
Rp1897
a(lp1898
g4
(g5
g6
Ventertainment
p1899
tp1900
Rp1901
atp1902
a(S'kategilescnn'
p1903
(lp1904
(lp1905
(lp1906
(lp1907
g4
(g5
g6
Vsports
p1908
tp1909
Rp1910
atp1911
a(S'ESPNLosAngeles'
p1912
(lp1913
g4
(g5
g6
Vsan-francisco-usa
p1914
tp1915
Rp1916
a(lp1917
g4
(g5
g6
Vsan-francisco-usa
p1918
tp1919
Rp1920
a(lp1921
g4
(g5
g6
Vsan-francisco-usa
p1922
tp1923
Rp1924
a(lp1925
g4
(g5
g6
Vsports
p1926
tp1927
Rp1928
atp1929
a(S'romanscharf'
p1930
(lp1931
g4
(g5
g6
Vsan-francisco-usa
p1932
tp1933
Rp1934
a(lp1935
(lp1936
g4
(g5
g6
Vsan-francisco-usa
p1937
tp1938
Rp1939
a(lp1940
g4
(g5
g6
Vtechnology
p1941
tp1942
Rp1943
ag4
(g5
g6
Vbusiness
p1944
tp1945
Rp1946
atp1947
a(S'jtimberlake'
p1948
(lp1949
(lp1950
(lp1951
(lp1952
g4
(g5
g6
Ventertainment
p1953
tp1954
Rp1955
atp1956
a(S'BaltimoreCFO'
p1957
(lp1958
g4
(g5
g6
Vnew-york-usa
p1959
tp1960
Rp1961
a(lp1962
(lp1963
g4
(g5
g6
Vnew-york-usa
p1964
tp1965
Rp1966
a(lp1967
g4
(g5
g6
Vbusiness
p1968
tp1969
Rp1970
atp1971
a(S'IAmSteveHarvey'
p1972
(lp1973
(lp1974
(lp1975
(lp1976
g4
(g5
g6
Ventertainment
p1977
tp1978
Rp1979
atp1980
a(S'AffiliateMgt'
p1981
(lp1982
g4
(g5
g6
Vnew-york-usa
p1983
tp1984
Rp1985
a(lp1986
(lp1987
(lp1988
g4
(g5
g6
Vbusiness
p1989
tp1990
Rp1991
atp1992
a(S'nickconfessore'
p1993
(lp1994
(lp1995
(lp1996
(lp1997
g4
(g5
g6
Vpolitics
p1998
tp1999
Rp2000
atp2001
a(S'shinyoung_park'
p2002
(lp2003
(lp2004
(lp2005
g4
(g5
g6
Vsan-francisco-usa
p2006
tp2007
Rp2008
a(lp2009
g4
(g5
g6
Vtechnology
p2010
tp2011
Rp2012
ag4
(g5
g6
Vbusiness
p2013
tp2014
Rp2015
atp2016
a(S'Arubin'
p2017
(lp2018
(lp2019
(lp2020
g4
(g5
g6
Vsan-francisco-usa
p2021
tp2022
Rp2023
a(lp2024
g4
(g5
g6
Vtechnology
p2025
tp2026
Rp2027
ag4
(g5
g6
Vbusiness
p2028
tp2029
Rp2030
atp2031
a(S'NdamukongSuh'
p2032
(lp2033
g4
(g5
g6
Vnew-york-usa
p2034
tp2035
Rp2036
a(lp2037
(lp2038
(lp2039
g4
(g5
g6
Vsports
p2040
tp2041
Rp2042
atp2043
a(S'bwreedbgr'
p2044
(lp2045
(lp2046
(lp2047
(lp2048
g4
(g5
g6
Vtechnology
p2049
tp2050
Rp2051
atp2052
a(S'richardquest'
p2053
(lp2054
g4
(g5
g6
Vnew-york-usa
p2055
tp2056
Rp2057
a(lp2058
(lp2059
(lp2060
g4
(g5
g6
Vbusiness
p2061
tp2062
Rp2063
atp2064
a(S'akstanwyck'
p2065
(lp2066
(lp2067
(lp2068
(lp2069
g4
(g5
g6
Ventertainment
p2070
tp2071
Rp2072
atp2073
a(S'NapolitanoWSJ'
p2074
(lp2075
(lp2076
(lp2077
g4
(g5
g6
Vbangalore-india
p2078
tp2079
Rp2080
a(lp2081
g4
(g5
g6
Ventertainment
p2082
tp2083
Rp2084
atp2085
a(S'EHolmesWSJ'
p2086
(lp2087
(lp2088
(lp2089
g4
(g5
g6
Vnew-york-usa
p2090
tp2091
Rp2092
a(lp2093
g4
(g5
g6
Vbusiness
p2094
tp2095
Rp2096
ag4
(g5
g6
Ventertainment
p2097
tp2098
Rp2099
atp2100
a(S'goldiehawn'
p2101
(lp2102
(lp2103
(lp2104
(lp2105
g4
(g5
g6
Ventertainment
p2106
tp2107
Rp2108
atp2109
a(S'BusinessDesk'
p2110
(lp2111
(lp2112
(lp2113
g4
(g5
g6
Vlondon-uk
p2114
tp2115
Rp2116
a(lp2117
g4
(g5
g6
Vbusiness
p2118
tp2119
Rp2120
atp2121
a(S'SVB_India'
p2122
(lp2123
(lp2124
(lp2125
g4
(g5
g6
Vmumbai-india
p2126
tp2127
Rp2128
a(lp2129
g4
(g5
g6
Vtechnology
p2130
tp2131
Rp2132
ag4
(g5
g6
Vbusiness
p2133
tp2134
Rp2135
atp2136
a(S'Registaan'
p2137
(lp2138
(lp2139
g4
(g5
g6
Vbangalore-india
p2140
tp2141
Rp2142
ag4
(g5
g6
Vmumbai-india
p2143
tp2144
Rp2145
a(lp2146
(lp2147
g4
(g5
g6
Ventertainment
p2148
tp2149
Rp2150
atp2151
a(S'WSJLife'
p2152
(lp2153
(lp2154
(lp2155
g4
(g5
g6
Vnew-york-usa
p2156
tp2157
Rp2158
a(lp2159
g4
(g5
g6
Ventertainment
p2160
tp2161
Rp2162
atp2163
a(S'FutureBoy'
p2164
(lp2165
g4
(g5
g6
Vsan-francisco-usa
p2166
tp2167
Rp2168
a(lp2169
(lp2170
g4
(g5
g6
Vlondon-uk
p2171
tp2172
Rp2173
a(lp2174
g4
(g5
g6
Vtechnology
p2175
tp2176
Rp2177
atp2178
a(S'radusuma'
p2179
(lp2180
(lp2181
(lp2182
(lp2183
g4
(g5
g6
Vtechnology
p2184
tp2185
Rp2186
ag4
(g5
g6
Vbusiness
p2187
tp2188
Rp2189
atp2190
a(S'CharlesHodsnCNN'
p2191
(lp2192
(lp2193
(lp2194
g4
(g5
g6
Vlondon-uk
p2195
tp2196
Rp2197
a(lp2198
g4
(g5
g6
Vbusiness
p2199
tp2200
Rp2201
atp2202
a(S'coreyboles'
p2203
(lp2204
(lp2205
(lp2206
(lp2207
g4
(g5
g6
Vpolitics
p2208
tp2209
Rp2210
atp2211
a(S'BobKellyAbreu'
p2212
(lp2213
(lp2214
g4
(g5
g6
Vsan-francisco-usa
p2215
tp2216
Rp2217
ag4
(g5
g6
Vnew-york-usa
p2218
tp2219
Rp2220
ag4
(g5
g6
Vboston-usa
p2221
tp2222
Rp2223
a(lp2224
(lp2225
g4
(g5
g6
Vsports
p2226
tp2227
Rp2228
atp2229
a(S'stuwoo'
p2230
(lp2231
(lp2232
(lp2233
g4
(g5
g6
Vnew-york-usa
p2234
tp2235
Rp2236
a(lp2237
g4
(g5
g6
Vsports
p2238
tp2239
Rp2240
atp2241
a(S'CNNGlobalEx'
p2242
(lp2243
(lp2244
(lp2245
(lp2246
g4
(g5
g6
Vbusiness
p2247
tp2248
Rp2249
atp2250
a(S'kevinrose'
p2251
(lp2252
(lp2253
(lp2254
g4
(g5
g6
Vsan-francisco-usa
p2255
tp2256
Rp2257
a(lp2258
g4
(g5
g6
Vtechnology
p2259
tp2260
Rp2261
atp2262
a(S'BradZiegler'
p2263
(lp2264
g4
(g5
g6
Vbangalore-india
p2265
tp2266
Rp2267
a(lp2268
g4
(g5
g6
Vsan-francisco-usa
p2269
tp2270
Rp2271
ag4
(g5
g6
Vnew-york-usa
p2272
tp2273
Rp2274
ag4
(g5
g6
Vboston-usa
p2275
tp2276
Rp2277
a(lp2278
(lp2279
g4
(g5
g6
Vsports
p2280
tp2281
Rp2282
atp2283
a(S'SAPresident'
p2284
(lp2285
(lp2286
(lp2287
(lp2288
g4
(g5
g6
Vpolitics
p2289
tp2290
Rp2291
atp2292
a(S'GeoffAaron'
p2293
(lp2294
(lp2295
(lp2296
(lp2297
g4
(g5
g6
Vsports
p2298
tp2299
Rp2300
atp2301
a(S'TheRahulMahajan'
p2302
(lp2303
(lp2304
g4
(g5
g6
Vbangalore-india
p2305
tp2306
Rp2307
ag4
(g5
g6
Vmumbai-india
p2308
tp2309
Rp2310
a(lp2311
g4
(g5
g6
Vmumbai-india
p2312
tp2313
Rp2314
a(lp2315
g4
(g5
g6
Ventertainment
p2316
tp2317
Rp2318
atp2319
a(S'qubecell'
p2320
(lp2321
(lp2322
(lp2323
(lp2324
g4
(g5
g6
Vtechnology
p2325
tp2326
Rp2327
ag4
(g5
g6
Vbusiness
p2328
tp2329
Rp2330
atp2331
a(S'KAKA'
p2332
(lp2333
(lp2334
g4
(g5
g6
Vsan-francisco-usa
p2335
tp2336
Rp2337
ag4
(g5
g6
Vnew-york-usa
p2338
tp2339
Rp2340
ag4
(g5
g6
Vlondon-uk
p2341
tp2342
Rp2343
ag4
(g5
g6
Vboston-usa
p2344
tp2345
Rp2346
a(lp2347
(lp2348
g4
(g5
g6
Vsports
p2349
tp2350
Rp2351
atp2352
a(S'charlesrotblut'
p2353
(lp2354
(lp2355
(lp2356
(lp2357
g4
(g5
g6
Vbusiness
p2358
tp2359
Rp2360
atp2361
a(S'AlecMacGillis'
p2362
(lp2363
(lp2364
(lp2365
(lp2366
g4
(g5
g6
Vpolitics
p2367
tp2368
Rp2369
atp2370
a(S'limeroadcom'
p2371
(lp2372
(lp2373
(lp2374
(lp2375
g4
(g5
g6
Vtechnology
p2376
tp2377
Rp2378
ag4
(g5
g6
Vbusiness
p2379
tp2380
Rp2381
atp2382
a(S'AccelIndiaVC'
p2383
(lp2384
(lp2385
(lp2386
(lp2387
g4
(g5
g6
Vtechnology
p2388
tp2389
Rp2390
ag4
(g5
g6
Vbusiness
p2391
tp2392
Rp2393
atp2394
a(S'Sortable'
p2395
(lp2396
(lp2397
g4
(g5
g6
Vnew-york-usa
p2398
tp2399
Rp2400
a(lp2401
(lp2402
g4
(g5
g6
Vtechnology
p2403
tp2404
Rp2405
atp2406
a(S'KevinClarkWSJ'
p2407
(lp2408
g4
(g5
g6
Vnew-york-usa
p2409
tp2410
Rp2411
a(lp2412
(lp2413
g4
(g5
g6
Vnew-york-usa
p2414
tp2415
Rp2416
a(lp2417
g4
(g5
g6
Vsports
p2418
tp2419
Rp2420
atp2421
a(S'IreneCNN'
p2422
(lp2423
(lp2424
(lp2425
g4
(g5
g6
Vlondon-uk
p2426
tp2427
Rp2428
a(lp2429
g4
(g5
g6
Vbusiness
p2430
tp2431
Rp2432
atp2433
a(S'kashhill'
p2434
(lp2435
(lp2436
(lp2437
g4
(g5
g6
Vsan-francisco-usa
p2438
tp2439
Rp2440
a(lp2441
g4
(g5
g6
Vbusiness
p2442
tp2443
Rp2444
atp2445
a(S'RHCJO'
p2446
(lp2447
(lp2448
(lp2449
(lp2450
g4
(g5
g6
Vpolitics
p2451
tp2452
Rp2453
atp2454
a(S'KimNewsome'
p2455
(lp2456
(lp2457
(lp2458
g4
(g5
g6
Vnew-york-usa
p2459
tp2460
Rp2461
a(lp2462
g4
(g5
g6
Vsports
p2463
tp2464
Rp2465
atp2466
a(S'willmauldin'
p2467
(lp2468
(lp2469
(lp2470
(lp2471
g4
(g5
g6
Vpolitics
p2472
tp2473
Rp2474
atp2475
a(S'_suhasidhami'
p2476
(lp2477
(lp2478
g4
(g5
g6
Vbangalore-india
p2479
tp2480
Rp2481
ag4
(g5
g6
Vmumbai-india
p2482
tp2483
Rp2484
a(lp2485
(lp2486
g4
(g5
g6
Ventertainment
p2487
tp2488
Rp2489
atp2490
a(S'kimbalabs'
p2491
(lp2492
(lp2493
g4
(g5
g6
Vsan-francisco-usa
p2494
tp2495
Rp2496
a(lp2497
g4
(g5
g6
Vsan-francisco-usa
p2498
tp2499
Rp2500
a(lp2501
g4
(g5
g6
Vtechnology
p2502
tp2503
Rp2504
atp2505
a(S'Ronny_Turiaf'
p2506
(lp2507
(lp2508
g4
(g5
g6
Vsan-francisco-usa
p2509
tp2510
Rp2511
ag4
(g5
g6
Vnew-york-usa
p2512
tp2513
Rp2514
ag4
(g5
g6
Vboston-usa
p2515
tp2516
Rp2517
a(lp2518
(lp2519
g4
(g5
g6
Vsports
p2520
tp2521
Rp2522
atp2523
a(S'BridgetCarey'
p2524
(lp2525
(lp2526
(lp2527
g4
(g5
g6
Vnew-york-usa
p2528
tp2529
Rp2530
a(lp2531
g4
(g5
g6
Vtechnology
p2532
tp2533
Rp2534
atp2535
a(S'jimchair'
p2536
(lp2537
(lp2538
(lp2539
(lp2540
g4
(g5
g6
Vsports
p2541
tp2542
Rp2543
atp2544
a(S'RyanSauers'
p2545
(lp2546
(lp2547
(lp2548
g4
(g5
g6
Vnew-york-usa
p2549
tp2550
Rp2551
a(lp2552
g4
(g5
g6
Vbusiness
p2553
tp2554
Rp2555
atp2556
a(S'dougkwarner'
p2557
(lp2558
(lp2559
(lp2560
(lp2561
g4
(g5
g6
Vtechnology
p2562
tp2563
Rp2564
ag4
(g5
g6
Vbusiness
p2565
tp2566
Rp2567
atp2568
a(S'swissteam'
p2569
(lp2570
(lp2571
(lp2572
(lp2573
g4
(g5
g6
Vsports
p2574
tp2575
Rp2576
atp2577
a(S'BeckyQuick'
p2578
(lp2579
(lp2580
(lp2581
(lp2582
g4
(g5
g6
Vbusiness
p2583
tp2584
Rp2585
atp2586
a(S'WHLive'
p2587
(lp2588
(lp2589
(lp2590
(lp2591
g4
(g5
g6
Vpolitics
p2592
tp2593
Rp2594
atp2595
a(S'davidhawkings'
p2596
(lp2597
(lp2598
g4
(g5
g6
Vsan-francisco-usa
p2599
tp2600
Rp2601
ag4
(g5
g6
Vnew-york-usa
p2602
tp2603
Rp2604
ag4
(g5
g6
Vboston-usa
p2605
tp2606
Rp2607
a(lp2608
(lp2609
g4
(g5
g6
Vpolitics
p2610
tp2611
Rp2612
atp2613
a(S'foodspotting'
p2614
(lp2615
g4
(g5
g6
Vnew-york-usa
p2616
tp2617
Rp2618
a(lp2619
g4
(g5
g6
Vnew-york-usa
p2620
tp2621
Rp2622
a(lp2623
(lp2624
g4
(g5
g6
Vtechnology
p2625
tp2626
Rp2627
atp2628
a(S'BloombergView'
p2629
(lp2630
(lp2631
(lp2632
g4
(g5
g6
Vnew-york-usa
p2633
tp2634
Rp2635
a(lp2636
g4
(g5
g6
Vpolitics
p2637
tp2638
Rp2639
atp2640
a(S'expensify'
p2641
(lp2642
(lp2643
g4
(g5
g6
Vsan-francisco-usa
p2644
tp2645
Rp2646
a(lp2647
g4
(g5
g6
Vsan-francisco-usa
p2648
tp2649
Rp2650
a(lp2651
g4
(g5
g6
Vtechnology
p2652
tp2653
Rp2654
atp2655
a(S'ronnyejones'
p2656
(lp2657
g4
(g5
g6
Vnew-york-usa
p2658
tp2659
Rp2660
a(lp2661
(lp2662
(lp2663
g4
(g5
g6
Vtechnology
p2664
tp2665
Rp2666
ag4
(g5
g6
Vbusiness
p2667
tp2668
Rp2669
atp2670
a(S'murraymatt'
p2671
(lp2672
(lp2673
(lp2674
g4
(g5
g6
Vnew-york-usa
p2675
tp2676
Rp2677
a(lp2678
g4
(g5
g6
Vbusiness
p2679
tp2680
Rp2681
atp2682
a(S'titojackson5'
p2683
(lp2684
(lp2685
(lp2686
(lp2687
g4
(g5
g6
Ventertainment
p2688
tp2689
Rp2690
atp2691
a(S'WSJmarkets'
p2692
(lp2693
(lp2694
(lp2695
g4
(g5
g6
Vnew-york-usa
p2696
tp2697
Rp2698
a(lp2699
g4
(g5
g6
Vbusiness
p2700
tp2701
Rp2702
atp2703
a(S'DanBarbarisi'
p2704
(lp2705
(lp2706
(lp2707
g4
(g5
g6
Vnew-york-usa
p2708
tp2709
Rp2710
a(lp2711
g4
(g5
g6
Vsports
p2712
tp2713
Rp2714
atp2715
a(S'businessnews'
p2716
(lp2717
(lp2718
(lp2719
(lp2720
g4
(g5
g6
Vbusiness
p2721
tp2722
Rp2723
atp2724
a(S'BachusAL06'
p2725
(lp2726
g4
(g5
g6
Vnew-york-usa
p2727
tp2728
Rp2729
a(lp2730
g4
(g5
g6
Vsan-francisco-usa
p2731
tp2732
Rp2733
ag4
(g5
g6
Vnew-york-usa
p2734
tp2735
Rp2736
ag4
(g5
g6
Vboston-usa
p2737
tp2738
Rp2739
a(lp2740
(lp2741
g4
(g5
g6
Vpolitics
p2742
tp2743
Rp2744
atp2745
a(S'B_Wagner'
p2746
(lp2747
g4
(g5
g6
Vboston-usa
p2748
tp2749
Rp2750
a(lp2751
(lp2752
g4
(g5
g6
Vboston-usa
p2753
tp2754
Rp2755
a(lp2756
g4
(g5
g6
Vbusiness
p2757
tp2758
Rp2759
atp2760
a(S'VeniceMase'
p2761
(lp2762
(lp2763
g4
(g5
g6
Vsan-francisco-usa
p2764
tp2765
Rp2766
a(lp2767
(lp2768
g4
(g5
g6
Vsports
p2769
tp2770
Rp2771
atp2772
a(S'scottylago'
p2773
(lp2774
(lp2775
(lp2776
(lp2777
g4
(g5
g6
Vsports
p2778
tp2779
Rp2780
atp2781
a(S'PandoDaily'
p2782
(lp2783
(lp2784
(lp2785
g4
(g5
g6
Vsan-francisco-usa
p2786
tp2787
Rp2788
a(lp2789
g4
(g5
g6
Vtechnology
p2790
tp2791
Rp2792
atp2793
a(S'PSBJ_Tech'
p2794
(lp2795
(lp2796
(lp2797
(lp2798
g4
(g5
g6
Vtechnology
p2799
tp2800
Rp2801
atp2802
a(S'LAIreland'
p2803
(lp2804
g4
(g5
g6
Vsan-francisco-usa
p2805
tp2806
Rp2807
a(lp2808
g4
(g5
g6
Vsan-francisco-usa
p2809
tp2810
Rp2811
a(lp2812
g4
(g5
g6
Vsan-francisco-usa
p2813
tp2814
Rp2815
a(lp2816
g4
(g5
g6
Vsports
p2817
tp2818
Rp2819
atp2820
a(S'EdwardNorton'
p2821
(lp2822
(lp2823
(lp2824
g4
(g5
g6
Vnew-york-usa
p2825
tp2826
Rp2827
a(lp2828
g4
(g5
g6
Ventertainment
p2829
tp2830
Rp2831
atp2832
a(S'IvankaTrump'
p2833
(lp2834
(lp2835
(lp2836
g4
(g5
g6
Vnew-york-usa
p2837
tp2838
Rp2839
a(lp2840
g4
(g5
g6
Vbusiness
p2841
tp2842
Rp2843
ag4
(g5
g6
Ventertainment
p2844
tp2845
Rp2846
atp2847
a(S'YahooBDL'
p2848
(lp2849
(lp2850
(lp2851
(lp2852
g4
(g5
g6
Vsports
p2853
tp2854
Rp2855
atp2856
a(S'JoyLinFN'
p2857
(lp2858
(lp2859
(lp2860
(lp2861
g4
(g5
g6
Vpolitics
p2862
tp2863
Rp2864
atp2865
a(S'MGortat'
p2866
(lp2867
(lp2868
g4
(g5
g6
Vsan-francisco-usa
p2869
tp2870
Rp2871
ag4
(g5
g6
Vnew-york-usa
p2872
tp2873
Rp2874
ag4
(g5
g6
Vboston-usa
p2875
tp2876
Rp2877
a(lp2878
(lp2879
g4
(g5
g6
Vsports
p2880
tp2881
Rp2882
atp2883
a(S'manbearwolf'
p2884
(lp2885
g4
(g5
g6
Vlondon-uk
p2886
tp2887
Rp2888
a(lp2889
g4
(g5
g6
Vsan-francisco-usa
p2890
tp2891
Rp2892
ag4
(g5
g6
Vnew-york-usa
p2893
tp2894
Rp2895
ag4
(g5
g6
Vboston-usa
p2896
tp2897
Rp2898
a(lp2899
(lp2900
g4
(g5
g6
Vsports
p2901
tp2902
Rp2903
atp2904
a(S'JohnPaczkowski'
p2905
(lp2906
(lp2907
(lp2908
(lp2909
g4
(g5
g6
Vtechnology
p2910
tp2911
Rp2912
atp2913
a(S'HHShkMohd'
p2914
(lp2915
(lp2916
(lp2917
(lp2918
g4
(g5
g6
Vpolitics
p2919
tp2920
Rp2921
atp2922
a(S'reidcherlin'
p2923
(lp2924
(lp2925
(lp2926
(lp2927
g4
(g5
g6
Vpolitics
p2928
tp2929
Rp2930
atp2931
a(S'gigabarb'
p2932
(lp2933
(lp2934
(lp2935
g4
(g5
g6
Vboston-usa
p2936
tp2937
Rp2938
a(lp2939
g4
(g5
g6
Vtechnology
p2940
tp2941
Rp2942
atp2943
a(S'brkend'
p2944
(lp2945
(lp2946
(lp2947
(lp2948
g4
(g5
g6
Vpolitics
p2949
tp2950
Rp2951
atp2952
a(S'WSJarts'
p2953
(lp2954
(lp2955
(lp2956
g4
(g5
g6
Vnew-york-usa
p2957
tp2958
Rp2959
a(lp2960
g4
(g5
g6
Ventertainment
p2961
tp2962
Rp2963
atp2964
a(S'PeakePoetics'
p2965
(lp2966
(lp2967
(lp2968
g4
(g5
g6
Vlondon-uk
p2969
tp2970
Rp2971
a(lp2972
g4
(g5
g6
Vtechnology
p2973
tp2974
Rp2975
ag4
(g5
g6
Vbusiness
p2976
tp2977
Rp2978
atp2979
a(S'robbierogers'
p2980
(lp2981
(lp2982
g4
(g5
g6
Vsan-francisco-usa
p2983
tp2984
Rp2985
ag4
(g5
g6
Vnew-york-usa
p2986
tp2987
Rp2988
ag4
(g5
g6
Vlondon-uk
p2989
tp2990
Rp2991
ag4
(g5
g6
Vboston-usa
p2992
tp2993
Rp2994
a(lp2995
(lp2996
g4
(g5
g6
Vsports
p2997
tp2998
Rp2999
atp3000
a(S'AndreaBargnani'
p3001
(lp3002
g4
(g5
g6
Vnew-york-usa
p3003
tp3004
Rp3005
a(lp3006
g4
(g5
g6
Vsan-francisco-usa
p3007
tp3008
Rp3009
ag4
(g5
g6
Vnew-york-usa
p3010
tp3011
Rp3012
ag4
(g5
g6
Vboston-usa
p3013
tp3014
Rp3015
a(lp3016
(lp3017
g4
(g5
g6
Vsports
p3018
tp3019
Rp3020
atp3021
a(S'RepCheri'
p3022
(lp3023
g4
(g5
g6
Vnew-york-usa
p3024
tp3025
Rp3026
a(lp3027
g4
(g5
g6
Vsan-francisco-usa
p3028
tp3029
Rp3030
ag4
(g5
g6
Vnew-york-usa
p3031
tp3032
Rp3033
ag4
(g5
g6
Vboston-usa
p3034
tp3035
Rp3036
a(lp3037
(lp3038
g4
(g5
g6
Vpolitics
p3039
tp3040
Rp3041
atp3042
a(S'RobLowe'
p3043
(lp3044
g4
(g5
g6
Vsan-francisco-usa
p3045
tp3046
Rp3047
a(lp3048
(lp3049
g4
(g5
g6
Vsan-francisco-usa
p3050
tp3051
Rp3052
a(lp3053
g4
(g5
g6
Ventertainment
p3054
tp3055
Rp3056
atp3057
a(S'ChicMeetsGeek'
p3058
(lp3059
g4
(g5
g6
Vsan-francisco-usa
p3060
tp3061
Rp3062
a(lp3063
(lp3064
g4
(g5
g6
Vsan-francisco-usa
p3065
tp3066
Rp3067
a(lp3068
g4
(g5
g6
Vtechnology
p3069
tp3070
Rp3071
atp3072
a(S'JustinArmsden9'
p3073
(lp3074
(lp3075
(lp3076
(lp3077
g4
(g5
g6
Vsports
p3078
tp3079
Rp3080
atp3081
a(S'NdosSantosCNN'
p3082
(lp3083
(lp3084
(lp3085
g4
(g5
g6
Vlondon-uk
p3086
tp3087
Rp3088
a(lp3089
g4
(g5
g6
Vbusiness
p3090
tp3091
Rp3092
atp3093
a(S'SocialFlow'
p3094
(lp3095
(lp3096
g4
(g5
g6
Vnew-york-usa
p3097
tp3098
Rp3099
a(lp3100
g4
(g5
g6
Vnew-york-usa
p3101
tp3102
Rp3103
a(lp3104
g4
(g5
g6
Vtechnology
p3105
tp3106
Rp3107
atp3108
a(S'letsventurein'
p3109
(lp3110
(lp3111
(lp3112
g4
(g5
g6
Vbangalore-india
p3113
tp3114
Rp3115
a(lp3116
g4
(g5
g6
Vtechnology
p3117
tp3118
Rp3119
ag4
(g5
g6
Vbusiness
p3120
tp3121
Rp3122
atp3123
a(S'ramansundar'
p3124
(lp3125
(lp3126
g4
(g5
g6
Vbangalore-india
p3127
tp3128
Rp3129
ag4
(g5
g6
Vmumbai-india
p3130
tp3131
Rp3132
a(lp3133
(lp3134
g4
(g5
g6
Vsports
p3135
tp3136
Rp3137
atp3138
a(S'gabrielspitz'
p3139
(lp3140
g4
(g5
g6
Vnew-york-usa
p3141
tp3142
Rp3143
a(lp3144
(lp3145
(lp3146
g4
(g5
g6
Vtechnology
p3147
tp3148
Rp3149
ag4
(g5
g6
Vbusiness
p3150
tp3151
Rp3152
atp3153
a(S'LarsLuv'
p3154
(lp3155
(lp3156
(lp3157
g4
(g5
g6
Vsan-francisco-usa
p3158
tp3159
Rp3160
a(lp3161
g4
(g5
g6
Vtechnology
p3162
tp3163
Rp3164
ag4
(g5
g6
Vbusiness
p3165
tp3166
Rp3167
atp3168
a(S'rosariodawson'
p3169
(lp3170
g4
(g5
g6
Vnew-york-usa
p3171
tp3172
Rp3173
a(lp3174
(lp3175
(lp3176
g4
(g5
g6
Vpolitics
p3177
tp3178
Rp3179
atp3180
a(S'secure_cloud'
p3181
(lp3182
(lp3183
(lp3184
(lp3185
g4
(g5
g6
Vtechnology
p3186
tp3187
Rp3188
atp3189
a(S'businessinsider'
p3190
(lp3191
(lp3192
(lp3193
g4
(g5
g6
Vnew-york-usa
p3194
tp3195
Rp3196
a(lp3197
g4
(g5
g6
Vbusiness
p3198
tp3199
Rp3200
atp3201
a(S'timseymour'
p3202
(lp3203
(lp3204
(lp3205
g4
(g5
g6
Vnew-york-usa
p3206
tp3207
Rp3208
a(lp3209
g4
(g5
g6
Vbusiness
p3210
tp3211
Rp3212
atp3213
a(S'AugmentedReal'
p3214
(lp3215
(lp3216
(lp3217
(lp3218
g4
(g5
g6
Vtechnology
p3219
tp3220
Rp3221
atp3222
a(S'lizstephen'
p3223
(lp3224
(lp3225
(lp3226
(lp3227
g4
(g5
g6
Vsports
p3228
tp3229
Rp3230
atp3231
a(S'c11ro'
p3232
(lp3233
(lp3234
g4
(g5
g6
Vsan-francisco-usa
p3235
tp3236
Rp3237
ag4
(g5
g6
Vnew-york-usa
p3238
tp3239
Rp3240
ag4
(g5
g6
Vlondon-uk
p3241
tp3242
Rp3243
ag4
(g5
g6
Vboston-usa
p3244
tp3245
Rp3246
a(lp3247
(lp3248
g4
(g5
g6
Vsports
p3249
tp3250
Rp3251
atp3252
a(S'KristinCav'
p3253
(lp3254
(lp3255
(lp3256
(lp3257
g4
(g5
g6
Ventertainment
p3258
tp3259
Rp3260
atp3261
a(S'SI_ENewman'
p3262
(lp3263
g4
(g5
g6
Vnew-york-usa
p3264
tp3265
Rp3266
a(lp3267
(lp3268
g4
(g5
g6
Vnew-york-usa
p3269
tp3270
Rp3271
a(lp3272
g4
(g5
g6
Vsports
p3273
tp3274
Rp3275
atp3276
a(S'MarketSleddogg'
p3277
(lp3278
g4
(g5
g6
Vsan-francisco-usa
p3279
tp3280
Rp3281
a(lp3282
(lp3283
(lp3284
g4
(g5
g6
Vbusiness
p3285
tp3286
Rp3287
atp3288
a(S'Adweek'
p3289
(lp3290
g4
(g5
g6
Vnew-york-usa
p3291
tp3292
Rp3293
a(lp3294
(lp3295
g4
(g5
g6
Vnew-york-usa
p3296
tp3297
Rp3298
a(lp3299
g4
(g5
g6
Vbusiness
p3300
tp3301
Rp3302
atp3303
a(S'ConanOBrien'
p3304
(lp3305
g4
(g5
g6
Vsan-francisco-usa
p3306
tp3307
Rp3308
a(lp3309
(lp3310
g4
(g5
g6
Vsan-francisco-usa
p3311
tp3312
Rp3313
a(lp3314
g4
(g5
g6
Ventertainment
p3315
tp3316
Rp3317
atp3318
a(S'puneetmehtanyc'
p3319
(lp3320
(lp3321
(lp3322
g4
(g5
g6
Vnew-york-usa
p3323
tp3324
Rp3325
a(lp3326
g4
(g5
g6
Vtechnology
p3327
tp3328
Rp3329
ag4
(g5
g6
Vbusiness
p3330
tp3331
Rp3332
atp3333
a(S'BillSimmons'
p3334
(lp3335
(lp3336
(lp3337
g4
(g5
g6
Vboston-usa
p3338
tp3339
Rp3340
a(lp3341
g4
(g5
g6
Vsports
p3342
tp3343
Rp3344
atp3345
a(S'SamWalkers'
p3346
(lp3347
(lp3348
(lp3349
(lp3350
g4
(g5
g6
Vsports
p3351
tp3352
Rp3353
atp3354
a(S'Matt_Barnes22'
p3355
(lp3356
(lp3357
g4
(g5
g6
Vsan-francisco-usa
p3358
tp3359
Rp3360
ag4
(g5
g6
Vnew-york-usa
p3361
tp3362
Rp3363
ag4
(g5
g6
Vboston-usa
p3364
tp3365
Rp3366
a(lp3367
(lp3368
g4
(g5
g6
Vsports
p3369
tp3370
Rp3371
atp3372
a(S'RepDonaldPayne'
p3373
(lp3374
(lp3375
g4
(g5
g6
Vsan-francisco-usa
p3376
tp3377
Rp3378
ag4
(g5
g6
Vnew-york-usa
p3379
tp3380
Rp3381
ag4
(g5
g6
Vboston-usa
p3382
tp3383
Rp3384
a(lp3385
(lp3386
g4
(g5
g6
Vpolitics
p3387
tp3388
Rp3389
atp3390
a(S'IamAmirJohnson'
p3391
(lp3392
(lp3393
g4
(g5
g6
Vsan-francisco-usa
p3394
tp3395
Rp3396
ag4
(g5
g6
Vnew-york-usa
p3397
tp3398
Rp3399
ag4
(g5
g6
Vboston-usa
p3400
tp3401
Rp3402
a(lp3403
(lp3404
g4
(g5
g6
Vsports
p3405
tp3406
Rp3407
atp3408
a(S'RepKirkpatrick'
p3409
(lp3410
g4
(g5
g6
Vsan-francisco-usa
p3411
tp3412
Rp3413
a(lp3414
g4
(g5
g6
Vsan-francisco-usa
p3415
tp3416
Rp3417
ag4
(g5
g6
Vnew-york-usa
p3418
tp3419
Rp3420
ag4
(g5
g6
Vboston-usa
p3421
tp3422
Rp3423
a(lp3424
(lp3425
g4
(g5
g6
Vpolitics
p3426
tp3427
Rp3428
atp3429
a(S'geneliad'
p3430
(lp3431
(lp3432
(lp3433
(lp3434
g4
(g5
g6
Ventertainment
p3435
tp3436
Rp3437
atp3438
a(S'ForsythJenn'
p3439
(lp3440
(lp3441
(lp3442
(lp3443
g4
(g5
g6
Vbusiness
p3444
tp3445
Rp3446
atp3447
a(S'alexthomascnn'
p3448
(lp3449
(lp3450
(lp3451
g4
(g5
g6
Vlondon-uk
p3452
tp3453
Rp3454
a(lp3455
g4
(g5
g6
Vsports
p3456
tp3457
Rp3458
atp3459
a(S'ESPNJoeyMac'
p3460
(lp3461
(lp3462
g4
(g5
g6
Vboston-usa
p3463
tp3464
Rp3465
a(lp3466
g4
(g5
g6
Vboston-usa
p3467
tp3468
Rp3469
a(lp3470
g4
(g5
g6
Vsports
p3471
tp3472
Rp3473
atp3474
a(S'BenFolds'
p3475
(lp3476
(lp3477
(lp3478
(lp3479
g4
(g5
g6
Ventertainment
p3480
tp3481
Rp3482
atp3483
a(S'terryteachout'
p3484
(lp3485
g4
(g5
g6
Vnew-york-usa
p3486
tp3487
Rp3488
a(lp3489
(lp3490
g4
(g5
g6
Vnew-york-usa
p3491
tp3492
Rp3493
a(lp3494
g4
(g5
g6
Ventertainment
p3495
tp3496
Rp3497
atp3498
a(S'forstall'
p3499
(lp3500
g4
(g5
g6
Vsan-francisco-usa
p3501
tp3502
Rp3503
a(lp3504
(lp3505
g4
(g5
g6
Vsan-francisco-usa
p3506
tp3507
Rp3508
a(lp3509
g4
(g5
g6
Vtechnology
p3510
tp3511
Rp3512
ag4
(g5
g6
Vbusiness
p3513
tp3514
Rp3515
atp3516
a(S'mckaycnn'
p3517
(lp3518
(lp3519
(lp3520
g4
(g5
g6
Vnew-york-usa
p3521
tp3522
Rp3523
a(lp3524
g4
(g5
g6
Vsports
p3525
tp3526
Rp3527
atp3528
a(S'john_gotts'
p3529
(lp3530
(lp3531
(lp3532
(lp3533
g4
(g5
g6
Vtechnology
p3534
tp3535
Rp3536
ag4
(g5
g6
Vbusiness
p3537
tp3538
Rp3539
atp3540
a(S'MelissaAttias'
p3541
(lp3542
(lp3543
g4
(g5
g6
Vsan-francisco-usa
p3544
tp3545
Rp3546
ag4
(g5
g6
Vnew-york-usa
p3547
tp3548
Rp3549
ag4
(g5
g6
Vboston-usa
p3550
tp3551
Rp3552
a(lp3553
(lp3554
g4
(g5
g6
Vpolitics
p3555
tp3556
Rp3557
atp3558
a(S'jrpsaki'
p3559
(lp3560
(lp3561
(lp3562
(lp3563
g4
(g5
g6
Vpolitics
p3564
tp3565
Rp3566
atp3567
a(S'StacyKeibler'
p3568
(lp3569
g4
(g5
g6
Vsan-francisco-usa
p3570
tp3571
Rp3572
a(lp3573
(lp3574
g4
(g5
g6
Vsan-francisco-usa
p3575
tp3576
Rp3577
a(lp3578
g4
(g5
g6
Ventertainment
p3579
tp3580
Rp3581
atp3582
a(S'TopicfireNews'
p3583
(lp3584
g4
(g5
g6
Vsan-francisco-usa
p3585
tp3586
Rp3587
a(lp3588
(lp3589
g4
(g5
g6
Vsan-francisco-usa
p3590
tp3591
Rp3592
a(lp3593
g4
(g5
g6
Vtechnology
p3594
tp3595
Rp3596
atp3597
a(S'majornelson'
p3598
(lp3599
(lp3600
(lp3601
(lp3602
g4
(g5
g6
Vtechnology
p3603
tp3604
Rp3605
atp3606
a(S'SeungheeSuh'
p3607
(lp3608
(lp3609
(lp3610
g4
(g5
g6
Vnew-york-usa
p3611
tp3612
Rp3613
a(lp3614
g4
(g5
g6
Ventertainment
p3615
tp3616
Rp3617
atp3618
a(S'drubytcio'
p3619
(lp3620
g4
(g5
g6
Vnew-york-usa
p3621
tp3622
Rp3623
a(lp3624
(lp3625
(lp3626
g4
(g5
g6
Vtechnology
p3627
tp3628
Rp3629
ag4
(g5
g6
Vbusiness
p3630
tp3631
Rp3632
atp3633
a(S'JDefteriosCNN'
p3634
(lp3635
(lp3636
(lp3637
(lp3638
g4
(g5
g6
Vbusiness
p3639
tp3640
Rp3641
atp3642
a(S'BillCassidy'
p3643
(lp3644
g4
(g5
g6
Vnew-york-usa
p3645
tp3646
Rp3647
a(lp3648
g4
(g5
g6
Vsan-francisco-usa
p3649
tp3650
Rp3651
ag4
(g5
g6
Vnew-york-usa
p3652
tp3653
Rp3654
ag4
(g5
g6
Vboston-usa
p3655
tp3656
Rp3657
a(lp3658
(lp3659
g4
(g5
g6
Vpolitics
p3660
tp3661
Rp3662
atp3663
a(S'JBCMKTR'
p3664
(lp3665
(lp3666
(lp3667
g4
(g5
g6
Vnew-york-usa
p3668
tp3669
Rp3670
a(lp3671
g4
(g5
g6
Vbusiness
p3672
tp3673
Rp3674
atp3675
a(S'barbarachai'
p3676
(lp3677
(lp3678
(lp3679
g4
(g5
g6
Vnew-york-usa
p3680
tp3681
Rp3682
a(lp3683
g4
(g5
g6
Ventertainment
p3684
tp3685
Rp3686
atp3687
a(S'aqualungmusic'
p3688
(lp3689
g4
(g5
g6
Vsan-francisco-usa
p3690
tp3691
Rp3692
a(lp3693
(lp3694
g4
(g5
g6
Vsan-francisco-usa
p3695
tp3696
Rp3697
a(lp3698
g4
(g5
g6
Ventertainment
p3699
tp3700
Rp3701
atp3702
a(S'itspetergabriel'
p3703
(lp3704
g4
(g5
g6
Vlondon-uk
p3705
tp3706
Rp3707
a(lp3708
(lp3709
g4
(g5
g6
Vlondon-uk
p3710
tp3711
Rp3712
a(lp3713
g4
(g5
g6
Ventertainment
p3714
tp3715
Rp3716
atp3717
a(S'iamsrk'
p3718
(lp3719
(lp3720
(lp3721
(lp3722
g4
(g5
g6
Ventertainment
p3723
tp3724
Rp3725
atp3726
a(S'EdwardLuce'
p3727
(lp3728
(lp3729
(lp3730
(lp3731
g4
(g5
g6
Vbusiness
p3732
tp3733
Rp3734
atp3735
a(S'CraigyFerg'
p3736
(lp3737
(lp3738
(lp3739
(lp3740
g4
(g5
g6
Ventertainment
p3741
tp3742
Rp3743
atp3744
a(S'prodweek'
p3745
(lp3746
(lp3747
(lp3748
(lp3749
g4
(g5
g6
Ventertainment
p3750
tp3751
Rp3752
atp3753
a(S'InfoGrok'
p3754
(lp3755
(lp3756
(lp3757
g4
(g5
g6
Vlondon-uk
p3758
tp3759
Rp3760
a(lp3761
g4
(g5
g6
Vbusiness
p3762
tp3763
Rp3764
atp3765
a(S'SenatorFischer'
p3766
(lp3767
(lp3768
g4
(g5
g6
Vsan-francisco-usa
p3769
tp3770
Rp3771
ag4
(g5
g6
Vnew-york-usa
p3772
tp3773
Rp3774
ag4
(g5
g6
Vboston-usa
p3775
tp3776
Rp3777
a(lp3778
(lp3779
g4
(g5
g6
Vpolitics
p3780
tp3781
Rp3782
atp3783
a(S'ESPNForsberg'
p3784
(lp3785
g4
(g5
g6
Vboston-usa
p3786
tp3787
Rp3788
a(lp3789
g4
(g5
g6
Vboston-usa
p3790
tp3791
Rp3792
a(lp3793
g4
(g5
g6
Vboston-usa
p3794
tp3795
Rp3796
a(lp3797
g4
(g5
g6
Vsports
p3798
tp3799
Rp3800
atp3801
a(S'Servant_Leaders'
p3802
(lp3803
(lp3804
(lp3805
g4
(g5
g6
Vsan-francisco-usa
p3806
tp3807
Rp3808
a(lp3809
g4
(g5
g6
Vbusiness
p3810
tp3811
Rp3812
atp3813
a(S'catherinedavis1'
p3814
(lp3815
g4
(g5
g6
Vnew-york-usa
p3816
tp3817
Rp3818
a(lp3819
(lp3820
g4
(g5
g6
Vnew-york-usa
p3821
tp3822
Rp3823
a(lp3824
g4
(g5
g6
Vbusiness
p3825
tp3826
Rp3827
atp3828
a(S'YouTubePolitics'
p3829
(lp3830
(lp3831
(lp3832
(lp3833
g4
(g5
g6
Vpolitics
p3834
tp3835
Rp3836
atp3837
a(S'PrimeMinistry'
p3838
(lp3839
(lp3840
(lp3841
(lp3842
g4
(g5
g6
Vpolitics
p3843
tp3844
Rp3845
atp3846
a(S'AndrewShortMX29'
p3847
(lp3848
g4
(g5
g6
Vnew-york-usa
p3849
tp3850
Rp3851
a(lp3852
(lp3853
(lp3854
g4
(g5
g6
Vsports
p3855
tp3856
Rp3857
atp3858
a(S'IurieLeanca'
p3859
(lp3860
(lp3861
(lp3862
(lp3863
g4
(g5
g6
Vpolitics
p3864
tp3865
Rp3866
atp3867
a(S'ewoyke'
p3868
(lp3869
(lp3870
(lp3871
g4
(g5
g6
Vnew-york-usa
p3872
tp3873
Rp3874
a(lp3875
g4
(g5
g6
Vtechnology
p3876
tp3877
Rp3878
atp3879
a(S'RecruiterCTO'
p3880
(lp3881
(lp3882
(lp3883
(lp3884
g4
(g5
g6
Vtechnology
p3885
tp3886
Rp3887
ag4
(g5
g6
Vbusiness
p3888
tp3889
Rp3890
atp3891
a(S'CNezzy'
p3892
(lp3893
(lp3894
(lp3895
(lp3896
g4
(g5
g6
Vsports
p3897
tp3898
Rp3899
atp3900
a(S'EricMorath'
p3901
(lp3902
(lp3903
(lp3904
(lp3905
g4
(g5
g6
Vbusiness
p3906
tp3907
Rp3908
atp3909
a(S'loic'
p3910
(lp3911
(lp3912
(lp3913
g4
(g5
g6
Vsan-francisco-usa
p3914
tp3915
Rp3916
a(lp3917
g4
(g5
g6
Vtechnology
p3918
tp3919
Rp3920
atp3921
a(S'KAzubuike7'
p3922
(lp3923
(lp3924
g4
(g5
g6
Vsan-francisco-usa
p3925
tp3926
Rp3927
ag4
(g5
g6
Vnew-york-usa
p3928
tp3929
Rp3930
ag4
(g5
g6
Vboston-usa
p3931
tp3932
Rp3933
a(lp3934
(lp3935
g4
(g5
g6
Vsports
p3936
tp3937
Rp3938
atp3939
a(S'BloombergNews'
p3940
(lp3941
(lp3942
(lp3943
g4
(g5
g6
Vnew-york-usa
p3944
tp3945
Rp3946
a(lp3947
g4
(g5
g6
Vbusiness
p3948
tp3949
Rp3950
atp3951
a(S'thekillers'
p3952
(lp3953
(lp3954
(lp3955
(lp3956
g4
(g5
g6
Ventertainment
p3957
tp3958
Rp3959
atp3960
a(S'ms_mktg'
p3961
(lp3962
(lp3963
(lp3964
(lp3965
g4
(g5
g6
Vbusiness
p3966
tp3967
Rp3968
atp3969
a(S'Rep_Hunter'
p3970
(lp3971
(lp3972
g4
(g5
g6
Vsan-francisco-usa
p3973
tp3974
Rp3975
ag4
(g5
g6
Vnew-york-usa
p3976
tp3977
Rp3978
ag4
(g5
g6
Vboston-usa
p3979
tp3980
Rp3981
a(lp3982
(lp3983
g4
(g5
g6
Vpolitics
p3984
tp3985
Rp3986
atp3987
a(S'Recode'
p3988
(lp3989
(lp3990
(lp3991
g4
(g5
g6
Vsan-francisco-usa
p3992
tp3993
Rp3994
a(lp3995
g4
(g5
g6
Vtechnology
p3996
tp3997
Rp3998
atp3999
a(S'yext'
p4000
(lp4001
g4
(g5
g6
Vnew-york-usa
p4002
tp4003
Rp4004
a(lp4005
g4
(g5
g6
Vnew-york-usa
p4006
tp4007
Rp4008
a(lp4009
g4
(g5
g6
Vnew-york-usa
p4010
tp4011
Rp4012
a(lp4013
g4
(g5
g6
Vtechnology
p4014
tp4015
Rp4016
atp4017
a(S'aliciamundy'
p4018
(lp4019
g4
(g5
g6
Vnew-york-usa
p4020
tp4021
Rp4022
a(lp4023
(lp4024
(lp4025
g4
(g5
g6
Vpolitics
p4026
tp4027
Rp4028
atp4029
a(S'500India'
p4030
(lp4031
(lp4032
(lp4033
(lp4034
g4
(g5
g6
Vtechnology
p4035
tp4036
Rp4037
ag4
(g5
g6
Vbusiness
p4038
tp4039
Rp4040
atp4041
a(S'YahooSportNCAAF'
p4042
(lp4043
g4
(g5
g6
Vsan-francisco-usa
p4044
tp4045
Rp4046
a(lp4047
(lp4048
g4
(g5
g6
Vsan-francisco-usa
p4049
tp4050
Rp4051
a(lp4052
g4
(g5
g6
Vsports
p4053
tp4054
Rp4055
atp4056
a(S'gregbretzz'
p4057
(lp4058
g4
(g5
g6
Vnew-york-usa
p4059
tp4060
Rp4061
a(lp4062
(lp4063
(lp4064
g4
(g5
g6
Vsports
p4065
tp4066
Rp4067
atp4068
a(S'SanDiegoCFO'
p4069
(lp4070
g4
(g5
g6
Vsan-francisco-usa
p4071
tp4072
Rp4073
a(lp4074
(lp4075
(lp4076
g4
(g5
g6
Vbusiness
p4077
tp4078
Rp4079
atp4080
a(S'ericneel'
p4081
(lp4082
(lp4083
g4
(g5
g6
Vsan-francisco-usa
p4084
tp4085
Rp4086
a(lp4087
(lp4088
g4
(g5
g6
Vsports
p4089
tp4090
Rp4091
atp4092
a(S'SmallBizCPA'
p4093
(lp4094
(lp4095
(lp4096
(lp4097
g4
(g5
g6
Vbusiness
p4098
tp4099
Rp4100
atp4101
a(S'robjective'
p4102
(lp4103
(lp4104
(lp4105
g4
(g5
g6
Vsan-francisco-usa
p4106
tp4107
Rp4108
a(lp4109
g4
(g5
g6
Vtechnology
p4110
tp4111
Rp4112
ag4
(g5
g6
Vbusiness
p4113
tp4114
Rp4115
atp4116
a(S'EW'
p4117
(lp4118
(lp4119
(lp4120
g4
(g5
g6
Vnew-york-usa
p4121
tp4122
Rp4123
a(lp4124
g4
(g5
g6
Ventertainment
p4125
tp4126
Rp4127
atp4128
a(S'BenWyattCNN'
p4129
(lp4130
(lp4131
(lp4132
g4
(g5
g6
Vlondon-uk
p4133
tp4134
Rp4135
a(lp4136
g4
(g5
g6
Vsports
p4137
tp4138
Rp4139
atp4140
a(S'nextstop'
p4141
(lp4142
(lp4143
g4
(g5
g6
Vsan-francisco-usa
p4144
tp4145
Rp4146
a(lp4147
g4
(g5
g6
Vsan-francisco-usa
p4148
tp4149
Rp4150
a(lp4151
g4
(g5
g6
Vtechnology
p4152
tp4153
Rp4154
atp4155
a(S'mattholliday7'
p4156
(lp4157
(lp4158
g4
(g5
g6
Vsan-francisco-usa
p4159
tp4160
Rp4161
ag4
(g5
g6
Vnew-york-usa
p4162
tp4163
Rp4164
ag4
(g5
g6
Vboston-usa
p4165
tp4166
Rp4167
a(lp4168
(lp4169
g4
(g5
g6
Vsports
p4170
tp4171
Rp4172
atp4173
a(S'DanAldridge1'
p4174
(lp4175
g4
(g5
g6
Vnew-york-usa
p4176
tp4177
Rp4178
a(lp4179
(lp4180
g4
(g5
g6
Vsan-francisco-usa
p4181
tp4182
Rp4183
ag4
(g5
g6
Vnew-york-usa
p4184
tp4185
Rp4186
ag4
(g5
g6
Vboston-usa
p4187
tp4188
Rp4189
a(lp4190
g4
(g5
g6
Vtechnology
p4191
tp4192
Rp4193
ag4
(g5
g6
Vbusiness
p4194
tp4195
Rp4196
atp4197
a(S'bzcohen'
p4198
(lp4199
(lp4200
(lp4201
g4
(g5
g6
Vnew-york-usa
p4202
tp4203
Rp4204
a(lp4205
g4
(g5
g6
Vsports
p4206
tp4207
Rp4208
atp4209
a(S'VivianDsena06'
p4210
(lp4211
(lp4212
g4
(g5
g6
Vbangalore-india
p4213
tp4214
Rp4215
ag4
(g5
g6
Vmumbai-india
p4216
tp4217
Rp4218
a(lp4219
g4
(g5
g6
Vmumbai-india
p4220
tp4221
Rp4222
a(lp4223
g4
(g5
g6
Ventertainment
p4224
tp4225
Rp4226
atp4227
a(S'brikeilarcnn'
p4228
(lp4229
(lp4230
(lp4231
(lp4232
g4
(g5
g6
Vpolitics
p4233
tp4234
Rp4235
atp4236
a(S'GCGodfrey'
p4237
(lp4238
(lp4239
(lp4240
g4
(g5
g6
Vlondon-uk
p4241
tp4242
Rp4243
a(lp4244
g4
(g5
g6
Vbusiness
p4245
tp4246
Rp4247
atp4248
a(S'Joba_44'
p4249
(lp4250
(lp4251
g4
(g5
g6
Vsan-francisco-usa
p4252
tp4253
Rp4254
ag4
(g5
g6
Vnew-york-usa
p4255
tp4256
Rp4257
ag4
(g5
g6
Vboston-usa
p4258
tp4259
Rp4260
a(lp4261
(lp4262
g4
(g5
g6
Vsports
p4263
tp4264
Rp4265
atp4266
a(S'PressLift'
p4267
(lp4268
g4
(g5
g6
Vnew-york-usa
p4269
tp4270
Rp4271
a(lp4272
g4
(g5
g6
Vnew-york-usa
p4273
tp4274
Rp4275
a(lp4276
g4
(g5
g6
Vnew-york-usa
p4277
tp4278
Rp4279
a(lp4280
g4
(g5
g6
Vtechnology
p4281
tp4282
Rp4283
atp4284
a(S'ScottMAustin'
p4285
(lp4286
(lp4287
(lp4288
g4
(g5
g6
Vnew-york-usa
p4289
tp4290
Rp4291
a(lp4292
g4
(g5
g6
Vtechnology
p4293
tp4294
Rp4295
atp4296
a(S'PJCrowley'
p4297
(lp4298
(lp4299
(lp4300
(lp4301
g4
(g5
g6
Vpolitics
p4302
tp4303
Rp4304
atp4305
a(S'johndmckinnon'
p4306
(lp4307
(lp4308
(lp4309
(lp4310
g4
(g5
g6
Vpolitics
p4311
tp4312
Rp4313
atp4314
a(S'CNBC'
p4315
(lp4316
(lp4317
(lp4318
(lp4319
g4
(g5
g6
Vtechnology
p4320
tp4321
Rp4322
atp4323
a(S'YOYOGRA'
p4324
(lp4325
(lp4326
(lp4327
(lp4328
g4
(g5
g6
Vtechnology
p4329
tp4330
Rp4331
ag4
(g5
g6
Vbusiness
p4332
tp4333
Rp4334
atp4335
a(S'youngwhiteside'
p4336
(lp4337
(lp4338
g4
(g5
g6
Vsan-francisco-usa
p4339
tp4340
Rp4341
ag4
(g5
g6
Vnew-york-usa
p4342
tp4343
Rp4344
ag4
(g5
g6
Vboston-usa
p4345
tp4346
Rp4347
a(lp4348
(lp4349
g4
(g5
g6
Vsports
p4350
tp4351
Rp4352
atp4353
a(S'susankellogg'
p4354
(lp4355
(lp4356
(lp4357
(lp4358
g4
(g5
g6
Vtechnology
p4359
tp4360
Rp4361
ag4
(g5
g6
Vbusiness
p4362
tp4363
Rp4364
atp4365
a(S'TurntableLive'
p4366
(lp4367
g4
(g5
g6
Vnew-york-usa
p4368
tp4369
Rp4370
a(lp4371
g4
(g5
g6
Vnew-york-usa
p4372
tp4373
Rp4374
a(lp4375
g4
(g5
g6
Vnew-york-usa
p4376
tp4377
Rp4378
a(lp4379
g4
(g5
g6
Vtechnology
p4380
tp4381
Rp4382
atp4383
a(S'ShaliniWSJ'
p4384
(lp4385
g4
(g5
g6
Vnew-york-usa
p4386
tp4387
Rp4388
a(lp4389
(lp4390
g4
(g5
g6
Vnew-york-usa
p4391
tp4392
Rp4393
a(lp4394
g4
(g5
g6
Vtechnology
p4395
tp4396
Rp4397
atp4398
a(S'MonarchieBe'
p4399
(lp4400
g4
(g5
g6
Vlondon-uk
p4401
tp4402
Rp4403
a(lp4404
(lp4405
(lp4406
g4
(g5
g6
Vpolitics
p4407
tp4408
Rp4409
atp4410
a(S'donal888'
p4411
(lp4412
(lp4413
(lp4414
g4
(g5
g6
Vsan-francisco-usa
p4415
tp4416
Rp4417
a(lp4418
g4
(g5
g6
Vtechnology
p4419
tp4420
Rp4421
atp4422
a(S'NukeGold'
p4423
(lp4424
(lp4425
(lp4426
(lp4427
g4
(g5
g6
Vtechnology
p4428
tp4429
Rp4430
ag4
(g5
g6
Vbusiness
p4431
tp4432
Rp4433
atp4434
a(S'JohnAByrne'
p4435
(lp4436
(lp4437
(lp4438
(lp4439
g4
(g5
g6
Vbusiness
p4440
tp4441
Rp4442
atp4443
a(S'cheald'
p4444
(lp4445
g4
(g5
g6
Vsan-francisco-usa
p4446
tp4447
Rp4448
a(lp4449
(lp4450
(lp4451
g4
(g5
g6
Vtechnology
p4452
tp4453
Rp4454
atp4455
a(S'PiaCatton'
p4456
(lp4457
(lp4458
(lp4459
g4
(g5
g6
Vnew-york-usa
p4460
tp4461
Rp4462
a(lp4463
g4
(g5
g6
Ventertainment
p4464
tp4465
Rp4466
atp4467
a(S'bigleaguestew'
p4468
(lp4469
g4
(g5
g6
Vnew-york-usa
p4470
tp4471
Rp4472
a(lp4473
(lp4474
(lp4475
g4
(g5
g6
Vsports
p4476
tp4477
Rp4478
atp4479
a(S'HerringWSJ'
p4480
(lp4481
(lp4482
(lp4483
g4
(g5
g6
Vnew-york-usa
p4484
tp4485
Rp4486
a(lp4487
g4
(g5
g6
Vsports
p4488
tp4489
Rp4490
atp4491
a(S'espn'
p4492
(lp4493
(lp4494
(lp4495
(lp4496
g4
(g5
g6
Vsports
p4497
tp4498
Rp4499
atp4500
a(S'pingfm'
p4501
(lp4502
(lp4503
g4
(g5
g6
Vsan-francisco-usa
p4504
tp4505
Rp4506
a(lp4507
g4
(g5
g6
Vsan-francisco-usa
p4508
tp4509
Rp4510
a(lp4511
g4
(g5
g6
Vtechnology
p4512
tp4513
Rp4514
atp4515
a(S'ritholtz'
p4516
(lp4517
g4
(g5
g6
Vnew-york-usa
p4518
tp4519
Rp4520
a(lp4521
(lp4522
g4
(g5
g6
Vnew-york-usa
p4523
tp4524
Rp4525
a(lp4526
g4
(g5
g6
Vbusiness
p4527
tp4528
Rp4529
atp4530
a(S'IstanaRakyat'
p4531
(lp4532
g4
(g5
g6
Vbangalore-india
p4533
tp4534
Rp4535
a(lp4536
(lp4537
(lp4538
g4
(g5
g6
Vpolitics
p4539
tp4540
Rp4541
atp4542
a(S'TiredPony'
p4543
(lp4544
(lp4545
(lp4546
(lp4547
g4
(g5
g6
Ventertainment
p4548
tp4549
Rp4550
atp4551
a(S'amywinehouse'
p4552
(lp4553
(lp4554
(lp4555
g4
(g5
g6
Vlondon-uk
p4556
tp4557
Rp4558
a(lp4559
g4
(g5
g6
Ventertainment
p4560
tp4561
Rp4562
atp4563
a(S'91springboard'
p4564
(lp4565
(lp4566
(lp4567
g4
(g5
g6
Vmumbai-india
p4568
tp4569
Rp4570
a(lp4571
g4
(g5
g6
Vtechnology
p4572
tp4573
Rp4574
ag4
(g5
g6
Vbusiness
p4575
tp4576
Rp4577
atp4578
a(S'MichelleObama'
p4579
(lp4580
(lp4581
(lp4582
(lp4583
g4
(g5
g6
Vpolitics
p4584
tp4585
Rp4586
atp4587
a(S'vkhosla'
p4588
(lp4589
(lp4590
(lp4591
(lp4592
g4
(g5
g6
Vtechnology
p4593
tp4594
Rp4595
atp4596
a(S'daiwaka'
p4597
(lp4598
(lp4599
(lp4600
g4
(g5
g6
Vsan-francisco-usa
p4601
tp4602
Rp4603
a(lp4604
g4
(g5
g6
Vtechnology
p4605
tp4606
Rp4607
atp4608
a(S'dwaynederosario'
p4609
(lp4610
g4
(g5
g6
Vnew-york-usa
p4611
tp4612
Rp4613
a(lp4614
g4
(g5
g6
Vsan-francisco-usa
p4615
tp4616
Rp4617
ag4
(g5
g6
Vnew-york-usa
p4618
tp4619
Rp4620
ag4
(g5
g6
Vlondon-uk
p4621
tp4622
Rp4623
ag4
(g5
g6
Vboston-usa
p4624
tp4625
Rp4626
a(lp4627
(lp4628
g4
(g5
g6
Vsports
p4629
tp4630
Rp4631
atp4632
a(S'YahooCagewriter'
p4633
(lp4634
g4
(g5
g6
Vnew-york-usa
p4635
tp4636
Rp4637
a(lp4638
(lp4639
(lp4640
g4
(g5
g6
Vsports
p4641
tp4642
Rp4643
atp4644
a(S'GuyKawasaki'
p4645
(lp4646
(lp4647
(lp4648
g4
(g5
g6
Vsan-francisco-usa
p4649
tp4650
Rp4651
a(lp4652
g4
(g5
g6
Vtechnology
p4653
tp4654
Rp4655
atp4656
a(S'GQPolitics'
p4657
(lp4658
(lp4659
(lp4660
(lp4661
g4
(g5
g6
Vpolitics
p4662
tp4663
Rp4664
atp4665
a(S'Evan3Longoria'
p4666
(lp4667
g4
(g5
g6
Vnew-york-usa
p4668
tp4669
Rp4670
a(lp4671
g4
(g5
g6
Vsan-francisco-usa
p4672
tp4673
Rp4674
ag4
(g5
g6
Vnew-york-usa
p4675
tp4676
Rp4677
ag4
(g5
g6
Vboston-usa
p4678
tp4679
Rp4680
a(lp4681
(lp4682
g4
(g5
g6
Vsports
p4683
tp4684
Rp4685
atp4686
a(S'CarlyforCA'
p4687
(lp4688
(lp4689
(lp4690
g4
(g5
g6
Vsan-francisco-usa
p4691
tp4692
Rp4693
a(lp4694
g4
(g5
g6
Vpolitics
p4695
tp4696
Rp4697
atp4698
a(S'JoshLevs'
p4699
(lp4700
(lp4701
(lp4702
(lp4703
g4
(g5
g6
Vtechnology
p4704
tp4705
Rp4706
atp4707
a(S'followforeman'
p4708
(lp4709
g4
(g5
g6
Vnew-york-usa
p4710
tp4711
Rp4712
a(lp4713
(lp4714
(lp4715
g4
(g5
g6
Vtechnology
p4716
tp4717
Rp4718
ag4
(g5
g6
Vbusiness
p4719
tp4720
Rp4721
atp4722
a(S'briancushing56'
p4723
(lp4724
g4
(g5
g6
Vnew-york-usa
p4725
tp4726
Rp4727
a(lp4728
(lp4729
g4
(g5
g6
Vnew-york-usa
p4730
tp4731
Rp4732
a(lp4733
g4
(g5
g6
Vsports
p4734
tp4735
Rp4736
atp4737
a(S'AleBedoya17'
p4738
(lp4739
(lp4740
g4
(g5
g6
Vsan-francisco-usa
p4741
tp4742
Rp4743
ag4
(g5
g6
Vnew-york-usa
p4744
tp4745
Rp4746
ag4
(g5
g6
Vlondon-uk
p4747
tp4748
Rp4749
ag4
(g5
g6
Vboston-usa
p4750
tp4751
Rp4752
a(lp4753
g4
(g5
g6
Vnew-york-usa
p4754
tp4755
Rp4756
a(lp4757
g4
(g5
g6
Vsports
p4758
tp4759
Rp4760
atp4761
a(S'CarrieFFisher'
p4762
(lp4763
g4
(g5
g6
Vnew-york-usa
p4764
tp4765
Rp4766
a(lp4767
(lp4768
g4
(g5
g6
Vsan-francisco-usa
p4769
tp4770
Rp4771
a(lp4772
g4
(g5
g6
Ventertainment
p4773
tp4774
Rp4775
atp4776
a(S'kikkanimal'
p4777
(lp4778
(lp4779
(lp4780
(lp4781
g4
(g5
g6
Vsports
p4782
tp4783
Rp4784
atp4785
a(S'JimWoolwine'
p4786
(lp4787
(lp4788
(lp4789
(lp4790
g4
(g5
g6
Vbusiness
p4791
tp4792
Rp4793
atp4794
a(S'SrijanCapital'
p4795
(lp4796
(lp4797
(lp4798
g4
(g5
g6
Vbangalore-india
p4799
tp4800
Rp4801
a(lp4802
g4
(g5
g6
Vtechnology
p4803
tp4804
Rp4805
ag4
(g5
g6
Vbusiness
p4806
tp4807
Rp4808
atp4809
a(S'KatieS'
p4810
(lp4811
(lp4812
(lp4813
(lp4814
g4
(g5
g6
Vtechnology
p4815
tp4816
Rp4817
atp4818
a(S'Jason'
p4819
(lp4820
(lp4821
(lp4822
(lp4823
g4
(g5
g6
Vtechnology
p4824
tp4825
Rp4826
atp4827
a(S'Classical'
p4828
(lp4829
(lp4830
(lp4831
(lp4832
g4
(g5
g6
Vsports
p4833
tp4834
Rp4835
atp4836
a(S'nmasidlover'
p4837
(lp4838
g4
(g5
g6
Vlondon-uk
p4839
tp4840
Rp4841
a(lp4842
(lp4843
(lp4844
g4
(g5
g6
Ventertainment
p4845
tp4846
Rp4847
atp4848
a(S'QueenNoor'
p4849
(lp4850
g4
(g5
g6
Vsan-francisco-usa
p4851
tp4852
Rp4853
a(lp4854
(lp4855
(lp4856
g4
(g5
g6
Vpolitics
p4857
tp4858
Rp4859
atp4860
a(S'kristina_oneill'
p4861
(lp4862
g4
(g5
g6
Vnew-york-usa
p4863
tp4864
Rp4865
a(lp4866
(lp4867
g4
(g5
g6
Vnew-york-usa
p4868
tp4869
Rp4870
a(lp4871
g4
(g5
g6
Ventertainment
p4872
tp4873
Rp4874
atp4875
a(S'geoffreyfowler'
p4876
(lp4877
(lp4878
(lp4879
g4
(g5
g6
Vsan-francisco-usa
p4880
tp4881
Rp4882
a(lp4883
g4
(g5
g6
Vtechnology
p4884
tp4885
Rp4886
atp4887
a(S'Bachscore'
p4888
(lp4889
(lp4890
(lp4891
g4
(g5
g6
Vnew-york-usa
p4892
tp4893
Rp4894
a(lp4895
g4
(g5
g6
Vsports
p4896
tp4897
Rp4898
atp4899
a(S'ericschmidt'
p4900
(lp4901
(lp4902
(lp4903
g4
(g5
g6
Vsan-francisco-usa
p4904
tp4905
Rp4906
a(lp4907
g4
(g5
g6
Vtechnology
p4908
tp4909
Rp4910
ag4
(g5
g6
Vbusiness
p4911
tp4912
Rp4913
atp4914
a(S'sst2001'
p4915
(lp4916
(lp4917
(lp4918
(lp4919
g4
(g5
g6
Vtechnology
p4920
tp4921
Rp4922
ag4
(g5
g6
Vbusiness
p4923
tp4924
Rp4925
atp4926
a(S'eliclemens'
p4927
(lp4928
(lp4929
(lp4930
(lp4931
g4
(g5
g6
Vbusiness
p4932
tp4933
Rp4934
atp4935
a(S'WSJspeakeasy'
p4936
(lp4937
g4
(g5
g6
Vnew-york-usa
p4938
tp4939
Rp4940
a(lp4941
(lp4942
g4
(g5
g6
Vsan-francisco-usa
p4943
tp4944
Rp4945
a(lp4946
g4
(g5
g6
Ventertainment
p4947
tp4948
Rp4949
atp4950
a(S'plancast'
p4951
(lp4952
(lp4953
g4
(g5
g6
Vsan-francisco-usa
p4954
tp4955
Rp4956
a(lp4957
g4
(g5
g6
Vsan-francisco-usa
p4958
tp4959
Rp4960
a(lp4961
g4
(g5
g6
Vtechnology
p4962
tp4963
Rp4964
atp4965
a(S'ahamzawi'
p4966
(lp4967
g4
(g5
g6
Vlondon-uk
p4968
tp4969
Rp4970
a(lp4971
(lp4972
g4
(g5
g6
Vlondon-uk
p4973
tp4974
Rp4975
a(lp4976
g4
(g5
g6
Vtechnology
p4977
tp4978
Rp4979
ag4
(g5
g6
Vbusiness
p4980
tp4981
Rp4982
atp4983
a(S'RepJBridenstine'
p4984
(lp4985
(lp4986
g4
(g5
g6
Vsan-francisco-usa
p4987
tp4988
Rp4989
ag4
(g5
g6
Vnew-york-usa
p4990
tp4991
Rp4992
ag4
(g5
g6
Vboston-usa
p4993
tp4994
Rp4995
a(lp4996
(lp4997
g4
(g5
g6
Vpolitics
p4998
tp4999
Rp5000
atp5001
a(S'susanmernit'
p5002
(lp5003
g4
(g5
g6
Vsan-francisco-usa
p5004
tp5005
Rp5006
a(lp5007
(lp5008
(lp5009
g4
(g5
g6
Vtechnology
p5010
tp5011
Rp5012
atp5013
a(S'jkrim'
p5014
(lp5015
(lp5016
(lp5017
g4
(g5
g6
Vsan-francisco-usa
p5018
tp5019
Rp5020
a(lp5021
g4
(g5
g6
Vtechnology
p5022
tp5023
Rp5024
atp5025
a(S'caydeeandjeremy'
p5026
(lp5027
(lp5028
(lp5029
(lp5030
g4
(g5
g6
Vsports
p5031
tp5032
Rp5033
atp5034
a(S'CleggJon'
p5035
(lp5036
(lp5037
(lp5038
g4
(g5
g6
Vnew-york-usa
p5039
tp5040
Rp5041
a(lp5042
g4
(g5
g6
Vsports
p5043
tp5044
Rp5045
atp5046
a(S'jareddiamond'
p5047
(lp5048
(lp5049
(lp5050
g4
(g5
g6
Vnew-york-usa
p5051
tp5052
Rp5053
a(lp5054
g4
(g5
g6
Vsports
p5055
tp5056
Rp5057
atp5058
a(S'stacyluft'
p5059
(lp5060
(lp5061
(lp5062
g4
(g5
g6
Vnew-york-usa
p5063
tp5064
Rp5065
a(lp5066
g4
(g5
g6
Vbusiness
p5067
tp5068
Rp5069
atp5070
a(S'ashuppy'
p5071
(lp5072
(lp5073
g4
(g5
g6
Vsan-francisco-usa
p5074
tp5075
Rp5076
ag4
(g5
g6
Vnew-york-usa
p5077
tp5078
Rp5079
ag4
(g5
g6
Vboston-usa
p5080
tp5081
Rp5082
a(lp5083
(lp5084
g4
(g5
g6
Vpolitics
p5085
tp5086
Rp5087
atp5088
a(S'JuliaBrownley26'
p5089
(lp5090
(lp5091
g4
(g5
g6
Vsan-francisco-usa
p5092
tp5093
Rp5094
ag4
(g5
g6
Vnew-york-usa
p5095
tp5096
Rp5097
ag4
(g5
g6
Vboston-usa
p5098
tp5099
Rp5100
a(lp5101
(lp5102
g4
(g5
g6
Vpolitics
p5103
tp5104
Rp5105
atp5106
a(S'JoeMcCurdyCNN'
p5107
(lp5108
(lp5109
(lp5110
g4
(g5
g6
Vnew-york-usa
p5111
tp5112
Rp5113
a(lp5114
g4
(g5
g6
Vsports
p5115
tp5116
Rp5117
atp5118
a(S'TonyPerkins'
p5119
(lp5120
(lp5121
(lp5122
g4
(g5
g6
Vsan-francisco-usa
p5123
tp5124
Rp5125
a(lp5126
g4
(g5
g6
Vtechnology
p5127
tp5128
Rp5129
atp5130
a(S'PrensaMichelle'
p5131
(lp5132
g4
(g5
g6
Vnew-york-usa
p5133
tp5134
Rp5135
a(lp5136
(lp5137
(lp5138
g4
(g5
g6
Vpolitics
p5139
tp5140
Rp5141
atp5142
a(S'GeraldFSeib'
p5143
(lp5144
(lp5145
(lp5146
(lp5147
g4
(g5
g6
Vbusiness
p5148
tp5149
Rp5150
atp5151
a(S'YahooSportsMLB'
p5152
(lp5153
g4
(g5
g6
Vsan-francisco-usa
p5154
tp5155
Rp5156
a(lp5157
(lp5158
g4
(g5
g6
Vsan-francisco-usa
p5159
tp5160
Rp5161
a(lp5162
g4
(g5
g6
Vsports
p5163
tp5164
Rp5165
atp5166
a(S'ErinBurnett'
p5167
(lp5168
(lp5169
(lp5170
g4
(g5
g6
Vnew-york-usa
p5171
tp5172
Rp5173
a(lp5174
g4
(g5
g6
Vpolitics
p5175
tp5176
Rp5177
atp5178
a(S'TesterPress'
p5179
(lp5180
(lp5181
g4
(g5
g6
Vsan-francisco-usa
p5182
tp5183
Rp5184
ag4
(g5
g6
Vnew-york-usa
p5185
tp5186
Rp5187
ag4
(g5
g6
Vboston-usa
p5188
tp5189
Rp5190
a(lp5191
(lp5192
g4
(g5
g6
Vpolitics
p5193
tp5194
Rp5195
atp5196
a(S'rayalexsmith'
p5197
(lp5198
g4
(g5
g6
Vnew-york-usa
p5199
tp5200
Rp5201
a(lp5202
(lp5203
g4
(g5
g6
Vnew-york-usa
p5204
tp5205
Rp5206
a(lp5207
g4
(g5
g6
Ventertainment
p5208
tp5209
Rp5210
atp5211
a(S'BryanMonroeCNN'
p5212
(lp5213
(lp5214
(lp5215
(lp5216
g4
(g5
g6
Vpolitics
p5217
tp5218
Rp5219
atp5220
a(S'DeanHeller'
p5221
(lp5222
(lp5223
g4
(g5
g6
Vsan-francisco-usa
p5224
tp5225
Rp5226
ag4
(g5
g6
Vnew-york-usa
p5227
tp5228
Rp5229
ag4
(g5
g6
Vboston-usa
p5230
tp5231
Rp5232
a(lp5233
(lp5234
g4
(g5
g6
Vpolitics
p5235
tp5236
Rp5237
atp5238
a(S'MichaelDell'
p5239
(lp5240
(lp5241
(lp5242
(lp5243
g4
(g5
g6
Vtechnology
p5244
tp5245
Rp5246
ag4
(g5
g6
Vbusiness
p5247
tp5248
Rp5249
atp5250
a(S'MylesKennedy'
p5251
(lp5252
g4
(g5
g6
Vsan-francisco-usa
p5253
tp5254
Rp5255
a(lp5256
(lp5257
(lp5258
g4
(g5
g6
Ventertainment
p5259
tp5260
Rp5261
atp5262
a(S'maduro_en'
p5263
(lp5264
g4
(g5
g6
Vnew-york-usa
p5265
tp5266
Rp5267
a(lp5268
(lp5269
(lp5270
g4
(g5
g6
Vpolitics
p5271
tp5272
Rp5273
atp5274
a(S'mashstartups'
p5275
(lp5276
(lp5277
g4
(g5
g6
Vsan-francisco-usa
p5278
tp5279
Rp5280
ag4
(g5
g6
Vnew-york-usa
p5281
tp5282
Rp5283
a(lp5284
g4
(g5
g6
Vnew-york-usa
p5285
tp5286
Rp5287
a(lp5288
g4
(g5
g6
Vtechnology
p5289
tp5290
Rp5291
atp5292
a(S'AnilKapoor'
p5293
(lp5294
(lp5295
g4
(g5
g6
Vbangalore-india
p5296
tp5297
Rp5298
ag4
(g5
g6
Vmumbai-india
p5299
tp5300
Rp5301
a(lp5302
(lp5303
g4
(g5
g6
Ventertainment
p5304
tp5305
Rp5306
atp5307
a(S'dmac1'
p5308
(lp5309
(lp5310
(lp5311
g4
(g5
g6
Vsan-francisco-usa
p5312
tp5313
Rp5314
a(lp5315
g4
(g5
g6
Vtechnology
p5316
tp5317
Rp5318
atp5319
a(S'Speedskater01'
p5320
(lp5321
(lp5322
(lp5323
(lp5324
g4
(g5
g6
Vsports
p5325
tp5326
Rp5327
atp5328
a(S'TeamFreebirdXC'
p5329
(lp5330
(lp5331
(lp5332
(lp5333
g4
(g5
g6
Vsports
p5334
tp5335
Rp5336
atp5337
a(S'pennymanis'
p5338
(lp5339
g4
(g5
g6
Vnew-york-usa
p5340
tp5341
Rp5342
a(lp5343
(lp5344
g4
(g5
g6
Vnew-york-usa
p5345
tp5346
Rp5347
a(lp5348
g4
(g5
g6
Vbusiness
p5349
tp5350
Rp5351
atp5352
a(S'gunsnroses'
p5353
(lp5354
(lp5355
(lp5356
(lp5357
g4
(g5
g6
Ventertainment
p5358
tp5359
Rp5360
atp5361
a(S'mark_harvey'
p5362
(lp5363
g4
(g5
g6
Vnew-york-usa
p5364
tp5365
Rp5366
a(lp5367
(lp5368
(lp5369
g4
(g5
g6
Vtechnology
p5370
tp5371
Rp5372
ag4
(g5
g6
Vbusiness
p5373
tp5374
Rp5375
atp5376
a(S'broganmedia'
p5377
(lp5378
(lp5379
(lp5380
(lp5381
g4
(g5
g6
Vtechnology
p5382
tp5383
Rp5384
ag4
(g5
g6
Vbusiness
p5385
tp5386
Rp5387
atp5388
a(S'cnntech'
p5389
(lp5390
g4
(g5
g6
Vnew-york-usa
p5391
tp5392
Rp5393
a(lp5394
(lp5395
g4
(g5
g6
Vnew-york-usa
p5396
tp5397
Rp5398
a(lp5399
g4
(g5
g6
Vtechnology
p5400
tp5401
Rp5402
atp5403
a(S'paulpluschkell'
p5404
(lp5405
(lp5406
(lp5407
g4
(g5
g6
Vsan-francisco-usa
p5408
tp5409
Rp5410
a(lp5411
g4
(g5
g6
Vtechnology
p5412
tp5413
Rp5414
ag4
(g5
g6
Vbusiness
p5415
tp5416
Rp5417
atp5418
a(S'EmergingEurope'
p5419
(lp5420
(lp5421
(lp5422
(lp5423
g4
(g5
g6
Vbusiness
p5424
tp5425
Rp5426
atp5427
a(S'csampson43'
p5428
(lp5429
(lp5430
g4
(g5
g6
Vsan-francisco-usa
p5431
tp5432
Rp5433
ag4
(g5
g6
Vnew-york-usa
p5434
tp5435
Rp5436
ag4
(g5
g6
Vboston-usa
p5437
tp5438
Rp5439
a(lp5440
(lp5441
g4
(g5
g6
Vsports
p5442
tp5443
Rp5444
atp5445
a(S'julianbarnes'
p5446
(lp5447
(lp5448
(lp5449
(lp5450
g4
(g5
g6
Vpolitics
p5451
tp5452
Rp5453
atp5454
a(S'pnut'
p5455
(lp5456
(lp5457
(lp5458
(lp5459
g4
(g5
g6
Ventertainment
p5460
tp5461
Rp5462
atp5463
a(S'DirtyTackle'
p5464
(lp5465
(lp5466
(lp5467
(lp5468
g4
(g5
g6
Vsports
p5469
tp5470
Rp5471
atp5472
a(S'iansherr'
p5473
(lp5474
(lp5475
(lp5476
g4
(g5
g6
Vsan-francisco-usa
p5477
tp5478
Rp5479
a(lp5480
g4
(g5
g6
Vtechnology
p5481
tp5482
Rp5483
atp5484
a(S'clararitger'
p5485
(lp5486
(lp5487
g4
(g5
g6
Vsan-francisco-usa
p5488
tp5489
Rp5490
ag4
(g5
g6
Vnew-york-usa
p5491
tp5492
Rp5493
ag4
(g5
g6
Vboston-usa
p5494
tp5495
Rp5496
a(lp5497
(lp5498
g4
(g5
g6
Vpolitics
p5499
tp5500
Rp5501
atp5502
a(S'ajitbalakrish'
p5503
(lp5504
(lp5505
(lp5506
g4
(g5
g6
Vmumbai-india
p5507
tp5508
Rp5509
a(lp5510
g4
(g5
g6
Vtechnology
p5511
tp5512
Rp5513
ag4
(g5
g6
Vbusiness
p5514
tp5515
Rp5516
atp5517
a(S'KhilRajRegmi'
p5518
(lp5519
g4
(g5
g6
Vmumbai-india
p5520
tp5521
Rp5522
a(lp5523
(lp5524
(lp5525
g4
(g5
g6
Vpolitics
p5526
tp5527
Rp5528
atp5529
a(S'meghna1malik'
p5530
(lp5531
(lp5532
g4
(g5
g6
Vbangalore-india
p5533
tp5534
Rp5535
ag4
(g5
g6
Vmumbai-india
p5536
tp5537
Rp5538
a(lp5539
(lp5540
g4
(g5
g6
Ventertainment
p5541
tp5542
Rp5543
atp5544
a(S'AjazkhanActor'
p5545
(lp5546
(lp5547
g4
(g5
g6
Vbangalore-india
p5548
tp5549
Rp5550
ag4
(g5
g6
Vmumbai-india
p5551
tp5552
Rp5553
a(lp5554
(lp5555
g4
(g5
g6
Ventertainment
p5556
tp5557
Rp5558
atp5559
a(S'APAndrewTaylor'
p5560
(lp5561
(lp5562
g4
(g5
g6
Vsan-francisco-usa
p5563
tp5564
Rp5565
ag4
(g5
g6
Vnew-york-usa
p5566
tp5567
Rp5568
ag4
(g5
g6
Vboston-usa
p5569
tp5570
Rp5571
a(lp5572
(lp5573
g4
(g5
g6
Vpolitics
p5574
tp5575
Rp5576
atp5577
a(S'SaraMurray'
p5578
(lp5579
(lp5580
(lp5581
(lp5582
g4
(g5
g6
Vbusiness
p5583
tp5584
Rp5585
atp5586
a(S'RepSinema'
p5587
(lp5588
(lp5589
g4
(g5
g6
Vsan-francisco-usa
p5590
tp5591
Rp5592
ag4
(g5
g6
Vnew-york-usa
p5593
tp5594
Rp5595
ag4
(g5
g6
Vboston-usa
p5596
tp5597
Rp5598
a(lp5599
(lp5600
g4
(g5
g6
Vpolitics
p5601
tp5602
Rp5603
atp5604
a(S'applespotlight'
p5605
(lp5606
(lp5607
(lp5608
g4
(g5
g6
Vsan-francisco-usa
p5609
tp5610
Rp5611
a(lp5612
g4
(g5
g6
Vtechnology
p5613
tp5614
Rp5615
atp5616
a(S'BryFitz'
p5617
(lp5618
(lp5619
(lp5620
g4
(g5
g6
Vnew-york-usa
p5621
tp5622
Rp5623
a(lp5624
g4
(g5
g6
Vtechnology
p5625
tp5626
Rp5627
atp5628
a(S'RyuSpaeth'
p5629
(lp5630
(lp5631
(lp5632
(lp5633
g4
(g5
g6
Vpolitics
p5634
tp5635
Rp5636
atp5637
a(S'SI_Faces'
p5638
(lp5639
(lp5640
(lp5641
g4
(g5
g6
Vnew-york-usa
p5642
tp5643
Rp5644
a(lp5645
g4
(g5
g6
Vsports
p5646
tp5647
Rp5648
atp5649
a(S'TashaCNN'
p5650
(lp5651
(lp5652
(lp5653
(lp5654
g4
(g5
g6
Vpolitics
p5655
tp5656
Rp5657
atp5658
a(S'TechCityNews'
p5659
(lp5660
(lp5661
(lp5662
g4
(g5
g6
Vlondon-uk
p5663
tp5664
Rp5665
a(lp5666
g4
(g5
g6
Vtechnology
p5667
tp5668
Rp5669
atp5670
a(S'SarahPalinUSA'
p5671
(lp5672
(lp5673
(lp5674
(lp5675
g4
(g5
g6
Vpolitics
p5676
tp5677
Rp5678
atp5679
a(S'gerardtbaker'
p5680
(lp5681
(lp5682
(lp5683
g4
(g5
g6
Vnew-york-usa
p5684
tp5685
Rp5686
a(lp5687
g4
(g5
g6
Vbusiness
p5688
tp5689
Rp5690
atp5691
a(S'naren_nexus'
p5692
(lp5693
(lp5694
(lp5695
(lp5696
g4
(g5
g6
Vtechnology
p5697
tp5698
Rp5699
ag4
(g5
g6
Vbusiness
p5700
tp5701
Rp5702
atp5703
a(S'wsjMelanie'
p5704
(lp5705
(lp5706
(lp5707
(lp5708
g4
(g5
g6
Vpolitics
p5709
tp5710
Rp5711
atp5712
a(S'LauraLitvan'
p5713
(lp5714
(lp5715
g4
(g5
g6
Vsan-francisco-usa
p5716
tp5717
Rp5718
ag4
(g5
g6
Vnew-york-usa
p5719
tp5720
Rp5721
ag4
(g5
g6
Vboston-usa
p5722
tp5723
Rp5724
a(lp5725
(lp5726
g4
(g5
g6
Vpolitics
p5727
tp5728
Rp5729
atp5730
a(S'chicagotheband'
p5731
(lp5732
(lp5733
(lp5734
(lp5735
g4
(g5
g6
Ventertainment
p5736
tp5737
Rp5738
atp5739
a(S'jolieodell'
p5740
(lp5741
(lp5742
(lp5743
(lp5744
g4
(g5
g6
Vtechnology
p5745
tp5746
Rp5747
atp5748
a(S'Farah_Pandith'
p5749
(lp5750
g4
(g5
g6
Vnew-york-usa
p5751
tp5752
Rp5753
a(lp5754
(lp5755
(lp5756
g4
(g5
g6
Vpolitics
p5757
tp5758
Rp5759
atp5760
a(S'JBoorstin'
p5761
(lp5762
g4
(g5
g6
Vsan-francisco-usa
p5763
tp5764
Rp5765
a(lp5766
(lp5767
g4
(g5
g6
Vsan-francisco-usa
p5768
tp5769
Rp5770
a(lp5771
g4
(g5
g6
Vbusiness
p5772
tp5773
Rp5774
atp5775
a(S'RobertWalzer'
p5776
(lp5777
(lp5778
(lp5779
g4
(g5
g6
Vnew-york-usa
p5780
tp5781
Rp5782
a(lp5783
g4
(g5
g6
Ventertainment
p5784
tp5785
Rp5786
atp5787
a(S'JessBravin'
p5788
(lp5789
(lp5790
(lp5791
(lp5792
g4
(g5
g6
Vpolitics
p5793
tp5794
Rp5795
atp5796
a(S'WSJBizEd'
p5797
(lp5798
(lp5799
(lp5800
(lp5801
g4
(g5
g6
Vbusiness
p5802
tp5803
Rp5804
atp5805
a(S'GiaMantegna'
p5806
(lp5807
(lp5808
(lp5809
g4
(g5
g6
Vsan-francisco-usa
p5810
tp5811
Rp5812
a(lp5813
g4
(g5
g6
Ventertainment
p5814
tp5815
Rp5816
atp5817
a(S'HassanRouhani'
p5818
(lp5819
g4
(g5
g6
Vmumbai-india
p5820
tp5821
Rp5822
a(lp5823
(lp5824
(lp5825
g4
(g5
g6
Vpolitics
p5826
tp5827
Rp5828
atp5829
a(S'MuhammadMorsi'
p5830
(lp5831
(lp5832
(lp5833
(lp5834
g4
(g5
g6
Vpolitics
p5835
tp5836
Rp5837
atp5838
a(S'ashleesimpson'
p5839
(lp5840
(lp5841
(lp5842
g4
(g5
g6
Vsan-francisco-usa
p5843
tp5844
Rp5845
a(lp5846
g4
(g5
g6
Ventertainment
p5847
tp5848
Rp5849
atp5850
a(S'germanotes'
p5851
(lp5852
g4
(g5
g6
Vnew-york-usa
p5853
tp5854
Rp5855
a(lp5856
(lp5857
(lp5858
g4
(g5
g6
Vsports
p5859
tp5860
Rp5861
atp5862
a(S'MaryLuWSJ'
p5863
(lp5864
(lp5865
(lp5866
(lp5867
g4
(g5
g6
Vbusiness
p5868
tp5869
Rp5870
atp5871
a(S'cotweet'
p5872
(lp5873
(lp5874
g4
(g5
g6
Vsan-francisco-usa
p5875
tp5876
Rp5877
a(lp5878
g4
(g5
g6
Vsan-francisco-usa
p5879
tp5880
Rp5881
a(lp5882
g4
(g5
g6
Vtechnology
p5883
tp5884
Rp5885
atp5886
a(S'BigDaddySHaag'
p5887
(lp5888
(lp5889
(lp5890
(lp5891
g4
(g5
g6
Vtechnology
p5892
tp5893
Rp5894
ag4
(g5
g6
Vbusiness
p5895
tp5896
Rp5897
atp5898
a(S'Asifazimasif'
p5899
(lp5900
(lp5901
g4
(g5
g6
Vbangalore-india
p5902
tp5903
Rp5904
ag4
(g5
g6
Vmumbai-india
p5905
tp5906
Rp5907
a(lp5908
(lp5909
g4
(g5
g6
Ventertainment
p5910
tp5911
Rp5912
atp5913
a(S'negativedunks'
p5914
(lp5915
(lp5916
(lp5917
g4
(g5
g6
Vboston-usa
p5918
tp5919
Rp5920
a(lp5921
g4
(g5
g6
Vsports
p5922
tp5923
Rp5924
atp5925
a(S'NewsMashup'
p5926
(lp5927
g4
(g5
g6
Vnew-york-usa
p5928
tp5929
Rp5930
a(lp5931
(lp5932
(lp5933
g4
(g5
g6
Vbusiness
p5934
tp5935
Rp5936
atp5937
a(S'Quora'
p5938
(lp5939
(lp5940
g4
(g5
g6
Vsan-francisco-usa
p5941
tp5942
Rp5943
a(lp5944
g4
(g5
g6
Vsan-francisco-usa
p5945
tp5946
Rp5947
a(lp5948
g4
(g5
g6
Vtechnology
p5949
tp5950
Rp5951
atp5952
a(S'rihanna'
p5953
(lp5954
(lp5955
(lp5956
(lp5957
g4
(g5
g6
Ventertainment
p5958
tp5959
Rp5960
atp5961
a(S'randizuckerberg'
p5962
(lp5963
(lp5964
(lp5965
g4
(g5
g6
Vsan-francisco-usa
p5966
tp5967
Rp5968
a(lp5969
g4
(g5
g6
Vtechnology
p5970
tp5971
Rp5972
atp5973
a(S'_KaranMehra'
p5974
(lp5975
(lp5976
g4
(g5
g6
Vbangalore-india
p5977
tp5978
Rp5979
ag4
(g5
g6
Vmumbai-india
p5980
tp5981
Rp5982
a(lp5983
g4
(g5
g6
Vmumbai-india
p5984
tp5985
Rp5986
a(lp5987
g4
(g5
g6
Ventertainment
p5988
tp5989
Rp5990
atp5991
a(S'zaarly'
p5992
(lp5993
g4
(g5
g6
Vlondon-uk
p5994
tp5995
Rp5996
a(lp5997
g4
(g5
g6
Vnew-york-usa
p5998
tp5999
Rp6000
a(lp6001
(lp6002
g4
(g5
g6
Vtechnology
p6003
tp6004
Rp6005
atp6006
a(S'BarrosoEU'
p6007
(lp6008
(lp6009
(lp6010
(lp6011
g4
(g5
g6
Vpolitics
p6012
tp6013
Rp6014
atp6015
a(S'boygenius'
p6016
(lp6017
(lp6018
(lp6019
(lp6020
g4
(g5
g6
Vtechnology
p6021
tp6022
Rp6023
atp6024
a(S'NKingofDC'
p6025
(lp6026
(lp6027
(lp6028
(lp6029
g4
(g5
g6
Vpolitics
p6030
tp6031
Rp6032
atp6033
a(S'johnlshea'
p6034
(lp6035
g4
(g5
g6
Vboston-usa
p6036
tp6037
Rp6038
a(lp6039
(lp6040
g4
(g5
g6
Vboston-usa
p6041
tp6042
Rp6043
a(lp6044
g4
(g5
g6
Vtechnology
p6045
tp6046
Rp6047
ag4
(g5
g6
Vbusiness
p6048
tp6049
Rp6050
atp6051
a(S'PepperReports'
p6052
(lp6053
(lp6054
(lp6055
g4
(g5
g6
Vlondon-uk
p6056
tp6057
Rp6058
a(lp6059
g4
(g5
g6
Vbusiness
p6060
tp6061
Rp6062
atp6063
a(S'timberners_lee'
p6064
(lp6065
(lp6066
(lp6067
g4
(g5
g6
Vboston-usa
p6068
tp6069
Rp6070
a(lp6071
g4
(g5
g6
Vtechnology
p6072
tp6073
Rp6074
ag4
(g5
g6
Vbusiness
p6075
tp6076
Rp6077
atp6078
a(S'c0ates'
p6079
(lp6080
(lp6081
(lp6082
(lp6083
g4
(g5
g6
Vbusiness
p6084
tp6085
Rp6086
atp6087
a(S'claychristensen'
p6088
(lp6089
g4
(g5
g6
Vboston-usa
p6090
tp6091
Rp6092
a(lp6093
(lp6094
g4
(g5
g6
Vboston-usa
p6095
tp6096
Rp6097
a(lp6098
g4
(g5
g6
Vbusiness
p6099
tp6100
Rp6101
atp6102
a(S'JUP_8TL'
p6103
(lp6104
(lp6105
g4
(g5
g6
Vsan-francisco-usa
p6106
tp6107
Rp6108
ag4
(g5
g6
Vnew-york-usa
p6109
tp6110
Rp6111
ag4
(g5
g6
Vboston-usa
p6112
tp6113
Rp6114
a(lp6115
g4
(g5
g6
Vnew-york-usa
p6116
tp6117
Rp6118
a(lp6119
g4
(g5
g6
Vsports
p6120
tp6121
Rp6122
atp6123
a(S'jasonWSJ'
p6124
(lp6125
(lp6126
(lp6127
(lp6128
g4
(g5
g6
Vsports
p6129
tp6130
Rp6131
atp6132
a(S'mikelascut'
p6133
(lp6134
(lp6135
(lp6136
(lp6137
g4
(g5
g6
Vbusiness
p6138
tp6139
Rp6140
atp6141
a(S'IDGagne'
p6142
(lp6143
g4
(g5
g6
Vboston-usa
p6144
tp6145
Rp6146
a(lp6147
(lp6148
(lp6149
g4
(g5
g6
Vtechnology
p6150
tp6151
Rp6152
atp6153
a(S'twilio'
p6154
(lp6155
(lp6156
g4
(g5
g6
Vsan-francisco-usa
p6157
tp6158
Rp6159
a(lp6160
g4
(g5
g6
Vsan-francisco-usa
p6161
tp6162
Rp6163
a(lp6164
g4
(g5
g6
Vtechnology
p6165
tp6166
Rp6167
atp6168
a(S'igorbobic'
p6169
(lp6170
(lp6171
(lp6172
(lp6173
g4
(g5
g6
Vpolitics
p6174
tp6175
Rp6176
atp6177
a(S'richardbranson'
p6178
(lp6179
(lp6180
(lp6181
(lp6182
g4
(g5
g6
Vbusiness
p6183
tp6184
Rp6185
atp6186
a(S'sidharth_shukla'
p6187
(lp6188
(lp6189
g4
(g5
g6
Vbangalore-india
p6190
tp6191
Rp6192
ag4
(g5
g6
Vmumbai-india
p6193
tp6194
Rp6195
a(lp6196
(lp6197
g4
(g5
g6
Ventertainment
p6198
tp6199
Rp6200
atp6201
a(S'SenatorBaldwin'
p6202
(lp6203
(lp6204
g4
(g5
g6
Vsan-francisco-usa
p6205
tp6206
Rp6207
ag4
(g5
g6
Vnew-york-usa
p6208
tp6209
Rp6210
ag4
(g5
g6
Vboston-usa
p6211
tp6212
Rp6213
a(lp6214
(lp6215
g4
(g5
g6
Vpolitics
p6216
tp6217
Rp6218
atp6219
a(S'YahooSportsNBA'
p6220
(lp6221
g4
(g5
g6
Vsan-francisco-usa
p6222
tp6223
Rp6224
a(lp6225
(lp6226
g4
(g5
g6
Vsan-francisco-usa
p6227
tp6228
Rp6229
a(lp6230
g4
(g5
g6
Vsports
p6231
tp6232
Rp6233
atp6234
a(S'lynnlaaa'
p6235
(lp6236
(lp6237
(lp6238
g4
(g5
g6
Vsan-francisco-usa
p6239
tp6240
Rp6241
a(lp6242
g4
(g5
g6
Vtechnology
p6243
tp6244
Rp6245
atp6246
a(S'katyperry'
p6247
(lp6248
(lp6249
(lp6250
(lp6251
g4
(g5
g6
Ventertainment
p6252
tp6253
Rp6254
atp6255
a(S'JoeLieberman'
p6256
(lp6257
(lp6258
g4
(g5
g6
Vsan-francisco-usa
p6259
tp6260
Rp6261
ag4
(g5
g6
Vnew-york-usa
p6262
tp6263
Rp6264
ag4
(g5
g6
Vboston-usa
p6265
tp6266
Rp6267
a(lp6268
(lp6269
g4
(g5
g6
Vpolitics
p6270
tp6271
Rp6272
atp6273
a(S'rmartinelli'
p6274
(lp6275
(lp6276
(lp6277
(lp6278
g4
(g5
g6
Vpolitics
p6279
tp6280
Rp6281
atp6282
a(S'IAMQUEENLATIFAH'
p6283
(lp6284
g4
(g5
g6
Vnew-york-usa
p6285
tp6286
Rp6287
a(lp6288
(lp6289
(lp6290
g4
(g5
g6
Ventertainment
p6291
tp6292
Rp6293
atp6294
a(S'CYpresidency'
p6295
(lp6296
(lp6297
(lp6298
(lp6299
g4
(g5
g6
Vpolitics
p6300
tp6301
Rp6302
atp6303
a(S'davemorin'
p6304
(lp6305
(lp6306
g4
(g5
g6
Vsan-francisco-usa
p6307
tp6308
Rp6309
a(lp6310
g4
(g5
g6
Vsan-francisco-usa
p6311
tp6312
Rp6313
a(lp6314
g4
(g5
g6
Vtechnology
p6315
tp6316
Rp6317
atp6318
a(S'PSOE'
p6319
(lp6320
(lp6321
(lp6322
(lp6323
g4
(g5
g6
Vpolitics
p6324
tp6325
Rp6326
atp6327
a(S'fucktwtr'
p6328
(lp6329
(lp6330
(lp6331
(lp6332
g4
(g5
g6
Vtechnology
p6333
tp6334
Rp6335
ag4
(g5
g6
Vbusiness
p6336
tp6337
Rp6338
atp6339
a(S'mrvincecarter15'
p6340
(lp6341
g4
(g5
g6
Vnew-york-usa
p6342
tp6343
Rp6344
a(lp6345
g4
(g5
g6
Vsan-francisco-usa
p6346
tp6347
Rp6348
ag4
(g5
g6
Vnew-york-usa
p6349
tp6350
Rp6351
ag4
(g5
g6
Vboston-usa
p6352
tp6353
Rp6354
a(lp6355
(lp6356
g4
(g5
g6
Vsports
p6357
tp6358
Rp6359
atp6360
a(S'SteveForbesCEO'
p6361
(lp6362
(lp6363
(lp6364
g4
(g5
g6
Vnew-york-usa
p6365
tp6366
Rp6367
a(lp6368
g4
(g5
g6
Vbusiness
p6369
tp6370
Rp6371
atp6372
a(S'sonar'
p6373
(lp6374
(lp6375
g4
(g5
g6
Vnew-york-usa
p6376
tp6377
Rp6378
a(lp6379
g4
(g5
g6
Vnew-york-usa
p6380
tp6381
Rp6382
a(lp6383
g4
(g5
g6
Vtechnology
p6384
tp6385
Rp6386
atp6387
a(S'russellcrowe'
p6388
(lp6389
(lp6390
(lp6391
(lp6392
g4
(g5
g6
Ventertainment
p6393
tp6394
Rp6395
atp6396
a(S'Jim_Moran'
p6397
(lp6398
(lp6399
g4
(g5
g6
Vsan-francisco-usa
p6400
tp6401
Rp6402
ag4
(g5
g6
Vnew-york-usa
p6403
tp6404
Rp6405
ag4
(g5
g6
Vboston-usa
p6406
tp6407
Rp6408
a(lp6409
(lp6410
g4
(g5
g6
Vpolitics
p6411
tp6412
Rp6413
atp6414
a(S'iambigbaby11'
p6415
(lp6416
(lp6417
g4
(g5
g6
Vsan-francisco-usa
p6418
tp6419
Rp6420
ag4
(g5
g6
Vnew-york-usa
p6421
tp6422
Rp6423
ag4
(g5
g6
Vboston-usa
p6424
tp6425
Rp6426
a(lp6427
g4
(g5
g6
Vsan-francisco-usa
p6428
tp6429
Rp6430
a(lp6431
g4
(g5
g6
Vsports
p6432
tp6433
Rp6434
atp6435
a(S'presedinte_md'
p6436
(lp6437
g4
(g5
g6
Vlondon-uk
p6438
tp6439
Rp6440
a(lp6441
(lp6442
(lp6443
g4
(g5
g6
Vpolitics
p6444
tp6445
Rp6446
atp6447
a(S'ColleenMNelson'
p6448
(lp6449
(lp6450
(lp6451
(lp6452
g4
(g5
g6
Vpolitics
p6453
tp6454
Rp6455
atp6456
a(S'deespeak'
p6457
(lp6458
(lp6459
(lp6460
(lp6461
g4
(g5
g6
Ventertainment
p6462
tp6463
Rp6464
atp6465
a(S'techledes'
p6466
(lp6467
(lp6468
(lp6469
g4
(g5
g6
Vsan-francisco-usa
p6470
tp6471
Rp6472
a(lp6473
g4
(g5
g6
Vtechnology
p6474
tp6475
Rp6476
atp6477
a(S'TheAtlanticTECH'
p6478
(lp6479
(lp6480
(lp6481
(lp6482
g4
(g5
g6
Vtechnology
p6483
tp6484
Rp6485
atp6486
a(S'robboerman'
p6487
(lp6488
(lp6489
(lp6490
(lp6491
g4
(g5
g6
Vtechnology
p6492
tp6493
Rp6494
ag4
(g5
g6
Vbusiness
p6495
tp6496
Rp6497
atp6498
a(S'SenJackReed'
p6499
(lp6500
(lp6501
g4
(g5
g6
Vsan-francisco-usa
p6502
tp6503
Rp6504
ag4
(g5
g6
Vnew-york-usa
p6505
tp6506
Rp6507
ag4
(g5
g6
Vboston-usa
p6508
tp6509
Rp6510
a(lp6511
(lp6512
g4
(g5
g6
Vpolitics
p6513
tp6514
Rp6515
atp6516
a(S'Palaashventures'
p6517
(lp6518
(lp6519
(lp6520
g4
(g5
g6
Vmumbai-india
p6521
tp6522
Rp6523
a(lp6524
g4
(g5
g6
Vtechnology
p6525
tp6526
Rp6527
ag4
(g5
g6
Vbusiness
p6528
tp6529
Rp6530
atp6531
a(S'RepJimMatheson'
p6532
(lp6533
(lp6534
g4
(g5
g6
Vsan-francisco-usa
p6535
tp6536
Rp6537
ag4
(g5
g6
Vnew-york-usa
p6538
tp6539
Rp6540
ag4
(g5
g6
Vboston-usa
p6541
tp6542
Rp6543
a(lp6544
(lp6545
g4
(g5
g6
Vpolitics
p6546
tp6547
Rp6548
atp6549
a(S'OmnivoreAgtech'
p6550
(lp6551
(lp6552
(lp6553
g4
(g5
g6
Vmumbai-india
p6554
tp6555
Rp6556
a(lp6557
g4
(g5
g6
Vtechnology
p6558
tp6559
Rp6560
ag4
(g5
g6
Vbusiness
p6561
tp6562
Rp6563
atp6564
a(S'landondonovan'
p6565
(lp6566
(lp6567
g4
(g5
g6
Vsan-francisco-usa
p6568
tp6569
Rp6570
ag4
(g5
g6
Vnew-york-usa
p6571
tp6572
Rp6573
ag4
(g5
g6
Vlondon-uk
p6574
tp6575
Rp6576
ag4
(g5
g6
Vboston-usa
p6577
tp6578
Rp6579
a(lp6580
(lp6581
g4
(g5
g6
Vsports
p6582
tp6583
Rp6584
atp6585
a(S'markthompsoncnn'
p6586
(lp6587
(lp6588
(lp6589
g4
(g5
g6
Vlondon-uk
p6590
tp6591
Rp6592
a(lp6593
g4
(g5
g6
Vbusiness
p6594
tp6595
Rp6596
atp6597
a(S'joejonas'
p6598
(lp6599
(lp6600
(lp6601
(lp6602
g4
(g5
g6
Ventertainment
p6603
tp6604
Rp6605
atp6606
a(S'JozyAltidore'
p6607
(lp6608
(lp6609
g4
(g5
g6
Vsan-francisco-usa
p6610
tp6611
Rp6612
ag4
(g5
g6
Vnew-york-usa
p6613
tp6614
Rp6615
ag4
(g5
g6
Vlondon-uk
p6616
tp6617
Rp6618
ag4
(g5
g6
Vboston-usa
p6619
tp6620
Rp6621
a(lp6622
(lp6623
g4
(g5
g6
Vsports
p6624
tp6625
Rp6626
atp6627
a(S'davidaxelrod'
p6628
(lp6629
(lp6630
(lp6631
(lp6632
g4
(g5
g6
Vpolitics
p6633
tp6634
Rp6635
atp6636
a(S'psteinhauserCNN'
p6637
(lp6638
(lp6639
(lp6640
(lp6641
g4
(g5
g6
Vpolitics
p6642
tp6643
Rp6644
atp6645
a(S'zoesaldana'
p6646
(lp6647
(lp6648
(lp6649
(lp6650
g4
(g5
g6
Ventertainment
p6651
tp6652
Rp6653
atp6654
a(S'KevinBohnCNN'
p6655
(lp6656
(lp6657
(lp6658
(lp6659
g4
(g5
g6
Vpolitics
p6660
tp6661
Rp6662
atp6663
a(S'RepMcClintock'
p6664
(lp6665
(lp6666
g4
(g5
g6
Vsan-francisco-usa
p6667
tp6668
Rp6669
ag4
(g5
g6
Vnew-york-usa
p6670
tp6671
Rp6672
ag4
(g5
g6
Vboston-usa
p6673
tp6674
Rp6675
a(lp6676
(lp6677
g4
(g5
g6
Vpolitics
p6678
tp6679
Rp6680
atp6681
a(S'cringely'
p6682
(lp6683
(lp6684
(lp6685
(lp6686
g4
(g5
g6
Vtechnology
p6687
tp6688
Rp6689
atp6690
a(S'jerrykerns'
p6691
(lp6692
(lp6693
(lp6694
(lp6695
g4
(g5
g6
Vbusiness
p6696
tp6697
Rp6698
atp6699
a(S'ReformedBroker'
p6700
(lp6701
(lp6702
(lp6703
(lp6704
g4
(g5
g6
Vbusiness
p6705
tp6706
Rp6707
atp6708
a(S'MinPres'
p6709
(lp6710
g4
(g5
g6
Vlondon-uk
p6711
tp6712
Rp6713
a(lp6714
(lp6715
(lp6716
g4
(g5
g6
Vpolitics
p6717
tp6718
Rp6719
atp6720
a(S'vgmac'
p6721
(lp6722
(lp6723
(lp6724
(lp6725
g4
(g5
g6
Vbusiness
p6726
tp6727
Rp6728
atp6729
a(S'IMKristenBell'
p6730
(lp6731
g4
(g5
g6
Vsan-francisco-usa
p6732
tp6733
Rp6734
a(lp6735
(lp6736
g4
(g5
g6
Vsan-francisco-usa
p6737
tp6738
Rp6739
a(lp6740
g4
(g5
g6
Ventertainment
p6741
tp6742
Rp6743
atp6744
a(S'WojYahooNBA'
p6745
(lp6746
(lp6747
(lp6748
(lp6749
g4
(g5
g6
Vsports
p6750
tp6751
Rp6752
atp6753
a(S'macon44'
p6754
(lp6755
(lp6756
(lp6757
(lp6758
g4
(g5
g6
Vtechnology
p6759
tp6760
Rp6761
atp6762
a(S'boniver'
p6763
(lp6764
g4
(g5
g6
Vnew-york-usa
p6765
tp6766
Rp6767
a(lp6768
(lp6769
(lp6770
g4
(g5
g6
Ventertainment
p6771
tp6772
Rp6773
atp6774
a(S'BethSchepens'
p6775
(lp6776
(lp6777
(lp6778
g4
(g5
g6
Vlondon-uk
p6779
tp6780
Rp6781
a(lp6782
g4
(g5
g6
Ventertainment
p6783
tp6784
Rp6785
atp6786
a(S'GordonEdes'
p6787
(lp6788
(lp6789
g4
(g5
g6
Vboston-usa
p6790
tp6791
Rp6792
a(lp6793
g4
(g5
g6
Vboston-usa
p6794
tp6795
Rp6796
a(lp6797
g4
(g5
g6
Vsports
p6798
tp6799
Rp6800
atp6801
a(S'PresYameen'
p6802
(lp6803
(lp6804
(lp6805
(lp6806
g4
(g5
g6
Vpolitics
p6807
tp6808
Rp6809
atp6810
a(S'RyanDempsterFDN'
p6811
(lp6812
(lp6813
g4
(g5
g6
Vsan-francisco-usa
p6814
tp6815
Rp6816
ag4
(g5
g6
Vnew-york-usa
p6817
tp6818
Rp6819
ag4
(g5
g6
Vboston-usa
p6820
tp6821
Rp6822
a(lp6823
(lp6824
g4
(g5
g6
Vsports
p6825
tp6826
Rp6827
atp6828
a(S'RepGuthrie'
p6829
(lp6830
(lp6831
g4
(g5
g6
Vsan-francisco-usa
p6832
tp6833
Rp6834
ag4
(g5
g6
Vnew-york-usa
p6835
tp6836
Rp6837
ag4
(g5
g6
Vboston-usa
p6838
tp6839
Rp6840
a(lp6841
(lp6842
g4
(g5
g6
Vpolitics
p6843
tp6844
Rp6845
atp6846
a(S'klout'
p6847
(lp6848
(lp6849
g4
(g5
g6
Vsan-francisco-usa
p6850
tp6851
Rp6852
a(lp6853
g4
(g5
g6
Vsan-francisco-usa
p6854
tp6855
Rp6856
a(lp6857
g4
(g5
g6
Vtechnology
p6858
tp6859
Rp6860
atp6861
a(S'arrington'
p6862
(lp6863
(lp6864
(lp6865
g4
(g5
g6
Vsan-francisco-usa
p6866
tp6867
Rp6868
a(lp6869
g4
(g5
g6
Vtechnology
p6870
tp6871
Rp6872
ag4
(g5
g6
Vbusiness
p6873
tp6874
Rp6875
atp6876
a(S'GovernmentZA'
p6877
(lp6878
g4
(g5
g6
Vbangalore-india
p6879
tp6880
Rp6881
a(lp6882
(lp6883
(lp6884
g4
(g5
g6
Vpolitics
p6885
tp6886
Rp6887
atp6888
a(S'peterlauria3'
p6889
(lp6890
g4
(g5
g6
Vnew-york-usa
p6891
tp6892
Rp6893
a(lp6894
(lp6895
g4
(g5
g6
Vnew-york-usa
p6896
tp6897
Rp6898
a(lp6899
g4
(g5
g6
Vtechnology
p6900
tp6901
Rp6902
atp6903
a(S'depechemode'
p6904
(lp6905
(lp6906
(lp6907
(lp6908
g4
(g5
g6
Ventertainment
p6909
tp6910
Rp6911
atp6912
a(S'AndersFoghR'
p6913
(lp6914
g4
(g5
g6
Vlondon-uk
p6915
tp6916
Rp6917
a(lp6918
(lp6919
(lp6920
g4
(g5
g6
Vpolitics
p6921
tp6922
Rp6923
atp6924
a(S'mikewilke'
p6925
(lp6926
(lp6927
(lp6928
(lp6929
g4
(g5
g6
Vbusiness
p6930
tp6931
Rp6932
atp6933
a(S'jack_welch'
p6934
(lp6935
(lp6936
(lp6937
(lp6938
g4
(g5
g6
Vbusiness
p6939
tp6940
Rp6941
atp6942
a(S'thurrott'
p6943
(lp6944
(lp6945
(lp6946
(lp6947
g4
(g5
g6
Vtechnology
p6948
tp6949
Rp6950
atp6951
a(S'randyyeip'
p6952
(lp6953
(lp6954
(lp6955
g4
(g5
g6
Vnew-york-usa
p6956
tp6957
Rp6958
a(lp6959
g4
(g5
g6
Vpolitics
p6960
tp6961
Rp6962
atp6963
a(S'WSJdigits'
p6964
(lp6965
(lp6966
(lp6967
g4
(g5
g6
Vnew-york-usa
p6968
tp6969
Rp6970
a(lp6971
g4
(g5
g6
Vtechnology
p6972
tp6973
Rp6974
atp6975
a(S'shariqueorg'
p6976
(lp6977
(lp6978
(lp6979
g4
(g5
g6
Vsan-francisco-usa
p6980
tp6981
Rp6982
a(lp6983
g4
(g5
g6
Vtechnology
p6984
tp6985
Rp6986
ag4
(g5
g6
Vbusiness
p6987
tp6988
Rp6989
atp6990
a(S'NicolasSarkozy'
p6991
(lp6992
(lp6993
(lp6994
(lp6995
g4
(g5
g6
Vpolitics
p6996
tp6997
Rp6998
atp6999
a(S'Christieluge'
p7000
(lp7001
(lp7002
(lp7003
(lp7004
g4
(g5
g6
Vsports
p7005
tp7006
Rp7007
atp7008
a(S'Manilla'
p7009
(lp7010
(lp7011
g4
(g5
g6
Vnew-york-usa
p7012
tp7013
Rp7014
a(lp7015
g4
(g5
g6
Vnew-york-usa
p7016
tp7017
Rp7018
a(lp7019
g4
(g5
g6
Vtechnology
p7020
tp7021
Rp7022
atp7023
a(S'colea45'
p7024
(lp7025
(lp7026
g4
(g5
g6
Vsan-francisco-usa
p7027
tp7028
Rp7029
ag4
(g5
g6
Vnew-york-usa
p7030
tp7031
Rp7032
ag4
(g5
g6
Vboston-usa
p7033
tp7034
Rp7035
a(lp7036
(lp7037
g4
(g5
g6
Vsports
p7038
tp7039
Rp7040
atp7041
a(S'charlie_white'
p7042
(lp7043
g4
(g5
g6
Vnew-york-usa
p7044
tp7045
Rp7046
a(lp7047
(lp7048
(lp7049
g4
(g5
g6
Vtechnology
p7050
tp7051
Rp7052
atp7053
a(S'JonErlichman'
p7054
(lp7055
g4
(g5
g6
Vsan-francisco-usa
p7056
tp7057
Rp7058
a(lp7059
(lp7060
g4
(g5
g6
Vsan-francisco-usa
p7061
tp7062
Rp7063
a(lp7064
g4
(g5
g6
Vtechnology
p7065
tp7066
Rp7067
atp7068
a(S'kanyewest'
p7069
(lp7070
(lp7071
(lp7072
(lp7073
g4
(g5
g6
Ventertainment
p7074
tp7075
Rp7076
atp7077
a(S'euHvR'
p7078
(lp7079
(lp7080
(lp7081
(lp7082
g4
(g5
g6
Vpolitics
p7083
tp7084
Rp7085
atp7086
a(S'elvainadine'
p7087
(lp7088
(lp7089
(lp7090
g4
(g5
g6
Vnew-york-usa
p7091
tp7092
Rp7093
a(lp7094
g4
(g5
g6
Ventertainment
p7095
tp7096
Rp7097
atp7098
a(S'HuffPostBiz'
p7099
(lp7100
(lp7101
(lp7102
(lp7103
g4
(g5
g6
Vbusiness
p7104
tp7105
Rp7106
atp7107
a(S'DAVIDprice14'
p7108
(lp7109
(lp7110
g4
(g5
g6
Vsan-francisco-usa
p7111
tp7112
Rp7113
ag4
(g5
g6
Vnew-york-usa
p7114
tp7115
Rp7116
ag4
(g5
g6
Vboston-usa
p7117
tp7118
Rp7119
a(lp7120
(lp7121
g4
(g5
g6
Vsports
p7122
tp7123
Rp7124
atp7125
a(S'PMOIndia'
p7126
(lp7127
(lp7128
(lp7129
g4
(g5
g6
Vmumbai-india
p7130
tp7131
Rp7132
a(lp7133
g4
(g5
g6
Vpolitics
p7134
tp7135
Rp7136
atp7137
a(S'SeekingAlphaTek'
p7138
(lp7139
(lp7140
(lp7141
(lp7142
g4
(g5
g6
Vtechnology
p7143
tp7144
Rp7145
atp7146
a(S'wjeffmartin'
p7147
(lp7148
(lp7149
(lp7150
(lp7151
g4
(g5
g6
Vtechnology
p7152
tp7153
Rp7154
ag4
(g5
g6
Vbusiness
p7155
tp7156
Rp7157
atp7158
a(S'IamArrtiPuuri'
p7159
(lp7160
(lp7161
g4
(g5
g6
Vbangalore-india
p7162
tp7163
Rp7164
ag4
(g5
g6
Vmumbai-india
p7165
tp7166
Rp7167
a(lp7168
(lp7169
g4
(g5
g6
Ventertainment
p7170
tp7171
Rp7172
atp7173
a(S'wsjrock'
p7174
(lp7175
(lp7176
(lp7177
g4
(g5
g6
Vnew-york-usa
p7178
tp7179
Rp7180
a(lp7181
g4
(g5
g6
Ventertainment
p7182
tp7183
Rp7184
atp7185
a(S'RepScottPeters'
p7186
(lp7187
(lp7188
g4
(g5
g6
Vsan-francisco-usa
p7189
tp7190
Rp7191
ag4
(g5
g6
Vnew-york-usa
p7192
tp7193
Rp7194
ag4
(g5
g6
Vboston-usa
p7195
tp7196
Rp7197
a(lp7198
(lp7199
g4
(g5
g6
Vpolitics
p7200
tp7201
Rp7202
atp7203
a(S'KerrySOMalley'
p7204
(lp7205
(lp7206
(lp7207
(lp7208
g4
(g5
g6
Vbusiness
p7209
tp7210
Rp7211
atp7212
a(S'CBSMoneyWatch'
p7213
(lp7214
(lp7215
(lp7216
g4
(g5
g6
Vnew-york-usa
p7217
tp7218
Rp7219
a(lp7220
g4
(g5
g6
Vbusiness
p7221
tp7222
Rp7223
atp7224
a(S'skillshare'
p7225
(lp7226
(lp7227
g4
(g5
g6
Vnew-york-usa
p7228
tp7229
Rp7230
a(lp7231
g4
(g5
g6
Vnew-york-usa
p7232
tp7233
Rp7234
a(lp7235
g4
(g5
g6
Vtechnology
p7236
tp7237
Rp7238
atp7239
a(S'teamreboot'
p7240
(lp7241
(lp7242
(lp7243
g4
(g5
g6
Vnew-york-usa
p7244
tp7245
Rp7246
a(lp7247
g4
(g5
g6
Vtechnology
p7248
tp7249
Rp7250
ag4
(g5
g6
Vbusiness
p7251
tp7252
Rp7253
atp7254
a(S'RepBrianHiggins'
p7255
(lp7256
(lp7257
(lp7258
(lp7259
g4
(g5
g6
Vpolitics
p7260
tp7261
Rp7262
atp7263
a(S'boogiecousins'
p7264
(lp7265
(lp7266
g4
(g5
g6
Vsan-francisco-usa
p7267
tp7268
Rp7269
ag4
(g5
g6
Vnew-york-usa
p7270
tp7271
Rp7272
ag4
(g5
g6
Vboston-usa
p7273
tp7274
Rp7275
a(lp7276
(lp7277
g4
(g5
g6
Vsports
p7278
tp7279
Rp7280
atp7281
a(S'RepRonPaul'
p7282
(lp7283
g4
(g5
g6
Vnew-york-usa
p7284
tp7285
Rp7286
a(lp7287
g4
(g5
g6
Vsan-francisco-usa
p7288
tp7289
Rp7290
ag4
(g5
g6
Vnew-york-usa
p7291
tp7292
Rp7293
ag4
(g5
g6
Vboston-usa
p7294
tp7295
Rp7296
a(lp7297
(lp7298
g4
(g5
g6
Vpolitics
p7299
tp7300
Rp7301
atp7302
a(S'jrcelski'
p7303
(lp7304
(lp7305
(lp7306
(lp7307
g4
(g5
g6
Vsports
p7308
tp7309
Rp7310
atp7311
a(S'RyanRottman'
p7312
(lp7313
g4
(g5
g6
Vsan-francisco-usa
p7314
tp7315
Rp7316
a(lp7317
(lp7318
g4
(g5
g6
Vsan-francisco-usa
p7319
tp7320
Rp7321
a(lp7322
g4
(g5
g6
Ventertainment
p7323
tp7324
Rp7325
atp7326
a(S'yoonrob'
p7327
(lp7328
(lp7329
(lp7330
g4
(g5
g6
Vsan-francisco-usa
p7331
tp7332
Rp7333
ag4
(g5
g6
Vnew-york-usa
p7334
tp7335
Rp7336
ag4
(g5
g6
Vboston-usa
p7337
tp7338
Rp7339
a(lp7340
g4
(g5
g6
Vpolitics
p7341
tp7342
Rp7343
atp7344
a(S'JeffFletcherOCR'
p7345
(lp7346
(lp7347
(lp7348
g4
(g5
g6
Vsan-francisco-usa
p7349
tp7350
Rp7351
a(lp7352
g4
(g5
g6
Vsports
p7353
tp7354
Rp7355
atp7356
a(S'SI_PeterKing'
p7357
(lp7358
(lp7359
(lp7360
(lp7361
g4
(g5
g6
Vsports
p7362
tp7363
Rp7364
atp7365
a(S'GreenDay'
p7366
(lp7367
(lp7368
(lp7369
g4
(g5
g6
Vsan-francisco-usa
p7370
tp7371
Rp7372
a(lp7373
g4
(g5
g6
Ventertainment
p7374
tp7375
Rp7376
atp7377
a(S'dcbigjohn'
p7378
(lp7379
(lp7380
g4
(g5
g6
Vsan-francisco-usa
p7381
tp7382
Rp7383
ag4
(g5
g6
Vnew-york-usa
p7384
tp7385
Rp7386
ag4
(g5
g6
Vboston-usa
p7387
tp7388
Rp7389
a(lp7390
(lp7391
g4
(g5
g6
Vpolitics
p7392
tp7393
Rp7394
atp7395
a(S'OnlineCFO'
p7396
(lp7397
(lp7398
(lp7399
g4
(g5
g6
Vsan-francisco-usa
p7400
tp7401
Rp7402
ag4
(g5
g6
Vnew-york-usa
p7403
tp7404
Rp7405
ag4
(g5
g6
Vboston-usa
p7406
tp7407
Rp7408
a(lp7409
g4
(g5
g6
Vbusiness
p7410
tp7411
Rp7412
atp7413
a(S'RBlumenstein'
p7414
(lp7415
(lp7416
(lp7417
(lp7418
g4
(g5
g6
Vbusiness
p7419
tp7420
Rp7421
atp7422
a(S'SenatorHeitkamp'
p7423
(lp7424
(lp7425
g4
(g5
g6
Vsan-francisco-usa
p7426
tp7427
Rp7428
ag4
(g5
g6
Vnew-york-usa
p7429
tp7430
Rp7431
ag4
(g5
g6
Vboston-usa
p7432
tp7433
Rp7434
a(lp7435
(lp7436
g4
(g5
g6
Vpolitics
p7437
tp7438
Rp7439
atp7440
a(S'evanspiegel'
p7441
(lp7442
(lp7443
(lp7444
g4
(g5
g6
Vsan-francisco-usa
p7445
tp7446
Rp7447
a(lp7448
g4
(g5
g6
Vtechnology
p7449
tp7450
Rp7451
ag4
(g5
g6
Vbusiness
p7452
tp7453
Rp7454
atp7455
a(S'GabbyGiffords'
p7456
(lp7457
(lp7458
g4
(g5
g6
Vsan-francisco-usa
p7459
tp7460
Rp7461
ag4
(g5
g6
Vnew-york-usa
p7462
tp7463
Rp7464
ag4
(g5
g6
Vboston-usa
p7465
tp7466
Rp7467
a(lp7468
(lp7469
g4
(g5
g6
Vpolitics
p7470
tp7471
Rp7472
atp7473
a(S'damianpaletta'
p7474
(lp7475
(lp7476
(lp7477
(lp7478
g4
(g5
g6
Vbusiness
p7479
tp7480
Rp7481
atp7482
a(S'thisisdspan'
p7483
(lp7484
g4
(g5
g6
Vnew-york-usa
p7485
tp7486
Rp7487
a(lp7488
g4
(g5
g6
Vsan-francisco-usa
p7489
tp7490
Rp7491
ag4
(g5
g6
Vnew-york-usa
p7492
tp7493
Rp7494
ag4
(g5
g6
Vboston-usa
p7495
tp7496
Rp7497
a(lp7498
(lp7499
g4
(g5
g6
Vsports
p7500
tp7501
Rp7502
atp7503
a(S'nicoleleeCNET'
p7504
(lp7505
(lp7506
(lp7507
g4
(g5
g6
Vsan-francisco-usa
p7508
tp7509
Rp7510
a(lp7511
g4
(g5
g6
Vtechnology
p7512
tp7513
Rp7514
atp7515
a(S'MeGovernment'
p7516
(lp7517
(lp7518
(lp7519
(lp7520
g4
(g5
g6
Vpolitics
p7521
tp7522
Rp7523
atp7524
a(S'rangeva'
p7525
(lp7526
(lp7527
(lp7528
(lp7529
g4
(g5
g6
Vtechnology
p7530
tp7531
Rp7532
ag4
(g5
g6
Vbusiness
p7533
tp7534
Rp7535
atp7536
a(S'BillGates'
p7537
(lp7538
(lp7539
(lp7540
(lp7541
g4
(g5
g6
Vtechnology
p7542
tp7543
Rp7544
ag4
(g5
g6
Vbusiness
p7545
tp7546
Rp7547
atp7548
a(S'greivisvasquez'
p7549
(lp7550
(lp7551
g4
(g5
g6
Vsan-francisco-usa
p7552
tp7553
Rp7554
ag4
(g5
g6
Vnew-york-usa
p7555
tp7556
Rp7557
ag4
(g5
g6
Vboston-usa
p7558
tp7559
Rp7560
a(lp7561
(lp7562
g4
(g5
g6
Vsports
p7563
tp7564
Rp7565
atp7566
a(S'ReggieBush'
p7567
(lp7568
g4
(g5
g6
Vnew-york-usa
p7569
tp7570
Rp7571
a(lp7572
(lp7573
(lp7574
g4
(g5
g6
Ventertainment
p7575
tp7576
Rp7577
atp7578
a(S'ITValueCreator'
p7579
(lp7580
(lp7581
(lp7582
(lp7583
g4
(g5
g6
Vtechnology
p7584
tp7585
Rp7586
ag4
(g5
g6
Vbusiness
p7587
tp7588
Rp7589
atp7590
a(S'Reddy'
p7591
(lp7592
(lp7593
(lp7594
(lp7595
g4
(g5
g6
Vbusiness
p7596
tp7597
Rp7598
atp7599
a(S'YahooDevilBall'
p7600
(lp7601
g4
(g5
g6
Vnew-york-usa
p7602
tp7603
Rp7604
a(lp7605
(lp7606
(lp7607
g4
(g5
g6
Vsports
p7608
tp7609
Rp7610
atp7611
a(S'jjschatz'
p7612
(lp7613
(lp7614
g4
(g5
g6
Vsan-francisco-usa
p7615
tp7616
Rp7617
ag4
(g5
g6
Vnew-york-usa
p7618
tp7619
Rp7620
ag4
(g5
g6
Vboston-usa
p7621
tp7622
Rp7623
a(lp7624
(lp7625
g4
(g5
g6
Vpolitics
p7626
tp7627
Rp7628
atp7629
a(S'iamwill'
p7630
(lp7631
(lp7632
(lp7633
(lp7634
g4
(g5
g6
Ventertainment
p7635
tp7636
Rp7637
atp7638
a(S'RonBrownstein'
p7639
(lp7640
(lp7641
(lp7642
(lp7643
g4
(g5
g6
Vpolitics
p7644
tp7645
Rp7646
atp7647
a(S'daveburdick'
p7648
(lp7649
(lp7650
(lp7651
(lp7652
g4
(g5
g6
Ventertainment
p7653
tp7654
Rp7655
atp7656
a(S'rokornot'
p7657
(lp7658
(lp7659
g4
(g5
g6
Vsan-francisco-usa
p7660
tp7661
Rp7662
ag4
(g5
g6
Vnew-york-usa
p7663
tp7664
Rp7665
ag4
(g5
g6
Vboston-usa
p7666
tp7667
Rp7668
a(lp7669
g4
(g5
g6
Vsan-francisco-usa
p7670
tp7671
Rp7672
a(lp7673
g4
(g5
g6
Vsports
p7674
tp7675
Rp7676
atp7677
a(S'CarmenSense'
p7678
(lp7679
(lp7680
(lp7681
g4
(g5
g6
Vnew-york-usa
p7682
tp7683
Rp7684
a(lp7685
g4
(g5
g6
Vbusiness
p7686
tp7687
Rp7688
atp7689
a(S'ItsStephRice'
p7690
(lp7691
(lp7692
(lp7693
(lp7694
g4
(g5
g6
Vsports
p7695
tp7696
Rp7697
atp7698
a(S'dkberman'
p7699
(lp7700
(lp7701
(lp7702
g4
(g5
g6
Vnew-york-usa
p7703
tp7704
Rp7705
a(lp7706
g4
(g5
g6
Vbusiness
p7707
tp7708
Rp7709
atp7710
a(S'WSJ'
p7711
(lp7712
(lp7713
(lp7714
g4
(g5
g6
Vnew-york-usa
p7715
tp7716
Rp7717
a(lp7718
g4
(g5
g6
Vbusiness
p7719
tp7720
Rp7721
atp7722
a(S'udi_nir'
p7723
(lp7724
(lp7725
(lp7726
(lp7727
g4
(g5
g6
Vtechnology
p7728
tp7729
Rp7730
ag4
(g5
g6
Vbusiness
p7731
tp7732
Rp7733
atp7734
a(S'Padmasree'
p7735
(lp7736
(lp7737
(lp7738
g4
(g5
g6
Vsan-francisco-usa
p7739
tp7740
Rp7741
a(lp7742
g4
(g5
g6
Vtechnology
p7743
tp7744
Rp7745
atp7746
a(S'Nas'
p7747
(lp7748
g4
(g5
g6
Vnew-york-usa
p7749
tp7750
Rp7751
a(lp7752
(lp7753
g4
(g5
g6
Vnew-york-usa
p7754
tp7755
Rp7756
a(lp7757
g4
(g5
g6
Ventertainment
p7758
tp7759
Rp7760
atp7761
a(S'ESPNLA710'
p7762
(lp7763
g4
(g5
g6
Vsan-francisco-usa
p7764
tp7765
Rp7766
a(lp7767
g4
(g5
g6
Vsan-francisco-usa
p7768
tp7769
Rp7770
a(lp7771
g4
(g5
g6
Vsan-francisco-usa
p7772
tp7773
Rp7774
a(lp7775
g4
(g5
g6
Vsports
p7776
tp7777
Rp7778
atp7779
a(S'BuzzFeedAndrew'
p7780
(lp7781
(lp7782
(lp7783
g4
(g5
g6
Vnew-york-usa
p7784
tp7785
Rp7786
a(lp7787
g4
(g5
g6
Vpolitics
p7788
tp7789
Rp7790
atp7791
a(S'DrWaheedH'
p7792
(lp7793
(lp7794
(lp7795
(lp7796
g4
(g5
g6
Vpolitics
p7797
tp7798
Rp7799
atp7800
a(S'myspacetom'
p7801
(lp7802
g4
(g5
g6
Vsan-francisco-usa
p7803
tp7804
Rp7805
a(lp7806
(lp7807
g4
(g5
g6
Vsan-francisco-usa
p7808
tp7809
Rp7810
a(lp7811
g4
(g5
g6
Vtechnology
p7812
tp7813
Rp7814
atp7815
a(S'MauriceEdu'
p7816
(lp7817
(lp7818
g4
(g5
g6
Vsan-francisco-usa
p7819
tp7820
Rp7821
ag4
(g5
g6
Vnew-york-usa
p7822
tp7823
Rp7824
ag4
(g5
g6
Vlondon-uk
p7825
tp7826
Rp7827
ag4
(g5
g6
Vboston-usa
p7828
tp7829
Rp7830
a(lp7831
(lp7832
g4
(g5
g6
Vsports
p7833
tp7834
Rp7835
atp7836
a(S'andrewcnn'
p7837
(lp7838
(lp7839
(lp7840
g4
(g5
g6
Vbangalore-india
p7841
tp7842
Rp7843
a(lp7844
g4
(g5
g6
Vbusiness
p7845
tp7846
Rp7847
atp7848
a(S'marketingplaza'
p7849
(lp7850
(lp7851
(lp7852
g4
(g5
g6
Vsan-francisco-usa
p7853
tp7854
Rp7855
ag4
(g5
g6
Vnew-york-usa
p7856
tp7857
Rp7858
ag4
(g5
g6
Vboston-usa
p7859
tp7860
Rp7861
a(lp7862
g4
(g5
g6
Vbusiness
p7863
tp7864
Rp7865
atp7866
a(S'PowaiLV'
p7867
(lp7868
(lp7869
(lp7870
g4
(g5
g6
Vmumbai-india
p7871
tp7872
Rp7873
a(lp7874
g4
(g5
g6
Vtechnology
p7875
tp7876
Rp7877
ag4
(g5
g6
Vbusiness
p7878
tp7879
Rp7880
atp7881
a(S'posterous'
p7882
(lp7883
(lp7884
g4
(g5
g6
Vsan-francisco-usa
p7885
tp7886
Rp7887
a(lp7888
g4
(g5
g6
Vsan-francisco-usa
p7889
tp7890
Rp7891
a(lp7892
g4
(g5
g6
Vtechnology
p7893
tp7894
Rp7895
atp7896
a(S'DuncanBannatyne'
p7897
(lp7898
g4
(g5
g6
Vlondon-uk
p7899
tp7900
Rp7901
a(lp7902
(lp7903
g4
(g5
g6
Vlondon-uk
p7904
tp7905
Rp7906
a(lp7907
g4
(g5
g6
Vbusiness
p7908
tp7909
Rp7910
atp7911
a(S'BonJovi'
p7912
(lp7913
(lp7914
(lp7915
g4
(g5
g6
Vnew-york-usa
p7916
tp7917
Rp7918
a(lp7919
g4
(g5
g6
Ventertainment
p7920
tp7921
Rp7922
atp7923
a(S'PatrickWillis52'
p7924
(lp7925
(lp7926
(lp7927
(lp7928
g4
(g5
g6
Vsports
p7929
tp7930
Rp7931
atp7932
a(S'EricKintz'
p7933
(lp7934
g4
(g5
g6
Vsan-francisco-usa
p7935
tp7936
Rp7937
a(lp7938
(lp7939
g4
(g5
g6
Vsan-francisco-usa
p7940
tp7941
Rp7942
a(lp7943
g4
(g5
g6
Vtechnology
p7944
tp7945
Rp7946
ag4
(g5
g6
Vbusiness
p7947
tp7948
Rp7949
atp7950
a(S'jjasonchow'
p7951
(lp7952
(lp7953
(lp7954
g4
(g5
g6
Vbangalore-india
p7955
tp7956
Rp7957
a(lp7958
g4
(g5
g6
Ventertainment
p7959
tp7960
Rp7961
atp7962
a(S'PressSec'
p7963
(lp7964
g4
(g5
g6
Vnew-york-usa
p7965
tp7966
Rp7967
a(lp7968
(lp7969
g4
(g5
g6
Vsan-francisco-usa
p7970
tp7971
Rp7972
ag4
(g5
g6
Vnew-york-usa
p7973
tp7974
Rp7975
ag4
(g5
g6
Vboston-usa
p7976
tp7977
Rp7978
a(lp7979
g4
(g5
g6
Vpolitics
p7980
tp7981
Rp7982
atp7983
a(S'RepMurphyFL'
p7984
(lp7985
(lp7986
g4
(g5
g6
Vsan-francisco-usa
p7987
tp7988
Rp7989
ag4
(g5
g6
Vnew-york-usa
p7990
tp7991
Rp7992
ag4
(g5
g6
Vboston-usa
p7993
tp7994
Rp7995
a(lp7996
(lp7997
g4
(g5
g6
Vpolitics
p7998
tp7999
Rp8000
atp8001
a(S'WSJpolitics'
p8002
(lp8003
(lp8004
(lp8005
(lp8006
g4
(g5
g6
Vpolitics
p8007
tp8008
Rp8009
atp8010
a(S'McKQuarterly'
p8011
(lp8012
(lp8013
(lp8014
(lp8015
g4
(g5
g6
Vbusiness
p8016
tp8017
Rp8018
atp8019
a(S'paulg'
p8020
(lp8021
(lp8022
(lp8023
(lp8024
g4
(g5
g6
Vtechnology
p8025
tp8026
Rp8027
atp8028
a(S'thegeoff2000'
p8029
(lp8030
(lp8031
(lp8032
(lp8033
g4
(g5
g6
Vsports
p8034
tp8035
Rp8036
atp8037
a(S'IvanBabikov'
p8038
(lp8039
(lp8040
(lp8041
(lp8042
g4
(g5
g6
Vsports
p8043
tp8044
Rp8045
atp8046
a(S'RogerWCheng'
p8047
(lp8048
g4
(g5
g6
Vnew-york-usa
p8049
tp8050
Rp8051
a(lp8052
(lp8053
g4
(g5
g6
Vnew-york-usa
p8054
tp8055
Rp8056
a(lp8057
g4
(g5
g6
Vtechnology
p8058
tp8059
Rp8060
atp8061
a(S'fwd'
p8062
(lp8063
g4
(g5
g6
Vnew-york-usa
p8064
tp8065
Rp8066
a(lp8067
(lp8068
(lp8069
g4
(g5
g6
Vtechnology
p8070
tp8071
Rp8072
atp8073
a(S'Techland'
p8074
(lp8075
g4
(g5
g6
Vnew-york-usa
p8076
tp8077
Rp8078
a(lp8079
(lp8080
(lp8081
g4
(g5
g6
Vtechnology
p8082
tp8083
Rp8084
atp8085
a(S'JTandNL'
p8086
(lp8087
(lp8088
(lp8089
(lp8090
g4
(g5
g6
Ventertainment
p8091
tp8092
Rp8093
atp8094
a(S'YahooDagger'
p8095
(lp8096
(lp8097
(lp8098
(lp8099
g4
(g5
g6
Vsports
p8100
tp8101
Rp8102
atp8103
a(S'StaceyGoers'
p8104
(lp8105
(lp8106
g4
(g5
g6
Vsan-francisco-usa
p8107
tp8108
Rp8109
ag4
(g5
g6
Vnew-york-usa
p8110
tp8111
Rp8112
ag4
(g5
g6
Vboston-usa
p8113
tp8114
Rp8115
a(lp8116
(lp8117
g4
(g5
g6
Vpolitics
p8118
tp8119
Rp8120
atp8121
a(S'timoreilly'
p8122
(lp8123
(lp8124
(lp8125
g4
(g5
g6
Vsan-francisco-usa
p8126
tp8127
Rp8128
a(lp8129
g4
(g5
g6
Vtechnology
p8130
tp8131
Rp8132
atp8133
a(S'EyeOfJackieChan'
p8134
(lp8135
g4
(g5
g6
Vmumbai-india
p8136
tp8137
Rp8138
a(lp8139
(lp8140
(lp8141
g4
(g5
g6
Ventertainment
p8142
tp8143
Rp8144
atp8145
a(S'MattFutterman'
p8146
(lp8147
(lp8148
(lp8149
(lp8150
g4
(g5
g6
Vsports
p8151
tp8152
Rp8153
atp8154
a(S'SaxbyChambliss'
p8155
(lp8156
(lp8157
g4
(g5
g6
Vsan-francisco-usa
p8158
tp8159
Rp8160
ag4
(g5
g6
Vnew-york-usa
p8161
tp8162
Rp8163
ag4
(g5
g6
Vboston-usa
p8164
tp8165
Rp8166
a(lp8167
(lp8168
g4
(g5
g6
Vpolitics
p8169
tp8170
Rp8171
atp8172
a(S'RamiHamdalla'
p8173
(lp8174
(lp8175
(lp8176
(lp8177
g4
(g5
g6
Vpolitics
p8178
tp8179
Rp8180
atp8181
a(S'calebsilver'
p8182
(lp8183
(lp8184
(lp8185
(lp8186
g4
(g5
g6
Vbusiness
p8187
tp8188
Rp8189
atp8190
a(S'robynpeterson'
p8191
(lp8192
(lp8193
(lp8194
g4
(g5
g6
Vnew-york-usa
p8195
tp8196
Rp8197
a(lp8198
g4
(g5
g6
Vtechnology
p8199
tp8200
Rp8201
atp8202
a(S'sportsdeskCNN'
p8203
(lp8204
(lp8205
(lp8206
g4
(g5
g6
Vnew-york-usa
p8207
tp8208
Rp8209
a(lp8210
g4
(g5
g6
Vsports
p8211
tp8212
Rp8213
atp8214
a(S'cloudcontacts'
p8215
(lp8216
(lp8217
g4
(g5
g6
Vsan-francisco-usa
p8218
tp8219
Rp8220
a(lp8221
(lp8222
g4
(g5
g6
Vtechnology
p8223
tp8224
Rp8225
atp8226
a(S'TheSocialCFO'
p8227
(lp8228
(lp8229
(lp8230
(lp8231
g4
(g5
g6
Vbusiness
p8232
tp8233
Rp8234
atp8235
a(S'gautam_rode'
p8236
(lp8237
(lp8238
g4
(g5
g6
Vbangalore-india
p8239
tp8240
Rp8241
ag4
(g5
g6
Vmumbai-india
p8242
tp8243
Rp8244
a(lp8245
(lp8246
g4
(g5
g6
Ventertainment
p8247
tp8248
Rp8249
atp8250
a(S'YahooPuckDaddy'
p8251
(lp8252
(lp8253
(lp8254
(lp8255
g4
(g5
g6
Vsports
p8256
tp8257
Rp8258
atp8259
a(S'SenBobCorker'
p8260
(lp8261
g4
(g5
g6
Vnew-york-usa
p8262
tp8263
Rp8264
a(lp8265
g4
(g5
g6
Vsan-francisco-usa
p8266
tp8267
Rp8268
ag4
(g5
g6
Vnew-york-usa
p8269
tp8270
Rp8271
ag4
(g5
g6
Vboston-usa
p8272
tp8273
Rp8274
a(lp8275
(lp8276
g4
(g5
g6
Vpolitics
p8277
tp8278
Rp8279
atp8280
a(S'SenJohnHoeven'
p8281
(lp8282
(lp8283
g4
(g5
g6
Vsan-francisco-usa
p8284
tp8285
Rp8286
ag4
(g5
g6
Vnew-york-usa
p8287
tp8288
Rp8289
ag4
(g5
g6
Vboston-usa
p8290
tp8291
Rp8292
a(lp8293
(lp8294
g4
(g5
g6
Vpolitics
p8295
tp8296
Rp8297
atp8298
a(S'GarySinise'
p8299
(lp8300
(lp8301
(lp8302
g4
(g5
g6
Vsan-francisco-usa
p8303
tp8304
Rp8305
ag4
(g5
g6
Vnew-york-usa
p8306
tp8307
Rp8308
ag4
(g5
g6
Vboston-usa
p8309
tp8310
Rp8311
a(lp8312
g4
(g5
g6
Ventertainment
p8313
tp8314
Rp8315
atp8316
a(S'WSJSports'
p8317
(lp8318
g4
(g5
g6
Vnew-york-usa
p8319
tp8320
Rp8321
a(lp8322
(lp8323
g4
(g5
g6
Vnew-york-usa
p8324
tp8325
Rp8326
a(lp8327
g4
(g5
g6
Vsports
p8328
tp8329
Rp8330
atp8331
a(S'howardlindzon'
p8332
(lp8333
(lp8334
(lp8335
(lp8336
g4
(g5
g6
Vtechnology
p8337
tp8338
Rp8339
ag4
(g5
g6
Vbusiness
p8340
tp8341
Rp8342
atp8343
a(S'JDMahama'
p8344
(lp8345
(lp8346
(lp8347
(lp8348
g4
(g5
g6
Vpolitics
p8349
tp8350
Rp8351
atp8352
a(S'tomweirsports'
p8353
(lp8354
(lp8355
(lp8356
(lp8357
g4
(g5
g6
Vsports
p8358
tp8359
Rp8360
atp8361
a(S'BinkleyOnStyle'
p8362
(lp8363
g4
(g5
g6
Vsan-francisco-usa
p8364
tp8365
Rp8366
a(lp8367
(lp8368
g4
(g5
g6
Vsan-francisco-usa
p8369
tp8370
Rp8371
a(lp8372
g4
(g5
g6
Ventertainment
p8373
tp8374
Rp8375
atp8376
a(S'MedvedevRussiaE'
p8377
(lp8378
g4
(g5
g6
Vlondon-uk
p8379
tp8380
Rp8381
a(lp8382
(lp8383
(lp8384
g4
(g5
g6
Vpolitics
p8385
tp8386
Rp8387
atp8388
a(S'gregskidmore'
p8389
(lp8390
(lp8391
(lp8392
(lp8393
g4
(g5
g6
Vbusiness
p8394
tp8395
Rp8396
atp8397
a(S'jonathaneppers'
p8398
(lp8399
(lp8400
(lp8401
(lp8402
g4
(g5
g6
Vtechnology
p8403
tp8404
Rp8405
atp8406
a(S'Pink'
p8407
(lp8408
(lp8409
(lp8410
g4
(g5
g6
Vsan-francisco-usa
p8411
tp8412
Rp8413
a(lp8414
g4
(g5
g6
Ventertainment
p8415
tp8416
Rp8417
atp8418
a(S'patricknorton'
p8419
(lp8420
g4
(g5
g6
Vsan-francisco-usa
p8421
tp8422
Rp8423
a(lp8424
(lp8425
g4
(g5
g6
Vsan-francisco-usa
p8426
tp8427
Rp8428
ag4
(g5
g6
Vnew-york-usa
p8429
tp8430
Rp8431
ag4
(g5
g6
Vboston-usa
p8432
tp8433
Rp8434
a(lp8435
g4
(g5
g6
Vtechnology
p8436
tp8437
Rp8438
atp8439
a(S'ForbesOpinion'
p8440
(lp8441
(lp8442
(lp8443
g4
(g5
g6
Vnew-york-usa
p8444
tp8445
Rp8446
a(lp8447
g4
(g5
g6
Vbusiness
p8448
tp8449
Rp8450
atp8451
a(S'StevenEBryant'
p8452
(lp8453
(lp8454
(lp8455
(lp8456
g4
(g5
g6
Vbusiness
p8457
tp8458
Rp8459
atp8460
a(S'RepAndyBarr'
p8461
(lp8462
g4
(g5
g6
Vnew-york-usa
p8463
tp8464
Rp8465
a(lp8466
g4
(g5
g6
Vsan-francisco-usa
p8467
tp8468
Rp8469
ag4
(g5
g6
Vnew-york-usa
p8470
tp8471
Rp8472
ag4
(g5
g6
Vboston-usa
p8473
tp8474
Rp8475
a(lp8476
(lp8477
g4
(g5
g6
Vpolitics
p8478
tp8479
Rp8480
atp8481
a(S'RepChrisSmith'
p8482
(lp8483
(lp8484
g4
(g5
g6
Vsan-francisco-usa
p8485
tp8486
Rp8487
ag4
(g5
g6
Vnew-york-usa
p8488
tp8489
Rp8490
ag4
(g5
g6
Vboston-usa
p8491
tp8492
Rp8493
a(lp8494
(lp8495
g4
(g5
g6
Vpolitics
p8496
tp8497
Rp8498
atp8499
a(S'Gorman_Siobhan'
p8500
(lp8501
(lp8502
(lp8503
(lp8504
g4
(g5
g6
Vpolitics
p8505
tp8506
Rp8507
atp8508
a(S'VoteMarsha'
p8509
(lp8510
(lp8511
g4
(g5
g6
Vsan-francisco-usa
p8512
tp8513
Rp8514
ag4
(g5
g6
Vnew-york-usa
p8515
tp8516
Rp8517
ag4
(g5
g6
Vboston-usa
p8518
tp8519
Rp8520
a(lp8521
(lp8522
g4
(g5
g6
Vpolitics
p8523
tp8524
Rp8525
atp8526
a(S'ekhatami'
p8527
(lp8528
(lp8529
g4
(g5
g6
Vsan-francisco-usa
p8530
tp8531
Rp8532
ag4
(g5
g6
Vnew-york-usa
p8533
tp8534
Rp8535
ag4
(g5
g6
Vboston-usa
p8536
tp8537
Rp8538
a(lp8539
(lp8540
g4
(g5
g6
Vpolitics
p8541
tp8542
Rp8543
atp8544
a(S'RobMargetta'
p8545
(lp8546
(lp8547
g4
(g5
g6
Vsan-francisco-usa
p8548
tp8549
Rp8550
ag4
(g5
g6
Vnew-york-usa
p8551
tp8552
Rp8553
ag4
(g5
g6
Vboston-usa
p8554
tp8555
Rp8556
a(lp8557
(lp8558
g4
(g5
g6
Vpolitics
p8559
tp8560
Rp8561
atp8562
a(S'BenParamore'
p8563
(lp8564
(lp8565
(lp8566
(lp8567
g4
(g5
g6
Vbusiness
p8568
tp8569
Rp8570
atp8571
a(S'prcavacosilva'
p8572
(lp8573
(lp8574
(lp8575
(lp8576
g4
(g5
g6
Vpolitics
p8577
tp8578
Rp8579
atp8580
a(S'CNNPR'
p8581
(lp8582
(lp8583
(lp8584
(lp8585
g4
(g5
g6
Vpolitics
p8586
tp8587
Rp8588
atp8589
a(S'CindyCrawford'
p8590
(lp8591
g4
(g5
g6
Vsan-francisco-usa
p8592
tp8593
Rp8594
a(lp8595
(lp8596
g4
(g5
g6
Vsan-francisco-usa
p8597
tp8598
Rp8599
a(lp8600
g4
(g5
g6
Ventertainment
p8601
tp8602
Rp8603
atp8604
a(S'LilTunechi'
p8605
(lp8606
g4
(g5
g6
Vnew-york-usa
p8607
tp8608
Rp8609
a(lp8610
(lp8611
(lp8612
g4
(g5
g6
Ventertainment
p8613
tp8614
Rp8615
atp8616
a(S'MHPshow'
p8617
(lp8618
(lp8619
(lp8620
g4
(g5
g6
Vnew-york-usa
p8621
tp8622
Rp8623
a(lp8624
g4
(g5
g6
Vpolitics
p8625
tp8626
Rp8627
atp8628
a(S'anandmahindra'
p8629
(lp8630
(lp8631
(lp8632
g4
(g5
g6
Vmumbai-india
p8633
tp8634
Rp8635
a(lp8636
g4
(g5
g6
Vbusiness
p8637
tp8638
Rp8639
atp8640
a(S'TechnoBuffalo'
p8641
(lp8642
(lp8643
(lp8644
(lp8645
g4
(g5
g6
Vtechnology
p8646
tp8647
Rp8648
atp8649
a(S'mrcoolone1'
p8650
(lp8651
(lp8652
(lp8653
(lp8654
g4
(g5
g6
Vbusiness
p8655
tp8656
Rp8657
atp8658
a(S'shrepfur'
p8659
(lp8660
(lp8661
(lp8662
(lp8663
g4
(g5
g6
Vtechnology
p8664
tp8665
Rp8666
ag4
(g5
g6
Vbusiness
p8667
tp8668
Rp8669
atp8670
a(S'emjbanks'
p8671
(lp8672
g4
(g5
g6
Vnew-york-usa
p8673
tp8674
Rp8675
a(lp8676
(lp8677
g4
(g5
g6
Vnew-york-usa
p8678
tp8679
Rp8680
a(lp8681
g4
(g5
g6
Vtechnology
p8682
tp8683
Rp8684
atp8685
a(S'georgezachary'
p8686
(lp8687
(lp8688
(lp8689
g4
(g5
g6
Vsan-francisco-usa
p8690
tp8691
Rp8692
a(lp8693
g4
(g5
g6
Vtechnology
p8694
tp8695
Rp8696
ag4
(g5
g6
Vbusiness
p8697
tp8698
Rp8699
atp8700
a(S'BackType'
p8701
(lp8702
(lp8703
g4
(g5
g6
Vsan-francisco-usa
p8704
tp8705
Rp8706
a(lp8707
g4
(g5
g6
Vsan-francisco-usa
p8708
tp8709
Rp8710
a(lp8711
g4
(g5
g6
Vtechnology
p8712
tp8713
Rp8714
atp8715
a(S'pedropintotv'
p8716
(lp8717
(lp8718
(lp8719
g4
(g5
g6
Vlondon-uk
p8720
tp8721
Rp8722
a(lp8723
g4
(g5
g6
Vsports
p8724
tp8725
Rp8726
atp8727
a(S'RenttheRunway'
p8728
(lp8729
(lp8730
g4
(g5
g6
Vnew-york-usa
p8731
tp8732
Rp8733
a(lp8734
g4
(g5
g6
Vnew-york-usa
p8735
tp8736
Rp8737
a(lp8738
g4
(g5
g6
Vtechnology
p8739
tp8740
Rp8741
atp8742
a(S'BillPlaschke'
p8743
(lp8744
g4
(g5
g6
Vsan-francisco-usa
p8745
tp8746
Rp8747
a(lp8748
(lp8749
g4
(g5
g6
Vsan-francisco-usa
p8750
tp8751
Rp8752
a(lp8753
g4
(g5
g6
Vsports
p8754
tp8755
Rp8756
atp8757
a(S'SBYudhoyono'
p8758
(lp8759
(lp8760
(lp8761
(lp8762
g4
(g5
g6
Vpolitics
p8763
tp8764
Rp8765
atp8766
a(S'JonHeymanCBS'
p8767
(lp8768
(lp8769
(lp8770
g4
(g5
g6
Vnew-york-usa
p8771
tp8772
Rp8773
a(lp8774
g4
(g5
g6
Vsports
p8775
tp8776
Rp8777
atp8778
a(S'BrianCostaWSJ'
p8779
(lp8780
(lp8781
(lp8782
g4
(g5
g6
Vnew-york-usa
p8783
tp8784
Rp8785
a(lp8786
g4
(g5
g6
Vsports
p8787
tp8788
Rp8789
atp8790
a(S'film_girl'
p8791
(lp8792
g4
(g5
g6
Vnew-york-usa
p8793
tp8794
Rp8795
a(lp8796
(lp8797
g4
(g5
g6
Vnew-york-usa
p8798
tp8799
Rp8800
a(lp8801
g4
(g5
g6
Vtechnology
p8802
tp8803
Rp8804
atp8805
a(S'esofge'
p8806
(lp8807
g4
(g5
g6
Vboston-usa
p8808
tp8809
Rp8810
a(lp8811
(lp8812
(lp8813
g4
(g5
g6
Vtechnology
p8814
tp8815
Rp8816
atp8817
a(S'thebravery'
p8818
(lp8819
g4
(g5
g6
Vsan-francisco-usa
p8820
tp8821
Rp8822
a(lp8823
(lp8824
g4
(g5
g6
Vsan-francisco-usa
p8825
tp8826
Rp8827
a(lp8828
g4
(g5
g6
Ventertainment
p8829
tp8830
Rp8831
atp8832
a(S'CNNSitRoom'
p8833
(lp8834
(lp8835
(lp8836
(lp8837
g4
(g5
g6
Vpolitics
p8838
tp8839
Rp8840
atp8841
a(S'kristinapet'
p8842
(lp8843
(lp8844
(lp8845
(lp8846
g4
(g5
g6
Vpolitics
p8847
tp8848
Rp8849
ag4
(g5
g6
Vbusiness
p8850
tp8851
Rp8852
atp8853
a(S'David_Gergen'
p8854
(lp8855
g4
(g5
g6
Vnew-york-usa
p8856
tp8857
Rp8858
a(lp8859
(lp8860
(lp8861
g4
(g5
g6
Vpolitics
p8862
tp8863
Rp8864
atp8865
a(S'SnapGoods'
p8866
(lp8867
(lp8868
g4
(g5
g6
Vnew-york-usa
p8869
tp8870
Rp8871
a(lp8872
(lp8873
g4
(g5
g6
Vtechnology
p8874
tp8875
Rp8876
atp8877
a(S'chr1sa'
p8878
(lp8879
(lp8880
(lp8881
(lp8882
g4
(g5
g6
Vtechnology
p8883
tp8884
Rp8885
atp8886
a(S'darrylktaft'
p8887
(lp8888
(lp8889
(lp8890
(lp8891
g4
(g5
g6
Vtechnology
p8892
tp8893
Rp8894
atp8895
a(S'lassecgen'
p8896
(lp8897
(lp8898
(lp8899
(lp8900
g4
(g5
g6
Vpolitics
p8901
tp8902
Rp8903
atp8904
a(S'WSJMoneyBeat'
p8905
(lp8906
(lp8907
(lp8908
g4
(g5
g6
Vnew-york-usa
p8909
tp8910
Rp8911
a(lp8912
g4
(g5
g6
Vbusiness
p8913
tp8914
Rp8915
atp8916
a(S'repmarkpocan'
p8917
(lp8918
(lp8919
g4
(g5
g6
Vsan-francisco-usa
p8920
tp8921
Rp8922
ag4
(g5
g6
Vnew-york-usa
p8923
tp8924
Rp8925
ag4
(g5
g6
Vboston-usa
p8926
tp8927
Rp8928
a(lp8929
(lp8930
g4
(g5
g6
Vpolitics
p8931
tp8932
Rp8933
atp8934
a(S'orenjacob'
p8935
(lp8936
(lp8937
(lp8938
(lp8939
g4
(g5
g6
Vtechnology
p8940
tp8941
Rp8942
atp8943
a(S'LalitKModi'
p8944
(lp8945
(lp8946
g4
(g5
g6
Vbangalore-india
p8947
tp8948
Rp8949
ag4
(g5
g6
Vmumbai-india
p8950
tp8951
Rp8952
a(lp8953
(lp8954
g4
(g5
g6
Vsports
p8955
tp8956
Rp8957
atp8958
a(S'hellikerk'
p8959
(lp8960
(lp8961
(lp8962
(lp8963
g4
(g5
g6
Vsports
p8964
tp8965
Rp8966
atp8967
a(S'GregPorto'
p8968
(lp8969
g4
(g5
g6
Vnew-york-usa
p8970
tp8971
Rp8972
a(lp8973
(lp8974
(lp8975
g4
(g5
g6
Vbusiness
p8976
tp8977
Rp8978
atp8979
a(S'KristinDSantos'
p8980
(lp8981
g4
(g5
g6
Vsan-francisco-usa
p8982
tp8983
Rp8984
a(lp8985
(lp8986
g4
(g5
g6
Vsan-francisco-usa
p8987
tp8988
Rp8989
a(lp8990
g4
(g5
g6
Ventertainment
p8991
tp8992
Rp8993
atp8994
a(S'Maelezo1'
p8995
(lp8996
g4
(g5
g6
Vmumbai-india
p8997
tp8998
Rp8999
a(lp9000
(lp9001
(lp9002
g4
(g5
g6
Vpolitics
p9003
tp9004
Rp9005
atp9006
a(S'YamiGautam_YG'
p9007
(lp9008
(lp9009
g4
(g5
g6
Vbangalore-india
p9010
tp9011
Rp9012
ag4
(g5
g6
Vmumbai-india
p9013
tp9014
Rp9015
a(lp9016
(lp9017
g4
(g5
g6
Ventertainment
p9018
tp9019
Rp9020
atp9021
a(S'GuyMansueto'
p9022
(lp9023
(lp9024
(lp9025
(lp9026
g4
(g5
g6
Vbusiness
p9027
tp9028
Rp9029
atp9030
a(S'ENews'
p9031
(lp9032
(lp9033
(lp9034
g4
(g5
g6
Vsan-francisco-usa
p9035
tp9036
Rp9037
a(lp9038
g4
(g5
g6
Ventertainment
p9039
tp9040
Rp9041
atp9042
a(S'CritterDJ'
p9043
(lp9044
(lp9045
g4
(g5
g6
Vsan-francisco-usa
p9046
tp9047
Rp9048
ag4
(g5
g6
Vnew-york-usa
p9049
tp9050
Rp9051
ag4
(g5
g6
Vboston-usa
p9052
tp9053
Rp9054
a(lp9055
g4
(g5
g6
Vnew-york-usa
p9056
tp9057
Rp9058
a(lp9059
g4
(g5
g6
Vpolitics
p9060
tp9061
Rp9062
atp9063
a(S'julianobelletti'
p9064
(lp9065
(lp9066
g4
(g5
g6
Vsan-francisco-usa
p9067
tp9068
Rp9069
ag4
(g5
g6
Vnew-york-usa
p9070
tp9071
Rp9072
ag4
(g5
g6
Vlondon-uk
p9073
tp9074
Rp9075
ag4
(g5
g6
Vboston-usa
p9076
tp9077
Rp9078
a(lp9079
(lp9080
g4
(g5
g6
Vsports
p9081
tp9082
Rp9083
atp9084
a(S'YahooSportsBox'
p9085
(lp9086
g4
(g5
g6
Vsan-francisco-usa
p9087
tp9088
Rp9089
a(lp9090
(lp9091
g4
(g5
g6
Vsan-francisco-usa
p9092
tp9093
Rp9094
a(lp9095
g4
(g5
g6
Vsports
p9096
tp9097
Rp9098
atp9099
a(S'karincaifaCNN'
p9100
(lp9101
(lp9102
(lp9103
(lp9104
g4
(g5
g6
Vtechnology
p9105
tp9106
Rp9107
atp9108
a(S'Malaysia_Gov'
p9109
(lp9110
g4
(g5
g6
Vbangalore-india
p9111
tp9112
Rp9113
a(lp9114
(lp9115
(lp9116
g4
(g5
g6
Vpolitics
p9117
tp9118
Rp9119
atp9120
a(S'NiketanMadhok'
p9121
(lp9122
(lp9123
g4
(g5
g6
Vbangalore-india
p9124
tp9125
Rp9126
ag4
(g5
g6
Vmumbai-india
p9127
tp9128
Rp9129
a(lp9130
g4
(g5
g6
Vmumbai-india
p9131
tp9132
Rp9133
a(lp9134
g4
(g5
g6
Ventertainment
p9135
tp9136
Rp9137
atp9138
a(S'MargvelashviliG'
p9139
(lp9140
(lp9141
(lp9142
(lp9143
g4
(g5
g6
Vpolitics
p9144
tp9145
Rp9146
atp9147
a(S'DanGraziano'
p9148
(lp9149
g4
(g5
g6
Vnew-york-usa
p9150
tp9151
Rp9152
a(lp9153
(lp9154
g4
(g5
g6
Vnew-york-usa
p9155
tp9156
Rp9157
a(lp9158
g4
(g5
g6
Vtechnology
p9159
tp9160
Rp9161
atp9162
a(S'Pinterest'
p9163
(lp9164
(lp9165
g4
(g5
g6
Vsan-francisco-usa
p9166
tp9167
Rp9168
a(lp9169
g4
(g5
g6
Vsan-francisco-usa
p9170
tp9171
Rp9172
a(lp9173
g4
(g5
g6
Vtechnology
p9174
tp9175
Rp9176
atp9177
a(S'JayGlazer'
p9178
(lp9179
(lp9180
(lp9181
(lp9182
g4
(g5
g6
Vsports
p9183
tp9184
Rp9185
atp9186
a(S'marthacoakley'
p9187
(lp9188
g4
(g5
g6
Vboston-usa
p9189
tp9190
Rp9191
a(lp9192
(lp9193
(lp9194
g4
(g5
g6
Vpolitics
p9195
tp9196
Rp9197
atp9198
a(S'SenFeinstein'
p9199
(lp9200
(lp9201
g4
(g5
g6
Vsan-francisco-usa
p9202
tp9203
Rp9204
ag4
(g5
g6
Vnew-york-usa
p9205
tp9206
Rp9207
ag4
(g5
g6
Vboston-usa
p9208
tp9209
Rp9210
a(lp9211
g4
(g5
g6
Vsan-francisco-usa
p9212
tp9213
Rp9214
a(lp9215
g4
(g5
g6
Vpolitics
p9216
tp9217
Rp9218
atp9219
a(S'pierre'
p9220
(lp9221
(lp9222
(lp9223
(lp9224
g4
(g5
g6
Vtechnology
p9225
tp9226
Rp9227
atp9228
a(S'realDonaldTrump'
p9229
(lp9230
(lp9231
(lp9232
g4
(g5
g6
Vnew-york-usa
p9233
tp9234
Rp9235
a(lp9236
g4
(g5
g6
Vbusiness
p9237
tp9238
Rp9239
atp9240
a(S'tumblr'
p9241
(lp9242
g4
(g5
g6
Vnew-york-usa
p9243
tp9244
Rp9245
a(lp9246
g4
(g5
g6
Vnew-york-usa
p9247
tp9248
Rp9249
a(lp9250
g4
(g5
g6
Vnew-york-usa
p9251
tp9252
Rp9253
a(lp9254
g4
(g5
g6
Vtechnology
p9255
tp9256
Rp9257
atp9258
a(S'BNPolitics'
p9259
(lp9260
(lp9261
(lp9262
(lp9263
g4
(g5
g6
Vpolitics
p9264
tp9265
Rp9266
atp9267
a(S'ChiesaNews'
p9268
(lp9269
(lp9270
g4
(g5
g6
Vsan-francisco-usa
p9271
tp9272
Rp9273
ag4
(g5
g6
Vnew-york-usa
p9274
tp9275
Rp9276
ag4
(g5
g6
Vboston-usa
p9277
tp9278
Rp9279
a(lp9280
(lp9281
g4
(g5
g6
Vpolitics
p9282
tp9283
Rp9284
atp9285
a(S'behaviorgap'
p9286
(lp9287
g4
(g5
g6
Vsan-francisco-usa
p9288
tp9289
Rp9290
a(lp9291
(lp9292
(lp9293
g4
(g5
g6
Vbusiness
p9294
tp9295
Rp9296
atp9297
a(S'radiohead'
p9298
(lp9299
g4
(g5
g6
Vlondon-uk
p9300
tp9301
Rp9302
a(lp9303
(lp9304
g4
(g5
g6
Vlondon-uk
p9305
tp9306
Rp9307
a(lp9308
g4
(g5
g6
Ventertainment
p9309
tp9310
Rp9311
atp9312
a(S'nytimestech'
p9313
(lp9314
(lp9315
(lp9316
g4
(g5
g6
Vnew-york-usa
p9317
tp9318
Rp9319
a(lp9320
g4
(g5
g6
Vtechnology
p9321
tp9322
Rp9323
atp9324
a(S'WSJbusiness'
p9325
(lp9326
(lp9327
(lp9328
g4
(g5
g6
Vnew-york-usa
p9329
tp9330
Rp9331
a(lp9332
g4
(g5
g6
Vbusiness
p9333
tp9334
Rp9335
atp9336
a(S'shakira'
p9337
(lp9338
(lp9339
(lp9340
(lp9341
g4
(g5
g6
Ventertainment
p9342
tp9343
Rp9344
atp9345
a(S'siobhanehughes'
p9346
(lp9347
g4
(g5
g6
Vnew-york-usa
p9348
tp9349
Rp9350
a(lp9351
(lp9352
(lp9353
g4
(g5
g6
Vpolitics
p9354
tp9355
Rp9356
atp9357
a(S'janetadamy'
p9358
(lp9359
(lp9360
(lp9361
(lp9362
g4
(g5
g6
Vpolitics
p9363
tp9364
Rp9365
atp9366
a(S'RepTimWalz'
p9367
(lp9368
(lp9369
g4
(g5
g6
Vsan-francisco-usa
p9370
tp9371
Rp9372
ag4
(g5
g6
Vnew-york-usa
p9373
tp9374
Rp9375
ag4
(g5
g6
Vboston-usa
p9376
tp9377
Rp9378
a(lp9379
(lp9380
g4
(g5
g6
Vpolitics
p9381
tp9382
Rp9383
atp9384
a(S'newsyc20'
p9385
(lp9386
g4
(g5
g6
Vsan-francisco-usa
p9387
tp9388
Rp9389
a(lp9390
(lp9391
g4
(g5
g6
Vsan-francisco-usa
p9392
tp9393
Rp9394
a(lp9395
g4
(g5
g6
Vtechnology
p9396
tp9397
Rp9398
atp9399
a(S'kurtdietrich'
p9400
(lp9401
g4
(g5
g6
Vnew-york-usa
p9402
tp9403
Rp9404
a(lp9405
(lp9406
g4
(g5
g6
Vnew-york-usa
p9407
tp9408
Rp9409
a(lp9410
g4
(g5
g6
Ventertainment
p9411
tp9412
Rp9413
atp9414
a(S'PTI'
p9415
(lp9416
(lp9417
(lp9418
(lp9419
g4
(g5
g6
Vsports
p9420
tp9421
Rp9422
atp9423
a(S'stuholden'
p9424
(lp9425
g4
(g5
g6
Vnew-york-usa
p9426
tp9427
Rp9428
a(lp9429
g4
(g5
g6
Vsan-francisco-usa
p9430
tp9431
Rp9432
ag4
(g5
g6
Vnew-york-usa
p9433
tp9434
Rp9435
ag4
(g5
g6
Vlondon-uk
p9436
tp9437
Rp9438
ag4
(g5
g6
Vboston-usa
p9439
tp9440
Rp9441
a(lp9442
(lp9443
g4
(g5
g6
Vsports
p9444
tp9445
Rp9446
atp9447
a(S'adamplevycnn'
p9448
(lp9449
(lp9450
(lp9451
(lp9452
g4
(g5
g6
Vpolitics
p9453
tp9454
Rp9455
atp9456
a(S'RealRonHoward'
p9457
(lp9458
(lp9459
(lp9460
g4
(g5
g6
Vsan-francisco-usa
p9461
tp9462
Rp9463
a(lp9464
g4
(g5
g6
Ventertainment
p9465
tp9466
Rp9467
atp9468
a(S'emilyparkhurst'
p9469
(lp9470
g4
(g5
g6
Vsan-francisco-usa
p9471
tp9472
Rp9473
a(lp9474
(lp9475
(lp9476
g4
(g5
g6
Vtechnology
p9477
tp9478
Rp9479
atp9480
a(S'MissyElliott'
p9481
(lp9482
(lp9483
(lp9484
(lp9485
g4
(g5
g6
Ventertainment
p9486
tp9487
Rp9488
atp9489
a(S'HuffPostTech'
p9490
(lp9491
g4
(g5
g6
Vnew-york-usa
p9492
tp9493
Rp9494
a(lp9495
(lp9496
g4
(g5
g6
Vnew-york-usa
p9497
tp9498
Rp9499
a(lp9500
g4
(g5
g6
Vtechnology
p9501
tp9502
Rp9503
atp9504
a(S'PoppyHarlowCNN'
p9505
(lp9506
(lp9507
(lp9508
g4
(g5
g6
Vnew-york-usa
p9509
tp9510
Rp9511
a(lp9512
g4
(g5
g6
Vbusiness
p9513
tp9514
Rp9515
atp9516
a(S'DannyDeVito'
p9517
(lp9518
g4
(g5
g6
Vsan-francisco-usa
p9519
tp9520
Rp9521
a(lp9522
(lp9523
g4
(g5
g6
Vsan-francisco-usa
p9524
tp9525
Rp9526
a(lp9527
g4
(g5
g6
Ventertainment
p9528
tp9529
Rp9530
atp9531
a(S'MikeReiss'
p9532
(lp9533
(lp9534
g4
(g5
g6
Vboston-usa
p9535
tp9536
Rp9537
a(lp9538
(lp9539
g4
(g5
g6
Vsports
p9540
tp9541
Rp9542
atp9543
a(S'fearlesscomp'
p9544
(lp9545
(lp9546
(lp9547
g4
(g5
g6
Vnew-york-usa
p9548
tp9549
Rp9550
a(lp9551
g4
(g5
g6
Vbusiness
p9552
tp9553
Rp9554
atp9555
a(S'worldofapple'
p9556
(lp9557
g4
(g5
g6
Vmumbai-india
p9558
tp9559
Rp9560
a(lp9561
(lp9562
(lp9563
g4
(g5
g6
Vtechnology
p9564
tp9565
Rp9566
atp9567
a(S'finstoryteller'
p9568
(lp9569
(lp9570
(lp9571
(lp9572
g4
(g5
g6
Vbusiness
p9573
tp9574
Rp9575
atp9576
a(S'GroupMe'
p9577
(lp9578
(lp9579
g4
(g5
g6
Vnew-york-usa
p9580
tp9581
Rp9582
a(lp9583
g4
(g5
g6
Vnew-york-usa
p9584
tp9585
Rp9586
a(lp9587
g4
(g5
g6
Vtechnology
p9588
tp9589
Rp9590
atp9591
a(S'OkieFields'
p9592
(lp9593
g4
(g5
g6
Vnew-york-usa
p9594
tp9595
Rp9596
a(lp9597
g4
(g5
g6
Vsan-francisco-usa
p9598
tp9599
Rp9600
ag4
(g5
g6
Vnew-york-usa
p9601
tp9602
Rp9603
ag4
(g5
g6
Vboston-usa
p9604
tp9605
Rp9606
a(lp9607
(lp9608
g4
(g5
g6
Vsports
p9609
tp9610
Rp9611
atp9612
a(S'giladpn'
p9613
(lp9614
(lp9615
(lp9616
(lp9617
g4
(g5
g6
Vtechnology
p9618
tp9619
Rp9620
ag4
(g5
g6
Vbusiness
p9621
tp9622
Rp9623
atp9624
a(S'racheldodes'
p9625
(lp9626
(lp9627
(lp9628
(lp9629
g4
(g5
g6
Ventertainment
p9630
tp9631
Rp9632
atp9633
a(S'TheTechStartups'
p9634
(lp9635
g4
(g5
g6
Vnew-york-usa
p9636
tp9637
Rp9638
a(lp9639
g4
(g5
g6
Vnew-york-usa
p9640
tp9641
Rp9642
a(lp9643
g4
(g5
g6
Vnew-york-usa
p9644
tp9645
Rp9646
a(lp9647
g4
(g5
g6
Vtechnology
p9648
tp9649
Rp9650
atp9651
a(S'TFletchernordic'
p9652
(lp9653
(lp9654
(lp9655
(lp9656
g4
(g5
g6
Vsports
p9657
tp9658
Rp9659
atp9660
a(S'alydudek'
p9661
(lp9662
(lp9663
(lp9664
(lp9665
g4
(g5
g6
Vsports
p9666
tp9667
Rp9668
atp9669
a(S'aliciakeys'
p9670
(lp9671
g4
(g5
g6
Vnew-york-usa
p9672
tp9673
Rp9674
a(lp9675
(lp9676
g4
(g5
g6
Vnew-york-usa
p9677
tp9678
Rp9679
a(lp9680
g4
(g5
g6
Ventertainment
p9681
tp9682
Rp9683
atp9684
a(S'RepRWilliams'
p9685
(lp9686
(lp9687
g4
(g5
g6
Vsan-francisco-usa
p9688
tp9689
Rp9690
ag4
(g5
g6
Vnew-york-usa
p9691
tp9692
Rp9693
ag4
(g5
g6
Vboston-usa
p9694
tp9695
Rp9696
a(lp9697
(lp9698
g4
(g5
g6
Vpolitics
p9699
tp9700
Rp9701
atp9702
a(S'CharlieDavies9'
p9703
(lp9704
(lp9705
g4
(g5
g6
Vsan-francisco-usa
p9706
tp9707
Rp9708
ag4
(g5
g6
Vnew-york-usa
p9709
tp9710
Rp9711
ag4
(g5
g6
Vlondon-uk
p9712
tp9713
Rp9714
ag4
(g5
g6
Vboston-usa
p9715
tp9716
Rp9717
a(lp9718
g4
(g5
g6
Vboston-usa
p9719
tp9720
Rp9721
a(lp9722
g4
(g5
g6
Vsports
p9723
tp9724
Rp9725
atp9726
a(S'BobCusack'
p9727
(lp9728
(lp9729
g4
(g5
g6
Vsan-francisco-usa
p9730
tp9731
Rp9732
ag4
(g5
g6
Vnew-york-usa
p9733
tp9734
Rp9735
ag4
(g5
g6
Vboston-usa
p9736
tp9737
Rp9738
a(lp9739
(lp9740
g4
(g5
g6
Vpolitics
p9741
tp9742
Rp9743
atp9744
a(S'DanielMcCutchen'
p9745
(lp9746
(lp9747
g4
(g5
g6
Vsan-francisco-usa
p9748
tp9749
Rp9750
ag4
(g5
g6
Vnew-york-usa
p9751
tp9752
Rp9753
ag4
(g5
g6
Vboston-usa
p9754
tp9755
Rp9756
a(lp9757
(lp9758
g4
(g5
g6
Vsports
p9759
tp9760
Rp9761
atp9762
a(S'SamirAlRifai'
p9763
(lp9764
(lp9765
(lp9766
(lp9767
g4
(g5
g6
Vpolitics
p9768
tp9769
Rp9770
atp9771
a(S'mattmireles'
p9772
(lp9773
(lp9774
g4
(g5
g6
Vsan-francisco-usa
p9775
tp9776
Rp9777
a(lp9778
g4
(g5
g6
Vsan-francisco-usa
p9779
tp9780
Rp9781
a(lp9782
g4
(g5
g6
Vtechnology
p9783
tp9784
Rp9785
atp9786
a(S'YahooSports_NFL'
p9787
(lp9788
g4
(g5
g6
Vsan-francisco-usa
p9789
tp9790
Rp9791
a(lp9792
(lp9793
g4
(g5
g6
Vsan-francisco-usa
p9794
tp9795
Rp9796
a(lp9797
g4
(g5
g6
Vsports
p9798
tp9799
Rp9800
atp9801
a(S'JohnKingCNN'
p9802
(lp9803
(lp9804
(lp9805
(lp9806
g4
(g5
g6
Vpolitics
p9807
tp9808
Rp9809
atp9810
a(S'RepJuanVargas'
p9811
(lp9812
(lp9813
g4
(g5
g6
Vsan-francisco-usa
p9814
tp9815
Rp9816
ag4
(g5
g6
Vnew-york-usa
p9817
tp9818
Rp9819
ag4
(g5
g6
Vboston-usa
p9820
tp9821
Rp9822
a(lp9823
g4
(g5
g6
Vsan-francisco-usa
p9824
tp9825
Rp9826
a(lp9827
g4
(g5
g6
Vpolitics
p9828
tp9829
Rp9830
atp9831
a(S'BAnderson_30'
p9832
(lp9833
g4
(g5
g6
Vnew-york-usa
p9834
tp9835
Rp9836
a(lp9837
g4
(g5
g6
Vsan-francisco-usa
p9838
tp9839
Rp9840
ag4
(g5
g6
Vnew-york-usa
p9841
tp9842
Rp9843
ag4
(g5
g6
Vboston-usa
p9844
tp9845
Rp9846
a(lp9847
(lp9848
g4
(g5
g6
Vsports
p9849
tp9850
Rp9851
atp9852
a(S'KrisAllen'
p9853
(lp9854
(lp9855
(lp9856
(lp9857
g4
(g5
g6
Ventertainment
p9858
tp9859
Rp9860
atp9861
a(S'ramonashelburne'
p9862
(lp9863
g4
(g5
g6
Vsan-francisco-usa
p9864
tp9865
Rp9866
a(lp9867
g4
(g5
g6
Vsan-francisco-usa
p9868
tp9869
Rp9870
a(lp9871
g4
(g5
g6
Vsan-francisco-usa
p9872
tp9873
Rp9874
a(lp9875
g4
(g5
g6
Vsports
p9876
tp9877
Rp9878
atp9879
a(S'GregJaros'
p9880
(lp9881
g4
(g5
g6
Vnew-york-usa
p9882
tp9883
Rp9884
a(lp9885
(lp9886
(lp9887
g4
(g5
g6
Vtechnology
p9888
tp9889
Rp9890
ag4
(g5
g6
Vbusiness
p9891
tp9892
Rp9893
atp9894
a(S'TimOBrien'
p9895
(lp9896
(lp9897
(lp9898
g4
(g5
g6
Vnew-york-usa
p9899
tp9900
Rp9901
a(lp9902
g4
(g5
g6
Vbusiness
p9903
tp9904
Rp9905
atp9906
a(S'MichaelKitces'
p9907
(lp9908
(lp9909
(lp9910
(lp9911
g4
(g5
g6
Vbusiness
p9912
tp9913
Rp9914
atp9915
a(S'FrankMullens'
p9916
(lp9917
(lp9918
(lp9919
g4
(g5
g6
Vsan-francisco-usa
p9920
tp9921
Rp9922
a(lp9923
g4
(g5
g6
Vbusiness
p9924
tp9925
Rp9926
atp9927
a(S'SamFeistCNN'
p9928
(lp9929
(lp9930
(lp9931
(lp9932
g4
(g5
g6
Vpolitics
p9933
tp9934
Rp9935
atp9936
a(S'GordonKljestan'
p9937
(lp9938
g4
(g5
g6
Vsan-francisco-usa
p9939
tp9940
Rp9941
a(lp9942
g4
(g5
g6
Vsan-francisco-usa
p9943
tp9944
Rp9945
ag4
(g5
g6
Vnew-york-usa
p9946
tp9947
Rp9948
ag4
(g5
g6
Vlondon-uk
p9949
tp9950
Rp9951
ag4
(g5
g6
Vboston-usa
p9952
tp9953
Rp9954
a(lp9955
(lp9956
g4
(g5
g6
Vsports
p9957
tp9958
Rp9959
atp9960
a(S'TimJHanrahan'
p9961
(lp9962
(lp9963
(lp9964
(lp9965
g4
(g5
g6
Vpolitics
p9966
tp9967
Rp9968
ag4
(g5
g6
Vbusiness
p9969
tp9970
Rp9971
atp9972
a(S'SenTedCruz'
p9973
(lp9974
(lp9975
g4
(g5
g6
Vsan-francisco-usa
p9976
tp9977
Rp9978
ag4
(g5
g6
Vnew-york-usa
p9979
tp9980
Rp9981
ag4
(g5
g6
Vboston-usa
p9982
tp9983
Rp9984
a(lp9985
(lp9986
g4
(g5
g6
Vpolitics
p9987
tp9988
Rp9989
atp9990
a(S'accomplsh'
p9991
(lp9992
g4
(g5
g6
Vnew-york-usa
p9993
tp9994
Rp9995
a(lp9996
g4
(g5
g6
Vnew-york-usa
p9997
tp9998
Rp9999
a(lp10000
g4
(g5
g6
Vnew-york-usa
p10001
tp10002
Rp10003
a(lp10004
g4
(g5
g6
Vtechnology
p10005
tp10006
Rp10007
atp10008
a(S'emilyhholden'
p10009
(lp10010
(lp10011
g4
(g5
g6
Vsan-francisco-usa
p10012
tp10013
Rp10014
ag4
(g5
g6
Vnew-york-usa
p10015
tp10016
Rp10017
ag4
(g5
g6
Vboston-usa
p10018
tp10019
Rp10020
a(lp10021
(lp10022
g4
(g5
g6
Vpolitics
p10023
tp10024
Rp10025
atp10026
a(S'CNNMoney'
p10027
(lp10028
(lp10029
(lp10030
(lp10031
g4
(g5
g6
Vbusiness
p10032
tp10033
Rp10034
atp10035
a(S'ShaniDavis'
p10036
(lp10037
(lp10038
(lp10039
(lp10040
g4
(g5
g6
Vsports
p10041
tp10042
Rp10043
atp10044
a(S'CB_fundings'
p10045
(lp10046
(lp10047
(lp10048
(lp10049
g4
(g5
g6
Vtechnology
p10050
tp10051
Rp10052
atp10053
a(S'DanaBashCNN'
p10054
(lp10055
(lp10056
(lp10057
(lp10058
g4
(g5
g6
Vpolitics
p10059
tp10060
Rp10061
atp10062
a(S'YahooSportsGolf'
p10063
(lp10064
g4
(g5
g6
Vsan-francisco-usa
p10065
tp10066
Rp10067
a(lp10068
(lp10069
g4
(g5
g6
Vsan-francisco-usa
p10070
tp10071
Rp10072
a(lp10073
g4
(g5
g6
Vsports
p10074
tp10075
Rp10076
atp10077
a(S'cparrino'
p10078
(lp10079
g4
(g5
g6
Vlondon-uk
p10080
tp10081
Rp10082
a(lp10083
(lp10084
g4
(g5
g6
Vlondon-uk
p10085
tp10086
Rp10087
a(lp10088
g4
(g5
g6
Vbusiness
p10089
tp10090
Rp10091
atp10092
a(S'terrybaddoo'
p10093
(lp10094
(lp10095
(lp10096
g4
(g5
g6
Vnew-york-usa
p10097
tp10098
Rp10099
a(lp10100
g4
(g5
g6
Vsports
p10101
tp10102
Rp10103
atp10104
a(S'stickybits'
p10105
(lp10106
(lp10107
g4
(g5
g6
Vnew-york-usa
p10108
tp10109
Rp10110
a(lp10111
(lp10112
g4
(g5
g6
Vtechnology
p10113
tp10114
Rp10115
atp10116
a(S'SuzyWelch'
p10117
(lp10118
(lp10119
(lp10120
(lp10121
g4
(g5
g6
Vbusiness
p10122
tp10123
Rp10124
atp10125
a(S'mbahamoute'
p10126
(lp10127
(lp10128
g4
(g5
g6
Vsan-francisco-usa
p10129
tp10130
Rp10131
ag4
(g5
g6
Vnew-york-usa
p10132
tp10133
Rp10134
ag4
(g5
g6
Vboston-usa
p10135
tp10136
Rp10137
a(lp10138
(lp10139
g4
(g5
g6
Vsports
p10140
tp10141
Rp10142
atp10143
a(S'oneassist_in'
p10144
(lp10145
(lp10146
(lp10147
(lp10148
g4
(g5
g6
Vtechnology
p10149
tp10150
Rp10151
ag4
(g5
g6
Vbusiness
p10152
tp10153
Rp10154
atp10155
a(S'RealTracyMorgan'
p10156
(lp10157
g4
(g5
g6
Vnew-york-usa
p10158
tp10159
Rp10160
a(lp10161
(lp10162
g4
(g5
g6
Vnew-york-usa
p10163
tp10164
Rp10165
a(lp10166
g4
(g5
g6
Ventertainment
p10167
tp10168
Rp10169
atp10170
a(S'RepDavidValadao'
p10171
(lp10172
(lp10173
g4
(g5
g6
Vsan-francisco-usa
p10174
tp10175
Rp10176
ag4
(g5
g6
Vnew-york-usa
p10177
tp10178
Rp10179
ag4
(g5
g6
Vboston-usa
p10180
tp10181
Rp10182
a(lp10183
g4
(g5
g6
Vsan-francisco-usa
p10184
tp10185
Rp10186
a(lp10187
g4
(g5
g6
Vpolitics
p10188
tp10189
Rp10190
atp10191
a(S'MedvedevRussia'
p10192
(lp10193
(lp10194
(lp10195
(lp10196
g4
(g5
g6
Vpolitics
p10197
tp10198
Rp10199
atp10200
a(S'theChrisMarsh'
p10201
(lp10202
(lp10203
(lp10204
(lp10205
g4
(g5
g6
Vtechnology
p10206
tp10207
Rp10208
ag4
(g5
g6
Vbusiness
p10209
tp10210
Rp10211
atp10212
a(S'Robert_Aderholt'
p10213
(lp10214
g4
(g5
g6
Vnew-york-usa
p10215
tp10216
Rp10217
a(lp10218
g4
(g5
g6
Vsan-francisco-usa
p10219
tp10220
Rp10221
ag4
(g5
g6
Vnew-york-usa
p10222
tp10223
Rp10224
ag4
(g5
g6
Vboston-usa
p10225
tp10226
Rp10227
a(lp10228
(lp10229
g4
(g5
g6
Vpolitics
p10230
tp10231
Rp10232
atp10233
a(S'jmkikwete'
p10234
(lp10235
(lp10236
(lp10237
(lp10238
g4
(g5
g6
Vpolitics
p10239
tp10240
Rp10241
atp10242
a(S'grbj'
p10243
(lp10244
(lp10245
(lp10246
(lp10247
g4
(g5
g6
Vbusiness
p10248
tp10249
Rp10250
atp10251
a(S'ChristianMagoon'
p10252
(lp10253
(lp10254
(lp10255
(lp10256
g4
(g5
g6
Vbusiness
p10257
tp10258
Rp10259
atp10260
a(S'techopedia'
p10261
(lp10262
g4
(g5
g6
Vnew-york-usa
p10263
tp10264
Rp10265
a(lp10266
(lp10267
(lp10268
g4
(g5
g6
Vtechnology
p10269
tp10270
Rp10271
atp10272
a(S'questCNN'
p10273
(lp10274
(lp10275
(lp10276
g4
(g5
g6
Vnew-york-usa
p10277
tp10278
Rp10279
a(lp10280
g4
(g5
g6
Vbusiness
p10281
tp10282
Rp10283
atp10284
a(S'tracycorrigan'
p10285
(lp10286
(lp10287
(lp10288
g4
(g5
g6
Vnew-york-usa
p10289
tp10290
Rp10291
a(lp10292
g4
(g5
g6
Vbusiness
p10293
tp10294
Rp10295
atp10296
a(S'crowleyCNN'
p10297
(lp10298
(lp10299
(lp10300
(lp10301
g4
(g5
g6
Vpolitics
p10302
tp10303
Rp10304
atp10305
a(S'vrinda_90'
p10306
(lp10307
(lp10308
g4
(g5
g6
Vbangalore-india
p10309
tp10310
Rp10311
ag4
(g5
g6
Vmumbai-india
p10312
tp10313
Rp10314
a(lp10315
g4
(g5
g6
Vmumbai-india
p10316
tp10317
Rp10318
a(lp10319
g4
(g5
g6
Ventertainment
p10320
tp10321
Rp10322
atp10323
a(S'PATRICKCNN'
p10324
(lp10325
(lp10326
(lp10327
g4
(g5
g6
Vnew-york-usa
p10328
tp10329
Rp10330
a(lp10331
g4
(g5
g6
Vsports
p10332
tp10333
Rp10334
atp10335
a(S'Bill_Gross'
p10336
(lp10337
(lp10338
(lp10339
g4
(g5
g6
Vsan-francisco-usa
p10340
tp10341
Rp10342
a(lp10343
g4
(g5
g6
Vtechnology
p10344
tp10345
Rp10346
ag4
(g5
g6
Vbusiness
p10347
tp10348
Rp10349
atp10350
a(S'LuxNarayan'
p10351
(lp10352
(lp10353
(lp10354
(lp10355
g4
(g5
g6
Vtechnology
p10356
tp10357
Rp10358
ag4
(g5
g6
Vbusiness
p10359
tp10360
Rp10361
atp10362
a(S'jonweisman'
p10363
(lp10364
g4
(g5
g6
Vsan-francisco-usa
p10365
tp10366
Rp10367
a(lp10368
g4
(g5
g6
Vsan-francisco-usa
p10369
tp10370
Rp10371
a(lp10372
g4
(g5
g6
Vsan-francisco-usa
p10373
tp10374
Rp10375
a(lp10376
g4
(g5
g6
Vsports
p10377
tp10378
Rp10379
atp10380
a(S'julpepitone'
p10381
(lp10382
(lp10383
(lp10384
(lp10385
g4
(g5
g6
Vtechnology
p10386
tp10387
Rp10388
atp10389
a(S'KateMilani'
p10390
(lp10391
(lp10392
(lp10393
(lp10394
g4
(g5
g6
Vpolitics
p10395
tp10396
Rp10397
atp10398
a(S'QueenRania'
p10399
(lp10400
(lp10401
(lp10402
(lp10403
g4
(g5
g6
Vpolitics
p10404
tp10405
Rp10406
atp10407
a(S'sergeybrinn'
p10408
(lp10409
(lp10410
(lp10411
(lp10412
g4
(g5
g6
Vtechnology
p10413
tp10414
Rp10415
ag4
(g5
g6
Vbusiness
p10416
tp10417
Rp10418
atp10419
a(S'SoyElChapu'
p10420
(lp10421
(lp10422
g4
(g5
g6
Vsan-francisco-usa
p10423
tp10424
Rp10425
ag4
(g5
g6
Vnew-york-usa
p10426
tp10427
Rp10428
ag4
(g5
g6
Vboston-usa
p10429
tp10430
Rp10431
a(lp10432
(lp10433
g4
(g5
g6
Vsports
p10434
tp10435
Rp10436
atp10437
a(S'adnys'
p10438
(lp10439
(lp10440
(lp10441
(lp10442
g4
(g5
g6
Vtechnology
p10443
tp10444
Rp10445
atp10446
a(S'EvelynRusli'
p10447
(lp10448
(lp10449
(lp10450
g4
(g5
g6
Vsan-francisco-usa
p10451
tp10452
Rp10453
a(lp10454
g4
(g5
g6
Vtechnology
p10455
tp10456
Rp10457
atp10458
a(S'wolfblitzer'
p10459
(lp10460
(lp10461
(lp10462
g4
(g5
g6
Vnew-york-usa
p10463
tp10464
Rp10465
a(lp10466
g4
(g5
g6
Vpolitics
p10467
tp10468
Rp10469
atp10470
a(S'CFOAlexSink'
p10471
(lp10472
(lp10473
(lp10474
(lp10475
g4
(g5
g6
Vbusiness
p10476
tp10477
Rp10478
atp10479
a(S'jeromezingg'
p10480
(lp10481
(lp10482
(lp10483
g4
(g5
g6
Vsan-francisco-usa
p10484
tp10485
Rp10486
ag4
(g5
g6
Vnew-york-usa
p10487
tp10488
Rp10489
ag4
(g5
g6
Vboston-usa
p10490
tp10491
Rp10492
a(lp10493
g4
(g5
g6
Vtechnology
p10494
tp10495
Rp10496
ag4
(g5
g6
Vbusiness
p10497
tp10498
Rp10499
atp10500
a(S'hmorgan422'
p10501
(lp10502
g4
(g5
g6
Vsan-francisco-usa
p10503
tp10504
Rp10505
a(lp10506
(lp10507
g4
(g5
g6
Vsan-francisco-usa
p10508
tp10509
Rp10510
a(lp10511
g4
(g5
g6
Vbusiness
p10512
tp10513
Rp10514
atp10515
a(S'FreddyAdu'
p10516
(lp10517
(lp10518
g4
(g5
g6
Vsan-francisco-usa
p10519
tp10520
Rp10521
ag4
(g5
g6
Vnew-york-usa
p10522
tp10523
Rp10524
ag4
(g5
g6
Vlondon-uk
p10525
tp10526
Rp10527
ag4
(g5
g6
Vboston-usa
p10528
tp10529
Rp10530
a(lp10531
g4
(g5
g6
Vsan-francisco-usa
p10532
tp10533
Rp10534
ag4
(g5
g6
Vnew-york-usa
p10535
tp10536
Rp10537
ag4
(g5
g6
Vboston-usa
p10538
tp10539
Rp10540
a(lp10541
g4
(g5
g6
Vsports
p10542
tp10543
Rp10544
atp10545
a(S'AlannaPetroff'
p10546
(lp10547
(lp10548
(lp10549
g4
(g5
g6
Vlondon-uk
p10550
tp10551
Rp10552
a(lp10553
g4
(g5
g6
Vbusiness
p10554
tp10555
Rp10556
atp10557
a(S'ItsTheSituation'
p10558
(lp10559
g4
(g5
g6
Vnew-york-usa
p10560
tp10561
Rp10562
a(lp10563
(lp10564
(lp10565
g4
(g5
g6
Ventertainment
p10566
tp10567
Rp10568
atp10569
a(S'WorldSportCNN'
p10570
(lp10571
(lp10572
(lp10573
(lp10574
g4
(g5
g6
Vsports
p10575
tp10576
Rp10577
atp10578
a(S'LauraLandroWSJ'
p10579
(lp10580
(lp10581
(lp10582
(lp10583
g4
(g5
g6
Vbusiness
p10584
tp10585
Rp10586
atp10587
a(S'Neda_Semnani'
p10588
(lp10589
(lp10590
g4
(g5
g6
Vsan-francisco-usa
p10591
tp10592
Rp10593
ag4
(g5
g6
Vnew-york-usa
p10594
tp10595
Rp10596
ag4
(g5
g6
Vboston-usa
p10597
tp10598
Rp10599
a(lp10600
(lp10601
g4
(g5
g6
Vpolitics
p10602
tp10603
Rp10604
atp10605
a(S'kimjmurray'
p10606
(lp10607
g4
(g5
g6
Vbangalore-india
p10608
tp10609
Rp10610
a(lp10611
(lp10612
(lp10613
g4
(g5
g6
Vbusiness
p10614
tp10615
Rp10616
atp10617
a(S'PEPE_LOBO'
p10618
(lp10619
(lp10620
(lp10621
(lp10622
g4
(g5
g6
Vpolitics
p10623
tp10624
Rp10625
atp10626
a(S'MattAntonelli9'
p10627
(lp10628
g4
(g5
g6
Vboston-usa
p10629
tp10630
Rp10631
a(lp10632
g4
(g5
g6
Vsan-francisco-usa
p10633
tp10634
Rp10635
ag4
(g5
g6
Vnew-york-usa
p10636
tp10637
Rp10638
ag4
(g5
g6
Vboston-usa
p10639
tp10640
Rp10641
a(lp10642
(lp10643
g4
(g5
g6
Vsports
p10644
tp10645
Rp10646
atp10647
a(S'MichaelFertman'
p10648
(lp10649
(lp10650
(lp10651
(lp10652
g4
(g5
g6
Vbusiness
p10653
tp10654
Rp10655
atp10656
a(S'DexterFowler'
p10657
(lp10658
(lp10659
g4
(g5
g6
Vsan-francisco-usa
p10660
tp10661
Rp10662
ag4
(g5
g6
Vnew-york-usa
p10663
tp10664
Rp10665
ag4
(g5
g6
Vboston-usa
p10666
tp10667
Rp10668
a(lp10669
(lp10670
g4
(g5
g6
Vsports
p10671
tp10672
Rp10673
atp10674
a(S'CasaCivilBR'
p10675
(lp10676
(lp10677
(lp10678
(lp10679
g4
(g5
g6
Vpolitics
p10680
tp10681
Rp10682
atp10683
a(S'KamBrothers'
p10684
(lp10685
(lp10686
g4
(g5
g6
Vsan-francisco-usa
p10687
tp10688
Rp10689
a(lp10690
(lp10691
g4
(g5
g6
Vsports
p10692
tp10693
Rp10694
atp10695
a(S'PierceBrosnan'
p10696
(lp10697
(lp10698
(lp10699
(lp10700
g4
(g5
g6
Ventertainment
p10701
tp10702
Rp10703
atp10704
a(S'businessgp'
p10705
(lp10706
g4
(g5
g6
Vlondon-uk
p10707
tp10708
Rp10709
a(lp10710
(lp10711
g4
(g5
g6
Vlondon-uk
p10712
tp10713
Rp10714
a(lp10715
g4
(g5
g6
Vbusiness
p10716
tp10717
Rp10718
atp10719
a(S'giorakaplan'
p10720
(lp10721
(lp10722
(lp10723
(lp10724
g4
(g5
g6
Vtechnology
p10725
tp10726
Rp10727
ag4
(g5
g6
Vbusiness
p10728
tp10729
Rp10730
atp10731
a(S'BilbrayCA50'
p10732
(lp10733
(lp10734
g4
(g5
g6
Vsan-francisco-usa
p10735
tp10736
Rp10737
ag4
(g5
g6
Vnew-york-usa
p10738
tp10739
Rp10740
ag4
(g5
g6
Vboston-usa
p10741
tp10742
Rp10743
a(lp10744
g4
(g5
g6
Vsan-francisco-usa
p10745
tp10746
Rp10747
a(lp10748
g4
(g5
g6
Vpolitics
p10749
tp10750
Rp10751
atp10752
a(S'SteveCase'
p10753
(lp10754
(lp10755
(lp10756
(lp10757
g4
(g5
g6
Vtechnology
p10758
tp10759
Rp10760
atp10761
a(S'Emma_Dumain'
p10762
(lp10763
(lp10764
g4
(g5
g6
Vsan-francisco-usa
p10765
tp10766
Rp10767
ag4
(g5
g6
Vnew-york-usa
p10768
tp10769
Rp10770
ag4
(g5
g6
Vboston-usa
p10771
tp10772
Rp10773
a(lp10774
(lp10775
g4
(g5
g6
Vpolitics
p10776
tp10777
Rp10778
atp10779
a(S'benparr'
p10780
(lp10781
g4
(g5
g6
Vsan-francisco-usa
p10782
tp10783
Rp10784
a(lp10785
(lp10786
g4
(g5
g6
Vsan-francisco-usa
p10787
tp10788
Rp10789
a(lp10790
g4
(g5
g6
Vtechnology
p10791
tp10792
Rp10793
atp10794
a(S'justinbolsen'
p10795
(lp10796
(lp10797
(lp10798
g4
(g5
g6
Vnew-york-usa
p10799
tp10800
Rp10801
a(lp10802
g4
(g5
g6
Vsports
p10803
tp10804
Rp10805
atp10806
a(S'edatnews'
p10807
(lp10808
(lp10809
(lp10810
(lp10811
g4
(g5
g6
Vtechnology
p10812
tp10813
Rp10814
atp10815
a(S'_ravidubey'
p10816
(lp10817
(lp10818
g4
(g5
g6
Vbangalore-india
p10819
tp10820
Rp10821
ag4
(g5
g6
Vmumbai-india
p10822
tp10823
Rp10824
a(lp10825
(lp10826
g4
(g5
g6
Ventertainment
p10827
tp10828
Rp10829
atp10830
a(S'KellyO'
p10831
(lp10832
(lp10833
g4
(g5
g6
Vsan-francisco-usa
p10834
tp10835
Rp10836
ag4
(g5
g6
Vnew-york-usa
p10837
tp10838
Rp10839
ag4
(g5
g6
Vboston-usa
p10840
tp10841
Rp10842
a(lp10843
(lp10844
g4
(g5
g6
Vpolitics
p10845
tp10846
Rp10847
atp10848
a(S'ErinMcPike'
p10849
(lp10850
(lp10851
(lp10852
(lp10853
g4
(g5
g6
Vpolitics
p10854
tp10855
Rp10856
atp10857
a(S'RobManger'
p10858
(lp10859
(lp10860
(lp10861
g4
(g5
g6
Vnew-york-usa
p10862
tp10863
Rp10864
a(lp10865
g4
(g5
g6
Vbusiness
p10866
tp10867
Rp10868
atp10869
a(S'RalphJohnsonII'
p10870
(lp10871
g4
(g5
g6
Vboston-usa
p10872
tp10873
Rp10874
a(lp10875
(lp10876
(lp10877
g4
(g5
g6
Vtechnology
p10878
tp10879
Rp10880
ag4
(g5
g6
Vbusiness
p10881
tp10882
Rp10883
atp10884
a(S'cpassariello'
p10885
(lp10886
g4
(g5
g6
Vlondon-uk
p10887
tp10888
Rp10889
a(lp10890
(lp10891
(lp10892
g4
(g5
g6
Ventertainment
p10893
tp10894
Rp10895
atp10896
a(S'farnamstreet'
p10897
(lp10898
(lp10899
(lp10900
(lp10901
g4
(g5
g6
Vbusiness
p10902
tp10903
Rp10904
atp10905
a(S'CIOsConnect'
p10906
(lp10907
(lp10908
(lp10909
(lp10910
g4
(g5
g6
Vtechnology
p10911
tp10912
Rp10913
ag4
(g5
g6
Vbusiness
p10914
tp10915
Rp10916
atp10917
a(S'GayleCNN'
p10918
(lp10919
(lp10920
(lp10921
g4
(g5
g6
Vnew-york-usa
p10922
tp10923
Rp10924
a(lp10925
g4
(g5
g6
Vbusiness
p10926
tp10927
Rp10928
atp10929
a(S'hanrahan52'
p10930
(lp10931
g4
(g5
g6
Vnew-york-usa
p10932
tp10933
Rp10934
a(lp10935
g4
(g5
g6
Vsan-francisco-usa
p10936
tp10937
Rp10938
ag4
(g5
g6
Vnew-york-usa
p10939
tp10940
Rp10941
ag4
(g5
g6
Vboston-usa
p10942
tp10943
Rp10944
a(lp10945
(lp10946
g4
(g5
g6
Vsports
p10947
tp10948
Rp10949
atp10950
a(S'WinRumors'
p10951
(lp10952
(lp10953
(lp10954
(lp10955
g4
(g5
g6
Vtechnology
p10956
tp10957
Rp10958
atp10959
a(S'thejointstaff'
p10960
(lp10961
(lp10962
(lp10963
g4
(g5
g6
Vnew-york-usa
p10964
tp10965
Rp10966
a(lp10967
g4
(g5
g6
Vpolitics
p10968
tp10969
Rp10970
atp10971
a(S'ShanTravisCNN'
p10972
(lp10973
(lp10974
(lp10975
(lp10976
g4
(g5
g6
Vpolitics
p10977
tp10978
Rp10979
atp10980
a(S'alyankovic'
p10981
(lp10982
g4
(g5
g6
Vsan-francisco-usa
p10983
tp10984
Rp10985
a(lp10986
(lp10987
g4
(g5
g6
Vsan-francisco-usa
p10988
tp10989
Rp10990
a(lp10991
g4
(g5
g6
Ventertainment
p10992
tp10993
Rp10994
atp10995
a(S'terryadamsbmx'
p10996
(lp10997
g4
(g5
g6
Vnew-york-usa
p10998
tp10999
Rp11000
a(lp11001
(lp11002
(lp11003
g4
(g5
g6
Vsports
p11004
tp11005
Rp11006
atp11007
a(S'silviobullara'
p11008
(lp11009
(lp11010
(lp11011
(lp11012
g4
(g5
g6
Vtechnology
p11013
tp11014
Rp11015
ag4
(g5
g6
Vbusiness
p11016
tp11017
Rp11018
atp11019
a(S'KeithRothfus'
p11020
(lp11021
(lp11022
g4
(g5
g6
Vsan-francisco-usa
p11023
tp11024
Rp11025
ag4
(g5
g6
Vnew-york-usa
p11026
tp11027
Rp11028
ag4
(g5
g6
Vboston-usa
p11029
tp11030
Rp11031
a(lp11032
(lp11033
g4
(g5
g6
Vpolitics
p11034
tp11035
Rp11036
atp11037
a(S'SarahBrownUK'
p11038
(lp11039
(lp11040
(lp11041
g4
(g5
g6
Vlondon-uk
p11042
tp11043
Rp11044
a(lp11045
g4
(g5
g6
Vpolitics
p11046
tp11047
Rp11048
atp11049
a(S'daily'
p11050
(lp11051
(lp11052
(lp11053
(lp11054
g4
(g5
g6
Vtechnology
p11055
tp11056
Rp11057
atp11058
a(S'sanjayjee'
p11059
(lp11060
(lp11061
(lp11062
(lp11063
g4
(g5
g6
Vbusiness
p11064
tp11065
Rp11066
atp11067
a(S'jeffsparshott'
p11068
(lp11069
(lp11070
(lp11071
(lp11072
g4
(g5
g6
Vbusiness
p11073
tp11074
Rp11075
atp11076
a(S'Fayarjomandi'
p11077
(lp11078
(lp11079
(lp11080
g4
(g5
g6
Vsan-francisco-usa
p11081
tp11082
Rp11083
a(lp11084
g4
(g5
g6
Vtechnology
p11085
tp11086
Rp11087
ag4
(g5
g6
Vbusiness
p11088
tp11089
Rp11090
atp11091
a(S'Forbes'
p11092
(lp11093
(lp11094
(lp11095
g4
(g5
g6
Vnew-york-usa
p11096
tp11097
Rp11098
a(lp11099
g4
(g5
g6
Vbusiness
p11100
tp11101
Rp11102
atp11103
a(S'JudgeTedPoe'
p11104
(lp11105
g4
(g5
g6
Vnew-york-usa
p11106
tp11107
Rp11108
a(lp11109
g4
(g5
g6
Vsan-francisco-usa
p11110
tp11111
Rp11112
ag4
(g5
g6
Vnew-york-usa
p11113
tp11114
Rp11115
ag4
(g5
g6
Vboston-usa
p11116
tp11117
Rp11118
a(lp11119
(lp11120
g4
(g5
g6
Vpolitics
p11121
tp11122
Rp11123
atp11124
a(S'nytmnews'
p11125
(lp11126
(lp11127
g4
(g5
g6
Vnew-york-usa
p11128
tp11129
Rp11130
a(lp11131
g4
(g5
g6
Vnew-york-usa
p11132
tp11133
Rp11134
a(lp11135
g4
(g5
g6
Vtechnology
p11136
tp11137
Rp11138
atp11139
a(S'azpresident'
p11140
(lp11141
(lp11142
(lp11143
(lp11144
g4
(g5
g6
Vpolitics
p11145
tp11146
Rp11147
atp11148
a.