(lp0
(S'JimGerlach'
p1
(lp2
ccopy_reg
_reconstructor
p3
(cdjango.utils.safestring
SafeText
p4
c__builtin__
unicode
p5
Vnew-york-usa
p6
tp7
Rp8
a(lp9
g3
(g4
g5
Vsan-francisco-usa
p10
tp11
Rp12
ag3
(g4
g5
Vnew-york-usa
p13
tp14
Rp15
ag3
(g4
g5
Vboston-usa
p16
tp17
Rp18
a(lp19
(lp20
g3
(g4
g5
Vpolitics
p21
tp22
Rp23
atp24
a(S'maggielake'
p25
(lp26
g3
(g4
g5
Vnew-york-usa
p27
tp28
Rp29
a(lp30
(lp31
g3
(g4
g5
Vnew-york-usa
p32
tp33
Rp34
a(lp35
g3
(g4
g5
Vbusiness
p36
tp37
Rp38
atp39
a(S'JakePeavy_44'
p40
(lp41
(lp42
g3
(g4
g5
Vsan-francisco-usa
p43
tp44
Rp45
ag3
(g4
g5
Vnew-york-usa
p46
tp47
Rp48
ag3
(g4
g5
Vboston-usa
p49
tp50
Rp51
a(lp52
g3
(g4
g5
Vboston-usa
p53
tp54
Rp55
a(lp56
g3
(g4
g5
Vsports
p57
tp58
Rp59
atp60
a(S'WillMHDavies'
p61
(lp62
(lp63
(lp64
g3
(g4
g5
Vbangalore-india
p65
tp66
Rp67
a(lp68
g3
(g4
g5
Vsports
p69
tp70
Rp71
atp72
a(S'eltongallegly24'
p73
(lp74
(lp75
g3
(g4
g5
Vsan-francisco-usa
p76
tp77
Rp78
ag3
(g4
g5
Vnew-york-usa
p79
tp80
Rp81
ag3
(g4
g5
Vboston-usa
p82
tp83
Rp84
a(lp85
(lp86
g3
(g4
g5
Vpolitics
p87
tp88
Rp89
atp90
a(S'CollectiveSoul'
p91
(lp92
g3
(g4
g5
Vnew-york-usa
p93
tp94
Rp95
a(lp96
(lp97
g3
(g4
g5
Vnew-york-usa
p98
tp99
Rp100
a(lp101
g3
(g4
g5
Ventertainment
p102
tp103
Rp104
atp105
a(S'JohnStamos'
p106
(lp107
(lp108
(lp109
g3
(g4
g5
Vsan-francisco-usa
p110
tp111
Rp112
a(lp113
g3
(g4
g5
Ventertainment
p114
tp115
Rp116
atp117
a(S'MrAlanCooper'
p118
(lp119
g3
(g4
g5
Vsan-francisco-usa
p120
tp121
Rp122
a(lp123
(lp124
g3
(g4
g5
Vsan-francisco-usa
p125
tp126
Rp127
a(lp128
g3
(g4
g5
Vtechnology
p129
tp130
Rp131
ag3
(g4
g5
Vbusiness
p132
tp133
Rp134
atp135
a(S'SrBachchan'
p136
(lp137
(lp138
g3
(g4
g5
Vbangalore-india
p139
tp140
Rp141
ag3
(g4
g5
Vmumbai-india
p142
tp143
Rp144
a(lp145
g3
(g4
g5
Vmumbai-india
p146
tp147
Rp148
a(lp149
g3
(g4
g5
Ventertainment
p150
tp151
Rp152
atp153
a(S'Chad_Hurley'
p154
(lp155
g3
(g4
g5
Vsan-francisco-usa
p156
tp157
Rp158
a(lp159
(lp160
g3
(g4
g5
Vsan-francisco-usa
p161
tp162
Rp163
a(lp164
g3
(g4
g5
Vtechnology
p165
tp166
Rp167
atp168
a(S'JasonFalls'
p169
(lp170
(lp171
(lp172
g3
(g4
g5
Vnew-york-usa
p173
tp174
Rp175
a(lp176
g3
(g4
g5
Vtechnology
p177
tp178
Rp179
atp180
a(S'heatherarussell'
p181
(lp182
(lp183
(lp184
g3
(g4
g5
Vlondon-uk
p185
tp186
Rp187
a(lp188
g3
(g4
g5
Vtechnology
p189
tp190
Rp191
ag3
(g4
g5
Vbusiness
p192
tp193
Rp194
atp195
a(S'jackschofield'
p196
(lp197
g3
(g4
g5
Vlondon-uk
p198
tp199
Rp200
a(lp201
(lp202
g3
(g4
g5
Vlondon-uk
p203
tp204
Rp205
a(lp206
g3
(g4
g5
Vtechnology
p207
tp208
Rp209
atp210
a(S'johncbussey'
p211
(lp212
g3
(g4
g5
Vnew-york-usa
p213
tp214
Rp215
a(lp216
(lp217
g3
(g4
g5
Vnew-york-usa
p218
tp219
Rp220
a(lp221
g3
(g4
g5
Vbusiness
p222
tp223
Rp224
atp225
a(S'abnormalreturns'
p226
(lp227
(lp228
(lp229
(lp230
g3
(g4
g5
Vbusiness
p231
tp232
Rp233
atp234
a(S'reggiew55'
p235
(lp236
(lp237
g3
(g4
g5
Vsan-francisco-usa
p238
tp239
Rp240
ag3
(g4
g5
Vnew-york-usa
p241
tp242
Rp243
ag3
(g4
g5
Vboston-usa
p244
tp245
Rp246
a(lp247
(lp248
g3
(g4
g5
Vsports
p249
tp250
Rp251
atp252
a(S'SenBrianSchatz'
p253
(lp254
(lp255
g3
(g4
g5
Vsan-francisco-usa
p256
tp257
Rp258
ag3
(g4
g5
Vnew-york-usa
p259
tp260
Rp261
ag3
(g4
g5
Vboston-usa
p262
tp263
Rp264
a(lp265
(lp266
g3
(g4
g5
Vpolitics
p267
tp268
Rp269
atp270
a(S'sorayadarabi'
p271
(lp272
(lp273
(lp274
g3
(g4
g5
Vnew-york-usa
p275
tp276
Rp277
a(lp278
g3
(g4
g5
Vtechnology
p279
tp280
Rp281
atp282
a(S'DaveSitek'
p283
(lp284
(lp285
(lp286
(lp287
g3
(g4
g5
Ventertainment
p288
tp289
Rp290
atp291
a(S'TheRealSimonCho'
p292
(lp293
g3
(g4
g5
Vsan-francisco-usa
p294
tp295
Rp296
a(lp297
(lp298
g3
(g4
g5
Vnew-york-usa
p299
tp300
Rp301
a(lp302
g3
(g4
g5
Vsports
p303
tp304
Rp305
atp306
a(S'ESPNBoston'
p307
(lp308
g3
(g4
g5
Vboston-usa
p309
tp310
Rp311
a(lp312
g3
(g4
g5
Vboston-usa
p313
tp314
Rp315
a(lp316
g3
(g4
g5
Vboston-usa
p317
tp318
Rp319
a(lp320
g3
(g4
g5
Vsports
p321
tp322
Rp323
atp324
a(S'Busted_Racquet'
p325
(lp326
(lp327
(lp328
(lp329
g3
(g4
g5
Vsports
p330
tp331
Rp332
atp333
a(S'GlobeKranish'
p334
(lp335
g3
(g4
g5
Vnew-york-usa
p336
tp337
Rp338
a(lp339
(lp340
(lp341
g3
(g4
g5
Vpolitics
p342
tp343
Rp344
atp345
a(S'maryjblige'
p346
(lp347
(lp348
(lp349
(lp350
g3
(g4
g5
Ventertainment
p351
tp352
Rp353
atp354
a(S'Eminem'
p355
(lp356
g3
(g4
g5
Vnew-york-usa
p357
tp358
Rp359
a(lp360
(lp361
(lp362
g3
(g4
g5
Ventertainment
p363
tp364
Rp365
atp366
a(S'alyssahhenry'
p367
(lp368
g3
(g4
g5
Vsan-francisco-usa
p369
tp370
Rp371
a(lp372
(lp373
(lp374
g3
(g4
g5
Vtechnology
p375
tp376
Rp377
ag3
(g4
g5
Vbusiness
p378
tp379
Rp380
atp381
a(S'RalphHallPress'
p382
(lp383
g3
(g4
g5
Vsan-francisco-usa
p384
tp385
Rp386
a(lp387
g3
(g4
g5
Vsan-francisco-usa
p388
tp389
Rp390
ag3
(g4
g5
Vnew-york-usa
p391
tp392
Rp393
ag3
(g4
g5
Vboston-usa
p394
tp395
Rp396
a(lp397
(lp398
g3
(g4
g5
Vpolitics
p399
tp400
Rp401
atp402
a(S'xbrlplanet'
p403
(lp404
(lp405
(lp406
g3
(g4
g5
Vlondon-uk
p407
tp408
Rp409
a(lp410
g3
(g4
g5
Vbusiness
p411
tp412
Rp413
atp414
a(S'rajul_g'
p415
(lp416
g3
(g4
g5
Vmumbai-india
p417
tp418
Rp419
a(lp420
(lp421
g3
(g4
g5
Vmumbai-india
p422
tp423
Rp424
a(lp425
g3
(g4
g5
Vtechnology
p426
tp427
Rp428
ag3
(g4
g5
Vbusiness
p429
tp430
Rp431
atp432
a(S'BansalSmita_'
p433
(lp434
(lp435
g3
(g4
g5
Vbangalore-india
p436
tp437
Rp438
ag3
(g4
g5
Vmumbai-india
p439
tp440
Rp441
a(lp442
(lp443
g3
(g4
g5
Ventertainment
p444
tp445
Rp446
atp447
a(S'RepCardenas'
p448
(lp449
g3
(g4
g5
Vsan-francisco-usa
p450
tp451
Rp452
a(lp453
g3
(g4
g5
Vsan-francisco-usa
p454
tp455
Rp456
ag3
(g4
g5
Vnew-york-usa
p457
tp458
Rp459
ag3
(g4
g5
Vboston-usa
p460
tp461
Rp462
a(lp463
g3
(g4
g5
Vsan-francisco-usa
p464
tp465
Rp466
a(lp467
g3
(g4
g5
Vpolitics
p468
tp469
Rp470
atp471
a(S'RepGusBilirakis'
p472
(lp473
g3
(g4
g5
Vnew-york-usa
p474
tp475
Rp476
a(lp477
(lp478
(lp479
g3
(g4
g5
Vpolitics
p480
tp481
Rp482
atp483
a(S'MikeCrapo'
p484
(lp485
(lp486
g3
(g4
g5
Vsan-francisco-usa
p487
tp488
Rp489
ag3
(g4
g5
Vnew-york-usa
p490
tp491
Rp492
ag3
(g4
g5
Vboston-usa
p493
tp494
Rp495
a(lp496
(lp497
g3
(g4
g5
Vpolitics
p498
tp499
Rp500
atp501
a(S'cnetkara'
p502
(lp503
(lp504
(lp505
g3
(g4
g5
Vsan-francisco-usa
p506
tp507
Rp508
a(lp509
g3
(g4
g5
Vtechnology
p510
tp511
Rp512
atp513
a(S'IsaCNN'
p514
(lp515
(lp516
(lp517
g3
(g4
g5
Vlondon-uk
p518
tp519
Rp520
a(lp521
g3
(g4
g5
Vbusiness
p522
tp523
Rp524
atp525
a(S'VasundharaBJP'
p526
(lp527
(lp528
g3
(g4
g5
Vbangalore-india
p529
tp530
Rp531
ag3
(g4
g5
Vmumbai-india
p532
tp533
Rp534
a(lp535
(lp536
g3
(g4
g5
Vpolitics
p537
tp538
Rp539
atp540
a(S'RalphLoura'
p541
(lp542
(lp543
(lp544
g3
(g4
g5
Vsan-francisco-usa
p545
tp546
Rp547
a(lp548
g3
(g4
g5
Vtechnology
p549
tp550
Rp551
ag3
(g4
g5
Vbusiness
p552
tp553
Rp554
atp555
a(S'RepMikeQuigley'
p556
(lp557
(lp558
g3
(g4
g5
Vsan-francisco-usa
p559
tp560
Rp561
ag3
(g4
g5
Vnew-york-usa
p562
tp563
Rp564
ag3
(g4
g5
Vboston-usa
p565
tp566
Rp567
a(lp568
(lp569
g3
(g4
g5
Vpolitics
p570
tp571
Rp572
atp573
a(S'bjpkarnataka'
p574
(lp575
g3
(g4
g5
Vbangalore-india
p576
tp577
Rp578
a(lp579
g3
(g4
g5
Vbangalore-india
p580
tp581
Rp582
ag3
(g4
g5
Vmumbai-india
p583
tp584
Rp585
a(lp586
g3
(g4
g5
Vbangalore-india
p587
tp588
Rp589
a(lp590
g3
(g4
g5
Vpolitics
p591
tp592
Rp593
atp594
a(S'GA'
p595
(lp596
g3
(g4
g5
Vnew-york-usa
p597
tp598
Rp599
a(lp600
g3
(g4
g5
Vnew-york-usa
p601
tp602
Rp603
a(lp604
g3
(g4
g5
Vnew-york-usa
p605
tp606
Rp607
a(lp608
g3
(g4
g5
Vtechnology
p609
tp610
Rp611
atp612
a(S'si_mlb'
p613
(lp614
(lp615
(lp616
(lp617
g3
(g4
g5
Vsports
p618
tp619
Rp620
atp621
a(S'diginomica'
p622
(lp623
(lp624
(lp625
(lp626
g3
(g4
g5
Vtechnology
p627
tp628
Rp629
atp630
a(S'ESPN_Pac12blog'
p631
(lp632
(lp633
g3
(g4
g5
Vsan-francisco-usa
p634
tp635
Rp636
a(lp637
(lp638
g3
(g4
g5
Vsports
p639
tp640
Rp641
atp642
a(S'brianboyer'
p643
(lp644
g3
(g4
g5
Vnew-york-usa
p645
tp646
Rp647
a(lp648
(lp649
(lp650
g3
(g4
g5
Vtechnology
p651
tp652
Rp653
atp654
a(S'KaiserChiefs'
p655
(lp656
(lp657
(lp658
g3
(g4
g5
Vlondon-uk
p659
tp660
Rp661
a(lp662
g3
(g4
g5
Ventertainment
p663
tp664
Rp665
atp666
a(S'braziliangirls'
p667
(lp668
(lp669
(lp670
g3
(g4
g5
Vnew-york-usa
p671
tp672
Rp673
a(lp674
g3
(g4
g5
Ventertainment
p675
tp676
Rp677
atp678
a(S'ThisIsRobThomas'
p679
(lp680
g3
(g4
g5
Vnew-york-usa
p681
tp682
Rp683
a(lp684
(lp685
g3
(g4
g5
Vnew-york-usa
p686
tp687
Rp688
a(lp689
g3
(g4
g5
Ventertainment
p690
tp691
Rp692
atp693
a(S'singernews'
p694
(lp695
g3
(g4
g5
Vnew-york-usa
p696
tp697
Rp698
a(lp699
g3
(g4
g5
Vsan-francisco-usa
p700
tp701
Rp702
ag3
(g4
g5
Vnew-york-usa
p703
tp704
Rp705
ag3
(g4
g5
Vboston-usa
p706
tp707
Rp708
a(lp709
(lp710
g3
(g4
g5
Vpolitics
p711
tp712
Rp713
atp714
a(S'kellanlutz'
p715
(lp716
(lp717
(lp718
g3
(g4
g5
Vsan-francisco-usa
p719
tp720
Rp721
a(lp722
g3
(g4
g5
Ventertainment
p723
tp724
Rp725
atp726
a(S'GallagherBilly'
p727
(lp728
(lp729
(lp730
g3
(g4
g5
Vsan-francisco-usa
p731
tp732
Rp733
a(lp734
g3
(g4
g5
Vtechnology
p735
tp736
Rp737
atp738
a(S'LisaDCNN'
p739
(lp740
g3
(g4
g5
Vnew-york-usa
p741
tp742
Rp743
a(lp744
(lp745
(lp746
g3
(g4
g5
Vpolitics
p747
tp748
Rp749
atp750
a(S'Gardner_LM'
p751
(lp752
g3
(g4
g5
Vnew-york-usa
p753
tp754
Rp755
a(lp756
g3
(g4
g5
Vsan-francisco-usa
p757
tp758
Rp759
ag3
(g4
g5
Vnew-york-usa
p760
tp761
Rp762
ag3
(g4
g5
Vboston-usa
p763
tp764
Rp765
a(lp766
(lp767
g3
(g4
g5
Vpolitics
p768
tp769
Rp770
atp771
a(S'DianaPenty'
p772
(lp773
g3
(g4
g5
Vmumbai-india
p774
tp775
Rp776
a(lp777
g3
(g4
g5
Vbangalore-india
p778
tp779
Rp780
ag3
(g4
g5
Vmumbai-india
p781
tp782
Rp783
a(lp784
g3
(g4
g5
Vmumbai-india
p785
tp786
Rp787
a(lp788
g3
(g4
g5
Ventertainment
p789
tp790
Rp791
atp792
a(S'RepByrne'
p793
(lp794
(lp795
g3
(g4
g5
Vsan-francisco-usa
p796
tp797
Rp798
ag3
(g4
g5
Vnew-york-usa
p799
tp800
Rp801
ag3
(g4
g5
Vboston-usa
p802
tp803
Rp804
a(lp805
(lp806
g3
(g4
g5
Vpolitics
p807
tp808
Rp809
atp810
a(S'sciencetechnews'
p811
(lp812
g3
(g4
g5
Vnew-york-usa
p813
tp814
Rp815
a(lp816
(lp817
g3
(g4
g5
Vsan-francisco-usa
p818
tp819
Rp820
ag3
(g4
g5
Vnew-york-usa
p821
tp822
Rp823
ag3
(g4
g5
Vboston-usa
p824
tp825
Rp826
a(lp827
g3
(g4
g5
Vtechnology
p828
tp829
Rp830
atp831
a(S'Owlwatch1'
p832
(lp833
(lp834
(lp835
(lp836
g3
(g4
g5
Vtechnology
p837
tp838
Rp839
ag3
(g4
g5
Vbusiness
p840
tp841
Rp842
atp843
a(S'johnsonwhitney'
p844
(lp845
g3
(g4
g5
Vboston-usa
p846
tp847
Rp848
a(lp849
(lp850
g3
(g4
g5
Vboston-usa
p851
tp852
Rp853
a(lp854
g3
(g4
g5
Vbusiness
p855
tp856
Rp857
atp858
a(S'SouravGanguly'
p859
(lp860
(lp861
g3
(g4
g5
Vbangalore-india
p862
tp863
Rp864
ag3
(g4
g5
Vmumbai-india
p865
tp866
Rp867
a(lp868
(lp869
g3
(g4
g5
Vsports
p870
tp871
Rp872
atp873
a(S'SenWarren'
p874
(lp875
(lp876
g3
(g4
g5
Vsan-francisco-usa
p877
tp878
Rp879
ag3
(g4
g5
Vnew-york-usa
p880
tp881
Rp882
ag3
(g4
g5
Vboston-usa
p883
tp884
Rp885
a(lp886
(lp887
g3
(g4
g5
Vpolitics
p888
tp889
Rp890
atp891
a(S'VishnuNDTV'
p892
(lp893
(lp894
g3
(g4
g5
Vbangalore-india
p895
tp896
Rp897
ag3
(g4
g5
Vmumbai-india
p898
tp899
Rp900
a(lp901
(lp902
g3
(g4
g5
Vpolitics
p903
tp904
Rp905
atp906
a(S'peterthiel'
p907
(lp908
(lp909
(lp910
g3
(g4
g5
Vsan-francisco-usa
p911
tp912
Rp913
a(lp914
g3
(g4
g5
Vtechnology
p915
tp916
Rp917
atp918
a(S'agoramedia'
p919
(lp920
g3
(g4
g5
Vlondon-uk
p921
tp922
Rp923
a(lp924
(lp925
g3
(g4
g5
Vlondon-uk
p926
tp927
Rp928
a(lp929
g3
(g4
g5
Vbusiness
p930
tp931
Rp932
atp933
a(S'IlvesToomas'
p934
(lp935
g3
(g4
g5
Vlondon-uk
p936
tp937
Rp938
a(lp939
(lp940
(lp941
g3
(g4
g5
Vpolitics
p942
tp943
Rp944
atp945
a(S'SrideviBKapoor'
p946
(lp947
(lp948
g3
(g4
g5
Vbangalore-india
p949
tp950
Rp951
ag3
(g4
g5
Vmumbai-india
p952
tp953
Rp954
a(lp955
(lp956
g3
(g4
g5
Ventertainment
p957
tp958
Rp959
atp960
a(S'NicolasMaduro'
p961
(lp962
(lp963
(lp964
(lp965
g3
(g4
g5
Vpolitics
p966
tp967
Rp968
atp969
a(S'sarojkhanji'
p970
(lp971
g3
(g4
g5
Vmumbai-india
p972
tp973
Rp974
a(lp975
g3
(g4
g5
Vbangalore-india
p976
tp977
Rp978
ag3
(g4
g5
Vmumbai-india
p979
tp980
Rp981
a(lp982
g3
(g4
g5
Vmumbai-india
p983
tp984
Rp985
a(lp986
g3
(g4
g5
Ventertainment
p987
tp988
Rp989
atp990
a(S'selvecricket'
p991
(lp992
(lp993
g3
(g4
g5
Vbangalore-india
p994
tp995
Rp996
ag3
(g4
g5
Vmumbai-india
p997
tp998
Rp999
a(lp1000
(lp1001
g3
(g4
g5
Vsports
p1002
tp1003
Rp1004
atp1005
a(S'mkung'
p1006
(lp1007
g3
(g4
g5
Vsan-francisco-usa
p1008
tp1009
Rp1010
a(lp1011
(lp1012
g3
(g4
g5
Vsan-francisco-usa
p1013
tp1014
Rp1015
a(lp1016
g3
(g4
g5
Ventertainment
p1017
tp1018
Rp1019
atp1020
a(S'johnbattelle'
p1021
(lp1022
(lp1023
(lp1024
g3
(g4
g5
Vsan-francisco-usa
p1025
tp1026
Rp1027
a(lp1028
g3
(g4
g5
Vtechnology
p1029
tp1030
Rp1031
atp1032
a(S'PDdancing'
p1033
(lp1034
(lp1035
g3
(g4
g5
Vbangalore-india
p1036
tp1037
Rp1038
ag3
(g4
g5
Vmumbai-india
p1039
tp1040
Rp1041
a(lp1042
(lp1043
g3
(g4
g5
Ventertainment
p1044
tp1045
Rp1046
atp1047
a(S'TeamCoco'
p1048
(lp1049
(lp1050
(lp1051
g3
(g4
g5
Vsan-francisco-usa
p1052
tp1053
Rp1054
ag3
(g4
g5
Vnew-york-usa
p1055
tp1056
Rp1057
ag3
(g4
g5
Vboston-usa
p1058
tp1059
Rp1060
a(lp1061
g3
(g4
g5
Ventertainment
p1062
tp1063
Rp1064
atp1065
a(S'Nasiji'
p1066
(lp1067
(lp1068
(lp1069
(lp1070
g3
(g4
g5
Vtechnology
p1071
tp1072
Rp1073
atp1074
a(S'JPosnanski'
p1075
(lp1076
(lp1077
(lp1078
(lp1079
g3
(g4
g5
Vsports
p1080
tp1081
Rp1082
atp1083
a(S'ElizabethHurley'
p1084
(lp1085
(lp1086
(lp1087
g3
(g4
g5
Vlondon-uk
p1088
tp1089
Rp1090
a(lp1091
g3
(g4
g5
Ventertainment
p1092
tp1093
Rp1094
atp1095
a(S'WSJdailyfix'
p1096
(lp1097
(lp1098
(lp1099
g3
(g4
g5
Vnew-york-usa
p1100
tp1101
Rp1102
a(lp1103
g3
(g4
g5
Vsports
p1104
tp1105
Rp1106
atp1107
a(S'AndyNewellskier'
p1108
(lp1109
(lp1110
(lp1111
(lp1112
g3
(g4
g5
Vsports
p1113
tp1114
Rp1115
atp1116
a(S'dimpy_mahajan'
p1117
(lp1118
(lp1119
g3
(g4
g5
Vbangalore-india
p1120
tp1121
Rp1122
ag3
(g4
g5
Vmumbai-india
p1123
tp1124
Rp1125
a(lp1126
(lp1127
g3
(g4
g5
Ventertainment
p1128
tp1129
Rp1130
atp1131
a(S'McConnellPress'
p1132
(lp1133
(lp1134
g3
(g4
g5
Vsan-francisco-usa
p1135
tp1136
Rp1137
ag3
(g4
g5
Vnew-york-usa
p1138
tp1139
Rp1140
ag3
(g4
g5
Vboston-usa
p1141
tp1142
Rp1143
a(lp1144
(lp1145
g3
(g4
g5
Vpolitics
p1146
tp1147
Rp1148
atp1149
a(S'NaghmaNDTV'
p1150
(lp1151
g3
(g4
g5
Vmumbai-india
p1152
tp1153
Rp1154
a(lp1155
g3
(g4
g5
Vbangalore-india
p1156
tp1157
Rp1158
ag3
(g4
g5
Vmumbai-india
p1159
tp1160
Rp1161
a(lp1162
g3
(g4
g5
Vmumbai-india
p1163
tp1164
Rp1165
a(lp1166
g3
(g4
g5
Vpolitics
p1167
tp1168
Rp1169
atp1170
a(S'ManishaThakor'
p1171
(lp1172
(lp1173
(lp1174
(lp1175
g3
(g4
g5
Vbusiness
p1176
tp1177
Rp1178
atp1179
a(S'Esha_Deol'
p1180
(lp1181
g3
(g4
g5
Vmumbai-india
p1182
tp1183
Rp1184
a(lp1185
g3
(g4
g5
Vbangalore-india
p1186
tp1187
Rp1188
ag3
(g4
g5
Vmumbai-india
p1189
tp1190
Rp1191
a(lp1192
g3
(g4
g5
Vmumbai-india
p1193
tp1194
Rp1195
a(lp1196
g3
(g4
g5
Ventertainment
p1197
tp1198
Rp1199
atp1200
a(S'DrPhilRoe'
p1201
(lp1202
(lp1203
g3
(g4
g5
Vsan-francisco-usa
p1204
tp1205
Rp1206
ag3
(g4
g5
Vnew-york-usa
p1207
tp1208
Rp1209
ag3
(g4
g5
Vboston-usa
p1210
tp1211
Rp1212
a(lp1213
(lp1214
g3
(g4
g5
Vpolitics
p1215
tp1216
Rp1217
atp1218
a(S'ArashMarkazi'
p1219
(lp1220
(lp1221
g3
(g4
g5
Vsan-francisco-usa
p1222
tp1223
Rp1224
a(lp1225
g3
(g4
g5
Vsan-francisco-usa
p1226
tp1227
Rp1228
a(lp1229
g3
(g4
g5
Vsports
p1230
tp1231
Rp1232
atp1233
a(S'D_Brown4'
p1234
(lp1235
(lp1236
g3
(g4
g5
Vsan-francisco-usa
p1237
tp1238
Rp1239
ag3
(g4
g5
Vnew-york-usa
p1240
tp1241
Rp1242
ag3
(g4
g5
Vboston-usa
p1243
tp1244
Rp1245
a(lp1246
(lp1247
g3
(g4
g5
Vsports
p1248
tp1249
Rp1250
atp1251
a(S'CNNOpinion'
p1252
(lp1253
(lp1254
(lp1255
(lp1256
g3
(g4
g5
Vpolitics
p1257
tp1258
Rp1259
atp1260
a(S'markhoppus'
p1261
(lp1262
(lp1263
(lp1264
g3
(g4
g5
Vsan-francisco-usa
p1265
tp1266
Rp1267
a(lp1268
g3
(g4
g5
Ventertainment
p1269
tp1270
Rp1271
atp1272
a(S'LScola4'
p1273
(lp1274
g3
(g4
g5
Vnew-york-usa
p1275
tp1276
Rp1277
a(lp1278
g3
(g4
g5
Vsan-francisco-usa
p1279
tp1280
Rp1281
ag3
(g4
g5
Vnew-york-usa
p1282
tp1283
Rp1284
ag3
(g4
g5
Vboston-usa
p1285
tp1286
Rp1287
a(lp1288
(lp1289
g3
(g4
g5
Vsports
p1290
tp1291
Rp1292
atp1293
a(S'jaredfavole'
p1294
(lp1295
(lp1296
(lp1297
g3
(g4
g5
Vsan-francisco-usa
p1298
tp1299
Rp1300
ag3
(g4
g5
Vnew-york-usa
p1301
tp1302
Rp1303
ag3
(g4
g5
Vboston-usa
p1304
tp1305
Rp1306
a(lp1307
g3
(g4
g5
Vpolitics
p1308
tp1309
Rp1310
ag3
(g4
g5
Vbusiness
p1311
tp1312
Rp1313
atp1314
a(S'DrewFromTV'
p1315
(lp1316
(lp1317
(lp1318
g3
(g4
g5
Vsan-francisco-usa
p1319
tp1320
Rp1321
a(lp1322
g3
(g4
g5
Ventertainment
p1323
tp1324
Rp1325
atp1326
a(S'MartinHeinrich'
p1327
(lp1328
(lp1329
g3
(g4
g5
Vsan-francisco-usa
p1330
tp1331
Rp1332
ag3
(g4
g5
Vnew-york-usa
p1333
tp1334
Rp1335
ag3
(g4
g5
Vboston-usa
p1336
tp1337
Rp1338
a(lp1339
(lp1340
g3
(g4
g5
Vpolitics
p1341
tp1342
Rp1343
atp1344
a(S'RyanRuggiero'
p1345
(lp1346
(lp1347
(lp1348
(lp1349
g3
(g4
g5
Vbusiness
p1350
tp1351
Rp1352
atp1353
a(S'crashcraddock1'
p1354
(lp1355
(lp1356
g3
(g4
g5
Vbangalore-india
p1357
tp1358
Rp1359
ag3
(g4
g5
Vmumbai-india
p1360
tp1361
Rp1362
a(lp1363
(lp1364
g3
(g4
g5
Vsports
p1365
tp1366
Rp1367
atp1368
a(S'SenatorRisch'
p1369
(lp1370
(lp1371
g3
(g4
g5
Vsan-francisco-usa
p1372
tp1373
Rp1374
ag3
(g4
g5
Vnew-york-usa
p1375
tp1376
Rp1377
ag3
(g4
g5
Vboston-usa
p1378
tp1379
Rp1380
a(lp1381
(lp1382
g3
(g4
g5
Vpolitics
p1383
tp1384
Rp1385
atp1386
a(S'EYJr'
p1387
(lp1388
(lp1389
g3
(g4
g5
Vsan-francisco-usa
p1390
tp1391
Rp1392
ag3
(g4
g5
Vnew-york-usa
p1393
tp1394
Rp1395
ag3
(g4
g5
Vboston-usa
p1396
tp1397
Rp1398
a(lp1399
g3
(g4
g5
Vnew-york-usa
p1400
tp1401
Rp1402
a(lp1403
g3
(g4
g5
Vsports
p1404
tp1405
Rp1406
atp1407
a(S'LouBonica'
p1408
(lp1409
(lp1410
(lp1411
(lp1412
g3
(g4
g5
Vtechnology
p1413
tp1414
Rp1415
ag3
(g4
g5
Vbusiness
p1416
tp1417
Rp1418
atp1419
a(S'ShiraOvide'
p1420
(lp1421
(lp1422
(lp1423
g3
(g4
g5
Vsan-francisco-usa
p1424
tp1425
Rp1426
a(lp1427
g3
(g4
g5
Vtechnology
p1428
tp1429
Rp1430
atp1431
a(S'MeenalMistry'
p1432
(lp1433
(lp1434
(lp1435
g3
(g4
g5
Vnew-york-usa
p1436
tp1437
Rp1438
a(lp1439
g3
(g4
g5
Ventertainment
p1440
tp1441
Rp1442
atp1443
a(S'AThornton14'
p1444
(lp1445
(lp1446
g3
(g4
g5
Vsan-francisco-usa
p1447
tp1448
Rp1449
ag3
(g4
g5
Vnew-york-usa
p1450
tp1451
Rp1452
ag3
(g4
g5
Vboston-usa
p1453
tp1454
Rp1455
a(lp1456
(lp1457
g3
(g4
g5
Vsports
p1458
tp1459
Rp1460
atp1461
a(S'cjknutsen'
p1462
(lp1463
(lp1464
(lp1465
(lp1466
g3
(g4
g5
Ventertainment
p1467
tp1468
Rp1469
atp1470
a(S'therealmix'
p1471
(lp1472
(lp1473
(lp1474
(lp1475
g3
(g4
g5
Ventertainment
p1476
tp1477
Rp1478
atp1479
a(S'shreyastalpade1'
p1480
(lp1481
(lp1482
g3
(g4
g5
Vbangalore-india
p1483
tp1484
Rp1485
ag3
(g4
g5
Vmumbai-india
p1486
tp1487
Rp1488
a(lp1489
(lp1490
g3
(g4
g5
Ventertainment
p1491
tp1492
Rp1493
atp1494
a(S'YahooSportsMMA'
p1495
(lp1496
(lp1497
(lp1498
g3
(g4
g5
Vsan-francisco-usa
p1499
tp1500
Rp1501
a(lp1502
g3
(g4
g5
Vsports
p1503
tp1504
Rp1505
atp1506
a(S'tomkrazit'
p1507
(lp1508
(lp1509
(lp1510
(lp1511
g3
(g4
g5
Vtechnology
p1512
tp1513
Rp1514
atp1515
a(S'YahooSportNCAAB'
p1516
(lp1517
(lp1518
(lp1519
g3
(g4
g5
Vsan-francisco-usa
p1520
tp1521
Rp1522
a(lp1523
g3
(g4
g5
Vsports
p1524
tp1525
Rp1526
atp1527
a(S'TheRealEve'
p1528
(lp1529
(lp1530
(lp1531
(lp1532
g3
(g4
g5
Ventertainment
p1533
tp1534
Rp1535
atp1536
a(S'illwil21'
p1537
(lp1538
g3
(g4
g5
Vnew-york-usa
p1539
tp1540
Rp1541
a(lp1542
g3
(g4
g5
Vsan-francisco-usa
p1543
tp1544
Rp1545
ag3
(g4
g5
Vnew-york-usa
p1546
tp1547
Rp1548
ag3
(g4
g5
Vboston-usa
p1549
tp1550
Rp1551
a(lp1552
g3
(g4
g5
Vnew-york-usa
p1553
tp1554
Rp1555
a(lp1556
g3
(g4
g5
Vsports
p1557
tp1558
Rp1559
atp1560
a(S'rajshri'
p1561
(lp1562
(lp1563
g3
(g4
g5
Vbangalore-india
p1564
tp1565
Rp1566
ag3
(g4
g5
Vmumbai-india
p1567
tp1568
Rp1569
a(lp1570
(lp1571
g3
(g4
g5
Ventertainment
p1572
tp1573
Rp1574
atp1575
a(S'SenSherrodBrown'
p1576
(lp1577
g3
(g4
g5
Vnew-york-usa
p1578
tp1579
Rp1580
a(lp1581
g3
(g4
g5
Vsan-francisco-usa
p1582
tp1583
Rp1584
ag3
(g4
g5
Vnew-york-usa
p1585
tp1586
Rp1587
ag3
(g4
g5
Vboston-usa
p1588
tp1589
Rp1590
a(lp1591
g3
(g4
g5
Vnew-york-usa
p1592
tp1593
Rp1594
a(lp1595
g3
(g4
g5
Vpolitics
p1596
tp1597
Rp1598
atp1599
a(S'twitalytic'
p1600
(lp1601
(lp1602
(lp1603
(lp1604
g3
(g4
g5
Vtechnology
p1605
tp1606
Rp1607
atp1608
a(S'WithCongress'
p1609
(lp1610
(lp1611
g3
(g4
g5
Vbangalore-india
p1612
tp1613
Rp1614
ag3
(g4
g5
Vmumbai-india
p1615
tp1616
Rp1617
a(lp1618
(lp1619
g3
(g4
g5
Vpolitics
p1620
tp1621
Rp1622
atp1623
a(S'JaiTDP'
p1624
(lp1625
(lp1626
g3
(g4
g5
Vbangalore-india
p1627
tp1628
Rp1629
ag3
(g4
g5
Vmumbai-india
p1630
tp1631
Rp1632
a(lp1633
(lp1634
g3
(g4
g5
Vpolitics
p1635
tp1636
Rp1637
atp1638
a(S'CalumMercer'
p1639
(lp1640
g3
(g4
g5
Vlondon-uk
p1641
tp1642
Rp1643
a(lp1644
(lp1645
g3
(g4
g5
Vlondon-uk
p1646
tp1647
Rp1648
a(lp1649
g3
(g4
g5
Vbusiness
p1650
tp1651
Rp1652
atp1653
a(S'marissamayer'
p1654
(lp1655
g3
(g4
g5
Vsan-francisco-usa
p1656
tp1657
Rp1658
a(lp1659
(lp1660
g3
(g4
g5
Vsan-francisco-usa
p1661
tp1662
Rp1663
a(lp1664
g3
(g4
g5
Vtechnology
p1665
tp1666
Rp1667
atp1668
a(S'SenLandrieu'
p1669
(lp1670
(lp1671
g3
(g4
g5
Vsan-francisco-usa
p1672
tp1673
Rp1674
ag3
(g4
g5
Vnew-york-usa
p1675
tp1676
Rp1677
ag3
(g4
g5
Vboston-usa
p1678
tp1679
Rp1680
a(lp1681
(lp1682
g3
(g4
g5
Vpolitics
p1683
tp1684
Rp1685
atp1686
a(S'mscordell'
p1687
(lp1688
(lp1689
(lp1690
(lp1691
g3
(g4
g5
Vtechnology
p1692
tp1693
Rp1694
ag3
(g4
g5
Vbusiness
p1695
tp1696
Rp1697
atp1698
a(S'MLCWatkins'
p1699
(lp1700
(lp1701
(lp1702
(lp1703
g3
(g4
g5
Vbusiness
p1704
tp1705
Rp1706
atp1707
a(S'EldergillCNN'
p1708
(lp1709
(lp1710
(lp1711
g3
(g4
g5
Vlondon-uk
p1712
tp1713
Rp1714
a(lp1715
g3
(g4
g5
Vsports
p1716
tp1717
Rp1718
atp1719
a(S'Nate_Cohn'
p1720
(lp1721
g3
(g4
g5
Vnew-york-usa
p1722
tp1723
Rp1724
a(lp1725
(lp1726
(lp1727
g3
(g4
g5
Vpolitics
p1728
tp1729
Rp1730
atp1731
a(S'path'
p1732
(lp1733
g3
(g4
g5
Vsan-francisco-usa
p1734
tp1735
Rp1736
a(lp1737
g3
(g4
g5
Vsan-francisco-usa
p1738
tp1739
Rp1740
a(lp1741
g3
(g4
g5
Vsan-francisco-usa
p1742
tp1743
Rp1744
a(lp1745
g3
(g4
g5
Vtechnology
p1746
tp1747
Rp1748
atp1749
a(S'KaranJoharTeam'
p1750
(lp1751
(lp1752
g3
(g4
g5
Vbangalore-india
p1753
tp1754
Rp1755
ag3
(g4
g5
Vmumbai-india
p1756
tp1757
Rp1758
a(lp1759
(lp1760
g3
(g4
g5
Ventertainment
p1761
tp1762
Rp1763
atp1764
a(S'kylieminogue'
p1765
(lp1766
(lp1767
(lp1768
(lp1769
g3
(g4
g5
Ventertainment
p1770
tp1771
Rp1772
atp1773
a(S'CNET'
p1774
(lp1775
(lp1776
(lp1777
g3
(g4
g5
Vsan-francisco-usa
p1778
tp1779
Rp1780
a(lp1781
g3
(g4
g5
Vtechnology
p1782
tp1783
Rp1784
atp1785
a(S'cqrcDataMine'
p1786
(lp1787
g3
(g4
g5
Vnew-york-usa
p1788
tp1789
Rp1790
a(lp1791
g3
(g4
g5
Vsan-francisco-usa
p1792
tp1793
Rp1794
ag3
(g4
g5
Vnew-york-usa
p1795
tp1796
Rp1797
ag3
(g4
g5
Vboston-usa
p1798
tp1799
Rp1800
a(lp1801
(lp1802
g3
(g4
g5
Vpolitics
p1803
tp1804
Rp1805
atp1806
a(S'mmathew1'
p1807
(lp1808
g3
(g4
g5
Vbangalore-india
p1809
tp1810
Rp1811
a(lp1812
g3
(g4
g5
Vbangalore-india
p1813
tp1814
Rp1815
ag3
(g4
g5
Vmumbai-india
p1816
tp1817
Rp1818
a(lp1819
(lp1820
g3
(g4
g5
Vtechnology
p1821
tp1822
Rp1823
atp1824
a(S'SenThadCochran'
p1825
(lp1826
(lp1827
g3
(g4
g5
Vsan-francisco-usa
p1828
tp1829
Rp1830
ag3
(g4
g5
Vnew-york-usa
p1831
tp1832
Rp1833
ag3
(g4
g5
Vboston-usa
p1834
tp1835
Rp1836
a(lp1837
(lp1838
g3
(g4
g5
Vpolitics
p1839
tp1840
Rp1841
atp1842
a(S'CarolMeersch'
p1843
(lp1844
g3
(g4
g5
Vlondon-uk
p1845
tp1846
Rp1847
a(lp1848
(lp1849
(lp1850
g3
(g4
g5
Vbusiness
p1851
tp1852
Rp1853
atp1854
a(S'jcrasnick'
p1855
(lp1856
g3
(g4
g5
Vnew-york-usa
p1857
tp1858
Rp1859
a(lp1860
(lp1861
(lp1862
g3
(g4
g5
Vsports
p1863
tp1864
Rp1865
atp1866
a(S'Sayantanigosh'
p1867
(lp1868
(lp1869
g3
(g4
g5
Vbangalore-india
p1870
tp1871
Rp1872
ag3
(g4
g5
Vmumbai-india
p1873
tp1874
Rp1875
a(lp1876
(lp1877
g3
(g4
g5
Ventertainment
p1878
tp1879
Rp1880
atp1881
a(S'DionNissenbaum'
p1882
(lp1883
(lp1884
(lp1885
(lp1886
g3
(g4
g5
Vpolitics
p1887
tp1888
Rp1889
ag3
(g4
g5
Vbusiness
p1890
tp1891
Rp1892
atp1893
a(S'hchimoff'
p1894
(lp1895
(lp1896
(lp1897
(lp1898
g3
(g4
g5
Vbusiness
p1899
tp1900
Rp1901
atp1902
a(S'Elenahight'
p1903
(lp1904
(lp1905
(lp1906
(lp1907
g3
(g4
g5
Vsports
p1908
tp1909
Rp1910
atp1911
a(S'mcten'
p1912
(lp1913
(lp1914
g3
(g4
g5
Vsan-francisco-usa
p1915
tp1916
Rp1917
a(lp1918
g3
(g4
g5
Vsan-francisco-usa
p1919
tp1920
Rp1921
a(lp1922
g3
(g4
g5
Vsports
p1923
tp1924
Rp1925
atp1926
a(S'SocialTimes'
p1927
(lp1928
g3
(g4
g5
Vsan-francisco-usa
p1929
tp1930
Rp1931
a(lp1932
(lp1933
g3
(g4
g5
Vsan-francisco-usa
p1934
tp1935
Rp1936
a(lp1937
g3
(g4
g5
Vtechnology
p1938
tp1939
Rp1940
atp1941
a(S'JonesTheMarkets'
p1942
(lp1943
(lp1944
(lp1945
(lp1946
g3
(g4
g5
Vbusiness
p1947
tp1948
Rp1949
atp1950
a(S'keithlaw'
p1951
(lp1952
(lp1953
(lp1954
(lp1955
g3
(g4
g5
Vsports
p1956
tp1957
Rp1958
atp1959
a(S'LeeNguyen24'
p1960
(lp1961
(lp1962
g3
(g4
g5
Vsan-francisco-usa
p1963
tp1964
Rp1965
ag3
(g4
g5
Vnew-york-usa
p1966
tp1967
Rp1968
ag3
(g4
g5
Vlondon-uk
p1969
tp1970
Rp1971
ag3
(g4
g5
Vboston-usa
p1972
tp1973
Rp1974
a(lp1975
(lp1976
g3
(g4
g5
Vsports
p1977
tp1978
Rp1979
atp1980
a(S'dreeves1'
p1981
(lp1982
(lp1983
(lp1984
(lp1985
g3
(g4
g5
Vtechnology
p1986
tp1987
Rp1988
atp1989
a(S'TheJurgs'
p1990
(lp1991
(lp1992
g3
(g4
g5
Vbangalore-india
p1993
tp1994
Rp1995
ag3
(g4
g5
Vmumbai-india
p1996
tp1997
Rp1998
a(lp1999
(lp2000
g3
(g4
g5
Vsports
p2001
tp2002
Rp2003
atp2004
a(S'ddlovato'
p2005
(lp2006
(lp2007
(lp2008
(lp2009
g3
(g4
g5
Ventertainment
p2010
tp2011
Rp2012
atp2013
a(S'ManishPaul03'
p2014
(lp2015
g3
(g4
g5
Vmumbai-india
p2016
tp2017
Rp2018
a(lp2019
g3
(g4
g5
Vbangalore-india
p2020
tp2021
Rp2022
ag3
(g4
g5
Vmumbai-india
p2023
tp2024
Rp2025
a(lp2026
g3
(g4
g5
Vmumbai-india
p2027
tp2028
Rp2029
a(lp2030
g3
(g4
g5
Ventertainment
p2031
tp2032
Rp2033
atp2034
a(S'kaifulee'
p2035
(lp2036
(lp2037
(lp2038
(lp2039
g3
(g4
g5
Vtechnology
p2040
tp2041
Rp2042
ag3
(g4
g5
Vbusiness
p2043
tp2044
Rp2045
atp2046
a(S'Ram_Guha'
p2047
(lp2048
g3
(g4
g5
Vbangalore-india
p2049
tp2050
Rp2051
a(lp2052
g3
(g4
g5
Vbangalore-india
p2053
tp2054
Rp2055
ag3
(g4
g5
Vmumbai-india
p2056
tp2057
Rp2058
a(lp2059
g3
(g4
g5
Vbangalore-india
p2060
tp2061
Rp2062
a(lp2063
g3
(g4
g5
Vsports
p2064
tp2065
Rp2066
atp2067
a(S'jadande'
p2068
(lp2069
g3
(g4
g5
Vsan-francisco-usa
p2070
tp2071
Rp2072
a(lp2073
g3
(g4
g5
Vsan-francisco-usa
p2074
tp2075
Rp2076
a(lp2077
(lp2078
g3
(g4
g5
Vsports
p2079
tp2080
Rp2081
atp2082
a(S'DennyMdotcom'
p2083
(lp2084
(lp2085
(lp2086
(lp2087
g3
(g4
g5
Vsports
p2088
tp2089
Rp2090
atp2091
a(S'CabinetSL'
p2092
(lp2093
(lp2094
(lp2095
(lp2096
g3
(g4
g5
Vpolitics
p2097
tp2098
Rp2099
atp2100
a(S'gov'
p2101
(lp2102
g3
(g4
g5
Vnew-york-usa
p2103
tp2104
Rp2105
a(lp2106
(lp2107
(lp2108
g3
(g4
g5
Vpolitics
p2109
tp2110
Rp2111
atp2112
a(S'TheJaggi'
p2113
(lp2114
g3
(g4
g5
Vmumbai-india
p2115
tp2116
Rp2117
a(lp2118
g3
(g4
g5
Vbangalore-india
p2119
tp2120
Rp2121
ag3
(g4
g5
Vmumbai-india
p2122
tp2123
Rp2124
a(lp2125
g3
(g4
g5
Vmumbai-india
p2126
tp2127
Rp2128
a(lp2129
g3
(g4
g5
Vpolitics
p2130
tp2131
Rp2132
atp2133
a(S'SunRisers'
p2134
(lp2135
(lp2136
g3
(g4
g5
Vbangalore-india
p2137
tp2138
Rp2139
ag3
(g4
g5
Vmumbai-india
p2140
tp2141
Rp2142
a(lp2143
(lp2144
g3
(g4
g5
Vsports
p2145
tp2146
Rp2147
atp2148
a(S'SocialGrow'
p2149
(lp2150
(lp2151
(lp2152
g3
(g4
g5
Vboston-usa
p2153
tp2154
Rp2155
a(lp2156
g3
(g4
g5
Vbusiness
p2157
tp2158
Rp2159
atp2160
a(S'JimBouldenCNN'
p2161
(lp2162
(lp2163
(lp2164
g3
(g4
g5
Vlondon-uk
p2165
tp2166
Rp2167
a(lp2168
g3
(g4
g5
Vbusiness
p2169
tp2170
Rp2171
atp2172
a(S'BreakingWeb'
p2173
(lp2174
(lp2175
(lp2176
(lp2177
g3
(g4
g5
Vtechnology
p2178
tp2179
Rp2180
atp2181
a(S'RepAdamSmith'
p2182
(lp2183
(lp2184
g3
(g4
g5
Vsan-francisco-usa
p2185
tp2186
Rp2187
ag3
(g4
g5
Vnew-york-usa
p2188
tp2189
Rp2190
ag3
(g4
g5
Vboston-usa
p2191
tp2192
Rp2193
a(lp2194
(lp2195
g3
(g4
g5
Vpolitics
p2196
tp2197
Rp2198
atp2199
a(S'verge'
p2200
(lp2201
(lp2202
(lp2203
(lp2204
g3
(g4
g5
Vtechnology
p2205
tp2206
Rp2207
atp2208
a(S'SenMarkPryor'
p2209
(lp2210
(lp2211
g3
(g4
g5
Vsan-francisco-usa
p2212
tp2213
Rp2214
ag3
(g4
g5
Vnew-york-usa
p2215
tp2216
Rp2217
ag3
(g4
g5
Vboston-usa
p2218
tp2219
Rp2220
a(lp2221
(lp2222
g3
(g4
g5
Vpolitics
p2223
tp2224
Rp2225
atp2226
a(S'CurtisErickson'
p2227
(lp2228
(lp2229
(lp2230
(lp2231
g3
(g4
g5
Vbusiness
p2232
tp2233
Rp2234
atp2235
a(S'TheSwamy'
p2236
(lp2237
g3
(g4
g5
Vbangalore-india
p2238
tp2239
Rp2240
a(lp2241
g3
(g4
g5
Vbangalore-india
p2242
tp2243
Rp2244
ag3
(g4
g5
Vmumbai-india
p2245
tp2246
Rp2247
a(lp2248
g3
(g4
g5
Vbangalore-india
p2249
tp2250
Rp2251
a(lp2252
g3
(g4
g5
Vbusiness
p2253
tp2254
Rp2255
atp2256
a(S'xanalter'
p2257
(lp2258
(lp2259
(lp2260
(lp2261
g3
(g4
g5
Ventertainment
p2262
tp2263
Rp2264
atp2265
a(S'sherryontopp'
p2266
(lp2267
(lp2268
g3
(g4
g5
Vbangalore-india
p2269
tp2270
Rp2271
ag3
(g4
g5
Vmumbai-india
p2272
tp2273
Rp2274
a(lp2275
(lp2276
g3
(g4
g5
Vsports
p2277
tp2278
Rp2279
ag3
(g4
g5
Ventertainment
p2280
tp2281
Rp2282
atp2283
a(S'SteveScalise'
p2284
(lp2285
g3
(g4
g5
Vnew-york-usa
p2286
tp2287
Rp2288
a(lp2289
g3
(g4
g5
Vsan-francisco-usa
p2290
tp2291
Rp2292
ag3
(g4
g5
Vnew-york-usa
p2293
tp2294
Rp2295
ag3
(g4
g5
Vboston-usa
p2296
tp2297
Rp2298
a(lp2299
(lp2300
g3
(g4
g5
Vpolitics
p2301
tp2302
Rp2303
atp2304
a(S'CNNWBT'
p2305
(lp2306
(lp2307
(lp2308
g3
(g4
g5
Vbangalore-india
p2309
tp2310
Rp2311
a(lp2312
g3
(g4
g5
Vbusiness
p2313
tp2314
Rp2315
atp2316
a(S'SenAngusKing'
p2317
(lp2318
(lp2319
g3
(g4
g5
Vsan-francisco-usa
p2320
tp2321
Rp2322
ag3
(g4
g5
Vnew-york-usa
p2323
tp2324
Rp2325
ag3
(g4
g5
Vboston-usa
p2326
tp2327
Rp2328
a(lp2329
(lp2330
g3
(g4
g5
Vpolitics
p2331
tp2332
Rp2333
atp2334
a(S'krisallenband'
p2335
(lp2336
(lp2337
(lp2338
(lp2339
g3
(g4
g5
Ventertainment
p2340
tp2341
Rp2342
atp2343
a(S'anandnikita'
p2344
(lp2345
(lp2346
g3
(g4
g5
Vbangalore-india
p2347
tp2348
Rp2349
ag3
(g4
g5
Vmumbai-india
p2350
tp2351
Rp2352
a(lp2353
(lp2354
g3
(g4
g5
Ventertainment
p2355
tp2356
Rp2357
atp2358
a(S'1Prachidesai'
p2359
(lp2360
(lp2361
g3
(g4
g5
Vbangalore-india
p2362
tp2363
Rp2364
ag3
(g4
g5
Vmumbai-india
p2365
tp2366
Rp2367
a(lp2368
(lp2369
g3
(g4
g5
Ventertainment
p2370
tp2371
Rp2372
atp2373
a(S'cupalwaysfull'
p2374
(lp2375
(lp2376
g3
(g4
g5
Vbangalore-india
p2377
tp2378
Rp2379
ag3
(g4
g5
Vmumbai-india
p2380
tp2381
Rp2382
a(lp2383
g3
(g4
g5
Vmumbai-india
p2384
tp2385
Rp2386
a(lp2387
g3
(g4
g5
Ventertainment
p2388
tp2389
Rp2390
atp2391
a(S'KaranMohla'
p2392
(lp2393
(lp2394
(lp2395
(lp2396
g3
(g4
g5
Vtechnology
p2397
tp2398
Rp2399
ag3
(g4
g5
Vbusiness
p2400
tp2401
Rp2402
atp2403
a(S'NATOlibrary'
p2404
(lp2405
(lp2406
(lp2407
(lp2408
g3
(g4
g5
Vpolitics
p2409
tp2410
Rp2411
atp2412
a(S'NatalieAbrams'
p2413
(lp2414
g3
(g4
g5
Vsan-francisco-usa
p2415
tp2416
Rp2417
a(lp2418
(lp2419
g3
(g4
g5
Vsan-francisco-usa
p2420
tp2421
Rp2422
a(lp2423
g3
(g4
g5
Ventertainment
p2424
tp2425
Rp2426
atp2427
a(S'kategilescnn'
p2428
(lp2429
(lp2430
(lp2431
(lp2432
g3
(g4
g5
Vsports
p2433
tp2434
Rp2435
atp2436
a(S'ESPNLosAngeles'
p2437
(lp2438
(lp2439
g3
(g4
g5
Vsan-francisco-usa
p2440
tp2441
Rp2442
a(lp2443
g3
(g4
g5
Vsan-francisco-usa
p2444
tp2445
Rp2446
a(lp2447
g3
(g4
g5
Vsports
p2448
tp2449
Rp2450
atp2451
a(S'romanscharf'
p2452
(lp2453
(lp2454
(lp2455
g3
(g4
g5
Vsan-francisco-usa
p2456
tp2457
Rp2458
a(lp2459
g3
(g4
g5
Vtechnology
p2460
tp2461
Rp2462
ag3
(g4
g5
Vbusiness
p2463
tp2464
Rp2465
atp2466
a(S'jtimberlake'
p2467
(lp2468
g3
(g4
g5
Vnew-york-usa
p2469
tp2470
Rp2471
a(lp2472
(lp2473
(lp2474
g3
(g4
g5
Ventertainment
p2475
tp2476
Rp2477
atp2478
a(S'BaltimoreCFO'
p2479
(lp2480
(lp2481
(lp2482
g3
(g4
g5
Vnew-york-usa
p2483
tp2484
Rp2485
a(lp2486
g3
(g4
g5
Vbusiness
p2487
tp2488
Rp2489
atp2490
a(S'LineLength'
p2491
(lp2492
(lp2493
g3
(g4
g5
Vbangalore-india
p2494
tp2495
Rp2496
ag3
(g4
g5
Vmumbai-india
p2497
tp2498
Rp2499
a(lp2500
(lp2501
g3
(g4
g5
Vsports
p2502
tp2503
Rp2504
atp2505
a(S'IAmSteveHarvey'
p2506
(lp2507
(lp2508
(lp2509
(lp2510
g3
(g4
g5
Ventertainment
p2511
tp2512
Rp2513
atp2514
a(S'AffiliateMgt'
p2515
(lp2516
(lp2517
(lp2518
(lp2519
g3
(g4
g5
Vbusiness
p2520
tp2521
Rp2522
atp2523
a(S'nickconfessore'
p2524
(lp2525
(lp2526
(lp2527
(lp2528
g3
(g4
g5
Vpolitics
p2529
tp2530
Rp2531
atp2532
a(S'shinyoung_park'
p2533
(lp2534
(lp2535
(lp2536
g3
(g4
g5
Vsan-francisco-usa
p2537
tp2538
Rp2539
a(lp2540
g3
(g4
g5
Vtechnology
p2541
tp2542
Rp2543
ag3
(g4
g5
Vbusiness
p2544
tp2545
Rp2546
atp2547
a(S'Arubin'
p2548
(lp2549
(lp2550
(lp2551
g3
(g4
g5
Vsan-francisco-usa
p2552
tp2553
Rp2554
a(lp2555
g3
(g4
g5
Vtechnology
p2556
tp2557
Rp2558
ag3
(g4
g5
Vbusiness
p2559
tp2560
Rp2561
atp2562
a(S'NdamukongSuh'
p2563
(lp2564
(lp2565
(lp2566
(lp2567
g3
(g4
g5
Vsports
p2568
tp2569
Rp2570
atp2571
a(S'bwreedbgr'
p2572
(lp2573
(lp2574
(lp2575
(lp2576
g3
(g4
g5
Vtechnology
p2577
tp2578
Rp2579
atp2580
a(S'AamAadmiParty'
p2581
(lp2582
(lp2583
g3
(g4
g5
Vbangalore-india
p2584
tp2585
Rp2586
ag3
(g4
g5
Vmumbai-india
p2587
tp2588
Rp2589
a(lp2590
(lp2591
g3
(g4
g5
Vpolitics
p2592
tp2593
Rp2594
atp2595
a(S'richardquest'
p2596
(lp2597
(lp2598
(lp2599
(lp2600
g3
(g4
g5
Vbusiness
p2601
tp2602
Rp2603
atp2604
a(S'akstanwyck'
p2605
(lp2606
(lp2607
(lp2608
(lp2609
g3
(g4
g5
Ventertainment
p2610
tp2611
Rp2612
atp2613
a(S'NapolitanoWSJ'
p2614
(lp2615
(lp2616
(lp2617
g3
(g4
g5
Vbangalore-india
p2618
tp2619
Rp2620
a(lp2621
g3
(g4
g5
Ventertainment
p2622
tp2623
Rp2624
atp2625
a(S'EHolmesWSJ'
p2626
(lp2627
g3
(g4
g5
Vnew-york-usa
p2628
tp2629
Rp2630
a(lp2631
(lp2632
g3
(g4
g5
Vnew-york-usa
p2633
tp2634
Rp2635
a(lp2636
g3
(g4
g5
Vbusiness
p2637
tp2638
Rp2639
ag3
(g4
g5
Ventertainment
p2640
tp2641
Rp2642
atp2643
a(S'goldiehawn'
p2644
(lp2645
(lp2646
(lp2647
(lp2648
g3
(g4
g5
Ventertainment
p2649
tp2650
Rp2651
atp2652
a(S'eshagupta2811'
p2653
(lp2654
(lp2655
g3
(g4
g5
Vbangalore-india
p2656
tp2657
Rp2658
ag3
(g4
g5
Vmumbai-india
p2659
tp2660
Rp2661
a(lp2662
(lp2663
g3
(g4
g5
Ventertainment
p2664
tp2665
Rp2666
atp2667
a(S'irrfan_k'
p2668
(lp2669
g3
(g4
g5
Vmumbai-india
p2670
tp2671
Rp2672
a(lp2673
g3
(g4
g5
Vbangalore-india
p2674
tp2675
Rp2676
ag3
(g4
g5
Vmumbai-india
p2677
tp2678
Rp2679
a(lp2680
(lp2681
g3
(g4
g5
Ventertainment
p2682
tp2683
Rp2684
atp2685
a(S'neerajroy'
p2686
(lp2687
g3
(g4
g5
Vmumbai-india
p2688
tp2689
Rp2690
a(lp2691
g3
(g4
g5
Vbangalore-india
p2692
tp2693
Rp2694
ag3
(g4
g5
Vmumbai-india
p2695
tp2696
Rp2697
a(lp2698
g3
(g4
g5
Vmumbai-india
p2699
tp2700
Rp2701
a(lp2702
g3
(g4
g5
Vtechnology
p2703
tp2704
Rp2705
atp2706
a(S'BusinessDesk'
p2707
(lp2708
(lp2709
(lp2710
g3
(g4
g5
Vlondon-uk
p2711
tp2712
Rp2713
a(lp2714
g3
(g4
g5
Vbusiness
p2715
tp2716
Rp2717
atp2718
a(S'SVB_India'
p2719
(lp2720
g3
(g4
g5
Vmumbai-india
p2721
tp2722
Rp2723
a(lp2724
(lp2725
g3
(g4
g5
Vmumbai-india
p2726
tp2727
Rp2728
a(lp2729
g3
(g4
g5
Vtechnology
p2730
tp2731
Rp2732
ag3
(g4
g5
Vbusiness
p2733
tp2734
Rp2735
atp2736
a(S'Registaan'
p2737
(lp2738
(lp2739
g3
(g4
g5
Vbangalore-india
p2740
tp2741
Rp2742
ag3
(g4
g5
Vmumbai-india
p2743
tp2744
Rp2745
a(lp2746
(lp2747
g3
(g4
g5
Ventertainment
p2748
tp2749
Rp2750
atp2751
a(S'WSJLife'
p2752
(lp2753
(lp2754
(lp2755
g3
(g4
g5
Vnew-york-usa
p2756
tp2757
Rp2758
a(lp2759
g3
(g4
g5
Ventertainment
p2760
tp2761
Rp2762
atp2763
a(S'FutureBoy'
p2764
(lp2765
(lp2766
(lp2767
g3
(g4
g5
Vlondon-uk
p2768
tp2769
Rp2770
a(lp2771
g3
(g4
g5
Vtechnology
p2772
tp2773
Rp2774
atp2775
a(S'radusuma'
p2776
(lp2777
(lp2778
(lp2779
(lp2780
g3
(g4
g5
Vtechnology
p2781
tp2782
Rp2783
ag3
(g4
g5
Vbusiness
p2784
tp2785
Rp2786
atp2787
a(S'CharlesHodsnCNN'
p2788
(lp2789
(lp2790
(lp2791
g3
(g4
g5
Vlondon-uk
p2792
tp2793
Rp2794
a(lp2795
g3
(g4
g5
Vbusiness
p2796
tp2797
Rp2798
atp2799
a(S'ReporterVikrant'
p2800
(lp2801
g3
(g4
g5
Vmumbai-india
p2802
tp2803
Rp2804
a(lp2805
g3
(g4
g5
Vbangalore-india
p2806
tp2807
Rp2808
ag3
(g4
g5
Vmumbai-india
p2809
tp2810
Rp2811
a(lp2812
g3
(g4
g5
Vmumbai-india
p2813
tp2814
Rp2815
a(lp2816
g3
(g4
g5
Vpolitics
p2817
tp2818
Rp2819
atp2820
a(S'GujaratC'
p2821
(lp2822
(lp2823
g3
(g4
g5
Vbangalore-india
p2824
tp2825
Rp2826
ag3
(g4
g5
Vmumbai-india
p2827
tp2828
Rp2829
a(lp2830
(lp2831
g3
(g4
g5
Vpolitics
p2832
tp2833
Rp2834
atp2835
a(S'RavishKumarNDTV'
p2836
(lp2837
(lp2838
g3
(g4
g5
Vbangalore-india
p2839
tp2840
Rp2841
ag3
(g4
g5
Vmumbai-india
p2842
tp2843
Rp2844
a(lp2845
(lp2846
g3
(g4
g5
Vpolitics
p2847
tp2848
Rp2849
atp2850
a(S'coreyboles'
p2851
(lp2852
g3
(g4
g5
Vnew-york-usa
p2853
tp2854
Rp2855
a(lp2856
(lp2857
(lp2858
g3
(g4
g5
Vpolitics
p2859
tp2860
Rp2861
atp2862
a(S'bjp_haryana'
p2863
(lp2864
g3
(g4
g5
Vmumbai-india
p2865
tp2866
Rp2867
a(lp2868
g3
(g4
g5
Vbangalore-india
p2869
tp2870
Rp2871
ag3
(g4
g5
Vmumbai-india
p2872
tp2873
Rp2874
a(lp2875
(lp2876
g3
(g4
g5
Vpolitics
p2877
tp2878
Rp2879
atp2880
a(S'Tanishaa003'
p2881
(lp2882
g3
(g4
g5
Vmumbai-india
p2883
tp2884
Rp2885
a(lp2886
g3
(g4
g5
Vbangalore-india
p2887
tp2888
Rp2889
ag3
(g4
g5
Vmumbai-india
p2890
tp2891
Rp2892
a(lp2893
g3
(g4
g5
Vmumbai-india
p2894
tp2895
Rp2896
a(lp2897
g3
(g4
g5
Ventertainment
p2898
tp2899
Rp2900
atp2901
a(S'AmritaRao'
p2902
(lp2903
(lp2904
g3
(g4
g5
Vbangalore-india
p2905
tp2906
Rp2907
ag3
(g4
g5
Vmumbai-india
p2908
tp2909
Rp2910
a(lp2911
(lp2912
g3
(g4
g5
Ventertainment
p2913
tp2914
Rp2915
atp2916
a(S'BobKellyAbreu'
p2917
(lp2918
(lp2919
g3
(g4
g5
Vsan-francisco-usa
p2920
tp2921
Rp2922
ag3
(g4
g5
Vnew-york-usa
p2923
tp2924
Rp2925
ag3
(g4
g5
Vboston-usa
p2926
tp2927
Rp2928
a(lp2929
(lp2930
g3
(g4
g5
Vsports
p2931
tp2932
Rp2933
atp2934
a(S'stuwoo'
p2935
(lp2936
g3
(g4
g5
Vnew-york-usa
p2937
tp2938
Rp2939
a(lp2940
(lp2941
g3
(g4
g5
Vnew-york-usa
p2942
tp2943
Rp2944
a(lp2945
g3
(g4
g5
Vsports
p2946
tp2947
Rp2948
atp2949
a(S'CNNGlobalEx'
p2950
(lp2951
(lp2952
(lp2953
(lp2954
g3
(g4
g5
Vbusiness
p2955
tp2956
Rp2957
atp2958
a(S'kevinrose'
p2959
(lp2960
g3
(g4
g5
Vsan-francisco-usa
p2961
tp2962
Rp2963
a(lp2964
(lp2965
g3
(g4
g5
Vsan-francisco-usa
p2966
tp2967
Rp2968
a(lp2969
g3
(g4
g5
Vtechnology
p2970
tp2971
Rp2972
atp2973
a(S'BradZiegler'
p2974
(lp2975
(lp2976
g3
(g4
g5
Vsan-francisco-usa
p2977
tp2978
Rp2979
ag3
(g4
g5
Vnew-york-usa
p2980
tp2981
Rp2982
ag3
(g4
g5
Vboston-usa
p2983
tp2984
Rp2985
a(lp2986
(lp2987
g3
(g4
g5
Vsports
p2988
tp2989
Rp2990
atp2991
a(S'SAPresident'
p2992
(lp2993
(lp2994
(lp2995
(lp2996
g3
(g4
g5
Vpolitics
p2997
tp2998
Rp2999
atp3000
a(S'GeoffAaron'
p3001
(lp3002
(lp3003
(lp3004
(lp3005
g3
(g4
g5
Vsports
p3006
tp3007
Rp3008
atp3009
a(S'TheRahulMahajan'
p3010
(lp3011
(lp3012
g3
(g4
g5
Vbangalore-india
p3013
tp3014
Rp3015
ag3
(g4
g5
Vmumbai-india
p3016
tp3017
Rp3018
a(lp3019
g3
(g4
g5
Vmumbai-india
p3020
tp3021
Rp3022
a(lp3023
g3
(g4
g5
Ventertainment
p3024
tp3025
Rp3026
atp3027
a(S'qubecell'
p3028
(lp3029
(lp3030
(lp3031
(lp3032
g3
(g4
g5
Vtechnology
p3033
tp3034
Rp3035
ag3
(g4
g5
Vbusiness
p3036
tp3037
Rp3038
atp3039
a(S'KAKA'
p3040
(lp3041
(lp3042
g3
(g4
g5
Vsan-francisco-usa
p3043
tp3044
Rp3045
ag3
(g4
g5
Vnew-york-usa
p3046
tp3047
Rp3048
ag3
(g4
g5
Vlondon-uk
p3049
tp3050
Rp3051
ag3
(g4
g5
Vboston-usa
p3052
tp3053
Rp3054
a(lp3055
(lp3056
g3
(g4
g5
Vsports
p3057
tp3058
Rp3059
atp3060
a(S'charlesrotblut'
p3061
(lp3062
(lp3063
(lp3064
(lp3065
g3
(g4
g5
Vbusiness
p3066
tp3067
Rp3068
atp3069
a(S'AlecMacGillis'
p3070
(lp3071
(lp3072
(lp3073
(lp3074
g3
(g4
g5
Vpolitics
p3075
tp3076
Rp3077
atp3078
a(S'limeroadcom'
p3079
(lp3080
(lp3081
(lp3082
(lp3083
g3
(g4
g5
Vtechnology
p3084
tp3085
Rp3086
ag3
(g4
g5
Vbusiness
p3087
tp3088
Rp3089
atp3090
a(S'AccelIndiaVC'
p3091
(lp3092
(lp3093
(lp3094
(lp3095
g3
(g4
g5
Vtechnology
p3096
tp3097
Rp3098
ag3
(g4
g5
Vbusiness
p3099
tp3100
Rp3101
atp3102
a(S'Sortable'
p3103
(lp3104
(lp3105
g3
(g4
g5
Vnew-york-usa
p3106
tp3107
Rp3108
a(lp3109
(lp3110
g3
(g4
g5
Vtechnology
p3111
tp3112
Rp3113
atp3114
a(S'KevinClarkWSJ'
p3115
(lp3116
(lp3117
(lp3118
g3
(g4
g5
Vnew-york-usa
p3119
tp3120
Rp3121
a(lp3122
g3
(g4
g5
Vsports
p3123
tp3124
Rp3125
atp3126
a(S'IreneCNN'
p3127
(lp3128
(lp3129
(lp3130
g3
(g4
g5
Vlondon-uk
p3131
tp3132
Rp3133
a(lp3134
g3
(g4
g5
Vbusiness
p3135
tp3136
Rp3137
atp3138
a(S'imAagarkar'
p3139
(lp3140
(lp3141
g3
(g4
g5
Vbangalore-india
p3142
tp3143
Rp3144
ag3
(g4
g5
Vmumbai-india
p3145
tp3146
Rp3147
a(lp3148
g3
(g4
g5
Vmumbai-india
p3149
tp3150
Rp3151
a(lp3152
g3
(g4
g5
Vsports
p3153
tp3154
Rp3155
atp3156
a(S'kashhill'
p3157
(lp3158
g3
(g4
g5
Vsan-francisco-usa
p3159
tp3160
Rp3161
a(lp3162
(lp3163
g3
(g4
g5
Vsan-francisco-usa
p3164
tp3165
Rp3166
a(lp3167
g3
(g4
g5
Vbusiness
p3168
tp3169
Rp3170
atp3171
a(S'RHCJO'
p3172
(lp3173
(lp3174
(lp3175
(lp3176
g3
(g4
g5
Vpolitics
p3177
tp3178
Rp3179
atp3180
a(S'bjphimachal'
p3181
(lp3182
(lp3183
g3
(g4
g5
Vbangalore-india
p3184
tp3185
Rp3186
ag3
(g4
g5
Vmumbai-india
p3187
tp3188
Rp3189
a(lp3190
(lp3191
g3
(g4
g5
Vpolitics
p3192
tp3193
Rp3194
atp3195
a(S'KimNewsome'
p3196
(lp3197
(lp3198
(lp3199
g3
(g4
g5
Vnew-york-usa
p3200
tp3201
Rp3202
a(lp3203
g3
(g4
g5
Vsports
p3204
tp3205
Rp3206
atp3207
a(S'willmauldin'
p3208
(lp3209
g3
(g4
g5
Vnew-york-usa
p3210
tp3211
Rp3212
a(lp3213
(lp3214
(lp3215
g3
(g4
g5
Vpolitics
p3216
tp3217
Rp3218
atp3219
a(S'_suhasidhami'
p3220
(lp3221
(lp3222
g3
(g4
g5
Vbangalore-india
p3223
tp3224
Rp3225
ag3
(g4
g5
Vmumbai-india
p3226
tp3227
Rp3228
a(lp3229
(lp3230
g3
(g4
g5
Ventertainment
p3231
tp3232
Rp3233
atp3234
a(S'kimbalabs'
p3235
(lp3236
g3
(g4
g5
Vsan-francisco-usa
p3237
tp3238
Rp3239
a(lp3240
g3
(g4
g5
Vsan-francisco-usa
p3241
tp3242
Rp3243
a(lp3244
g3
(g4
g5
Vsan-francisco-usa
p3245
tp3246
Rp3247
a(lp3248
g3
(g4
g5
Vtechnology
p3249
tp3250
Rp3251
atp3252
a(S'Ronny_Turiaf'
p3253
(lp3254
(lp3255
g3
(g4
g5
Vsan-francisco-usa
p3256
tp3257
Rp3258
ag3
(g4
g5
Vnew-york-usa
p3259
tp3260
Rp3261
ag3
(g4
g5
Vboston-usa
p3262
tp3263
Rp3264
a(lp3265
(lp3266
g3
(g4
g5
Vsports
p3267
tp3268
Rp3269
atp3270
a(S'BridgetCarey'
p3271
(lp3272
g3
(g4
g5
Vnew-york-usa
p3273
tp3274
Rp3275
a(lp3276
(lp3277
g3
(g4
g5
Vnew-york-usa
p3278
tp3279
Rp3280
a(lp3281
g3
(g4
g5
Vtechnology
p3282
tp3283
Rp3284
atp3285
a(S'jimchair'
p3286
(lp3287
(lp3288
(lp3289
(lp3290
g3
(g4
g5
Vsports
p3291
tp3292
Rp3293
atp3294
a(S'HighwayTheFilm'
p3295
(lp3296
(lp3297
g3
(g4
g5
Vbangalore-india
p3298
tp3299
Rp3300
ag3
(g4
g5
Vmumbai-india
p3301
tp3302
Rp3303
a(lp3304
(lp3305
g3
(g4
g5
Ventertainment
p3306
tp3307
Rp3308
atp3309
a(S'RyanSauers'
p3310
(lp3311
g3
(g4
g5
Vnew-york-usa
p3312
tp3313
Rp3314
a(lp3315
(lp3316
g3
(g4
g5
Vnew-york-usa
p3317
tp3318
Rp3319
a(lp3320
g3
(g4
g5
Vbusiness
p3321
tp3322
Rp3323
atp3324
a(S'dougkwarner'
p3325
(lp3326
(lp3327
(lp3328
(lp3329
g3
(g4
g5
Vtechnology
p3330
tp3331
Rp3332
ag3
(g4
g5
Vbusiness
p3333
tp3334
Rp3335
atp3336
a(S'swissteam'
p3337
(lp3338
g3
(g4
g5
Vlondon-uk
p3339
tp3340
Rp3341
a(lp3342
(lp3343
(lp3344
g3
(g4
g5
Vsports
p3345
tp3346
Rp3347
atp3348
a(S'BeckyQuick'
p3349
(lp3350
(lp3351
(lp3352
(lp3353
g3
(g4
g5
Vbusiness
p3354
tp3355
Rp3356
atp3357
a(S'PrannoyRoyNDTV'
p3358
(lp3359
(lp3360
g3
(g4
g5
Vbangalore-india
p3361
tp3362
Rp3363
ag3
(g4
g5
Vmumbai-india
p3364
tp3365
Rp3366
a(lp3367
(lp3368
g3
(g4
g5
Vpolitics
p3369
tp3370
Rp3371
atp3372
a(S'WHLive'
p3373
(lp3374
g3
(g4
g5
Vnew-york-usa
p3375
tp3376
Rp3377
a(lp3378
(lp3379
(lp3380
g3
(g4
g5
Vpolitics
p3381
tp3382
Rp3383
atp3384
a(S'davidhawkings'
p3385
(lp3386
g3
(g4
g5
Vnew-york-usa
p3387
tp3388
Rp3389
a(lp3390
g3
(g4
g5
Vsan-francisco-usa
p3391
tp3392
Rp3393
ag3
(g4
g5
Vnew-york-usa
p3394
tp3395
Rp3396
ag3
(g4
g5
Vboston-usa
p3397
tp3398
Rp3399
a(lp3400
(lp3401
g3
(g4
g5
Vpolitics
p3402
tp3403
Rp3404
atp3405
a(S'foodspotting'
p3406
(lp3407
(lp3408
g3
(g4
g5
Vnew-york-usa
p3409
tp3410
Rp3411
a(lp3412
(lp3413
g3
(g4
g5
Vtechnology
p3414
tp3415
Rp3416
atp3417
a(S'ranjiscores'
p3418
(lp3419
(lp3420
g3
(g4
g5
Vbangalore-india
p3421
tp3422
Rp3423
ag3
(g4
g5
Vmumbai-india
p3424
tp3425
Rp3426
a(lp3427
(lp3428
g3
(g4
g5
Vsports
p3429
tp3430
Rp3431
atp3432
a(S'BloombergView'
p3433
(lp3434
g3
(g4
g5
Vnew-york-usa
p3435
tp3436
Rp3437
a(lp3438
(lp3439
g3
(g4
g5
Vnew-york-usa
p3440
tp3441
Rp3442
a(lp3443
g3
(g4
g5
Vpolitics
p3444
tp3445
Rp3446
atp3447
a(S'expensify'
p3448
(lp3449
g3
(g4
g5
Vsan-francisco-usa
p3450
tp3451
Rp3452
a(lp3453
g3
(g4
g5
Vsan-francisco-usa
p3454
tp3455
Rp3456
a(lp3457
g3
(g4
g5
Vsan-francisco-usa
p3458
tp3459
Rp3460
a(lp3461
g3
(g4
g5
Vtechnology
p3462
tp3463
Rp3464
atp3465
a(S'ronnyejones'
p3466
(lp3467
g3
(g4
g5
Vnew-york-usa
p3468
tp3469
Rp3470
a(lp3471
(lp3472
(lp3473
g3
(g4
g5
Vtechnology
p3474
tp3475
Rp3476
ag3
(g4
g5
Vbusiness
p3477
tp3478
Rp3479
atp3480
a(S'murraymatt'
p3481
(lp3482
g3
(g4
g5
Vnew-york-usa
p3483
tp3484
Rp3485
a(lp3486
(lp3487
g3
(g4
g5
Vnew-york-usa
p3488
tp3489
Rp3490
a(lp3491
g3
(g4
g5
Vbusiness
p3492
tp3493
Rp3494
atp3495
a(S'titojackson5'
p3496
(lp3497
g3
(g4
g5
Vsan-francisco-usa
p3498
tp3499
Rp3500
a(lp3501
(lp3502
(lp3503
g3
(g4
g5
Ventertainment
p3504
tp3505
Rp3506
atp3507
a(S'WSJmarkets'
p3508
(lp3509
(lp3510
(lp3511
g3
(g4
g5
Vnew-york-usa
p3512
tp3513
Rp3514
a(lp3515
g3
(g4
g5
Vbusiness
p3516
tp3517
Rp3518
atp3519
a(S'DanBarbarisi'
p3520
(lp3521
g3
(g4
g5
Vnew-york-usa
p3522
tp3523
Rp3524
a(lp3525
(lp3526
g3
(g4
g5
Vnew-york-usa
p3527
tp3528
Rp3529
a(lp3530
g3
(g4
g5
Vsports
p3531
tp3532
Rp3533
atp3534
a(S'businessnews'
p3535
(lp3536
(lp3537
(lp3538
(lp3539
g3
(g4
g5
Vbusiness
p3540
tp3541
Rp3542
atp3543
a(S'BachusAL06'
p3544
(lp3545
(lp3546
g3
(g4
g5
Vsan-francisco-usa
p3547
tp3548
Rp3549
ag3
(g4
g5
Vnew-york-usa
p3550
tp3551
Rp3552
ag3
(g4
g5
Vboston-usa
p3553
tp3554
Rp3555
a(lp3556
(lp3557
g3
(g4
g5
Vpolitics
p3558
tp3559
Rp3560
atp3561
a(S'B_Wagner'
p3562
(lp3563
(lp3564
(lp3565
g3
(g4
g5
Vboston-usa
p3566
tp3567
Rp3568
a(lp3569
g3
(g4
g5
Vbusiness
p3570
tp3571
Rp3572
atp3573
a(S'VeniceMase'
p3574
(lp3575
(lp3576
g3
(g4
g5
Vsan-francisco-usa
p3577
tp3578
Rp3579
a(lp3580
(lp3581
g3
(g4
g5
Vsports
p3582
tp3583
Rp3584
atp3585
a(S'scottylago'
p3586
(lp3587
g3
(g4
g5
Vboston-usa
p3588
tp3589
Rp3590
a(lp3591
(lp3592
(lp3593
g3
(g4
g5
Vsports
p3594
tp3595
Rp3596
atp3597
a(S'PandoDaily'
p3598
(lp3599
(lp3600
(lp3601
g3
(g4
g5
Vsan-francisco-usa
p3602
tp3603
Rp3604
a(lp3605
g3
(g4
g5
Vtechnology
p3606
tp3607
Rp3608
atp3609
a(S'PSBJ_Tech'
p3610
(lp3611
(lp3612
(lp3613
(lp3614
g3
(g4
g5
Vtechnology
p3615
tp3616
Rp3617
atp3618
a(S'LAIreland'
p3619
(lp3620
(lp3621
g3
(g4
g5
Vsan-francisco-usa
p3622
tp3623
Rp3624
a(lp3625
g3
(g4
g5
Vsan-francisco-usa
p3626
tp3627
Rp3628
a(lp3629
g3
(g4
g5
Vsports
p3630
tp3631
Rp3632
atp3633
a(S'EdwardNorton'
p3634
(lp3635
g3
(g4
g5
Vnew-york-usa
p3636
tp3637
Rp3638
a(lp3639
(lp3640
g3
(g4
g5
Vnew-york-usa
p3641
tp3642
Rp3643
a(lp3644
g3
(g4
g5
Ventertainment
p3645
tp3646
Rp3647
atp3648
a(S'IvankaTrump'
p3649
(lp3650
(lp3651
(lp3652
g3
(g4
g5
Vnew-york-usa
p3653
tp3654
Rp3655
a(lp3656
g3
(g4
g5
Vbusiness
p3657
tp3658
Rp3659
ag3
(g4
g5
Ventertainment
p3660
tp3661
Rp3662
atp3663
a(S'YahooBDL'
p3664
(lp3665
(lp3666
(lp3667
(lp3668
g3
(g4
g5
Vsports
p3669
tp3670
Rp3671
atp3672
a(S'JoyLinFN'
p3673
(lp3674
g3
(g4
g5
Vnew-york-usa
p3675
tp3676
Rp3677
a(lp3678
(lp3679
(lp3680
g3
(g4
g5
Vpolitics
p3681
tp3682
Rp3683
atp3684
a(S'MGortat'
p3685
(lp3686
(lp3687
g3
(g4
g5
Vsan-francisco-usa
p3688
tp3689
Rp3690
ag3
(g4
g5
Vnew-york-usa
p3691
tp3692
Rp3693
ag3
(g4
g5
Vboston-usa
p3694
tp3695
Rp3696
a(lp3697
(lp3698
g3
(g4
g5
Vsports
p3699
tp3700
Rp3701
atp3702
a(S'cvoter'
p3703
(lp3704
(lp3705
g3
(g4
g5
Vbangalore-india
p3706
tp3707
Rp3708
ag3
(g4
g5
Vmumbai-india
p3709
tp3710
Rp3711
a(lp3712
(lp3713
g3
(g4
g5
Vpolitics
p3714
tp3715
Rp3716
atp3717
a(S'krishnabharat'
p3718
(lp3719
(lp3720
g3
(g4
g5
Vbangalore-india
p3721
tp3722
Rp3723
ag3
(g4
g5
Vmumbai-india
p3724
tp3725
Rp3726
a(lp3727
(lp3728
g3
(g4
g5
Vtechnology
p3729
tp3730
Rp3731
atp3732
a(S'manbearwolf'
p3733
(lp3734
(lp3735
g3
(g4
g5
Vsan-francisco-usa
p3736
tp3737
Rp3738
ag3
(g4
g5
Vnew-york-usa
p3739
tp3740
Rp3741
ag3
(g4
g5
Vboston-usa
p3742
tp3743
Rp3744
a(lp3745
(lp3746
g3
(g4
g5
Vsports
p3747
tp3748
Rp3749
atp3750
a(S'mkatju'
p3751
(lp3752
g3
(g4
g5
Vmumbai-india
p3753
tp3754
Rp3755
a(lp3756
g3
(g4
g5
Vbangalore-india
p3757
tp3758
Rp3759
ag3
(g4
g5
Vmumbai-india
p3760
tp3761
Rp3762
a(lp3763
g3
(g4
g5
Vmumbai-india
p3764
tp3765
Rp3766
a(lp3767
g3
(g4
g5
Vpolitics
p3768
tp3769
Rp3770
atp3771
a(S'JohnPaczkowski'
p3772
(lp3773
(lp3774
(lp3775
(lp3776
g3
(g4
g5
Vtechnology
p3777
tp3778
Rp3779
atp3780
a(S'HHShkMohd'
p3781
(lp3782
g3
(g4
g5
Vmumbai-india
p3783
tp3784
Rp3785
a(lp3786
(lp3787
(lp3788
g3
(g4
g5
Vpolitics
p3789
tp3790
Rp3791
atp3792
a(S'reidcherlin'
p3793
(lp3794
(lp3795
(lp3796
(lp3797
g3
(g4
g5
Vpolitics
p3798
tp3799
Rp3800
atp3801
a(S'gigabarb'
p3802
(lp3803
g3
(g4
g5
Vboston-usa
p3804
tp3805
Rp3806
a(lp3807
(lp3808
g3
(g4
g5
Vboston-usa
p3809
tp3810
Rp3811
a(lp3812
g3
(g4
g5
Vtechnology
p3813
tp3814
Rp3815
atp3816
a(S'brkend'
p3817
(lp3818
(lp3819
(lp3820
(lp3821
g3
(g4
g5
Vpolitics
p3822
tp3823
Rp3824
atp3825
a(S'WSJarts'
p3826
(lp3827
(lp3828
(lp3829
g3
(g4
g5
Vnew-york-usa
p3830
tp3831
Rp3832
a(lp3833
g3
(g4
g5
Ventertainment
p3834
tp3835
Rp3836
atp3837
a(S'PeakePoetics'
p3838
(lp3839
(lp3840
(lp3841
g3
(g4
g5
Vlondon-uk
p3842
tp3843
Rp3844
a(lp3845
g3
(g4
g5
Vtechnology
p3846
tp3847
Rp3848
ag3
(g4
g5
Vbusiness
p3849
tp3850
Rp3851
atp3852
a(S'robbierogers'
p3853
(lp3854
(lp3855
g3
(g4
g5
Vsan-francisco-usa
p3856
tp3857
Rp3858
ag3
(g4
g5
Vnew-york-usa
p3859
tp3860
Rp3861
ag3
(g4
g5
Vlondon-uk
p3862
tp3863
Rp3864
ag3
(g4
g5
Vboston-usa
p3865
tp3866
Rp3867
a(lp3868
(lp3869
g3
(g4
g5
Vsports
p3870
tp3871
Rp3872
atp3873
a(S'AndreaBargnani'
p3874
(lp3875
(lp3876
g3
(g4
g5
Vsan-francisco-usa
p3877
tp3878
Rp3879
ag3
(g4
g5
Vnew-york-usa
p3880
tp3881
Rp3882
ag3
(g4
g5
Vboston-usa
p3883
tp3884
Rp3885
a(lp3886
(lp3887
g3
(g4
g5
Vsports
p3888
tp3889
Rp3890
atp3891
a(S'RepCheri'
p3892
(lp3893
(lp3894
g3
(g4
g5
Vsan-francisco-usa
p3895
tp3896
Rp3897
ag3
(g4
g5
Vnew-york-usa
p3898
tp3899
Rp3900
ag3
(g4
g5
Vboston-usa
p3901
tp3902
Rp3903
a(lp3904
(lp3905
g3
(g4
g5
Vpolitics
p3906
tp3907
Rp3908
atp3909
a(S'BJP4India'
p3910
(lp3911
(lp3912
g3
(g4
g5
Vbangalore-india
p3913
tp3914
Rp3915
ag3
(g4
g5
Vmumbai-india
p3916
tp3917
Rp3918
a(lp3919
(lp3920
g3
(g4
g5
Vpolitics
p3921
tp3922
Rp3923
atp3924
a(S'RobLowe'
p3925
(lp3926
(lp3927
(lp3928
g3
(g4
g5
Vsan-francisco-usa
p3929
tp3930
Rp3931
a(lp3932
g3
(g4
g5
Ventertainment
p3933
tp3934
Rp3935
atp3936
a(S'ChicMeetsGeek'
p3937
(lp3938
(lp3939
(lp3940
g3
(g4
g5
Vsan-francisco-usa
p3941
tp3942
Rp3943
a(lp3944
g3
(g4
g5
Vtechnology
p3945
tp3946
Rp3947
atp3948
a(S'JustinArmsden9'
p3949
(lp3950
g3
(g4
g5
Vbangalore-india
p3951
tp3952
Rp3953
a(lp3954
(lp3955
(lp3956
g3
(g4
g5
Vsports
p3957
tp3958
Rp3959
atp3960
a(S'NdosSantosCNN'
p3961
(lp3962
(lp3963
(lp3964
g3
(g4
g5
Vlondon-uk
p3965
tp3966
Rp3967
a(lp3968
g3
(g4
g5
Vbusiness
p3969
tp3970
Rp3971
atp3972
a(S'SocialFlow'
p3973
(lp3974
g3
(g4
g5
Vnew-york-usa
p3975
tp3976
Rp3977
a(lp3978
g3
(g4
g5
Vnew-york-usa
p3979
tp3980
Rp3981
a(lp3982
g3
(g4
g5
Vnew-york-usa
p3983
tp3984
Rp3985
a(lp3986
g3
(g4
g5
Vtechnology
p3987
tp3988
Rp3989
atp3990
a(S'letsventurein'
p3991
(lp3992
g3
(g4
g5
Vbangalore-india
p3993
tp3994
Rp3995
a(lp3996
(lp3997
g3
(g4
g5
Vbangalore-india
p3998
tp3999
Rp4000
a(lp4001
g3
(g4
g5
Vtechnology
p4002
tp4003
Rp4004
ag3
(g4
g5
Vbusiness
p4005
tp4006
Rp4007
atp4008
a(S'ramansundar'
p4009
(lp4010
(lp4011
g3
(g4
g5
Vbangalore-india
p4012
tp4013
Rp4014
ag3
(g4
g5
Vmumbai-india
p4015
tp4016
Rp4017
a(lp4018
(lp4019
g3
(g4
g5
Vsports
p4020
tp4021
Rp4022
atp4023
a(S'gabrielspitz'
p4024
(lp4025
(lp4026
(lp4027
(lp4028
g3
(g4
g5
Vtechnology
p4029
tp4030
Rp4031
ag3
(g4
g5
Vbusiness
p4032
tp4033
Rp4034
atp4035
a(S'theRohitBansal'
p4036
(lp4037
(lp4038
g3
(g4
g5
Vbangalore-india
p4039
tp4040
Rp4041
ag3
(g4
g5
Vmumbai-india
p4042
tp4043
Rp4044
a(lp4045
(lp4046
g3
(g4
g5
Vtechnology
p4047
tp4048
Rp4049
atp4050
a(S'LarsLuv'
p4051
(lp4052
(lp4053
(lp4054
g3
(g4
g5
Vsan-francisco-usa
p4055
tp4056
Rp4057
a(lp4058
g3
(g4
g5
Vtechnology
p4059
tp4060
Rp4061
ag3
(g4
g5
Vbusiness
p4062
tp4063
Rp4064
atp4065
a(S'rosariodawson'
p4066
(lp4067
(lp4068
(lp4069
(lp4070
g3
(g4
g5
Vpolitics
p4071
tp4072
Rp4073
atp4074
a(S'secure_cloud'
p4075
(lp4076
(lp4077
(lp4078
(lp4079
g3
(g4
g5
Vtechnology
p4080
tp4081
Rp4082
atp4083
a(S'businessinsider'
p4084
(lp4085
(lp4086
(lp4087
g3
(g4
g5
Vnew-york-usa
p4088
tp4089
Rp4090
a(lp4091
g3
(g4
g5
Vbusiness
p4092
tp4093
Rp4094
atp4095
a(S'KishoreAjwani'
p4096
(lp4097
(lp4098
g3
(g4
g5
Vbangalore-india
p4099
tp4100
Rp4101
ag3
(g4
g5
Vmumbai-india
p4102
tp4103
Rp4104
a(lp4105
(lp4106
g3
(g4
g5
Vpolitics
p4107
tp4108
Rp4109
atp4110
a(S'timseymour'
p4111
(lp4112
(lp4113
(lp4114
g3
(g4
g5
Vnew-york-usa
p4115
tp4116
Rp4117
a(lp4118
g3
(g4
g5
Vbusiness
p4119
tp4120
Rp4121
atp4122
a(S'AdityaRoyKapoor'
p4123
(lp4124
g3
(g4
g5
Vmumbai-india
p4125
tp4126
Rp4127
a(lp4128
g3
(g4
g5
Vbangalore-india
p4129
tp4130
Rp4131
ag3
(g4
g5
Vmumbai-india
p4132
tp4133
Rp4134
a(lp4135
g3
(g4
g5
Vmumbai-india
p4136
tp4137
Rp4138
a(lp4139
g3
(g4
g5
Ventertainment
p4140
tp4141
Rp4142
atp4143
a(S'AugmentedReal'
p4144
(lp4145
(lp4146
(lp4147
(lp4148
g3
(g4
g5
Vtechnology
p4149
tp4150
Rp4151
atp4152
a(S'lizstephen'
p4153
(lp4154
g3
(g4
g5
Vsan-francisco-usa
p4155
tp4156
Rp4157
a(lp4158
(lp4159
(lp4160
g3
(g4
g5
Vsports
p4161
tp4162
Rp4163
atp4164
a(S'c11ro'
p4165
(lp4166
(lp4167
g3
(g4
g5
Vsan-francisco-usa
p4168
tp4169
Rp4170
ag3
(g4
g5
Vnew-york-usa
p4171
tp4172
Rp4173
ag3
(g4
g5
Vlondon-uk
p4174
tp4175
Rp4176
ag3
(g4
g5
Vboston-usa
p4177
tp4178
Rp4179
a(lp4180
(lp4181
g3
(g4
g5
Vsports
p4182
tp4183
Rp4184
atp4185
a(S'KristinCav'
p4186
(lp4187
(lp4188
(lp4189
(lp4190
g3
(g4
g5
Ventertainment
p4191
tp4192
Rp4193
atp4194
a(S'TheJohnAbraham'
p4195
(lp4196
(lp4197
g3
(g4
g5
Vbangalore-india
p4198
tp4199
Rp4200
ag3
(g4
g5
Vmumbai-india
p4201
tp4202
Rp4203
a(lp4204
(lp4205
g3
(g4
g5
Ventertainment
p4206
tp4207
Rp4208
atp4209
a(S'SI_ENewman'
p4210
(lp4211
(lp4212
(lp4213
g3
(g4
g5
Vnew-york-usa
p4214
tp4215
Rp4216
a(lp4217
g3
(g4
g5
Vsports
p4218
tp4219
Rp4220
atp4221
a(S'MarketSleddogg'
p4222
(lp4223
(lp4224
(lp4225
(lp4226
g3
(g4
g5
Vbusiness
p4227
tp4228
Rp4229
atp4230
a(S'Adweek'
p4231
(lp4232
(lp4233
(lp4234
g3
(g4
g5
Vnew-york-usa
p4235
tp4236
Rp4237
a(lp4238
g3
(g4
g5
Vbusiness
p4239
tp4240
Rp4241
atp4242
a(S'ConanOBrien'
p4243
(lp4244
(lp4245
(lp4246
g3
(g4
g5
Vsan-francisco-usa
p4247
tp4248
Rp4249
a(lp4250
g3
(g4
g5
Ventertainment
p4251
tp4252
Rp4253
atp4254
a(S'puneetmehtanyc'
p4255
(lp4256
(lp4257
(lp4258
g3
(g4
g5
Vnew-york-usa
p4259
tp4260
Rp4261
a(lp4262
g3
(g4
g5
Vtechnology
p4263
tp4264
Rp4265
ag3
(g4
g5
Vbusiness
p4266
tp4267
Rp4268
atp4269
a(S'BillSimmons'
p4270
(lp4271
(lp4272
(lp4273
g3
(g4
g5
Vboston-usa
p4274
tp4275
Rp4276
a(lp4277
g3
(g4
g5
Vsports
p4278
tp4279
Rp4280
atp4281
a(S'SamWalkers'
p4282
(lp4283
(lp4284
(lp4285
(lp4286
g3
(g4
g5
Vsports
p4287
tp4288
Rp4289
atp4290
a(S'Matt_Barnes22'
p4291
(lp4292
g3
(g4
g5
Vnew-york-usa
p4293
tp4294
Rp4295
a(lp4296
g3
(g4
g5
Vsan-francisco-usa
p4297
tp4298
Rp4299
ag3
(g4
g5
Vnew-york-usa
p4300
tp4301
Rp4302
ag3
(g4
g5
Vboston-usa
p4303
tp4304
Rp4305
a(lp4306
(lp4307
g3
(g4
g5
Vsports
p4308
tp4309
Rp4310
atp4311
a(S'RepDonaldPayne'
p4312
(lp4313
(lp4314
g3
(g4
g5
Vsan-francisco-usa
p4315
tp4316
Rp4317
ag3
(g4
g5
Vnew-york-usa
p4318
tp4319
Rp4320
ag3
(g4
g5
Vboston-usa
p4321
tp4322
Rp4323
a(lp4324
(lp4325
g3
(g4
g5
Vpolitics
p4326
tp4327
Rp4328
atp4329
a(S'IamAmirJohnson'
p4330
(lp4331
(lp4332
g3
(g4
g5
Vsan-francisco-usa
p4333
tp4334
Rp4335
ag3
(g4
g5
Vnew-york-usa
p4336
tp4337
Rp4338
ag3
(g4
g5
Vboston-usa
p4339
tp4340
Rp4341
a(lp4342
(lp4343
g3
(g4
g5
Vsports
p4344
tp4345
Rp4346
atp4347
a(S'RepKirkpatrick'
p4348
(lp4349
(lp4350
g3
(g4
g5
Vsan-francisco-usa
p4351
tp4352
Rp4353
ag3
(g4
g5
Vnew-york-usa
p4354
tp4355
Rp4356
ag3
(g4
g5
Vboston-usa
p4357
tp4358
Rp4359
a(lp4360
(lp4361
g3
(g4
g5
Vpolitics
p4362
tp4363
Rp4364
atp4365
a(S'geneliad'
p4366
(lp4367
(lp4368
(lp4369
(lp4370
g3
(g4
g5
Ventertainment
p4371
tp4372
Rp4373
atp4374
a(S'TheCricketPaper'
p4375
(lp4376
(lp4377
g3
(g4
g5
Vbangalore-india
p4378
tp4379
Rp4380
ag3
(g4
g5
Vmumbai-india
p4381
tp4382
Rp4383
a(lp4384
(lp4385
g3
(g4
g5
Vsports
p4386
tp4387
Rp4388
atp4389
a(S'duttsanjay'
p4390
(lp4391
(lp4392
g3
(g4
g5
Vbangalore-india
p4393
tp4394
Rp4395
ag3
(g4
g5
Vmumbai-india
p4396
tp4397
Rp4398
a(lp4399
(lp4400
g3
(g4
g5
Ventertainment
p4401
tp4402
Rp4403
atp4404
a(S'ForsythJenn'
p4405
(lp4406
(lp4407
(lp4408
(lp4409
g3
(g4
g5
Vbusiness
p4410
tp4411
Rp4412
atp4413
a(S'alexthomascnn'
p4414
(lp4415
(lp4416
(lp4417
g3
(g4
g5
Vlondon-uk
p4418
tp4419
Rp4420
a(lp4421
g3
(g4
g5
Vsports
p4422
tp4423
Rp4424
atp4425
a(S'ESPNJoeyMac'
p4426
(lp4427
g3
(g4
g5
Vboston-usa
p4428
tp4429
Rp4430
a(lp4431
g3
(g4
g5
Vboston-usa
p4432
tp4433
Rp4434
a(lp4435
g3
(g4
g5
Vboston-usa
p4436
tp4437
Rp4438
a(lp4439
g3
(g4
g5
Vsports
p4440
tp4441
Rp4442
atp4443
a(S'BenFolds'
p4444
(lp4445
g3
(g4
g5
Vnew-york-usa
p4446
tp4447
Rp4448
a(lp4449
(lp4450
(lp4451
g3
(g4
g5
Ventertainment
p4452
tp4453
Rp4454
atp4455
a(S'terryteachout'
p4456
(lp4457
(lp4458
(lp4459
g3
(g4
g5
Vnew-york-usa
p4460
tp4461
Rp4462
a(lp4463
g3
(g4
g5
Ventertainment
p4464
tp4465
Rp4466
atp4467
a(S'dfwhatmore'
p4468
(lp4469
g3
(g4
g5
Vmumbai-india
p4470
tp4471
Rp4472
a(lp4473
g3
(g4
g5
Vbangalore-india
p4474
tp4475
Rp4476
ag3
(g4
g5
Vmumbai-india
p4477
tp4478
Rp4479
a(lp4480
(lp4481
g3
(g4
g5
Vsports
p4482
tp4483
Rp4484
atp4485
a(S'forstall'
p4486
(lp4487
(lp4488
(lp4489
g3
(g4
g5
Vsan-francisco-usa
p4490
tp4491
Rp4492
a(lp4493
g3
(g4
g5
Vtechnology
p4494
tp4495
Rp4496
ag3
(g4
g5
Vbusiness
p4497
tp4498
Rp4499
atp4500
a(S'mckaycnn'
p4501
(lp4502
(lp4503
(lp4504
g3
(g4
g5
Vnew-york-usa
p4505
tp4506
Rp4507
a(lp4508
g3
(g4
g5
Vsports
p4509
tp4510
Rp4511
atp4512
a(S'john_gotts'
p4513
(lp4514
g3
(g4
g5
Vsan-francisco-usa
p4515
tp4516
Rp4517
a(lp4518
(lp4519
(lp4520
g3
(g4
g5
Vtechnology
p4521
tp4522
Rp4523
ag3
(g4
g5
Vbusiness
p4524
tp4525
Rp4526
atp4527
a(S'MelissaAttias'
p4528
(lp4529
g3
(g4
g5
Vnew-york-usa
p4530
tp4531
Rp4532
a(lp4533
g3
(g4
g5
Vsan-francisco-usa
p4534
tp4535
Rp4536
ag3
(g4
g5
Vnew-york-usa
p4537
tp4538
Rp4539
ag3
(g4
g5
Vboston-usa
p4540
tp4541
Rp4542
a(lp4543
(lp4544
g3
(g4
g5
Vpolitics
p4545
tp4546
Rp4547
atp4548
a(S'jrpsaki'
p4549
(lp4550
g3
(g4
g5
Vnew-york-usa
p4551
tp4552
Rp4553
a(lp4554
(lp4555
(lp4556
g3
(g4
g5
Vpolitics
p4557
tp4558
Rp4559
atp4560
a(S'StacyKeibler'
p4561
(lp4562
(lp4563
(lp4564
g3
(g4
g5
Vsan-francisco-usa
p4565
tp4566
Rp4567
a(lp4568
g3
(g4
g5
Ventertainment
p4569
tp4570
Rp4571
atp4572
a(S'TopicfireNews'
p4573
(lp4574
(lp4575
(lp4576
g3
(g4
g5
Vsan-francisco-usa
p4577
tp4578
Rp4579
a(lp4580
g3
(g4
g5
Vtechnology
p4581
tp4582
Rp4583
atp4584
a(S'JontyRhodes8'
p4585
(lp4586
(lp4587
g3
(g4
g5
Vbangalore-india
p4588
tp4589
Rp4590
ag3
(g4
g5
Vmumbai-india
p4591
tp4592
Rp4593
a(lp4594
(lp4595
g3
(g4
g5
Vsports
p4596
tp4597
Rp4598
atp4599
a(S'majornelson'
p4600
(lp4601
(lp4602
(lp4603
(lp4604
g3
(g4
g5
Vtechnology
p4605
tp4606
Rp4607
atp4608
a(S'SeungheeSuh'
p4609
(lp4610
(lp4611
(lp4612
g3
(g4
g5
Vnew-york-usa
p4613
tp4614
Rp4615
a(lp4616
g3
(g4
g5
Ventertainment
p4617
tp4618
Rp4619
atp4620
a(S'drubytcio'
p4621
(lp4622
(lp4623
(lp4624
(lp4625
g3
(g4
g5
Vtechnology
p4626
tp4627
Rp4628
ag3
(g4
g5
Vbusiness
p4629
tp4630
Rp4631
atp4632
a(S'JDefteriosCNN'
p4633
(lp4634
(lp4635
(lp4636
(lp4637
g3
(g4
g5
Vbusiness
p4638
tp4639
Rp4640
atp4641
a(S'BillCassidy'
p4642
(lp4643
(lp4644
g3
(g4
g5
Vsan-francisco-usa
p4645
tp4646
Rp4647
ag3
(g4
g5
Vnew-york-usa
p4648
tp4649
Rp4650
ag3
(g4
g5
Vboston-usa
p4651
tp4652
Rp4653
a(lp4654
(lp4655
g3
(g4
g5
Vpolitics
p4656
tp4657
Rp4658
atp4659
a(S'JBCMKTR'
p4660
(lp4661
g3
(g4
g5
Vbangalore-india
p4662
tp4663
Rp4664
a(lp4665
(lp4666
g3
(g4
g5
Vnew-york-usa
p4667
tp4668
Rp4669
a(lp4670
g3
(g4
g5
Vbusiness
p4671
tp4672
Rp4673
atp4674
a(S'barbarachai'
p4675
(lp4676
g3
(g4
g5
Vnew-york-usa
p4677
tp4678
Rp4679
a(lp4680
(lp4681
g3
(g4
g5
Vnew-york-usa
p4682
tp4683
Rp4684
a(lp4685
g3
(g4
g5
Ventertainment
p4686
tp4687
Rp4688
atp4689
a(S'aqualungmusic'
p4690
(lp4691
(lp4692
(lp4693
g3
(g4
g5
Vsan-francisco-usa
p4694
tp4695
Rp4696
a(lp4697
g3
(g4
g5
Ventertainment
p4698
tp4699
Rp4700
atp4701
a(S'itspetergabriel'
p4702
(lp4703
(lp4704
(lp4705
g3
(g4
g5
Vlondon-uk
p4706
tp4707
Rp4708
a(lp4709
g3
(g4
g5
Ventertainment
p4710
tp4711
Rp4712
atp4713
a(S'iamsrk'
p4714
(lp4715
(lp4716
(lp4717
(lp4718
g3
(g4
g5
Ventertainment
p4719
tp4720
Rp4721
atp4722
a(S'EdwardLuce'
p4723
(lp4724
(lp4725
(lp4726
(lp4727
g3
(g4
g5
Vbusiness
p4728
tp4729
Rp4730
atp4731
a(S'NCPspeaks'
p4732
(lp4733
(lp4734
g3
(g4
g5
Vbangalore-india
p4735
tp4736
Rp4737
ag3
(g4
g5
Vmumbai-india
p4738
tp4739
Rp4740
a(lp4741
(lp4742
g3
(g4
g5
Vpolitics
p4743
tp4744
Rp4745
atp4746
a(S'CraigyFerg'
p4747
(lp4748
(lp4749
(lp4750
(lp4751
g3
(g4
g5
Ventertainment
p4752
tp4753
Rp4754
atp4755
a(S'prodweek'
p4756
(lp4757
(lp4758
(lp4759
(lp4760
g3
(g4
g5
Ventertainment
p4761
tp4762
Rp4763
atp4764
a(S'InfoGrok'
p4765
(lp4766
(lp4767
(lp4768
g3
(g4
g5
Vlondon-uk
p4769
tp4770
Rp4771
a(lp4772
g3
(g4
g5
Vbusiness
p4773
tp4774
Rp4775
atp4776
a(S'SenatorFischer'
p4777
(lp4778
g3
(g4
g5
Vnew-york-usa
p4779
tp4780
Rp4781
a(lp4782
g3
(g4
g5
Vsan-francisco-usa
p4783
tp4784
Rp4785
ag3
(g4
g5
Vnew-york-usa
p4786
tp4787
Rp4788
ag3
(g4
g5
Vboston-usa
p4789
tp4790
Rp4791
a(lp4792
(lp4793
g3
(g4
g5
Vpolitics
p4794
tp4795
Rp4796
atp4797
a(S'ESPNForsberg'
p4798
(lp4799
(lp4800
g3
(g4
g5
Vboston-usa
p4801
tp4802
Rp4803
a(lp4804
g3
(g4
g5
Vboston-usa
p4805
tp4806
Rp4807
a(lp4808
g3
(g4
g5
Vsports
p4809
tp4810
Rp4811
atp4812
a(S'Servant_Leaders'
p4813
(lp4814
(lp4815
(lp4816
g3
(g4
g5
Vsan-francisco-usa
p4817
tp4818
Rp4819
a(lp4820
g3
(g4
g5
Vbusiness
p4821
tp4822
Rp4823
atp4824
a(S'catherinedavis1'
p4825
(lp4826
(lp4827
(lp4828
g3
(g4
g5
Vnew-york-usa
p4829
tp4830
Rp4831
a(lp4832
g3
(g4
g5
Vbusiness
p4833
tp4834
Rp4835
atp4836
a(S'YouTubePolitics'
p4837
(lp4838
(lp4839
(lp4840
(lp4841
g3
(g4
g5
Vpolitics
p4842
tp4843
Rp4844
atp4845
a(S'PrimeMinistry'
p4846
(lp4847
g3
(g4
g5
Vlondon-uk
p4848
tp4849
Rp4850
a(lp4851
(lp4852
(lp4853
g3
(g4
g5
Vpolitics
p4854
tp4855
Rp4856
atp4857
a(S'AndrewShortMX29'
p4858
(lp4859
(lp4860
(lp4861
(lp4862
g3
(g4
g5
Vsports
p4863
tp4864
Rp4865
atp4866
a(S'IurieLeanca'
p4867
(lp4868
(lp4869
(lp4870
(lp4871
g3
(g4
g5
Vpolitics
p4872
tp4873
Rp4874
atp4875
a(S'ewoyke'
p4876
(lp4877
g3
(g4
g5
Vnew-york-usa
p4878
tp4879
Rp4880
a(lp4881
(lp4882
g3
(g4
g5
Vnew-york-usa
p4883
tp4884
Rp4885
a(lp4886
g3
(g4
g5
Vtechnology
p4887
tp4888
Rp4889
atp4890
a(S'RecruiterCTO'
p4891
(lp4892
(lp4893
(lp4894
(lp4895
g3
(g4
g5
Vtechnology
p4896
tp4897
Rp4898
ag3
(g4
g5
Vbusiness
p4899
tp4900
Rp4901
atp4902
a(S'CNezzy'
p4903
(lp4904
g3
(g4
g5
Vsan-francisco-usa
p4905
tp4906
Rp4907
a(lp4908
(lp4909
(lp4910
g3
(g4
g5
Vsports
p4911
tp4912
Rp4913
atp4914
a(S'EricMorath'
p4915
(lp4916
g3
(g4
g5
Vnew-york-usa
p4917
tp4918
Rp4919
a(lp4920
(lp4921
(lp4922
g3
(g4
g5
Vbusiness
p4923
tp4924
Rp4925
atp4926
a(S'loic'
p4927
(lp4928
(lp4929
(lp4930
g3
(g4
g5
Vsan-francisco-usa
p4931
tp4932
Rp4933
a(lp4934
g3
(g4
g5
Vtechnology
p4935
tp4936
Rp4937
atp4938
a(S'KAzubuike7'
p4939
(lp4940
(lp4941
g3
(g4
g5
Vsan-francisco-usa
p4942
tp4943
Rp4944
ag3
(g4
g5
Vnew-york-usa
p4945
tp4946
Rp4947
ag3
(g4
g5
Vboston-usa
p4948
tp4949
Rp4950
a(lp4951
(lp4952
g3
(g4
g5
Vsports
p4953
tp4954
Rp4955
atp4956
a(S'BloombergNews'
p4957
(lp4958
(lp4959
(lp4960
g3
(g4
g5
Vnew-york-usa
p4961
tp4962
Rp4963
a(lp4964
g3
(g4
g5
Vbusiness
p4965
tp4966
Rp4967
atp4968
a(S'thekillers'
p4969
(lp4970
(lp4971
(lp4972
(lp4973
g3
(g4
g5
Ventertainment
p4974
tp4975
Rp4976
atp4977
a(S'ms_mktg'
p4978
(lp4979
g3
(g4
g5
Vnew-york-usa
p4980
tp4981
Rp4982
a(lp4983
(lp4984
(lp4985
g3
(g4
g5
Vbusiness
p4986
tp4987
Rp4988
atp4989
a(S'Rep_Hunter'
p4990
(lp4991
(lp4992
g3
(g4
g5
Vsan-francisco-usa
p4993
tp4994
Rp4995
ag3
(g4
g5
Vnew-york-usa
p4996
tp4997
Rp4998
ag3
(g4
g5
Vboston-usa
p4999
tp5000
Rp5001
a(lp5002
(lp5003
g3
(g4
g5
Vpolitics
p5004
tp5005
Rp5006
atp5007
a(S'Recode'
p5008
(lp5009
g3
(g4
g5
Vsan-francisco-usa
p5010
tp5011
Rp5012
a(lp5013
(lp5014
g3
(g4
g5
Vsan-francisco-usa
p5015
tp5016
Rp5017
a(lp5018
g3
(g4
g5
Vtechnology
p5019
tp5020
Rp5021
atp5022
a(S'yext'
p5023
(lp5024
(lp5025
g3
(g4
g5
Vnew-york-usa
p5026
tp5027
Rp5028
a(lp5029
g3
(g4
g5
Vnew-york-usa
p5030
tp5031
Rp5032
a(lp5033
g3
(g4
g5
Vtechnology
p5034
tp5035
Rp5036
atp5037
a(S'aliciamundy'
p5038
(lp5039
(lp5040
(lp5041
(lp5042
g3
(g4
g5
Vpolitics
p5043
tp5044
Rp5045
atp5046
a(S'500India'
p5047
(lp5048
(lp5049
(lp5050
(lp5051
g3
(g4
g5
Vtechnology
p5052
tp5053
Rp5054
ag3
(g4
g5
Vbusiness
p5055
tp5056
Rp5057
atp5058
a(S'ameesha_patel'
p5059
(lp5060
(lp5061
g3
(g4
g5
Vbangalore-india
p5062
tp5063
Rp5064
ag3
(g4
g5
Vmumbai-india
p5065
tp5066
Rp5067
a(lp5068
g3
(g4
g5
Vmumbai-india
p5069
tp5070
Rp5071
a(lp5072
g3
(g4
g5
Ventertainment
p5073
tp5074
Rp5075
atp5076
a(S'YahooSportNCAAF'
p5077
(lp5078
(lp5079
(lp5080
g3
(g4
g5
Vsan-francisco-usa
p5081
tp5082
Rp5083
a(lp5084
g3
(g4
g5
Vsports
p5085
tp5086
Rp5087
atp5088
a(S'gregbretzz'
p5089
(lp5090
(lp5091
(lp5092
(lp5093
g3
(g4
g5
Vsports
p5094
tp5095
Rp5096
atp5097
a(S'SanDiegoCFO'
p5098
(lp5099
g3
(g4
g5
Vsan-francisco-usa
p5100
tp5101
Rp5102
a(lp5103
(lp5104
(lp5105
g3
(g4
g5
Vbusiness
p5106
tp5107
Rp5108
atp5109
a(S'ericneel'
p5110
(lp5111
(lp5112
g3
(g4
g5
Vsan-francisco-usa
p5113
tp5114
Rp5115
a(lp5116
(lp5117
g3
(g4
g5
Vsports
p5118
tp5119
Rp5120
atp5121
a(S'SmallBizCPA'
p5122
(lp5123
(lp5124
(lp5125
(lp5126
g3
(g4
g5
Vbusiness
p5127
tp5128
Rp5129
atp5130
a(S'shaileshrao'
p5131
(lp5132
(lp5133
g3
(g4
g5
Vbangalore-india
p5134
tp5135
Rp5136
ag3
(g4
g5
Vmumbai-india
p5137
tp5138
Rp5139
a(lp5140
(lp5141
g3
(g4
g5
Vtechnology
p5142
tp5143
Rp5144
atp5145
a(S'robjective'
p5146
(lp5147
(lp5148
(lp5149
g3
(g4
g5
Vsan-francisco-usa
p5150
tp5151
Rp5152
a(lp5153
g3
(g4
g5
Vtechnology
p5154
tp5155
Rp5156
ag3
(g4
g5
Vbusiness
p5157
tp5158
Rp5159
atp5160
a(S'EW'
p5161
(lp5162
g3
(g4
g5
Vnew-york-usa
p5163
tp5164
Rp5165
a(lp5166
(lp5167
g3
(g4
g5
Vnew-york-usa
p5168
tp5169
Rp5170
a(lp5171
g3
(g4
g5
Ventertainment
p5172
tp5173
Rp5174
atp5175
a(S'BenWyattCNN'
p5176
(lp5177
(lp5178
(lp5179
g3
(g4
g5
Vlondon-uk
p5180
tp5181
Rp5182
a(lp5183
g3
(g4
g5
Vsports
p5184
tp5185
Rp5186
atp5187
a(S'SecondLegSlip'
p5188
(lp5189
(lp5190
g3
(g4
g5
Vbangalore-india
p5191
tp5192
Rp5193
ag3
(g4
g5
Vmumbai-india
p5194
tp5195
Rp5196
a(lp5197
(lp5198
g3
(g4
g5
Vsports
p5199
tp5200
Rp5201
atp5202
a(S'nextstop'
p5203
(lp5204
g3
(g4
g5
Vsan-francisco-usa
p5205
tp5206
Rp5207
a(lp5208
g3
(g4
g5
Vsan-francisco-usa
p5209
tp5210
Rp5211
a(lp5212
g3
(g4
g5
Vsan-francisco-usa
p5213
tp5214
Rp5215
a(lp5216
g3
(g4
g5
Vtechnology
p5217
tp5218
Rp5219
atp5220
a(S'mattholliday7'
p5221
(lp5222
(lp5223
g3
(g4
g5
Vsan-francisco-usa
p5224
tp5225
Rp5226
ag3
(g4
g5
Vnew-york-usa
p5227
tp5228
Rp5229
ag3
(g4
g5
Vboston-usa
p5230
tp5231
Rp5232
a(lp5233
(lp5234
g3
(g4
g5
Vsports
p5235
tp5236
Rp5237
atp5238
a(S'DanAldridge1'
p5239
(lp5240
(lp5241
(lp5242
g3
(g4
g5
Vsan-francisco-usa
p5243
tp5244
Rp5245
ag3
(g4
g5
Vnew-york-usa
p5246
tp5247
Rp5248
ag3
(g4
g5
Vboston-usa
p5249
tp5250
Rp5251
a(lp5252
g3
(g4
g5
Vtechnology
p5253
tp5254
Rp5255
ag3
(g4
g5
Vbusiness
p5256
tp5257
Rp5258
atp5259
a(S'bzcohen'
p5260
(lp5261
(lp5262
(lp5263
g3
(g4
g5
Vnew-york-usa
p5264
tp5265
Rp5266
a(lp5267
g3
(g4
g5
Vsports
p5268
tp5269
Rp5270
atp5271
a(S'VivianDsena06'
p5272
(lp5273
g3
(g4
g5
Vmumbai-india
p5274
tp5275
Rp5276
a(lp5277
g3
(g4
g5
Vbangalore-india
p5278
tp5279
Rp5280
ag3
(g4
g5
Vmumbai-india
p5281
tp5282
Rp5283
a(lp5284
g3
(g4
g5
Vmumbai-india
p5285
tp5286
Rp5287
a(lp5288
g3
(g4
g5
Ventertainment
p5289
tp5290
Rp5291
atp5292
a(S'brikeilarcnn'
p5293
(lp5294
g3
(g4
g5
Vnew-york-usa
p5295
tp5296
Rp5297
a(lp5298
(lp5299
(lp5300
g3
(g4
g5
Vpolitics
p5301
tp5302
Rp5303
atp5304
a(S'VetriSmv'
p5305
(lp5306
g3
(g4
g5
Vmumbai-india
p5307
tp5308
Rp5309
a(lp5310
g3
(g4
g5
Vbangalore-india
p5311
tp5312
Rp5313
ag3
(g4
g5
Vmumbai-india
p5314
tp5315
Rp5316
a(lp5317
g3
(g4
g5
Vmumbai-india
p5318
tp5319
Rp5320
a(lp5321
g3
(g4
g5
Vbusiness
p5322
tp5323
Rp5324
atp5325
a(S'SinghRPN'
p5326
(lp5327
(lp5328
g3
(g4
g5
Vbangalore-india
p5329
tp5330
Rp5331
ag3
(g4
g5
Vmumbai-india
p5332
tp5333
Rp5334
a(lp5335
g3
(g4
g5
Vmumbai-india
p5336
tp5337
Rp5338
a(lp5339
g3
(g4
g5
Vpolitics
p5340
tp5341
Rp5342
atp5343
a(S'GCGodfrey'
p5344
(lp5345
(lp5346
(lp5347
g3
(g4
g5
Vlondon-uk
p5348
tp5349
Rp5350
a(lp5351
g3
(g4
g5
Vbusiness
p5352
tp5353
Rp5354
atp5355
a(S'Joba_44'
p5356
(lp5357
(lp5358
g3
(g4
g5
Vsan-francisco-usa
p5359
tp5360
Rp5361
ag3
(g4
g5
Vnew-york-usa
p5362
tp5363
Rp5364
ag3
(g4
g5
Vboston-usa
p5365
tp5366
Rp5367
a(lp5368
(lp5369
g3
(g4
g5
Vsports
p5370
tp5371
Rp5372
atp5373
a(S'PressLift'
p5374
(lp5375
(lp5376
g3
(g4
g5
Vnew-york-usa
p5377
tp5378
Rp5379
a(lp5380
g3
(g4
g5
Vnew-york-usa
p5381
tp5382
Rp5383
a(lp5384
g3
(g4
g5
Vtechnology
p5385
tp5386
Rp5387
atp5388
a(S'ScottMAustin'
p5389
(lp5390
g3
(g4
g5
Vnew-york-usa
p5391
tp5392
Rp5393
a(lp5394
(lp5395
g3
(g4
g5
Vnew-york-usa
p5396
tp5397
Rp5398
a(lp5399
g3
(g4
g5
Vtechnology
p5400
tp5401
Rp5402
atp5403
a(S'PJCrowley'
p5404
(lp5405
g3
(g4
g5
Vnew-york-usa
p5406
tp5407
Rp5408
a(lp5409
(lp5410
(lp5411
g3
(g4
g5
Vpolitics
p5412
tp5413
Rp5414
atp5415
a(S'ChennaiExp2013'
p5416
(lp5417
(lp5418
g3
(g4
g5
Vbangalore-india
p5419
tp5420
Rp5421
ag3
(g4
g5
Vmumbai-india
p5422
tp5423
Rp5424
a(lp5425
(lp5426
g3
(g4
g5
Ventertainment
p5427
tp5428
Rp5429
atp5430
a(S'johndmckinnon'
p5431
(lp5432
g3
(g4
g5
Vnew-york-usa
p5433
tp5434
Rp5435
a(lp5436
(lp5437
(lp5438
g3
(g4
g5
Vpolitics
p5439
tp5440
Rp5441
atp5442
a(S'VidyutJammwal'
p5443
(lp5444
(lp5445
g3
(g4
g5
Vbangalore-india
p5446
tp5447
Rp5448
ag3
(g4
g5
Vmumbai-india
p5449
tp5450
Rp5451
a(lp5452
g3
(g4
g5
Vmumbai-india
p5453
tp5454
Rp5455
a(lp5456
g3
(g4
g5
Ventertainment
p5457
tp5458
Rp5459
atp5460
a(S'CNBC'
p5461
(lp5462
(lp5463
(lp5464
(lp5465
g3
(g4
g5
Vtechnology
p5466
tp5467
Rp5468
atp5469
a(S'YOYOGRA'
p5470
(lp5471
(lp5472
(lp5473
(lp5474
g3
(g4
g5
Vtechnology
p5475
tp5476
Rp5477
ag3
(g4
g5
Vbusiness
p5478
tp5479
Rp5480
atp5481
a(S'youngwhiteside'
p5482
(lp5483
(lp5484
g3
(g4
g5
Vsan-francisco-usa
p5485
tp5486
Rp5487
ag3
(g4
g5
Vnew-york-usa
p5488
tp5489
Rp5490
ag3
(g4
g5
Vboston-usa
p5491
tp5492
Rp5493
a(lp5494
(lp5495
g3
(g4
g5
Vsports
p5496
tp5497
Rp5498
atp5499
a(S'NidhiRazdanNDTV'
p5500
(lp5501
(lp5502
g3
(g4
g5
Vbangalore-india
p5503
tp5504
Rp5505
ag3
(g4
g5
Vmumbai-india
p5506
tp5507
Rp5508
a(lp5509
g3
(g4
g5
Vmumbai-india
p5510
tp5511
Rp5512
a(lp5513
g3
(g4
g5
Vpolitics
p5514
tp5515
Rp5516
atp5517
a(S'susankellogg'
p5518
(lp5519
(lp5520
(lp5521
(lp5522
g3
(g4
g5
Vtechnology
p5523
tp5524
Rp5525
ag3
(g4
g5
Vbusiness
p5526
tp5527
Rp5528
atp5529
a(S'TurntableLive'
p5530
(lp5531
(lp5532
g3
(g4
g5
Vnew-york-usa
p5533
tp5534
Rp5535
a(lp5536
g3
(g4
g5
Vnew-york-usa
p5537
tp5538
Rp5539
a(lp5540
g3
(g4
g5
Vtechnology
p5541
tp5542
Rp5543
atp5544
a(S'ShaliniWSJ'
p5545
(lp5546
(lp5547
(lp5548
g3
(g4
g5
Vnew-york-usa
p5549
tp5550
Rp5551
a(lp5552
g3
(g4
g5
Vtechnology
p5553
tp5554
Rp5555
atp5556
a(S'MonarchieBe'
p5557
(lp5558
(lp5559
(lp5560
(lp5561
g3
(g4
g5
Vpolitics
p5562
tp5563
Rp5564
atp5565
a(S'Krrish3'
p5566
(lp5567
(lp5568
g3
(g4
g5
Vbangalore-india
p5569
tp5570
Rp5571
ag3
(g4
g5
Vmumbai-india
p5572
tp5573
Rp5574
a(lp5575
(lp5576
g3
(g4
g5
Ventertainment
p5577
tp5578
Rp5579
atp5580
a(S'donal888'
p5581
(lp5582
(lp5583
(lp5584
g3
(g4
g5
Vsan-francisco-usa
p5585
tp5586
Rp5587
a(lp5588
g3
(g4
g5
Vtechnology
p5589
tp5590
Rp5591
atp5592
a(S'aotearoaxi'
p5593
(lp5594
(lp5595
g3
(g4
g5
Vbangalore-india
p5596
tp5597
Rp5598
ag3
(g4
g5
Vmumbai-india
p5599
tp5600
Rp5601
a(lp5602
(lp5603
g3
(g4
g5
Vsports
p5604
tp5605
Rp5606
atp5607
a(S'NukeGold'
p5608
(lp5609
(lp5610
(lp5611
(lp5612
g3
(g4
g5
Vtechnology
p5613
tp5614
Rp5615
ag3
(g4
g5
Vbusiness
p5616
tp5617
Rp5618
atp5619
a(S'Bihar_BJP'
p5620
(lp5621
(lp5622
g3
(g4
g5
Vbangalore-india
p5623
tp5624
Rp5625
ag3
(g4
g5
Vmumbai-india
p5626
tp5627
Rp5628
a(lp5629
(lp5630
g3
(g4
g5
Vpolitics
p5631
tp5632
Rp5633
atp5634
a(S'JohnAByrne'
p5635
(lp5636
(lp5637
(lp5638
(lp5639
g3
(g4
g5
Vbusiness
p5640
tp5641
Rp5642
atp5643
a(S'cheald'
p5644
(lp5645
(lp5646
(lp5647
(lp5648
g3
(g4
g5
Vtechnology
p5649
tp5650
Rp5651
atp5652
a(S'PiaCatton'
p5653
(lp5654
g3
(g4
g5
Vnew-york-usa
p5655
tp5656
Rp5657
a(lp5658
(lp5659
g3
(g4
g5
Vnew-york-usa
p5660
tp5661
Rp5662
a(lp5663
g3
(g4
g5
Ventertainment
p5664
tp5665
Rp5666
atp5667
a(S'bigleaguestew'
p5668
(lp5669
(lp5670
(lp5671
(lp5672
g3
(g4
g5
Vsports
p5673
tp5674
Rp5675
atp5676
a(S'malcolmconn'
p5677
(lp5678
g3
(g4
g5
Vbangalore-india
p5679
tp5680
Rp5681
a(lp5682
g3
(g4
g5
Vbangalore-india
p5683
tp5684
Rp5685
ag3
(g4
g5
Vmumbai-india
p5686
tp5687
Rp5688
a(lp5689
(lp5690
g3
(g4
g5
Vsports
p5691
tp5692
Rp5693
atp5694
a(S'HerringWSJ'
p5695
(lp5696
(lp5697
(lp5698
g3
(g4
g5
Vnew-york-usa
p5699
tp5700
Rp5701
a(lp5702
g3
(g4
g5
Vsports
p5703
tp5704
Rp5705
atp5706
a(S'espn'
p5707
(lp5708
(lp5709
(lp5710
(lp5711
g3
(g4
g5
Vsports
p5712
tp5713
Rp5714
atp5715
a(S'pingfm'
p5716
(lp5717
g3
(g4
g5
Vsan-francisco-usa
p5718
tp5719
Rp5720
a(lp5721
g3
(g4
g5
Vsan-francisco-usa
p5722
tp5723
Rp5724
a(lp5725
g3
(g4
g5
Vsan-francisco-usa
p5726
tp5727
Rp5728
a(lp5729
g3
(g4
g5
Vtechnology
p5730
tp5731
Rp5732
atp5733
a(S'ritholtz'
p5734
(lp5735
(lp5736
(lp5737
g3
(g4
g5
Vnew-york-usa
p5738
tp5739
Rp5740
a(lp5741
g3
(g4
g5
Vbusiness
p5742
tp5743
Rp5744
atp5745
a(S'IstanaRakyat'
p5746
(lp5747
(lp5748
(lp5749
(lp5750
g3
(g4
g5
Vpolitics
p5751
tp5752
Rp5753
atp5754
a(S'TiredPony'
p5755
(lp5756
(lp5757
(lp5758
(lp5759
g3
(g4
g5
Ventertainment
p5760
tp5761
Rp5762
atp5763
a(S'amywinehouse'
p5764
(lp5765
(lp5766
(lp5767
g3
(g4
g5
Vlondon-uk
p5768
tp5769
Rp5770
a(lp5771
g3
(g4
g5
Ventertainment
p5772
tp5773
Rp5774
atp5775
a(S'91springboard'
p5776
(lp5777
g3
(g4
g5
Vmumbai-india
p5778
tp5779
Rp5780
a(lp5781
(lp5782
g3
(g4
g5
Vmumbai-india
p5783
tp5784
Rp5785
a(lp5786
g3
(g4
g5
Vtechnology
p5787
tp5788
Rp5789
ag3
(g4
g5
Vbusiness
p5790
tp5791
Rp5792
atp5793
a(S'sakpataudi'
p5794
(lp5795
g3
(g4
g5
Vmumbai-india
p5796
tp5797
Rp5798
a(lp5799
g3
(g4
g5
Vbangalore-india
p5800
tp5801
Rp5802
ag3
(g4
g5
Vmumbai-india
p5803
tp5804
Rp5805
a(lp5806
g3
(g4
g5
Vmumbai-india
p5807
tp5808
Rp5809
a(lp5810
g3
(g4
g5
Ventertainment
p5811
tp5812
Rp5813
atp5814
a(S'MichelleObama'
p5815
(lp5816
(lp5817
(lp5818
(lp5819
g3
(g4
g5
Vpolitics
p5820
tp5821
Rp5822
atp5823
a(S'vkhosla'
p5824
(lp5825
(lp5826
g3
(g4
g5
Vbangalore-india
p5827
tp5828
Rp5829
ag3
(g4
g5
Vmumbai-india
p5830
tp5831
Rp5832
a(lp5833
(lp5834
g3
(g4
g5
Vtechnology
p5835
tp5836
Rp5837
atp5838
a(S'daiwaka'
p5839
(lp5840
(lp5841
(lp5842
g3
(g4
g5
Vsan-francisco-usa
p5843
tp5844
Rp5845
a(lp5846
g3
(g4
g5
Vtechnology
p5847
tp5848
Rp5849
atp5850
a(S'dwaynederosario'
p5851
(lp5852
(lp5853
g3
(g4
g5
Vsan-francisco-usa
p5854
tp5855
Rp5856
ag3
(g4
g5
Vnew-york-usa
p5857
tp5858
Rp5859
ag3
(g4
g5
Vlondon-uk
p5860
tp5861
Rp5862
ag3
(g4
g5
Vboston-usa
p5863
tp5864
Rp5865
a(lp5866
(lp5867
g3
(g4
g5
Vsports
p5868
tp5869
Rp5870
atp5871
a(S'YahooCagewriter'
p5872
(lp5873
(lp5874
(lp5875
(lp5876
g3
(g4
g5
Vsports
p5877
tp5878
Rp5879
atp5880
a(S'GuyKawasaki'
p5881
(lp5882
g3
(g4
g5
Vsan-francisco-usa
p5883
tp5884
Rp5885
a(lp5886
(lp5887
g3
(g4
g5
Vsan-francisco-usa
p5888
tp5889
Rp5890
a(lp5891
g3
(g4
g5
Vtechnology
p5892
tp5893
Rp5894
atp5895
a(S'GQPolitics'
p5896
(lp5897
(lp5898
(lp5899
(lp5900
g3
(g4
g5
Vpolitics
p5901
tp5902
Rp5903
atp5904
a(S'Evan3Longoria'
p5905
(lp5906
(lp5907
g3
(g4
g5
Vsan-francisco-usa
p5908
tp5909
Rp5910
ag3
(g4
g5
Vnew-york-usa
p5911
tp5912
Rp5913
ag3
(g4
g5
Vboston-usa
p5914
tp5915
Rp5916
a(lp5917
(lp5918
g3
(g4
g5
Vsports
p5919
tp5920
Rp5921
atp5922
a(S'CarlyforCA'
p5923
(lp5924
(lp5925
(lp5926
g3
(g4
g5
Vsan-francisco-usa
p5927
tp5928
Rp5929
a(lp5930
g3
(g4
g5
Vpolitics
p5931
tp5932
Rp5933
atp5934
a(S'JoshLevs'
p5935
(lp5936
(lp5937
(lp5938
(lp5939
g3
(g4
g5
Vtechnology
p5940
tp5941
Rp5942
atp5943
a(S'followforeman'
p5944
(lp5945
(lp5946
(lp5947
(lp5948
g3
(g4
g5
Vtechnology
p5949
tp5950
Rp5951
ag3
(g4
g5
Vbusiness
p5952
tp5953
Rp5954
atp5955
a(S'briancushing56'
p5956
(lp5957
(lp5958
(lp5959
g3
(g4
g5
Vnew-york-usa
p5960
tp5961
Rp5962
a(lp5963
g3
(g4
g5
Vsports
p5964
tp5965
Rp5966
atp5967
a(S'AleBedoya17'
p5968
(lp5969
(lp5970
g3
(g4
g5
Vsan-francisco-usa
p5971
tp5972
Rp5973
ag3
(g4
g5
Vnew-york-usa
p5974
tp5975
Rp5976
ag3
(g4
g5
Vlondon-uk
p5977
tp5978
Rp5979
ag3
(g4
g5
Vboston-usa
p5980
tp5981
Rp5982
a(lp5983
g3
(g4
g5
Vnew-york-usa
p5984
tp5985
Rp5986
a(lp5987
g3
(g4
g5
Vsports
p5988
tp5989
Rp5990
atp5991
a(S'CarrieFFisher'
p5992
(lp5993
(lp5994
(lp5995
g3
(g4
g5
Vsan-francisco-usa
p5996
tp5997
Rp5998
a(lp5999
g3
(g4
g5
Ventertainment
p6000
tp6001
Rp6002
atp6003
a(S'kikkanimal'
p6004
(lp6005
(lp6006
(lp6007
(lp6008
g3
(g4
g5
Vsports
p6009
tp6010
Rp6011
atp6012
a(S'JimWoolwine'
p6013
(lp6014
(lp6015
(lp6016
(lp6017
g3
(g4
g5
Vbusiness
p6018
tp6019
Rp6020
atp6021
a(S'SrijanCapital'
p6022
(lp6023
g3
(g4
g5
Vbangalore-india
p6024
tp6025
Rp6026
a(lp6027
(lp6028
g3
(g4
g5
Vbangalore-india
p6029
tp6030
Rp6031
a(lp6032
g3
(g4
g5
Vtechnology
p6033
tp6034
Rp6035
ag3
(g4
g5
Vbusiness
p6036
tp6037
Rp6038
atp6039
a(S'NandanNilekani'
p6040
(lp6041
(lp6042
g3
(g4
g5
Vbangalore-india
p6043
tp6044
Rp6045
ag3
(g4
g5
Vmumbai-india
p6046
tp6047
Rp6048
a(lp6049
g3
(g4
g5
Vmumbai-india
p6050
tp6051
Rp6052
a(lp6053
g3
(g4
g5
Vpolitics
p6054
tp6055
Rp6056
ag3
(g4
g5
Vbusiness
p6057
tp6058
Rp6059
atp6060
a(S'KatieS'
p6061
(lp6062
(lp6063
(lp6064
(lp6065
g3
(g4
g5
Vtechnology
p6066
tp6067
Rp6068
atp6069
a(S'Jason'
p6070
(lp6071
(lp6072
(lp6073
(lp6074
g3
(g4
g5
Vtechnology
p6075
tp6076
Rp6077
atp6078
a(S'Classical'
p6079
(lp6080
(lp6081
(lp6082
(lp6083
g3
(g4
g5
Vsports
p6084
tp6085
Rp6086
atp6087
a(S'nmasidlover'
p6088
(lp6089
(lp6090
(lp6091
(lp6092
g3
(g4
g5
Ventertainment
p6093
tp6094
Rp6095
atp6096
a(S'QueenNoor'
p6097
(lp6098
(lp6099
(lp6100
(lp6101
g3
(g4
g5
Vpolitics
p6102
tp6103
Rp6104
atp6105
a(S'kristina_oneill'
p6106
(lp6107
(lp6108
(lp6109
g3
(g4
g5
Vnew-york-usa
p6110
tp6111
Rp6112
a(lp6113
g3
(g4
g5
Ventertainment
p6114
tp6115
Rp6116
atp6117
a(S'geoffreyfowler'
p6118
(lp6119
(lp6120
(lp6121
g3
(g4
g5
Vsan-francisco-usa
p6122
tp6123
Rp6124
a(lp6125
g3
(g4
g5
Vtechnology
p6126
tp6127
Rp6128
atp6129
a(S'Bachscore'
p6130
(lp6131
g3
(g4
g5
Vnew-york-usa
p6132
tp6133
Rp6134
a(lp6135
(lp6136
g3
(g4
g5
Vnew-york-usa
p6137
tp6138
Rp6139
a(lp6140
g3
(g4
g5
Vsports
p6141
tp6142
Rp6143
atp6144
a(S'ericschmidt'
p6145
(lp6146
g3
(g4
g5
Vsan-francisco-usa
p6147
tp6148
Rp6149
a(lp6150
(lp6151
g3
(g4
g5
Vsan-francisco-usa
p6152
tp6153
Rp6154
a(lp6155
g3
(g4
g5
Vtechnology
p6156
tp6157
Rp6158
ag3
(g4
g5
Vbusiness
p6159
tp6160
Rp6161
atp6162
a(S'sst2001'
p6163
(lp6164
(lp6165
(lp6166
(lp6167
g3
(g4
g5
Vtechnology
p6168
tp6169
Rp6170
ag3
(g4
g5
Vbusiness
p6171
tp6172
Rp6173
atp6174
a(S'eliclemens'
p6175
(lp6176
(lp6177
(lp6178
(lp6179
g3
(g4
g5
Vbusiness
p6180
tp6181
Rp6182
atp6183
a(S'WSJspeakeasy'
p6184
(lp6185
(lp6186
(lp6187
g3
(g4
g5
Vsan-francisco-usa
p6188
tp6189
Rp6190
a(lp6191
g3
(g4
g5
Ventertainment
p6192
tp6193
Rp6194
atp6195
a(S'plancast'
p6196
(lp6197
g3
(g4
g5
Vsan-francisco-usa
p6198
tp6199
Rp6200
a(lp6201
g3
(g4
g5
Vsan-francisco-usa
p6202
tp6203
Rp6204
a(lp6205
g3
(g4
g5
Vsan-francisco-usa
p6206
tp6207
Rp6208
a(lp6209
g3
(g4
g5
Vtechnology
p6210
tp6211
Rp6212
atp6213
a(S'ahamzawi'
p6214
(lp6215
g3
(g4
g5
Vlondon-uk
p6216
tp6217
Rp6218
a(lp6219
(lp6220
g3
(g4
g5
Vlondon-uk
p6221
tp6222
Rp6223
a(lp6224
g3
(g4
g5
Vtechnology
p6225
tp6226
Rp6227
ag3
(g4
g5
Vbusiness
p6228
tp6229
Rp6230
atp6231
a(S'RepJBridenstine'
p6232
(lp6233
(lp6234
g3
(g4
g5
Vsan-francisco-usa
p6235
tp6236
Rp6237
ag3
(g4
g5
Vnew-york-usa
p6238
tp6239
Rp6240
ag3
(g4
g5
Vboston-usa
p6241
tp6242
Rp6243
a(lp6244
(lp6245
g3
(g4
g5
Vpolitics
p6246
tp6247
Rp6248
atp6249
a(S'susanmernit'
p6250
(lp6251
(lp6252
(lp6253
(lp6254
g3
(g4
g5
Vtechnology
p6255
tp6256
Rp6257
atp6258
a(S'jkrim'
p6259
(lp6260
(lp6261
(lp6262
g3
(g4
g5
Vsan-francisco-usa
p6263
tp6264
Rp6265
a(lp6266
g3
(g4
g5
Vtechnology
p6267
tp6268
Rp6269
atp6270
a(S'caydeeandjeremy'
p6271
(lp6272
g3
(g4
g5
Vnew-york-usa
p6273
tp6274
Rp6275
a(lp6276
(lp6277
(lp6278
g3
(g4
g5
Vsports
p6279
tp6280
Rp6281
atp6282
a(S'CleggJon'
p6283
(lp6284
g3
(g4
g5
Vnew-york-usa
p6285
tp6286
Rp6287
a(lp6288
(lp6289
g3
(g4
g5
Vnew-york-usa
p6290
tp6291
Rp6292
a(lp6293
g3
(g4
g5
Vsports
p6294
tp6295
Rp6296
atp6297
a(S'jareddiamond'
p6298
(lp6299
g3
(g4
g5
Vnew-york-usa
p6300
tp6301
Rp6302
a(lp6303
(lp6304
g3
(g4
g5
Vnew-york-usa
p6305
tp6306
Rp6307
a(lp6308
g3
(g4
g5
Vsports
p6309
tp6310
Rp6311
atp6312
a(S'CAIngram41'
p6313
(lp6314
(lp6315
g3
(g4
g5
Vbangalore-india
p6316
tp6317
Rp6318
ag3
(g4
g5
Vmumbai-india
p6319
tp6320
Rp6321
a(lp6322
(lp6323
g3
(g4
g5
Vsports
p6324
tp6325
Rp6326
atp6327
a(S'stacyluft'
p6328
(lp6329
g3
(g4
g5
Vnew-york-usa
p6330
tp6331
Rp6332
a(lp6333
(lp6334
g3
(g4
g5
Vnew-york-usa
p6335
tp6336
Rp6337
a(lp6338
g3
(g4
g5
Vbusiness
p6339
tp6340
Rp6341
atp6342
a(S'ashuppy'
p6343
(lp6344
(lp6345
g3
(g4
g5
Vsan-francisco-usa
p6346
tp6347
Rp6348
ag3
(g4
g5
Vnew-york-usa
p6349
tp6350
Rp6351
ag3
(g4
g5
Vboston-usa
p6352
tp6353
Rp6354
a(lp6355
(lp6356
g3
(g4
g5
Vpolitics
p6357
tp6358
Rp6359
atp6360
a(S'JuliaBrownley26'
p6361
(lp6362
(lp6363
g3
(g4
g5
Vsan-francisco-usa
p6364
tp6365
Rp6366
ag3
(g4
g5
Vnew-york-usa
p6367
tp6368
Rp6369
ag3
(g4
g5
Vboston-usa
p6370
tp6371
Rp6372
a(lp6373
(lp6374
g3
(g4
g5
Vpolitics
p6375
tp6376
Rp6377
atp6378
a(S'JoeMcCurdyCNN'
p6379
(lp6380
g3
(g4
g5
Vnew-york-usa
p6381
tp6382
Rp6383
a(lp6384
(lp6385
g3
(g4
g5
Vnew-york-usa
p6386
tp6387
Rp6388
a(lp6389
g3
(g4
g5
Vsports
p6390
tp6391
Rp6392
atp6393
a(S'TonyPerkins'
p6394
(lp6395
(lp6396
(lp6397
g3
(g4
g5
Vsan-francisco-usa
p6398
tp6399
Rp6400
a(lp6401
g3
(g4
g5
Vtechnology
p6402
tp6403
Rp6404
atp6405
a(S'PrensaMichelle'
p6406
(lp6407
(lp6408
(lp6409
(lp6410
g3
(g4
g5
Vpolitics
p6411
tp6412
Rp6413
atp6414
a(S'GeraldFSeib'
p6415
(lp6416
g3
(g4
g5
Vnew-york-usa
p6417
tp6418
Rp6419
a(lp6420
(lp6421
(lp6422
g3
(g4
g5
Vbusiness
p6423
tp6424
Rp6425
atp6426
a(S'YahooSportsMLB'
p6427
(lp6428
(lp6429
(lp6430
g3
(g4
g5
Vsan-francisco-usa
p6431
tp6432
Rp6433
a(lp6434
g3
(g4
g5
Vsports
p6435
tp6436
Rp6437
atp6438
a(S'ErinBurnett'
p6439
(lp6440
g3
(g4
g5
Vnew-york-usa
p6441
tp6442
Rp6443
a(lp6444
(lp6445
g3
(g4
g5
Vnew-york-usa
p6446
tp6447
Rp6448
a(lp6449
g3
(g4
g5
Vpolitics
p6450
tp6451
Rp6452
atp6453
a(S'TesterPress'
p6454
(lp6455
(lp6456
g3
(g4
g5
Vsan-francisco-usa
p6457
tp6458
Rp6459
ag3
(g4
g5
Vnew-york-usa
p6460
tp6461
Rp6462
ag3
(g4
g5
Vboston-usa
p6463
tp6464
Rp6465
a(lp6466
(lp6467
g3
(g4
g5
Vpolitics
p6468
tp6469
Rp6470
atp6471
a(S'rayalexsmith'
p6472
(lp6473
(lp6474
(lp6475
g3
(g4
g5
Vnew-york-usa
p6476
tp6477
Rp6478
a(lp6479
g3
(g4
g5
Ventertainment
p6480
tp6481
Rp6482
atp6483
a(S'BryanMonroeCNN'
p6484
(lp6485
g3
(g4
g5
Vnew-york-usa
p6486
tp6487
Rp6488
a(lp6489
(lp6490
(lp6491
g3
(g4
g5
Vpolitics
p6492
tp6493
Rp6494
atp6495
a(S'DeanHeller'
p6496
(lp6497
g3
(g4
g5
Vsan-francisco-usa
p6498
tp6499
Rp6500
a(lp6501
g3
(g4
g5
Vsan-francisco-usa
p6502
tp6503
Rp6504
ag3
(g4
g5
Vnew-york-usa
p6505
tp6506
Rp6507
ag3
(g4
g5
Vboston-usa
p6508
tp6509
Rp6510
a(lp6511
(lp6512
g3
(g4
g5
Vpolitics
p6513
tp6514
Rp6515
atp6516
a(S'MichaelDell'
p6517
(lp6518
g3
(g4
g5
Vsan-francisco-usa
p6519
tp6520
Rp6521
a(lp6522
(lp6523
(lp6524
g3
(g4
g5
Vtechnology
p6525
tp6526
Rp6527
ag3
(g4
g5
Vbusiness
p6528
tp6529
Rp6530
atp6531
a(S'MylesKennedy'
p6532
(lp6533
(lp6534
(lp6535
(lp6536
g3
(g4
g5
Ventertainment
p6537
tp6538
Rp6539
atp6540
a(S'maduro_en'
p6541
(lp6542
(lp6543
(lp6544
(lp6545
g3
(g4
g5
Vpolitics
p6546
tp6547
Rp6548
atp6549
a(S'mashstartups'
p6550
(lp6551
(lp6552
g3
(g4
g5
Vsan-francisco-usa
p6553
tp6554
Rp6555
ag3
(g4
g5
Vnew-york-usa
p6556
tp6557
Rp6558
a(lp6559
g3
(g4
g5
Vnew-york-usa
p6560
tp6561
Rp6562
a(lp6563
g3
(g4
g5
Vtechnology
p6564
tp6565
Rp6566
atp6567
a(S'AnilKapoor'
p6568
(lp6569
(lp6570
g3
(g4
g5
Vbangalore-india
p6571
tp6572
Rp6573
ag3
(g4
g5
Vmumbai-india
p6574
tp6575
Rp6576
a(lp6577
(lp6578
g3
(g4
g5
Ventertainment
p6579
tp6580
Rp6581
atp6582
a(S'dmac1'
p6583
(lp6584
(lp6585
(lp6586
g3
(g4
g5
Vsan-francisco-usa
p6587
tp6588
Rp6589
a(lp6590
g3
(g4
g5
Vtechnology
p6591
tp6592
Rp6593
atp6594
a(S'kiranshaw'
p6595
(lp6596
g3
(g4
g5
Vbangalore-india
p6597
tp6598
Rp6599
a(lp6600
g3
(g4
g5
Vbangalore-india
p6601
tp6602
Rp6603
ag3
(g4
g5
Vmumbai-india
p6604
tp6605
Rp6606
a(lp6607
g3
(g4
g5
Vbangalore-india
p6608
tp6609
Rp6610
a(lp6611
g3
(g4
g5
Vtechnology
p6612
tp6613
Rp6614
ag3
(g4
g5
Vbusiness
p6615
tp6616
Rp6617
atp6618
a(S'Speedskater01'
p6619
(lp6620
g3
(g4
g5
Vboston-usa
p6621
tp6622
Rp6623
a(lp6624
(lp6625
(lp6626
g3
(g4
g5
Vsports
p6627
tp6628
Rp6629
atp6630
a(S'TeamFreebirdXC'
p6631
(lp6632
(lp6633
(lp6634
(lp6635
g3
(g4
g5
Vsports
p6636
tp6637
Rp6638
atp6639
a(S'pennymanis'
p6640
(lp6641
(lp6642
(lp6643
g3
(g4
g5
Vnew-york-usa
p6644
tp6645
Rp6646
a(lp6647
g3
(g4
g5
Vbusiness
p6648
tp6649
Rp6650
atp6651
a(S'gunsnroses'
p6652
(lp6653
(lp6654
(lp6655
(lp6656
g3
(g4
g5
Ventertainment
p6657
tp6658
Rp6659
atp6660
a(S'mark_harvey'
p6661
(lp6662
(lp6663
(lp6664
(lp6665
g3
(g4
g5
Vtechnology
p6666
tp6667
Rp6668
ag3
(g4
g5
Vbusiness
p6669
tp6670
Rp6671
atp6672
a(S'AUThackeray'
p6673
(lp6674
(lp6675
g3
(g4
g5
Vbangalore-india
p6676
tp6677
Rp6678
ag3
(g4
g5
Vmumbai-india
p6679
tp6680
Rp6681
a(lp6682
(lp6683
g3
(g4
g5
Vpolitics
p6684
tp6685
Rp6686
atp6687
a(S'BrianLara'
p6688
(lp6689
(lp6690
g3
(g4
g5
Vbangalore-india
p6691
tp6692
Rp6693
ag3
(g4
g5
Vmumbai-india
p6694
tp6695
Rp6696
a(lp6697
(lp6698
g3
(g4
g5
Vsports
p6699
tp6700
Rp6701
atp6702
a(S'broganmedia'
p6703
(lp6704
(lp6705
(lp6706
(lp6707
g3
(g4
g5
Vtechnology
p6708
tp6709
Rp6710
ag3
(g4
g5
Vbusiness
p6711
tp6712
Rp6713
atp6714
a(S'MDPai05'
p6715
(lp6716
g3
(g4
g5
Vbangalore-india
p6717
tp6718
Rp6719
a(lp6720
g3
(g4
g5
Vbangalore-india
p6721
tp6722
Rp6723
ag3
(g4
g5
Vmumbai-india
p6724
tp6725
Rp6726
a(lp6727
g3
(g4
g5
Vbangalore-india
p6728
tp6729
Rp6730
a(lp6731
g3
(g4
g5
Vpolitics
p6732
tp6733
Rp6734
ag3
(g4
g5
Vbusiness
p6735
tp6736
Rp6737
atp6738
a(S'cnntech'
p6739
(lp6740
(lp6741
(lp6742
g3
(g4
g5
Vnew-york-usa
p6743
tp6744
Rp6745
a(lp6746
g3
(g4
g5
Vtechnology
p6747
tp6748
Rp6749
atp6750
a(S'RajatSharmaLive'
p6751
(lp6752
g3
(g4
g5
Vmumbai-india
p6753
tp6754
Rp6755
a(lp6756
g3
(g4
g5
Vbangalore-india
p6757
tp6758
Rp6759
ag3
(g4
g5
Vmumbai-india
p6760
tp6761
Rp6762
a(lp6763
g3
(g4
g5
Vmumbai-india
p6764
tp6765
Rp6766
a(lp6767
g3
(g4
g5
Vpolitics
p6768
tp6769
Rp6770
atp6771
a(S'Varun_dvn'
p6772
(lp6773
(lp6774
g3
(g4
g5
Vbangalore-india
p6775
tp6776
Rp6777
ag3
(g4
g5
Vmumbai-india
p6778
tp6779
Rp6780
a(lp6781
(lp6782
g3
(g4
g5
Ventertainment
p6783
tp6784
Rp6785
atp6786
a(S'paulpluschkell'
p6787
(lp6788
(lp6789
(lp6790
g3
(g4
g5
Vsan-francisco-usa
p6791
tp6792
Rp6793
a(lp6794
g3
(g4
g5
Vtechnology
p6795
tp6796
Rp6797
ag3
(g4
g5
Vbusiness
p6798
tp6799
Rp6800
atp6801
a(S'EmergingEurope'
p6802
(lp6803
g3
(g4
g5
Vlondon-uk
p6804
tp6805
Rp6806
a(lp6807
(lp6808
(lp6809
g3
(g4
g5
Vbusiness
p6810
tp6811
Rp6812
atp6813
a(S'csampson43'
p6814
(lp6815
(lp6816
g3
(g4
g5
Vsan-francisco-usa
p6817
tp6818
Rp6819
ag3
(g4
g5
Vnew-york-usa
p6820
tp6821
Rp6822
ag3
(g4
g5
Vboston-usa
p6823
tp6824
Rp6825
a(lp6826
(lp6827
g3
(g4
g5
Vsports
p6828
tp6829
Rp6830
atp6831
a(S'julianbarnes'
p6832
(lp6833
g3
(g4
g5
Vnew-york-usa
p6834
tp6835
Rp6836
a(lp6837
(lp6838
(lp6839
g3
(g4
g5
Vpolitics
p6840
tp6841
Rp6842
atp6843
a(S'pnut'
p6844
(lp6845
(lp6846
(lp6847
(lp6848
g3
(g4
g5
Ventertainment
p6849
tp6850
Rp6851
atp6852
a(S'bplt20criKt'
p6853
(lp6854
(lp6855
g3
(g4
g5
Vbangalore-india
p6856
tp6857
Rp6858
ag3
(g4
g5
Vmumbai-india
p6859
tp6860
Rp6861
a(lp6862
(lp6863
g3
(g4
g5
Vsports
p6864
tp6865
Rp6866
atp6867
a(S'DirtyTackle'
p6868
(lp6869
(lp6870
(lp6871
(lp6872
g3
(g4
g5
Vsports
p6873
tp6874
Rp6875
atp6876
a(S'iansherr'
p6877
(lp6878
(lp6879
(lp6880
g3
(g4
g5
Vsan-francisco-usa
p6881
tp6882
Rp6883
a(lp6884
g3
(g4
g5
Vtechnology
p6885
tp6886
Rp6887
atp6888
a(S'clararitger'
p6889
(lp6890
g3
(g4
g5
Vnew-york-usa
p6891
tp6892
Rp6893
a(lp6894
g3
(g4
g5
Vsan-francisco-usa
p6895
tp6896
Rp6897
ag3
(g4
g5
Vnew-york-usa
p6898
tp6899
Rp6900
ag3
(g4
g5
Vboston-usa
p6901
tp6902
Rp6903
a(lp6904
(lp6905
g3
(g4
g5
Vpolitics
p6906
tp6907
Rp6908
atp6909
a(S'ajitbalakrish'
p6910
(lp6911
g3
(g4
g5
Vmumbai-india
p6912
tp6913
Rp6914
a(lp6915
(lp6916
g3
(g4
g5
Vmumbai-india
p6917
tp6918
Rp6919
a(lp6920
g3
(g4
g5
Vtechnology
p6921
tp6922
Rp6923
ag3
(g4
g5
Vbusiness
p6924
tp6925
Rp6926
atp6927
a(S'KhilRajRegmi'
p6928
(lp6929
(lp6930
(lp6931
(lp6932
g3
(g4
g5
Vpolitics
p6933
tp6934
Rp6935
atp6936
a(S'meghna1malik'
p6937
(lp6938
(lp6939
g3
(g4
g5
Vbangalore-india
p6940
tp6941
Rp6942
ag3
(g4
g5
Vmumbai-india
p6943
tp6944
Rp6945
a(lp6946
(lp6947
g3
(g4
g5
Ventertainment
p6948
tp6949
Rp6950
atp6951
a(S'AjazkhanActor'
p6952
(lp6953
(lp6954
g3
(g4
g5
Vbangalore-india
p6955
tp6956
Rp6957
ag3
(g4
g5
Vmumbai-india
p6958
tp6959
Rp6960
a(lp6961
(lp6962
g3
(g4
g5
Ventertainment
p6963
tp6964
Rp6965
atp6966
a(S'APAndrewTaylor'
p6967
(lp6968
(lp6969
g3
(g4
g5
Vsan-francisco-usa
p6970
tp6971
Rp6972
ag3
(g4
g5
Vnew-york-usa
p6973
tp6974
Rp6975
ag3
(g4
g5
Vboston-usa
p6976
tp6977
Rp6978
a(lp6979
(lp6980
g3
(g4
g5
Vpolitics
p6981
tp6982
Rp6983
atp6984
a(S'SaraMurray'
p6985
(lp6986
(lp6987
(lp6988
(lp6989
g3
(g4
g5
Vbusiness
p6990
tp6991
Rp6992
atp6993
a(S'RepSinema'
p6994
(lp6995
(lp6996
g3
(g4
g5
Vsan-francisco-usa
p6997
tp6998
Rp6999
ag3
(g4
g5
Vnew-york-usa
p7000
tp7001
Rp7002
ag3
(g4
g5
Vboston-usa
p7003
tp7004
Rp7005
a(lp7006
(lp7007
g3
(g4
g5
Vpolitics
p7008
tp7009
Rp7010
atp7011
a(S'applespotlight'
p7012
(lp7013
(lp7014
(lp7015
g3
(g4
g5
Vsan-francisco-usa
p7016
tp7017
Rp7018
a(lp7019
g3
(g4
g5
Vtechnology
p7020
tp7021
Rp7022
atp7023
a(S'BryFitz'
p7024
(lp7025
(lp7026
(lp7027
g3
(g4
g5
Vnew-york-usa
p7028
tp7029
Rp7030
a(lp7031
g3
(g4
g5
Vtechnology
p7032
tp7033
Rp7034
atp7035
a(S'RyuSpaeth'
p7036
(lp7037
(lp7038
(lp7039
(lp7040
g3
(g4
g5
Vpolitics
p7041
tp7042
Rp7043
atp7044
a(S'SI_Faces'
p7045
(lp7046
(lp7047
(lp7048
g3
(g4
g5
Vnew-york-usa
p7049
tp7050
Rp7051
a(lp7052
g3
(g4
g5
Vsports
p7053
tp7054
Rp7055
atp7056
a(S'TashaCNN'
p7057
(lp7058
g3
(g4
g5
Vnew-york-usa
p7059
tp7060
Rp7061
a(lp7062
(lp7063
(lp7064
g3
(g4
g5
Vpolitics
p7065
tp7066
Rp7067
atp7068
a(S'TechCityNews'
p7069
(lp7070
(lp7071
(lp7072
g3
(g4
g5
Vlondon-uk
p7073
tp7074
Rp7075
a(lp7076
g3
(g4
g5
Vtechnology
p7077
tp7078
Rp7079
atp7080
a(S'SarahPalinUSA'
p7081
(lp7082
(lp7083
(lp7084
(lp7085
g3
(g4
g5
Vpolitics
p7086
tp7087
Rp7088
atp7089
a(S'gerardtbaker'
p7090
(lp7091
g3
(g4
g5
Vnew-york-usa
p7092
tp7093
Rp7094
a(lp7095
(lp7096
g3
(g4
g5
Vnew-york-usa
p7097
tp7098
Rp7099
a(lp7100
g3
(g4
g5
Vbusiness
p7101
tp7102
Rp7103
atp7104
a(S'naren_nexus'
p7105
(lp7106
(lp7107
(lp7108
(lp7109
g3
(g4
g5
Vtechnology
p7110
tp7111
Rp7112
ag3
(g4
g5
Vbusiness
p7113
tp7114
Rp7115
atp7116
a(S'INCIndia'
p7117
(lp7118
(lp7119
g3
(g4
g5
Vbangalore-india
p7120
tp7121
Rp7122
ag3
(g4
g5
Vmumbai-india
p7123
tp7124
Rp7125
a(lp7126
g3
(g4
g5
Vmumbai-india
p7127
tp7128
Rp7129
a(lp7130
g3
(g4
g5
Vpolitics
p7131
tp7132
Rp7133
atp7134
a(S'wsjMelanie'
p7135
(lp7136
g3
(g4
g5
Vnew-york-usa
p7137
tp7138
Rp7139
a(lp7140
(lp7141
(lp7142
g3
(g4
g5
Vpolitics
p7143
tp7144
Rp7145
atp7146
a(S'LauraLitvan'
p7147
(lp7148
g3
(g4
g5
Vnew-york-usa
p7149
tp7150
Rp7151
a(lp7152
g3
(g4
g5
Vsan-francisco-usa
p7153
tp7154
Rp7155
ag3
(g4
g5
Vnew-york-usa
p7156
tp7157
Rp7158
ag3
(g4
g5
Vboston-usa
p7159
tp7160
Rp7161
a(lp7162
(lp7163
g3
(g4
g5
Vpolitics
p7164
tp7165
Rp7166
atp7167
a(S'chicagotheband'
p7168
(lp7169
(lp7170
(lp7171
(lp7172
g3
(g4
g5
Ventertainment
p7173
tp7174
Rp7175
atp7176
a(S'jolieodell'
p7177
(lp7178
(lp7179
(lp7180
(lp7181
g3
(g4
g5
Vtechnology
p7182
tp7183
Rp7184
atp7185
a(S'arunjaitley'
p7186
(lp7187
g3
(g4
g5
Vmumbai-india
p7188
tp7189
Rp7190
a(lp7191
g3
(g4
g5
Vbangalore-india
p7192
tp7193
Rp7194
ag3
(g4
g5
Vmumbai-india
p7195
tp7196
Rp7197
a(lp7198
g3
(g4
g5
Vmumbai-india
p7199
tp7200
Rp7201
a(lp7202
g3
(g4
g5
Vpolitics
p7203
tp7204
Rp7205
atp7206
a(S'Farah_Pandith'
p7207
(lp7208
(lp7209
(lp7210
(lp7211
g3
(g4
g5
Vpolitics
p7212
tp7213
Rp7214
atp7215
a(S'JBoorstin'
p7216
(lp7217
(lp7218
(lp7219
g3
(g4
g5
Vsan-francisco-usa
p7220
tp7221
Rp7222
a(lp7223
g3
(g4
g5
Vbusiness
p7224
tp7225
Rp7226
atp7227
a(S'RobertWalzer'
p7228
(lp7229
g3
(g4
g5
Vnew-york-usa
p7230
tp7231
Rp7232
a(lp7233
(lp7234
g3
(g4
g5
Vnew-york-usa
p7235
tp7236
Rp7237
a(lp7238
g3
(g4
g5
Ventertainment
p7239
tp7240
Rp7241
atp7242
a(S'JessBravin'
p7243
(lp7244
g3
(g4
g5
Vnew-york-usa
p7245
tp7246
Rp7247
a(lp7248
(lp7249
(lp7250
g3
(g4
g5
Vpolitics
p7251
tp7252
Rp7253
atp7254
a(S'WSJBizEd'
p7255
(lp7256
(lp7257
(lp7258
(lp7259
g3
(g4
g5
Vbusiness
p7260
tp7261
Rp7262
atp7263
a(S'GiaMantegna'
p7264
(lp7265
(lp7266
(lp7267
g3
(g4
g5
Vsan-francisco-usa
p7268
tp7269
Rp7270
a(lp7271
g3
(g4
g5
Ventertainment
p7272
tp7273
Rp7274
atp7275
a(S'HassanRouhani'
p7276
(lp7277
(lp7278
(lp7279
(lp7280
g3
(g4
g5
Vpolitics
p7281
tp7282
Rp7283
atp7284
a(S'raju'
p7285
(lp7286
g3
(g4
g5
Vnew-york-usa
p7287
tp7288
Rp7289
a(lp7290
g3
(g4
g5
Vbangalore-india
p7291
tp7292
Rp7293
ag3
(g4
g5
Vmumbai-india
p7294
tp7295
Rp7296
a(lp7297
g3
(g4
g5
Vnew-york-usa
p7298
tp7299
Rp7300
a(lp7301
g3
(g4
g5
Vtechnology
p7302
tp7303
Rp7304
atp7305
a(S'MuhammadMorsi'
p7306
(lp7307
g3
(g4
g5
Vlondon-uk
p7308
tp7309
Rp7310
a(lp7311
(lp7312
(lp7313
g3
(g4
g5
Vpolitics
p7314
tp7315
Rp7316
atp7317
a(S'ashleesimpson'
p7318
(lp7319
g3
(g4
g5
Vsan-francisco-usa
p7320
tp7321
Rp7322
a(lp7323
(lp7324
g3
(g4
g5
Vsan-francisco-usa
p7325
tp7326
Rp7327
a(lp7328
g3
(g4
g5
Ventertainment
p7329
tp7330
Rp7331
atp7332
a(S'germanotes'
p7333
(lp7334
(lp7335
(lp7336
(lp7337
g3
(g4
g5
Vsports
p7338
tp7339
Rp7340
atp7341
a(S'lakshmirebecca'
p7342
(lp7343
g3
(g4
g5
Vbangalore-india
p7344
tp7345
Rp7346
a(lp7347
g3
(g4
g5
Vbangalore-india
p7348
tp7349
Rp7350
ag3
(g4
g5
Vmumbai-india
p7351
tp7352
Rp7353
a(lp7354
g3
(g4
g5
Vbangalore-india
p7355
tp7356
Rp7357
a(lp7358
g3
(g4
g5
Vtechnology
p7359
tp7360
Rp7361
atp7362
a(S'MaryLuWSJ'
p7363
(lp7364
g3
(g4
g5
Vnew-york-usa
p7365
tp7366
Rp7367
a(lp7368
(lp7369
(lp7370
g3
(g4
g5
Vbusiness
p7371
tp7372
Rp7373
atp7374
a(S'cotweet'
p7375
(lp7376
g3
(g4
g5
Vsan-francisco-usa
p7377
tp7378
Rp7379
a(lp7380
g3
(g4
g5
Vsan-francisco-usa
p7381
tp7382
Rp7383
a(lp7384
g3
(g4
g5
Vsan-francisco-usa
p7385
tp7386
Rp7387
a(lp7388
g3
(g4
g5
Vtechnology
p7389
tp7390
Rp7391
atp7392
a(S'BigDaddySHaag'
p7393
(lp7394
(lp7395
(lp7396
(lp7397
g3
(g4
g5
Vtechnology
p7398
tp7399
Rp7400
ag3
(g4
g5
Vbusiness
p7401
tp7402
Rp7403
atp7404
a(S'Asifazimasif'
p7405
(lp7406
(lp7407
g3
(g4
g5
Vbangalore-india
p7408
tp7409
Rp7410
ag3
(g4
g5
Vmumbai-india
p7411
tp7412
Rp7413
a(lp7414
(lp7415
g3
(g4
g5
Ventertainment
p7416
tp7417
Rp7418
atp7419
a(S'negativedunks'
p7420
(lp7421
g3
(g4
g5
Vboston-usa
p7422
tp7423
Rp7424
a(lp7425
(lp7426
g3
(g4
g5
Vboston-usa
p7427
tp7428
Rp7429
a(lp7430
g3
(g4
g5
Vsports
p7431
tp7432
Rp7433
atp7434
a(S'NewsMashup'
p7435
(lp7436
(lp7437
(lp7438
(lp7439
g3
(g4
g5
Vbusiness
p7440
tp7441
Rp7442
atp7443
a(S'Quora'
p7444
(lp7445
g3
(g4
g5
Vsan-francisco-usa
p7446
tp7447
Rp7448
a(lp7449
g3
(g4
g5
Vsan-francisco-usa
p7450
tp7451
Rp7452
a(lp7453
g3
(g4
g5
Vsan-francisco-usa
p7454
tp7455
Rp7456
a(lp7457
g3
(g4
g5
Vtechnology
p7458
tp7459
Rp7460
atp7461
a(S'rihanna'
p7462
(lp7463
(lp7464
(lp7465
(lp7466
g3
(g4
g5
Ventertainment
p7467
tp7468
Rp7469
atp7470
a(S'YuvaiTV'
p7471
(lp7472
(lp7473
g3
(g4
g5
Vbangalore-india
p7474
tp7475
Rp7476
ag3
(g4
g5
Vmumbai-india
p7477
tp7478
Rp7479
a(lp7480
(lp7481
g3
(g4
g5
Vpolitics
p7482
tp7483
Rp7484
atp7485
a(S'randizuckerberg'
p7486
(lp7487
g3
(g4
g5
Vsan-francisco-usa
p7488
tp7489
Rp7490
a(lp7491
(lp7492
g3
(g4
g5
Vsan-francisco-usa
p7493
tp7494
Rp7495
a(lp7496
g3
(g4
g5
Vtechnology
p7497
tp7498
Rp7499
atp7500
a(S'_KaranMehra'
p7501
(lp7502
(lp7503
g3
(g4
g5
Vbangalore-india
p7504
tp7505
Rp7506
ag3
(g4
g5
Vmumbai-india
p7507
tp7508
Rp7509
a(lp7510
g3
(g4
g5
Vmumbai-india
p7511
tp7512
Rp7513
a(lp7514
g3
(g4
g5
Ventertainment
p7515
tp7516
Rp7517
atp7518
a(S'zaarly'
p7519
(lp7520
(lp7521
g3
(g4
g5
Vnew-york-usa
p7522
tp7523
Rp7524
a(lp7525
(lp7526
g3
(g4
g5
Vtechnology
p7527
tp7528
Rp7529
atp7530
a(S'BarrosoEU'
p7531
(lp7532
(lp7533
(lp7534
(lp7535
g3
(g4
g5
Vpolitics
p7536
tp7537
Rp7538
atp7539
a(S'boygenius'
p7540
(lp7541
(lp7542
(lp7543
(lp7544
g3
(g4
g5
Vtechnology
p7545
tp7546
Rp7547
atp7548
a(S'NKingofDC'
p7549
(lp7550
g3
(g4
g5
Vnew-york-usa
p7551
tp7552
Rp7553
a(lp7554
(lp7555
(lp7556
g3
(g4
g5
Vpolitics
p7557
tp7558
Rp7559
atp7560
a(S'johnlshea'
p7561
(lp7562
(lp7563
(lp7564
g3
(g4
g5
Vboston-usa
p7565
tp7566
Rp7567
a(lp7568
g3
(g4
g5
Vtechnology
p7569
tp7570
Rp7571
ag3
(g4
g5
Vbusiness
p7572
tp7573
Rp7574
atp7575
a(S'PepperReports'
p7576
(lp7577
(lp7578
(lp7579
g3
(g4
g5
Vlondon-uk
p7580
tp7581
Rp7582
a(lp7583
g3
(g4
g5
Vbusiness
p7584
tp7585
Rp7586
atp7587
a(S'timberners_lee'
p7588
(lp7589
g3
(g4
g5
Vboston-usa
p7590
tp7591
Rp7592
a(lp7593
(lp7594
g3
(g4
g5
Vboston-usa
p7595
tp7596
Rp7597
a(lp7598
g3
(g4
g5
Vtechnology
p7599
tp7600
Rp7601
ag3
(g4
g5
Vbusiness
p7602
tp7603
Rp7604
atp7605
a(S'AftabShivdasani'
p7606
(lp7607
(lp7608
g3
(g4
g5
Vbangalore-india
p7609
tp7610
Rp7611
ag3
(g4
g5
Vmumbai-india
p7612
tp7613
Rp7614
a(lp7615
(lp7616
g3
(g4
g5
Ventertainment
p7617
tp7618
Rp7619
atp7620
a(S'c0ates'
p7621
(lp7622
(lp7623
(lp7624
(lp7625
g3
(g4
g5
Vbusiness
p7626
tp7627
Rp7628
atp7629
a(S'SonuSood'
p7630
(lp7631
g3
(g4
g5
Vmumbai-india
p7632
tp7633
Rp7634
a(lp7635
g3
(g4
g5
Vbangalore-india
p7636
tp7637
Rp7638
ag3
(g4
g5
Vmumbai-india
p7639
tp7640
Rp7641
a(lp7642
g3
(g4
g5
Vmumbai-india
p7643
tp7644
Rp7645
a(lp7646
g3
(g4
g5
Ventertainment
p7647
tp7648
Rp7649
atp7650
a(S'claychristensen'
p7651
(lp7652
(lp7653
(lp7654
g3
(g4
g5
Vboston-usa
p7655
tp7656
Rp7657
a(lp7658
g3
(g4
g5
Vbusiness
p7659
tp7660
Rp7661
atp7662
a(S'JUP_8TL'
p7663
(lp7664
(lp7665
g3
(g4
g5
Vsan-francisco-usa
p7666
tp7667
Rp7668
ag3
(g4
g5
Vnew-york-usa
p7669
tp7670
Rp7671
ag3
(g4
g5
Vboston-usa
p7672
tp7673
Rp7674
a(lp7675
g3
(g4
g5
Vnew-york-usa
p7676
tp7677
Rp7678
a(lp7679
g3
(g4
g5
Vsports
p7680
tp7681
Rp7682
atp7683
a(S'mohanstatsman'
p7684
(lp7685
g3
(g4
g5
Vmumbai-india
p7686
tp7687
Rp7688
a(lp7689
g3
(g4
g5
Vbangalore-india
p7690
tp7691
Rp7692
ag3
(g4
g5
Vmumbai-india
p7693
tp7694
Rp7695
a(lp7696
g3
(g4
g5
Vmumbai-india
p7697
tp7698
Rp7699
a(lp7700
g3
(g4
g5
Vsports
p7701
tp7702
Rp7703
atp7704
a(S'jasonWSJ'
p7705
(lp7706
(lp7707
(lp7708
(lp7709
g3
(g4
g5
Vsports
p7710
tp7711
Rp7712
atp7713
a(S'mikelascut'
p7714
(lp7715
g3
(g4
g5
Vnew-york-usa
p7716
tp7717
Rp7718
a(lp7719
(lp7720
(lp7721
g3
(g4
g5
Vbusiness
p7722
tp7723
Rp7724
atp7725
a(S'IDGagne'
p7726
(lp7727
(lp7728
(lp7729
(lp7730
g3
(g4
g5
Vtechnology
p7731
tp7732
Rp7733
atp7734
a(S'neetukyazoonga'
p7735
(lp7736
(lp7737
g3
(g4
g5
Vbangalore-india
p7738
tp7739
Rp7740
ag3
(g4
g5
Vmumbai-india
p7741
tp7742
Rp7743
a(lp7744
(lp7745
g3
(g4
g5
Vtechnology
p7746
tp7747
Rp7748
atp7749
a(S'twilio'
p7750
(lp7751
g3
(g4
g5
Vsan-francisco-usa
p7752
tp7753
Rp7754
a(lp7755
g3
(g4
g5
Vsan-francisco-usa
p7756
tp7757
Rp7758
a(lp7759
g3
(g4
g5
Vsan-francisco-usa
p7760
tp7761
Rp7762
a(lp7763
g3
(g4
g5
Vtechnology
p7764
tp7765
Rp7766
atp7767
a(S'igorbobic'
p7768
(lp7769
g3
(g4
g5
Vnew-york-usa
p7770
tp7771
Rp7772
a(lp7773
(lp7774
(lp7775
g3
(g4
g5
Vpolitics
p7776
tp7777
Rp7778
atp7779
a(S'richardbranson'
p7780
(lp7781
(lp7782
(lp7783
(lp7784
g3
(g4
g5
Vbusiness
p7785
tp7786
Rp7787
atp7788
a(S'sidharth_shukla'
p7789
(lp7790
(lp7791
g3
(g4
g5
Vbangalore-india
p7792
tp7793
Rp7794
ag3
(g4
g5
Vmumbai-india
p7795
tp7796
Rp7797
a(lp7798
(lp7799
g3
(g4
g5
Ventertainment
p7800
tp7801
Rp7802
atp7803
a(S'SenatorBaldwin'
p7804
(lp7805
g3
(g4
g5
Vnew-york-usa
p7806
tp7807
Rp7808
a(lp7809
g3
(g4
g5
Vsan-francisco-usa
p7810
tp7811
Rp7812
ag3
(g4
g5
Vnew-york-usa
p7813
tp7814
Rp7815
ag3
(g4
g5
Vboston-usa
p7816
tp7817
Rp7818
a(lp7819
(lp7820
g3
(g4
g5
Vpolitics
p7821
tp7822
Rp7823
atp7824
a(S'YahooSportsNBA'
p7825
(lp7826
(lp7827
(lp7828
g3
(g4
g5
Vsan-francisco-usa
p7829
tp7830
Rp7831
a(lp7832
g3
(g4
g5
Vsports
p7833
tp7834
Rp7835
atp7836
a(S'lynnlaaa'
p7837
(lp7838
(lp7839
(lp7840
g3
(g4
g5
Vsan-francisco-usa
p7841
tp7842
Rp7843
a(lp7844
g3
(g4
g5
Vtechnology
p7845
tp7846
Rp7847
atp7848
a(S'katyperry'
p7849
(lp7850
(lp7851
(lp7852
(lp7853
g3
(g4
g5
Ventertainment
p7854
tp7855
Rp7856
atp7857
a(S'JoeLieberman'
p7858
(lp7859
(lp7860
g3
(g4
g5
Vsan-francisco-usa
p7861
tp7862
Rp7863
ag3
(g4
g5
Vnew-york-usa
p7864
tp7865
Rp7866
ag3
(g4
g5
Vboston-usa
p7867
tp7868
Rp7869
a(lp7870
(lp7871
g3
(g4
g5
Vpolitics
p7872
tp7873
Rp7874
atp7875
a(S'PiyushGoyalBJP'
p7876
(lp7877
(lp7878
g3
(g4
g5
Vbangalore-india
p7879
tp7880
Rp7881
ag3
(g4
g5
Vmumbai-india
p7882
tp7883
Rp7884
a(lp7885
(lp7886
g3
(g4
g5
Vpolitics
p7887
tp7888
Rp7889
atp7890
a(S'rmartinelli'
p7891
(lp7892
(lp7893
(lp7894
(lp7895
g3
(g4
g5
Vpolitics
p7896
tp7897
Rp7898
atp7899
a(S'IAMQUEENLATIFAH'
p7900
(lp7901
(lp7902
(lp7903
(lp7904
g3
(g4
g5
Ventertainment
p7905
tp7906
Rp7907
atp7908
a(S'CYpresidency'
p7909
(lp7910
(lp7911
(lp7912
(lp7913
g3
(g4
g5
Vpolitics
p7914
tp7915
Rp7916
atp7917
a(S'davemorin'
p7918
(lp7919
g3
(g4
g5
Vsan-francisco-usa
p7920
tp7921
Rp7922
a(lp7923
g3
(g4
g5
Vsan-francisco-usa
p7924
tp7925
Rp7926
a(lp7927
g3
(g4
g5
Vsan-francisco-usa
p7928
tp7929
Rp7930
a(lp7931
g3
(g4
g5
Vtechnology
p7932
tp7933
Rp7934
atp7935
a(S'PSOE'
p7936
(lp7937
(lp7938
(lp7939
(lp7940
g3
(g4
g5
Vpolitics
p7941
tp7942
Rp7943
atp7944
a(S'fucktwtr'
p7945
(lp7946
(lp7947
(lp7948
(lp7949
g3
(g4
g5
Vtechnology
p7950
tp7951
Rp7952
ag3
(g4
g5
Vbusiness
p7953
tp7954
Rp7955
atp7956
a(S'mrvincecarter15'
p7957
(lp7958
(lp7959
g3
(g4
g5
Vsan-francisco-usa
p7960
tp7961
Rp7962
ag3
(g4
g5
Vnew-york-usa
p7963
tp7964
Rp7965
ag3
(g4
g5
Vboston-usa
p7966
tp7967
Rp7968
a(lp7969
(lp7970
g3
(g4
g5
Vsports
p7971
tp7972
Rp7973
atp7974
a(S'SteveForbesCEO'
p7975
(lp7976
(lp7977
(lp7978
g3
(g4
g5
Vnew-york-usa
p7979
tp7980
Rp7981
a(lp7982
g3
(g4
g5
Vbusiness
p7983
tp7984
Rp7985
atp7986
a(S'sonar'
p7987
(lp7988
(lp7989
g3
(g4
g5
Vnew-york-usa
p7990
tp7991
Rp7992
a(lp7993
g3
(g4
g5
Vnew-york-usa
p7994
tp7995
Rp7996
a(lp7997
g3
(g4
g5
Vtechnology
p7998
tp7999
Rp8000
atp8001
a(S'russellcrowe'
p8002
(lp8003
(lp8004
(lp8005
(lp8006
g3
(g4
g5
Ventertainment
p8007
tp8008
Rp8009
atp8010
a(S'Jim_Moran'
p8011
(lp8012
(lp8013
g3
(g4
g5
Vsan-francisco-usa
p8014
tp8015
Rp8016
ag3
(g4
g5
Vnew-york-usa
p8017
tp8018
Rp8019
ag3
(g4
g5
Vboston-usa
p8020
tp8021
Rp8022
a(lp8023
(lp8024
g3
(g4
g5
Vpolitics
p8025
tp8026
Rp8027
atp8028
a(S'iambigbaby11'
p8029
(lp8030
g3
(g4
g5
Vsan-francisco-usa
p8031
tp8032
Rp8033
a(lp8034
g3
(g4
g5
Vsan-francisco-usa
p8035
tp8036
Rp8037
ag3
(g4
g5
Vnew-york-usa
p8038
tp8039
Rp8040
ag3
(g4
g5
Vboston-usa
p8041
tp8042
Rp8043
a(lp8044
g3
(g4
g5
Vsan-francisco-usa
p8045
tp8046
Rp8047
a(lp8048
g3
(g4
g5
Vsports
p8049
tp8050
Rp8051
atp8052
a(S'presedinte_md'
p8053
(lp8054
(lp8055
(lp8056
(lp8057
g3
(g4
g5
Vpolitics
p8058
tp8059
Rp8060
atp8061
a(S'sidmallya'
p8062
(lp8063
(lp8064
g3
(g4
g5
Vbangalore-india
p8065
tp8066
Rp8067
ag3
(g4
g5
Vmumbai-india
p8068
tp8069
Rp8070
a(lp8071
(lp8072
g3
(g4
g5
Vbusiness
p8073
tp8074
Rp8075
atp8076
a(S'PrakashJavdekar'
p8077
(lp8078
(lp8079
g3
(g4
g5
Vbangalore-india
p8080
tp8081
Rp8082
ag3
(g4
g5
Vmumbai-india
p8083
tp8084
Rp8085
a(lp8086
g3
(g4
g5
Vmumbai-india
p8087
tp8088
Rp8089
a(lp8090
g3
(g4
g5
Vpolitics
p8091
tp8092
Rp8093
atp8094
a(S'ColleenMNelson'
p8095
(lp8096
g3
(g4
g5
Vnew-york-usa
p8097
tp8098
Rp8099
a(lp8100
(lp8101
(lp8102
g3
(g4
g5
Vpolitics
p8103
tp8104
Rp8105
atp8106
a(S'deespeak'
p8107
(lp8108
(lp8109
(lp8110
(lp8111
g3
(g4
g5
Ventertainment
p8112
tp8113
Rp8114
atp8115
a(S'Devon_Smith28'
p8116
(lp8117
(lp8118
g3
(g4
g5
Vbangalore-india
p8119
tp8120
Rp8121
ag3
(g4
g5
Vmumbai-india
p8122
tp8123
Rp8124
a(lp8125
(lp8126
g3
(g4
g5
Vsports
p8127
tp8128
Rp8129
atp8130
a(S'techledes'
p8131
(lp8132
(lp8133
(lp8134
g3
(g4
g5
Vsan-francisco-usa
p8135
tp8136
Rp8137
a(lp8138
g3
(g4
g5
Vtechnology
p8139
tp8140
Rp8141
atp8142
a(S'AITCofficial'
p8143
(lp8144
(lp8145
g3
(g4
g5
Vbangalore-india
p8146
tp8147
Rp8148
ag3
(g4
g5
Vmumbai-india
p8149
tp8150
Rp8151
a(lp8152
(lp8153
g3
(g4
g5
Vpolitics
p8154
tp8155
Rp8156
atp8157
a(S'TheAtlanticTECH'
p8158
(lp8159
g3
(g4
g5
Vnew-york-usa
p8160
tp8161
Rp8162
a(lp8163
(lp8164
(lp8165
g3
(g4
g5
Vtechnology
p8166
tp8167
Rp8168
atp8169
a(S'robboerman'
p8170
(lp8171
(lp8172
(lp8173
(lp8174
g3
(g4
g5
Vtechnology
p8175
tp8176
Rp8177
ag3
(g4
g5
Vbusiness
p8178
tp8179
Rp8180
atp8181
a(S'SenJackReed'
p8182
(lp8183
(lp8184
g3
(g4
g5
Vsan-francisco-usa
p8185
tp8186
Rp8187
ag3
(g4
g5
Vnew-york-usa
p8188
tp8189
Rp8190
ag3
(g4
g5
Vboston-usa
p8191
tp8192
Rp8193
a(lp8194
(lp8195
g3
(g4
g5
Vpolitics
p8196
tp8197
Rp8198
atp8199
a(S'Palaashventures'
p8200
(lp8201
g3
(g4
g5
Vmumbai-india
p8202
tp8203
Rp8204
a(lp8205
(lp8206
g3
(g4
g5
Vmumbai-india
p8207
tp8208
Rp8209
a(lp8210
g3
(g4
g5
Vtechnology
p8211
tp8212
Rp8213
ag3
(g4
g5
Vbusiness
p8214
tp8215
Rp8216
atp8217
a(S'RepJimMatheson'
p8218
(lp8219
(lp8220
g3
(g4
g5
Vsan-francisco-usa
p8221
tp8222
Rp8223
ag3
(g4
g5
Vnew-york-usa
p8224
tp8225
Rp8226
ag3
(g4
g5
Vboston-usa
p8227
tp8228
Rp8229
a(lp8230
(lp8231
g3
(g4
g5
Vpolitics
p8232
tp8233
Rp8234
atp8235
a(S'SharmaKadambini'
p8236
(lp8237
g3
(g4
g5
Vmumbai-india
p8238
tp8239
Rp8240
a(lp8241
g3
(g4
g5
Vbangalore-india
p8242
tp8243
Rp8244
ag3
(g4
g5
Vmumbai-india
p8245
tp8246
Rp8247
a(lp8248
g3
(g4
g5
Vmumbai-india
p8249
tp8250
Rp8251
a(lp8252
g3
(g4
g5
Vpolitics
p8253
tp8254
Rp8255
atp8256
a(S'OmnivoreAgtech'
p8257
(lp8258
(lp8259
(lp8260
g3
(g4
g5
Vmumbai-india
p8261
tp8262
Rp8263
a(lp8264
g3
(g4
g5
Vtechnology
p8265
tp8266
Rp8267
ag3
(g4
g5
Vbusiness
p8268
tp8269
Rp8270
atp8271
a(S'landondonovan'
p8272
(lp8273
(lp8274
g3
(g4
g5
Vsan-francisco-usa
p8275
tp8276
Rp8277
ag3
(g4
g5
Vnew-york-usa
p8278
tp8279
Rp8280
ag3
(g4
g5
Vlondon-uk
p8281
tp8282
Rp8283
ag3
(g4
g5
Vboston-usa
p8284
tp8285
Rp8286
a(lp8287
(lp8288
g3
(g4
g5
Vsports
p8289
tp8290
Rp8291
atp8292
a(S'markthompsoncnn'
p8293
(lp8294
(lp8295
(lp8296
g3
(g4
g5
Vlondon-uk
p8297
tp8298
Rp8299
a(lp8300
g3
(g4
g5
Vbusiness
p8301
tp8302
Rp8303
atp8304
a(S'joejonas'
p8305
(lp8306
(lp8307
(lp8308
(lp8309
g3
(g4
g5
Ventertainment
p8310
tp8311
Rp8312
atp8313
a(S'JozyAltidore'
p8314
(lp8315
(lp8316
g3
(g4
g5
Vsan-francisco-usa
p8317
tp8318
Rp8319
ag3
(g4
g5
Vnew-york-usa
p8320
tp8321
Rp8322
ag3
(g4
g5
Vlondon-uk
p8323
tp8324
Rp8325
ag3
(g4
g5
Vboston-usa
p8326
tp8327
Rp8328
a(lp8329
(lp8330
g3
(g4
g5
Vsports
p8331
tp8332
Rp8333
atp8334
a(S'davidaxelrod'
p8335
(lp8336
(lp8337
(lp8338
(lp8339
g3
(g4
g5
Vpolitics
p8340
tp8341
Rp8342
atp8343
a(S'psteinhauserCNN'
p8344
(lp8345
g3
(g4
g5
Vnew-york-usa
p8346
tp8347
Rp8348
a(lp8349
(lp8350
(lp8351
g3
(g4
g5
Vpolitics
p8352
tp8353
Rp8354
atp8355
a(S'zoesaldana'
p8356
(lp8357
(lp8358
(lp8359
(lp8360
g3
(g4
g5
Ventertainment
p8361
tp8362
Rp8363
atp8364
a(S'KevinBohnCNN'
p8365
(lp8366
g3
(g4
g5
Vnew-york-usa
p8367
tp8368
Rp8369
a(lp8370
(lp8371
(lp8372
g3
(g4
g5
Vpolitics
p8373
tp8374
Rp8375
atp8376
a(S'RepMcClintock'
p8377
(lp8378
g3
(g4
g5
Vnew-york-usa
p8379
tp8380
Rp8381
a(lp8382
g3
(g4
g5
Vsan-francisco-usa
p8383
tp8384
Rp8385
ag3
(g4
g5
Vnew-york-usa
p8386
tp8387
Rp8388
ag3
(g4
g5
Vboston-usa
p8389
tp8390
Rp8391
a(lp8392
(lp8393
g3
(g4
g5
Vpolitics
p8394
tp8395
Rp8396
atp8397
a(S'KareenaMania'
p8398
(lp8399
(lp8400
g3
(g4
g5
Vbangalore-india
p8401
tp8402
Rp8403
ag3
(g4
g5
Vmumbai-india
p8404
tp8405
Rp8406
a(lp8407
g3
(g4
g5
Vmumbai-india
p8408
tp8409
Rp8410
a(lp8411
g3
(g4
g5
Ventertainment
p8412
tp8413
Rp8414
atp8415
a(S'cringely'
p8416
(lp8417
(lp8418
(lp8419
(lp8420
g3
(g4
g5
Vtechnology
p8421
tp8422
Rp8423
atp8424
a(S'jerrykerns'
p8425
(lp8426
(lp8427
(lp8428
(lp8429
g3
(g4
g5
Vbusiness
p8430
tp8431
Rp8432
atp8433
a(S'yuvadesh'
p8434
(lp8435
(lp8436
g3
(g4
g5
Vbangalore-india
p8437
tp8438
Rp8439
ag3
(g4
g5
Vmumbai-india
p8440
tp8441
Rp8442
a(lp8443
(lp8444
g3
(g4
g5
Vpolitics
p8445
tp8446
Rp8447
atp8448
a(S'ReformedBroker'
p8449
(lp8450
(lp8451
(lp8452
(lp8453
g3
(g4
g5
Vbusiness
p8454
tp8455
Rp8456
atp8457
a(S'MinPres'
p8458
(lp8459
(lp8460
(lp8461
(lp8462
g3
(g4
g5
Vpolitics
p8463
tp8464
Rp8465
atp8466
a(S'vgmac'
p8467
(lp8468
g3
(g4
g5
Vnew-york-usa
p8469
tp8470
Rp8471
a(lp8472
(lp8473
(lp8474
g3
(g4
g5
Vbusiness
p8475
tp8476
Rp8477
atp8478
a(S'IMKristenBell'
p8479
(lp8480
(lp8481
(lp8482
g3
(g4
g5
Vsan-francisco-usa
p8483
tp8484
Rp8485
a(lp8486
g3
(g4
g5
Ventertainment
p8487
tp8488
Rp8489
atp8490
a(S'WojYahooNBA'
p8491
(lp8492
g3
(g4
g5
Vnew-york-usa
p8493
tp8494
Rp8495
a(lp8496
(lp8497
(lp8498
g3
(g4
g5
Vsports
p8499
tp8500
Rp8501
atp8502
a(S'1MattHopkins'
p8503
(lp8504
g3
(g4
g5
Vlondon-uk
p8505
tp8506
Rp8507
a(lp8508
g3
(g4
g5
Vbangalore-india
p8509
tp8510
Rp8511
ag3
(g4
g5
Vmumbai-india
p8512
tp8513
Rp8514
a(lp8515
g3
(g4
g5
Vlondon-uk
p8516
tp8517
Rp8518
a(lp8519
g3
(g4
g5
Vbusiness
p8520
tp8521
Rp8522
atp8523
a(S'shaun_tait32'
p8524
(lp8525
(lp8526
g3
(g4
g5
Vbangalore-india
p8527
tp8528
Rp8529
ag3
(g4
g5
Vmumbai-india
p8530
tp8531
Rp8532
a(lp8533
(lp8534
g3
(g4
g5
Vsports
p8535
tp8536
Rp8537
atp8538
a(S'macon44'
p8539
(lp8540
g3
(g4
g5
Vnew-york-usa
p8541
tp8542
Rp8543
a(lp8544
(lp8545
(lp8546
g3
(g4
g5
Vtechnology
p8547
tp8548
Rp8549
atp8550
a(S'boniver'
p8551
(lp8552
(lp8553
(lp8554
(lp8555
g3
(g4
g5
Ventertainment
p8556
tp8557
Rp8558
atp8559
a(S'HamaraCongress'
p8560
(lp8561
(lp8562
g3
(g4
g5
Vbangalore-india
p8563
tp8564
Rp8565
ag3
(g4
g5
Vmumbai-india
p8566
tp8567
Rp8568
a(lp8569
(lp8570
g3
(g4
g5
Vpolitics
p8571
tp8572
Rp8573
atp8574
a(S'BethSchepens'
p8575
(lp8576
(lp8577
(lp8578
g3
(g4
g5
Vlondon-uk
p8579
tp8580
Rp8581
a(lp8582
g3
(g4
g5
Ventertainment
p8583
tp8584
Rp8585
atp8586
a(S'ImMananVohra'
p8587
(lp8588
(lp8589
g3
(g4
g5
Vbangalore-india
p8590
tp8591
Rp8592
ag3
(g4
g5
Vmumbai-india
p8593
tp8594
Rp8595
a(lp8596
(lp8597
g3
(g4
g5
Vsports
p8598
tp8599
Rp8600
atp8601
a(S'GordonEdes'
p8602
(lp8603
g3
(g4
g5
Vboston-usa
p8604
tp8605
Rp8606
a(lp8607
g3
(g4
g5
Vboston-usa
p8608
tp8609
Rp8610
a(lp8611
g3
(g4
g5
Vboston-usa
p8612
tp8613
Rp8614
a(lp8615
g3
(g4
g5
Vsports
p8616
tp8617
Rp8618
atp8619
a(S'PresYameen'
p8620
(lp8621
(lp8622
(lp8623
(lp8624
g3
(g4
g5
Vpolitics
p8625
tp8626
Rp8627
atp8628
a(S'RyanDempsterFDN'
p8629
(lp8630
(lp8631
g3
(g4
g5
Vsan-francisco-usa
p8632
tp8633
Rp8634
ag3
(g4
g5
Vnew-york-usa
p8635
tp8636
Rp8637
ag3
(g4
g5
Vboston-usa
p8638
tp8639
Rp8640
a(lp8641
(lp8642
g3
(g4
g5
Vsports
p8643
tp8644
Rp8645
atp8646
a(S'RepGuthrie'
p8647
(lp8648
(lp8649
g3
(g4
g5
Vsan-francisco-usa
p8650
tp8651
Rp8652
ag3
(g4
g5
Vnew-york-usa
p8653
tp8654
Rp8655
ag3
(g4
g5
Vboston-usa
p8656
tp8657
Rp8658
a(lp8659
(lp8660
g3
(g4
g5
Vpolitics
p8661
tp8662
Rp8663
atp8664
a(S'asliyoyo'
p8665
(lp8666
g3
(g4
g5
Vmumbai-india
p8667
tp8668
Rp8669
a(lp8670
g3
(g4
g5
Vbangalore-india
p8671
tp8672
Rp8673
ag3
(g4
g5
Vmumbai-india
p8674
tp8675
Rp8676
a(lp8677
g3
(g4
g5
Vmumbai-india
p8678
tp8679
Rp8680
a(lp8681
g3
(g4
g5
Ventertainment
p8682
tp8683
Rp8684
atp8685
a(S'klout'
p8686
(lp8687
(lp8688
g3
(g4
g5
Vsan-francisco-usa
p8689
tp8690
Rp8691
a(lp8692
g3
(g4
g5
Vsan-francisco-usa
p8693
tp8694
Rp8695
a(lp8696
g3
(g4
g5
Vtechnology
p8697
tp8698
Rp8699
atp8700
a(S'theamitsinghal'
p8701
(lp8702
(lp8703
g3
(g4
g5
Vbangalore-india
p8704
tp8705
Rp8706
ag3
(g4
g5
Vmumbai-india
p8707
tp8708
Rp8709
a(lp8710
g3
(g4
g5
Vsan-francisco-usa
p8711
tp8712
Rp8713
a(lp8714
g3
(g4
g5
Vtechnology
p8715
tp8716
Rp8717
atp8718
a(S'arrington'
p8719
(lp8720
(lp8721
(lp8722
g3
(g4
g5
Vsan-francisco-usa
p8723
tp8724
Rp8725
a(lp8726
g3
(g4
g5
Vtechnology
p8727
tp8728
Rp8729
ag3
(g4
g5
Vbusiness
p8730
tp8731
Rp8732
atp8733
a(S'GovernmentZA'
p8734
(lp8735
(lp8736
(lp8737
(lp8738
g3
(g4
g5
Vpolitics
p8739
tp8740
Rp8741
atp8742
a(S'peterlauria3'
p8743
(lp8744
(lp8745
(lp8746
g3
(g4
g5
Vnew-york-usa
p8747
tp8748
Rp8749
a(lp8750
g3
(g4
g5
Vtechnology
p8751
tp8752
Rp8753
atp8754
a(S'depechemode'
p8755
(lp8756
g3
(g4
g5
Vsan-francisco-usa
p8757
tp8758
Rp8759
a(lp8760
(lp8761
(lp8762
g3
(g4
g5
Ventertainment
p8763
tp8764
Rp8765
atp8766
a(S'AndersFoghR'
p8767
(lp8768
(lp8769
(lp8770
(lp8771
g3
(g4
g5
Vpolitics
p8772
tp8773
Rp8774
atp8775
a(S'mikewilke'
p8776
(lp8777
(lp8778
(lp8779
(lp8780
g3
(g4
g5
Vbusiness
p8781
tp8782
Rp8783
atp8784
a(S'jack_welch'
p8785
(lp8786
(lp8787
(lp8788
(lp8789
g3
(g4
g5
Vbusiness
p8790
tp8791
Rp8792
atp8793
a(S'thurrott'
p8794
(lp8795
(lp8796
(lp8797
(lp8798
g3
(g4
g5
Vtechnology
p8799
tp8800
Rp8801
atp8802
a(S'randyyeip'
p8803
(lp8804
g3
(g4
g5
Vnew-york-usa
p8805
tp8806
Rp8807
a(lp8808
(lp8809
g3
(g4
g5
Vnew-york-usa
p8810
tp8811
Rp8812
a(lp8813
g3
(g4
g5
Vpolitics
p8814
tp8815
Rp8816
atp8817
a(S'WSJdigits'
p8818
(lp8819
(lp8820
(lp8821
g3
(g4
g5
Vnew-york-usa
p8822
tp8823
Rp8824
a(lp8825
g3
(g4
g5
Vtechnology
p8826
tp8827
Rp8828
atp8829
a(S'AapYogendra'
p8830
(lp8831
g3
(g4
g5
Vmumbai-india
p8832
tp8833
Rp8834
a(lp8835
g3
(g4
g5
Vbangalore-india
p8836
tp8837
Rp8838
ag3
(g4
g5
Vmumbai-india
p8839
tp8840
Rp8841
a(lp8842
g3
(g4
g5
Vmumbai-india
p8843
tp8844
Rp8845
a(lp8846
g3
(g4
g5
Vpolitics
p8847
tp8848
Rp8849
atp8850
a(S'shariqueorg'
p8851
(lp8852
g3
(g4
g5
Vsan-francisco-usa
p8853
tp8854
Rp8855
a(lp8856
(lp8857
g3
(g4
g5
Vsan-francisco-usa
p8858
tp8859
Rp8860
a(lp8861
g3
(g4
g5
Vtechnology
p8862
tp8863
Rp8864
ag3
(g4
g5
Vbusiness
p8865
tp8866
Rp8867
atp8868
a(S'NicolasSarkozy'
p8869
(lp8870
(lp8871
(lp8872
(lp8873
g3
(g4
g5
Vpolitics
p8874
tp8875
Rp8876
atp8877
a(S'2States_FC'
p8878
(lp8879
(lp8880
g3
(g4
g5
Vbangalore-india
p8881
tp8882
Rp8883
ag3
(g4
g5
Vmumbai-india
p8884
tp8885
Rp8886
a(lp8887
(lp8888
g3
(g4
g5
Ventertainment
p8889
tp8890
Rp8891
atp8892
a(S'sampitroda'
p8893
(lp8894
(lp8895
g3
(g4
g5
Vbangalore-india
p8896
tp8897
Rp8898
ag3
(g4
g5
Vmumbai-india
p8899
tp8900
Rp8901
a(lp8902
(lp8903
g3
(g4
g5
Vpolitics
p8904
tp8905
Rp8906
ag3
(g4
g5
Vtechnology
p8907
tp8908
Rp8909
atp8910
a(S'Christieluge'
p8911
(lp8912
(lp8913
(lp8914
(lp8915
g3
(g4
g5
Vsports
p8916
tp8917
Rp8918
atp8919
a(S'Manilla'
p8920
(lp8921
g3
(g4
g5
Vnew-york-usa
p8922
tp8923
Rp8924
a(lp8925
g3
(g4
g5
Vnew-york-usa
p8926
tp8927
Rp8928
a(lp8929
g3
(g4
g5
Vnew-york-usa
p8930
tp8931
Rp8932
a(lp8933
g3
(g4
g5
Vtechnology
p8934
tp8935
Rp8936
atp8937
a(S'colea45'
p8938
(lp8939
g3
(g4
g5
Vnew-york-usa
p8940
tp8941
Rp8942
a(lp8943
g3
(g4
g5
Vsan-francisco-usa
p8944
tp8945
Rp8946
ag3
(g4
g5
Vnew-york-usa
p8947
tp8948
Rp8949
ag3
(g4
g5
Vboston-usa
p8950
tp8951
Rp8952
a(lp8953
(lp8954
g3
(g4
g5
Vsports
p8955
tp8956
Rp8957
atp8958
a(S'sunilalagh'
p8959
(lp8960
(lp8961
g3
(g4
g5
Vbangalore-india
p8962
tp8963
Rp8964
ag3
(g4
g5
Vmumbai-india
p8965
tp8966
Rp8967
a(lp8968
(lp8969
g3
(g4
g5
Vbusiness
p8970
tp8971
Rp8972
atp8973
a(S'charlie_white'
p8974
(lp8975
(lp8976
(lp8977
(lp8978
g3
(g4
g5
Vtechnology
p8979
tp8980
Rp8981
atp8982
a(S'JonErlichman'
p8983
(lp8984
(lp8985
(lp8986
g3
(g4
g5
Vsan-francisco-usa
p8987
tp8988
Rp8989
a(lp8990
g3
(g4
g5
Vtechnology
p8991
tp8992
Rp8993
atp8994
a(S'kanyewest'
p8995
(lp8996
(lp8997
(lp8998
(lp8999
g3
(g4
g5
Ventertainment
p9000
tp9001
Rp9002
atp9003
a(S'PraveshRana26'
p9004
(lp9005
(lp9006
g3
(g4
g5
Vbangalore-india
p9007
tp9008
Rp9009
ag3
(g4
g5
Vmumbai-india
p9010
tp9011
Rp9012
a(lp9013
g3
(g4
g5
Vmumbai-india
p9014
tp9015
Rp9016
a(lp9017
g3
(g4
g5
Ventertainment
p9018
tp9019
Rp9020
atp9021
a(S'euHvR'
p9022
(lp9023
(lp9024
(lp9025
(lp9026
g3
(g4
g5
Vpolitics
p9027
tp9028
Rp9029
atp9030
a(S'elvainadine'
p9031
(lp9032
g3
(g4
g5
Vnew-york-usa
p9033
tp9034
Rp9035
a(lp9036
(lp9037
g3
(g4
g5
Vnew-york-usa
p9038
tp9039
Rp9040
a(lp9041
g3
(g4
g5
Ventertainment
p9042
tp9043
Rp9044
atp9045
a(S'HuffPostBiz'
p9046
(lp9047
(lp9048
(lp9049
(lp9050
g3
(g4
g5
Vbusiness
p9051
tp9052
Rp9053
atp9054
a(S'DAVIDprice14'
p9055
(lp9056
(lp9057
g3
(g4
g5
Vsan-francisco-usa
p9058
tp9059
Rp9060
ag3
(g4
g5
Vnew-york-usa
p9061
tp9062
Rp9063
ag3
(g4
g5
Vboston-usa
p9064
tp9065
Rp9066
a(lp9067
(lp9068
g3
(g4
g5
Vsports
p9069
tp9070
Rp9071
atp9072
a(S'_saadshafqat'
p9073
(lp9074
(lp9075
g3
(g4
g5
Vbangalore-india
p9076
tp9077
Rp9078
ag3
(g4
g5
Vmumbai-india
p9079
tp9080
Rp9081
a(lp9082
(lp9083
g3
(g4
g5
Vsports
p9084
tp9085
Rp9086
atp9087
a(S'VinodKhanna'
p9088
(lp9089
(lp9090
g3
(g4
g5
Vbangalore-india
p9091
tp9092
Rp9093
ag3
(g4
g5
Vmumbai-india
p9094
tp9095
Rp9096
a(lp9097
(lp9098
g3
(g4
g5
Ventertainment
p9099
tp9100
Rp9101
atp9102
a(S'PMOIndia'
p9103
(lp9104
g3
(g4
g5
Vmumbai-india
p9105
tp9106
Rp9107
a(lp9108
(lp9109
g3
(g4
g5
Vmumbai-india
p9110
tp9111
Rp9112
a(lp9113
g3
(g4
g5
Vpolitics
p9114
tp9115
Rp9116
atp9117
a(S'SeekingAlphaTek'
p9118
(lp9119
(lp9120
(lp9121
(lp9122
g3
(g4
g5
Vtechnology
p9123
tp9124
Rp9125
atp9126
a(S'wjeffmartin'
p9127
(lp9128
(lp9129
(lp9130
(lp9131
g3
(g4
g5
Vtechnology
p9132
tp9133
Rp9134
ag3
(g4
g5
Vbusiness
p9135
tp9136
Rp9137
atp9138
a(S'IamArrtiPuuri'
p9139
(lp9140
(lp9141
g3
(g4
g5
Vbangalore-india
p9142
tp9143
Rp9144
ag3
(g4
g5
Vmumbai-india
p9145
tp9146
Rp9147
a(lp9148
(lp9149
g3
(g4
g5
Ventertainment
p9150
tp9151
Rp9152
atp9153
a(S'wsjrock'
p9154
(lp9155
(lp9156
(lp9157
g3
(g4
g5
Vnew-york-usa
p9158
tp9159
Rp9160
a(lp9161
g3
(g4
g5
Ventertainment
p9162
tp9163
Rp9164
atp9165
a(S'SinghaniaGautam'
p9166
(lp9167
g3
(g4
g5
Vmumbai-india
p9168
tp9169
Rp9170
a(lp9171
g3
(g4
g5
Vbangalore-india
p9172
tp9173
Rp9174
ag3
(g4
g5
Vmumbai-india
p9175
tp9176
Rp9177
a(lp9178
g3
(g4
g5
Vmumbai-india
p9179
tp9180
Rp9181
a(lp9182
g3
(g4
g5
Vbusiness
p9183
tp9184
Rp9185
atp9186
a(S'RepScottPeters'
p9187
(lp9188
g3
(g4
g5
Vsan-francisco-usa
p9189
tp9190
Rp9191
a(lp9192
g3
(g4
g5
Vsan-francisco-usa
p9193
tp9194
Rp9195
ag3
(g4
g5
Vnew-york-usa
p9196
tp9197
Rp9198
ag3
(g4
g5
Vboston-usa
p9199
tp9200
Rp9201
a(lp9202
(lp9203
g3
(g4
g5
Vpolitics
p9204
tp9205
Rp9206
atp9207
a(S'SAfridiOfficial'
p9208
(lp9209
(lp9210
g3
(g4
g5
Vbangalore-india
p9211
tp9212
Rp9213
ag3
(g4
g5
Vmumbai-india
p9214
tp9215
Rp9216
a(lp9217
(lp9218
g3
(g4
g5
Vsports
p9219
tp9220
Rp9221
atp9222
a(S'KerrySOMalley'
p9223
(lp9224
g3
(g4
g5
Vnew-york-usa
p9225
tp9226
Rp9227
a(lp9228
(lp9229
(lp9230
g3
(g4
g5
Vbusiness
p9231
tp9232
Rp9233
atp9234
a(S'HNY'
p9235
(lp9236
(lp9237
g3
(g4
g5
Vbangalore-india
p9238
tp9239
Rp9240
ag3
(g4
g5
Vmumbai-india
p9241
tp9242
Rp9243
a(lp9244
(lp9245
g3
(g4
g5
Ventertainment
p9246
tp9247
Rp9248
atp9249
a(S'CBSMoneyWatch'
p9250
(lp9251
(lp9252
(lp9253
g3
(g4
g5
Vnew-york-usa
p9254
tp9255
Rp9256
a(lp9257
g3
(g4
g5
Vbusiness
p9258
tp9259
Rp9260
atp9261
a(S'skillshare'
p9262
(lp9263
(lp9264
g3
(g4
g5
Vnew-york-usa
p9265
tp9266
Rp9267
a(lp9268
g3
(g4
g5
Vnew-york-usa
p9269
tp9270
Rp9271
a(lp9272
g3
(g4
g5
Vtechnology
p9273
tp9274
Rp9275
atp9276
a(S'teamreboot'
p9277
(lp9278
g3
(g4
g5
Vnew-york-usa
p9279
tp9280
Rp9281
a(lp9282
(lp9283
g3
(g4
g5
Vnew-york-usa
p9284
tp9285
Rp9286
a(lp9287
g3
(g4
g5
Vtechnology
p9288
tp9289
Rp9290
ag3
(g4
g5
Vbusiness
p9291
tp9292
Rp9293
atp9294
a(S'RepBrianHiggins'
p9295
(lp9296
g3
(g4
g5
Vnew-york-usa
p9297
tp9298
Rp9299
a(lp9300
(lp9301
(lp9302
g3
(g4
g5
Vpolitics
p9303
tp9304
Rp9305
atp9306
a(S'BJPManipur'
p9307
(lp9308
(lp9309
g3
(g4
g5
Vbangalore-india
p9310
tp9311
Rp9312
ag3
(g4
g5
Vmumbai-india
p9313
tp9314
Rp9315
a(lp9316
(lp9317
g3
(g4
g5
Vpolitics
p9318
tp9319
Rp9320
atp9321
a(S'boogiecousins'
p9322
(lp9323
g3
(g4
g5
Vnew-york-usa
p9324
tp9325
Rp9326
a(lp9327
g3
(g4
g5
Vsan-francisco-usa
p9328
tp9329
Rp9330
ag3
(g4
g5
Vnew-york-usa
p9331
tp9332
Rp9333
ag3
(g4
g5
Vboston-usa
p9334
tp9335
Rp9336
a(lp9337
(lp9338
g3
(g4
g5
Vsports
p9339
tp9340
Rp9341
atp9342
a(S'RepRonPaul'
p9343
(lp9344
(lp9345
g3
(g4
g5
Vsan-francisco-usa
p9346
tp9347
Rp9348
ag3
(g4
g5
Vnew-york-usa
p9349
tp9350
Rp9351
ag3
(g4
g5
Vboston-usa
p9352
tp9353
Rp9354
a(lp9355
(lp9356
g3
(g4
g5
Vpolitics
p9357
tp9358
Rp9359
atp9360
a(S'jrcelski'
p9361
(lp9362
(lp9363
(lp9364
(lp9365
g3
(g4
g5
Vsports
p9366
tp9367
Rp9368
atp9369
a(S'RyanRottman'
p9370
(lp9371
(lp9372
(lp9373
g3
(g4
g5
Vsan-francisco-usa
p9374
tp9375
Rp9376
a(lp9377
g3
(g4
g5
Ventertainment
p9378
tp9379
Rp9380
atp9381
a(S'yoonrob'
p9382
(lp9383
g3
(g4
g5
Vnew-york-usa
p9384
tp9385
Rp9386
a(lp9387
(lp9388
g3
(g4
g5
Vsan-francisco-usa
p9389
tp9390
Rp9391
ag3
(g4
g5
Vnew-york-usa
p9392
tp9393
Rp9394
ag3
(g4
g5
Vboston-usa
p9395
tp9396
Rp9397
a(lp9398
g3
(g4
g5
Vpolitics
p9399
tp9400
Rp9401
atp9402
a(S'BrendanTaylor86'
p9403
(lp9404
(lp9405
g3
(g4
g5
Vbangalore-india
p9406
tp9407
Rp9408
ag3
(g4
g5
Vmumbai-india
p9409
tp9410
Rp9411
a(lp9412
(lp9413
g3
(g4
g5
Vsports
p9414
tp9415
Rp9416
atp9417
a(S'JeffFletcherOCR'
p9418
(lp9419
(lp9420
(lp9421
g3
(g4
g5
Vsan-francisco-usa
p9422
tp9423
Rp9424
a(lp9425
g3
(g4
g5
Vsports
p9426
tp9427
Rp9428
atp9429
a(S'SI_PeterKing'
p9430
(lp9431
(lp9432
(lp9433
(lp9434
g3
(g4
g5
Vsports
p9435
tp9436
Rp9437
atp9438
a(S'GreenDay'
p9439
(lp9440
g3
(g4
g5
Vsan-francisco-usa
p9441
tp9442
Rp9443
a(lp9444
(lp9445
g3
(g4
g5
Vsan-francisco-usa
p9446
tp9447
Rp9448
a(lp9449
g3
(g4
g5
Ventertainment
p9450
tp9451
Rp9452
atp9453
a(S'tonyfernandes'
p9454
(lp9455
(lp9456
g3
(g4
g5
Vbangalore-india
p9457
tp9458
Rp9459
ag3
(g4
g5
Vmumbai-india
p9460
tp9461
Rp9462
a(lp9463
(lp9464
g3
(g4
g5
Vbusiness
p9465
tp9466
Rp9467
atp9468
a(S'dcbigjohn'
p9469
(lp9470
(lp9471
g3
(g4
g5
Vsan-francisco-usa
p9472
tp9473
Rp9474
ag3
(g4
g5
Vnew-york-usa
p9475
tp9476
Rp9477
ag3
(g4
g5
Vboston-usa
p9478
tp9479
Rp9480
a(lp9481
(lp9482
g3
(g4
g5
Vpolitics
p9483
tp9484
Rp9485
atp9486
a(S'OnlineCFO'
p9487
(lp9488
(lp9489
(lp9490
g3
(g4
g5
Vsan-francisco-usa
p9491
tp9492
Rp9493
ag3
(g4
g5
Vnew-york-usa
p9494
tp9495
Rp9496
ag3
(g4
g5
Vboston-usa
p9497
tp9498
Rp9499
a(lp9500
g3
(g4
g5
Vbusiness
p9501
tp9502
Rp9503
atp9504
a(S'RBlumenstein'
p9505
(lp9506
(lp9507
(lp9508
(lp9509
g3
(g4
g5
Vbusiness
p9510
tp9511
Rp9512
atp9513
a(S'SenatorHeitkamp'
p9514
(lp9515
(lp9516
g3
(g4
g5
Vsan-francisco-usa
p9517
tp9518
Rp9519
ag3
(g4
g5
Vnew-york-usa
p9520
tp9521
Rp9522
ag3
(g4
g5
Vboston-usa
p9523
tp9524
Rp9525
a(lp9526
(lp9527
g3
(g4
g5
Vpolitics
p9528
tp9529
Rp9530
atp9531
a(S'evanspiegel'
p9532
(lp9533
g3
(g4
g5
Vsan-francisco-usa
p9534
tp9535
Rp9536
a(lp9537
(lp9538
g3
(g4
g5
Vsan-francisco-usa
p9539
tp9540
Rp9541
a(lp9542
g3
(g4
g5
Vtechnology
p9543
tp9544
Rp9545
ag3
(g4
g5
Vbusiness
p9546
tp9547
Rp9548
atp9549
a(S'Ileana_Official'
p9550
(lp9551
(lp9552
g3
(g4
g5
Vbangalore-india
p9553
tp9554
Rp9555
ag3
(g4
g5
Vmumbai-india
p9556
tp9557
Rp9558
a(lp9559
(lp9560
g3
(g4
g5
Ventertainment
p9561
tp9562
Rp9563
atp9564
a(S'GabbyGiffords'
p9565
(lp9566
g3
(g4
g5
Vsan-francisco-usa
p9567
tp9568
Rp9569
a(lp9570
g3
(g4
g5
Vsan-francisco-usa
p9571
tp9572
Rp9573
ag3
(g4
g5
Vnew-york-usa
p9574
tp9575
Rp9576
ag3
(g4
g5
Vboston-usa
p9577
tp9578
Rp9579
a(lp9580
(lp9581
g3
(g4
g5
Vpolitics
p9582
tp9583
Rp9584
atp9585
a(S'damianpaletta'
p9586
(lp9587
g3
(g4
g5
Vnew-york-usa
p9588
tp9589
Rp9590
a(lp9591
(lp9592
(lp9593
g3
(g4
g5
Vbusiness
p9594
tp9595
Rp9596
atp9597
a(S'thisisdspan'
p9598
(lp9599
(lp9600
g3
(g4
g5
Vsan-francisco-usa
p9601
tp9602
Rp9603
ag3
(g4
g5
Vnew-york-usa
p9604
tp9605
Rp9606
ag3
(g4
g5
Vboston-usa
p9607
tp9608
Rp9609
a(lp9610
(lp9611
g3
(g4
g5
Vsports
p9612
tp9613
Rp9614
atp9615
a(S'sbikh'
p9616
(lp9617
g3
(g4
g5
Vmumbai-india
p9618
tp9619
Rp9620
a(lp9621
g3
(g4
g5
Vbangalore-india
p9622
tp9623
Rp9624
ag3
(g4
g5
Vmumbai-india
p9625
tp9626
Rp9627
a(lp9628
g3
(g4
g5
Vmumbai-india
p9629
tp9630
Rp9631
a(lp9632
g3
(g4
g5
Vtechnology
p9633
tp9634
Rp9635
atp9636
a(S'patrick_kidd'
p9637
(lp9638
(lp9639
g3
(g4
g5
Vbangalore-india
p9640
tp9641
Rp9642
ag3
(g4
g5
Vmumbai-india
p9643
tp9644
Rp9645
a(lp9646
(lp9647
g3
(g4
g5
Vsports
p9648
tp9649
Rp9650
atp9651
a(S'nicoleleeCNET'
p9652
(lp9653
g3
(g4
g5
Vsan-francisco-usa
p9654
tp9655
Rp9656
a(lp9657
(lp9658
g3
(g4
g5
Vsan-francisco-usa
p9659
tp9660
Rp9661
a(lp9662
g3
(g4
g5
Vtechnology
p9663
tp9664
Rp9665
atp9666
a(S'YSRCParty'
p9667
(lp9668
(lp9669
g3
(g4
g5
Vbangalore-india
p9670
tp9671
Rp9672
ag3
(g4
g5
Vmumbai-india
p9673
tp9674
Rp9675
a(lp9676
(lp9677
g3
(g4
g5
Vpolitics
p9678
tp9679
Rp9680
atp9681
a(S'MeGovernment'
p9682
(lp9683
(lp9684
(lp9685
(lp9686
g3
(g4
g5
Vpolitics
p9687
tp9688
Rp9689
atp9690
a(S'OsmanSamiuddin'
p9691
(lp9692
(lp9693
g3
(g4
g5
Vbangalore-india
p9694
tp9695
Rp9696
ag3
(g4
g5
Vmumbai-india
p9697
tp9698
Rp9699
a(lp9700
(lp9701
g3
(g4
g5
Vsports
p9702
tp9703
Rp9704
atp9705
a(S'rangeva'
p9706
(lp9707
(lp9708
(lp9709
(lp9710
g3
(g4
g5
Vtechnology
p9711
tp9712
Rp9713
ag3
(g4
g5
Vbusiness
p9714
tp9715
Rp9716
atp9717
a(S'BillGates'
p9718
(lp9719
(lp9720
g3
(g4
g5
Vbangalore-india
p9721
tp9722
Rp9723
ag3
(g4
g5
Vmumbai-india
p9724
tp9725
Rp9726
a(lp9727
(lp9728
g3
(g4
g5
Vtechnology
p9729
tp9730
Rp9731
ag3
(g4
g5
Vbusiness
p9732
tp9733
Rp9734
atp9735
a(S'greivisvasquez'
p9736
(lp9737
g3
(g4
g5
Vnew-york-usa
p9738
tp9739
Rp9740
a(lp9741
g3
(g4
g5
Vsan-francisco-usa
p9742
tp9743
Rp9744
ag3
(g4
g5
Vnew-york-usa
p9745
tp9746
Rp9747
ag3
(g4
g5
Vboston-usa
p9748
tp9749
Rp9750
a(lp9751
(lp9752
g3
(g4
g5
Vsports
p9753
tp9754
Rp9755
atp9756
a(S'ReggieBush'
p9757
(lp9758
(lp9759
(lp9760
(lp9761
g3
(g4
g5
Ventertainment
p9762
tp9763
Rp9764
atp9765
a(S'ITValueCreator'
p9766
(lp9767
(lp9768
(lp9769
(lp9770
g3
(g4
g5
Vtechnology
p9771
tp9772
Rp9773
ag3
(g4
g5
Vbusiness
p9774
tp9775
Rp9776
atp9777
a(S'Reddy'
p9778
(lp9779
(lp9780
(lp9781
(lp9782
g3
(g4
g5
Vbusiness
p9783
tp9784
Rp9785
atp9786
a(S'WisdenIndia'
p9787
(lp9788
(lp9789
g3
(g4
g5
Vbangalore-india
p9790
tp9791
Rp9792
ag3
(g4
g5
Vmumbai-india
p9793
tp9794
Rp9795
a(lp9796
(lp9797
g3
(g4
g5
Vsports
p9798
tp9799
Rp9800
atp9801
a(S'YahooDevilBall'
p9802
(lp9803
(lp9804
(lp9805
(lp9806
g3
(g4
g5
Vsports
p9807
tp9808
Rp9809
atp9810
a(S'WarrenBuffett'
p9811
(lp9812
(lp9813
g3
(g4
g5
Vbangalore-india
p9814
tp9815
Rp9816
ag3
(g4
g5
Vmumbai-india
p9817
tp9818
Rp9819
a(lp9820
(lp9821
g3
(g4
g5
Vbusiness
p9822
tp9823
Rp9824
atp9825
a(S'jjschatz'
p9826
(lp9827
(lp9828
g3
(g4
g5
Vsan-francisco-usa
p9829
tp9830
Rp9831
ag3
(g4
g5
Vnew-york-usa
p9832
tp9833
Rp9834
ag3
(g4
g5
Vboston-usa
p9835
tp9836
Rp9837
a(lp9838
(lp9839
g3
(g4
g5
Vpolitics
p9840
tp9841
Rp9842
atp9843
a(S'iamwill'
p9844
(lp9845
(lp9846
(lp9847
(lp9848
g3
(g4
g5
Ventertainment
p9849
tp9850
Rp9851
atp9852
a(S'TheRajKundra'
p9853
(lp9854
(lp9855
g3
(g4
g5
Vbangalore-india
p9856
tp9857
Rp9858
ag3
(g4
g5
Vmumbai-india
p9859
tp9860
Rp9861
a(lp9862
(lp9863
g3
(g4
g5
Vbusiness
p9864
tp9865
Rp9866
atp9867
a(S'RonBrownstein'
p9868
(lp9869
(lp9870
(lp9871
(lp9872
g3
(g4
g5
Vpolitics
p9873
tp9874
Rp9875
atp9876
a(S'daveburdick'
p9877
(lp9878
g3
(g4
g5
Vsan-francisco-usa
p9879
tp9880
Rp9881
a(lp9882
(lp9883
(lp9884
g3
(g4
g5
Ventertainment
p9885
tp9886
Rp9887
atp9888
a(S'Actress_Asin'
p9889
(lp9890
(lp9891
g3
(g4
g5
Vbangalore-india
p9892
tp9893
Rp9894
ag3
(g4
g5
Vmumbai-india
p9895
tp9896
Rp9897
a(lp9898
(lp9899
g3
(g4
g5
Ventertainment
p9900
tp9901
Rp9902
atp9903
a(S'rokornot'
p9904
(lp9905
(lp9906
g3
(g4
g5
Vsan-francisco-usa
p9907
tp9908
Rp9909
ag3
(g4
g5
Vnew-york-usa
p9910
tp9911
Rp9912
ag3
(g4
g5
Vboston-usa
p9913
tp9914
Rp9915
a(lp9916
g3
(g4
g5
Vsan-francisco-usa
p9917
tp9918
Rp9919
a(lp9920
g3
(g4
g5
Vsports
p9921
tp9922
Rp9923
atp9924
a(S'CarmenSense'
p9925
(lp9926
(lp9927
(lp9928
g3
(g4
g5
Vnew-york-usa
p9929
tp9930
Rp9931
a(lp9932
g3
(g4
g5
Vbusiness
p9933
tp9934
Rp9935
atp9936
a(S'NMenonRao'
p9937
(lp9938
(lp9939
g3
(g4
g5
Vbangalore-india
p9940
tp9941
Rp9942
ag3
(g4
g5
Vmumbai-india
p9943
tp9944
Rp9945
a(lp9946
(lp9947
g3
(g4
g5
Vpolitics
p9948
tp9949
Rp9950
atp9951
a(S'ItsStephRice'
p9952
(lp9953
g3
(g4
g5
Vbangalore-india
p9954
tp9955
Rp9956
a(lp9957
(lp9958
(lp9959
g3
(g4
g5
Vsports
p9960
tp9961
Rp9962
atp9963
a(S'dkberman'
p9964
(lp9965
(lp9966
(lp9967
g3
(g4
g5
Vnew-york-usa
p9968
tp9969
Rp9970
a(lp9971
g3
(g4
g5
Vbusiness
p9972
tp9973
Rp9974
atp9975
a(S'WSJ'
p9976
(lp9977
(lp9978
(lp9979
g3
(g4
g5
Vnew-york-usa
p9980
tp9981
Rp9982
a(lp9983
g3
(g4
g5
Vbusiness
p9984
tp9985
Rp9986
atp9987
a(S'udi_nir'
p9988
(lp9989
(lp9990
(lp9991
(lp9992
g3
(g4
g5
Vtechnology
p9993
tp9994
Rp9995
ag3
(g4
g5
Vbusiness
p9996
tp9997
Rp9998
atp9999
a(S'Padmasree'
p10000
(lp10001
(lp10002
(lp10003
g3
(g4
g5
Vsan-francisco-usa
p10004
tp10005
Rp10006
a(lp10007
g3
(g4
g5
Vtechnology
p10008
tp10009
Rp10010
atp10011
a(S'TheDilipKumar'
p10012
(lp10013
g3
(g4
g5
Vmumbai-india
p10014
tp10015
Rp10016
a(lp10017
g3
(g4
g5
Vbangalore-india
p10018
tp10019
Rp10020
ag3
(g4
g5
Vmumbai-india
p10021
tp10022
Rp10023
a(lp10024
g3
(g4
g5
Vmumbai-india
p10025
tp10026
Rp10027
a(lp10028
g3
(g4
g5
Ventertainment
p10029
tp10030
Rp10031
atp10032
a(S'Nas'
p10033
(lp10034
(lp10035
(lp10036
g3
(g4
g5
Vnew-york-usa
p10037
tp10038
Rp10039
a(lp10040
g3
(g4
g5
Ventertainment
p10041
tp10042
Rp10043
atp10044
a(S'ESPNLA710'
p10045
(lp10046
(lp10047
g3
(g4
g5
Vsan-francisco-usa
p10048
tp10049
Rp10050
a(lp10051
g3
(g4
g5
Vsan-francisco-usa
p10052
tp10053
Rp10054
a(lp10055
g3
(g4
g5
Vsports
p10056
tp10057
Rp10058
atp10059
a(S'BuzzFeedAndrew'
p10060
(lp10061
(lp10062
(lp10063
g3
(g4
g5
Vnew-york-usa
p10064
tp10065
Rp10066
a(lp10067
g3
(g4
g5
Vpolitics
p10068
tp10069
Rp10070
atp10071
a(S'DrWaheedH'
p10072
(lp10073
(lp10074
(lp10075
(lp10076
g3
(g4
g5
Vpolitics
p10077
tp10078
Rp10079
atp10080
a(S'myspacetom'
p10081
(lp10082
(lp10083
(lp10084
g3
(g4
g5
Vsan-francisco-usa
p10085
tp10086
Rp10087
a(lp10088
g3
(g4
g5
Vtechnology
p10089
tp10090
Rp10091
atp10092
a(S'MauriceEdu'
p10093
(lp10094
(lp10095
g3
(g4
g5
Vsan-francisco-usa
p10096
tp10097
Rp10098
ag3
(g4
g5
Vnew-york-usa
p10099
tp10100
Rp10101
ag3
(g4
g5
Vlondon-uk
p10102
tp10103
Rp10104
ag3
(g4
g5
Vboston-usa
p10105
tp10106
Rp10107
a(lp10108
(lp10109
g3
(g4
g5
Vsports
p10110
tp10111
Rp10112
atp10113
a(S'andrewcnn'
p10114
(lp10115
(lp10116
(lp10117
g3
(g4
g5
Vbangalore-india
p10118
tp10119
Rp10120
a(lp10121
g3
(g4
g5
Vbusiness
p10122
tp10123
Rp10124
atp10125
a(S'marketingplaza'
p10126
(lp10127
g3
(g4
g5
Vnew-york-usa
p10128
tp10129
Rp10130
a(lp10131
(lp10132
g3
(g4
g5
Vsan-francisco-usa
p10133
tp10134
Rp10135
ag3
(g4
g5
Vnew-york-usa
p10136
tp10137
Rp10138
ag3
(g4
g5
Vboston-usa
p10139
tp10140
Rp10141
a(lp10142
g3
(g4
g5
Vbusiness
p10143
tp10144
Rp10145
atp10146
a(S'PowaiLV'
p10147
(lp10148
g3
(g4
g5
Vmumbai-india
p10149
tp10150
Rp10151
a(lp10152
(lp10153
g3
(g4
g5
Vmumbai-india
p10154
tp10155
Rp10156
a(lp10157
g3
(g4
g5
Vtechnology
p10158
tp10159
Rp10160
ag3
(g4
g5
Vbusiness
p10161
tp10162
Rp10163
atp10164
a(S'posterous'
p10165
(lp10166
g3
(g4
g5
Vsan-francisco-usa
p10167
tp10168
Rp10169
a(lp10170
g3
(g4
g5
Vsan-francisco-usa
p10171
tp10172
Rp10173
a(lp10174
g3
(g4
g5
Vsan-francisco-usa
p10175
tp10176
Rp10177
a(lp10178
g3
(g4
g5
Vtechnology
p10179
tp10180
Rp10181
atp10182
a(S'Mitch_Savage'
p10183
(lp10184
(lp10185
g3
(g4
g5
Vbangalore-india
p10186
tp10187
Rp10188
ag3
(g4
g5
Vmumbai-india
p10189
tp10190
Rp10191
a(lp10192
(lp10193
g3
(g4
g5
Vsports
p10194
tp10195
Rp10196
atp10197
a(S'DuncanBannatyne'
p10198
(lp10199
(lp10200
(lp10201
g3
(g4
g5
Vlondon-uk
p10202
tp10203
Rp10204
a(lp10205
g3
(g4
g5
Vbusiness
p10206
tp10207
Rp10208
atp10209
a(S'Bangbang2014'
p10210
(lp10211
(lp10212
g3
(g4
g5
Vbangalore-india
p10213
tp10214
Rp10215
ag3
(g4
g5
Vmumbai-india
p10216
tp10217
Rp10218
a(lp10219
(lp10220
g3
(g4
g5
Ventertainment
p10221
tp10222
Rp10223
atp10224
a(S'MikaSingh'
p10225
(lp10226
(lp10227
g3
(g4
g5
Vbangalore-india
p10228
tp10229
Rp10230
ag3
(g4
g5
Vmumbai-india
p10231
tp10232
Rp10233
a(lp10234
(lp10235
g3
(g4
g5
Ventertainment
p10236
tp10237
Rp10238
atp10239
a(S'BonJovi'
p10240
(lp10241
g3
(g4
g5
Vnew-york-usa
p10242
tp10243
Rp10244
a(lp10245
(lp10246
g3
(g4
g5
Vnew-york-usa
p10247
tp10248
Rp10249
a(lp10250
g3
(g4
g5
Ventertainment
p10251
tp10252
Rp10253
atp10254
a(S'PatrickWillis52'
p10255
(lp10256
(lp10257
(lp10258
(lp10259
g3
(g4
g5
Vsports
p10260
tp10261
Rp10262
atp10263
a(S'EricKintz'
p10264
(lp10265
(lp10266
(lp10267
g3
(g4
g5
Vsan-francisco-usa
p10268
tp10269
Rp10270
a(lp10271
g3
(g4
g5
Vtechnology
p10272
tp10273
Rp10274
ag3
(g4
g5
Vbusiness
p10275
tp10276
Rp10277
atp10278
a(S'jjasonchow'
p10279
(lp10280
(lp10281
(lp10282
g3
(g4
g5
Vbangalore-india
p10283
tp10284
Rp10285
a(lp10286
g3
(g4
g5
Ventertainment
p10287
tp10288
Rp10289
atp10290
a(S'PressSec'
p10291
(lp10292
(lp10293
(lp10294
g3
(g4
g5
Vsan-francisco-usa
p10295
tp10296
Rp10297
ag3
(g4
g5
Vnew-york-usa
p10298
tp10299
Rp10300
ag3
(g4
g5
Vboston-usa
p10301
tp10302
Rp10303
a(lp10304
g3
(g4
g5
Vpolitics
p10305
tp10306
Rp10307
atp10308
a(S'RepMurphyFL'
p10309
(lp10310
g3
(g4
g5
Vnew-york-usa
p10311
tp10312
Rp10313
a(lp10314
g3
(g4
g5
Vsan-francisco-usa
p10315
tp10316
Rp10317
ag3
(g4
g5
Vnew-york-usa
p10318
tp10319
Rp10320
ag3
(g4
g5
Vboston-usa
p10321
tp10322
Rp10323
a(lp10324
(lp10325
g3
(g4
g5
Vpolitics
p10326
tp10327
Rp10328
atp10329
a(S'WSJpolitics'
p10330
(lp10331
g3
(g4
g5
Vnew-york-usa
p10332
tp10333
Rp10334
a(lp10335
(lp10336
(lp10337
g3
(g4
g5
Vpolitics
p10338
tp10339
Rp10340
atp10341
a(S'McKQuarterly'
p10342
(lp10343
(lp10344
(lp10345
(lp10346
g3
(g4
g5
Vbusiness
p10347
tp10348
Rp10349
atp10350
a(S'paulg'
p10351
(lp10352
(lp10353
(lp10354
(lp10355
g3
(g4
g5
Vtechnology
p10356
tp10357
Rp10358
atp10359
a(S'aliaa08'
p10360
(lp10361
(lp10362
g3
(g4
g5
Vbangalore-india
p10363
tp10364
Rp10365
ag3
(g4
g5
Vmumbai-india
p10366
tp10367
Rp10368
a(lp10369
(lp10370
g3
(g4
g5
Ventertainment
p10371
tp10372
Rp10373
atp10374
a(S'thegeoff2000'
p10375
(lp10376
(lp10377
(lp10378
(lp10379
g3
(g4
g5
Vsports
p10380
tp10381
Rp10382
atp10383
a(S'IvanBabikov'
p10384
(lp10385
(lp10386
(lp10387
(lp10388
g3
(g4
g5
Vsports
p10389
tp10390
Rp10391
atp10392
a(S'RogerWCheng'
p10393
(lp10394
(lp10395
(lp10396
g3
(g4
g5
Vnew-york-usa
p10397
tp10398
Rp10399
a(lp10400
g3
(g4
g5
Vtechnology
p10401
tp10402
Rp10403
atp10404
a(S'fwd'
p10405
(lp10406
(lp10407
(lp10408
(lp10409
g3
(g4
g5
Vtechnology
p10410
tp10411
Rp10412
atp10413
a(S'Techland'
p10414
(lp10415
(lp10416
(lp10417
(lp10418
g3
(g4
g5
Vtechnology
p10419
tp10420
Rp10421
atp10422
a(S'JTandNL'
p10423
(lp10424
g3
(g4
g5
Vsan-francisco-usa
p10425
tp10426
Rp10427
a(lp10428
(lp10429
(lp10430
g3
(g4
g5
Ventertainment
p10431
tp10432
Rp10433
atp10434
a(S'YahooDagger'
p10435
(lp10436
(lp10437
(lp10438
(lp10439
g3
(g4
g5
Vsports
p10440
tp10441
Rp10442
atp10443
a(S'StaceyGoers'
p10444
(lp10445
g3
(g4
g5
Vnew-york-usa
p10446
tp10447
Rp10448
a(lp10449
g3
(g4
g5
Vsan-francisco-usa
p10450
tp10451
Rp10452
ag3
(g4
g5
Vnew-york-usa
p10453
tp10454
Rp10455
ag3
(g4
g5
Vboston-usa
p10456
tp10457
Rp10458
a(lp10459
(lp10460
g3
(g4
g5
Vpolitics
p10461
tp10462
Rp10463
atp10464
a(S'timoreilly'
p10465
(lp10466
g3
(g4
g5
Vsan-francisco-usa
p10467
tp10468
Rp10469
a(lp10470
(lp10471
g3
(g4
g5
Vsan-francisco-usa
p10472
tp10473
Rp10474
a(lp10475
g3
(g4
g5
Vtechnology
p10476
tp10477
Rp10478
atp10479
a(S'EyeOfJackieChan'
p10480
(lp10481
(lp10482
(lp10483
(lp10484
g3
(g4
g5
Ventertainment
p10485
tp10486
Rp10487
atp10488
a(S'MattFutterman'
p10489
(lp10490
(lp10491
(lp10492
(lp10493
g3
(g4
g5
Vsports
p10494
tp10495
Rp10496
atp10497
a(S'SaxbyChambliss'
p10498
(lp10499
(lp10500
g3
(g4
g5
Vsan-francisco-usa
p10501
tp10502
Rp10503
ag3
(g4
g5
Vnew-york-usa
p10504
tp10505
Rp10506
ag3
(g4
g5
Vboston-usa
p10507
tp10508
Rp10509
a(lp10510
(lp10511
g3
(g4
g5
Vpolitics
p10512
tp10513
Rp10514
atp10515
a(S'MadhuriDixit'
p10516
(lp10517
g3
(g4
g5
Vmumbai-india
p10518
tp10519
Rp10520
a(lp10521
g3
(g4
g5
Vbangalore-india
p10522
tp10523
Rp10524
ag3
(g4
g5
Vmumbai-india
p10525
tp10526
Rp10527
a(lp10528
g3
(g4
g5
Vmumbai-india
p10529
tp10530
Rp10531
a(lp10532
g3
(g4
g5
Ventertainment
p10533
tp10534
Rp10535
atp10536
a(S'RamiHamdalla'
p10537
(lp10538
(lp10539
(lp10540
(lp10541
g3
(g4
g5
Vpolitics
p10542
tp10543
Rp10544
atp10545
a(S'calebsilver'
p10546
(lp10547
(lp10548
(lp10549
(lp10550
g3
(g4
g5
Vbusiness
p10551
tp10552
Rp10553
atp10554
a(S'robynpeterson'
p10555
(lp10556
(lp10557
(lp10558
g3
(g4
g5
Vnew-york-usa
p10559
tp10560
Rp10561
a(lp10562
g3
(g4
g5
Vtechnology
p10563
tp10564
Rp10565
atp10566
a(S'sportsdeskCNN'
p10567
(lp10568
(lp10569
(lp10570
g3
(g4
g5
Vnew-york-usa
p10571
tp10572
Rp10573
a(lp10574
g3
(g4
g5
Vsports
p10575
tp10576
Rp10577
atp10578
a(S'cloudcontacts'
p10579
(lp10580
g3
(g4
g5
Vsan-francisco-usa
p10581
tp10582
Rp10583
a(lp10584
g3
(g4
g5
Vsan-francisco-usa
p10585
tp10586
Rp10587
a(lp10588
(lp10589
g3
(g4
g5
Vtechnology
p10590
tp10591
Rp10592
atp10593
a(S'TheSocialCFO'
p10594
(lp10595
(lp10596
(lp10597
(lp10598
g3
(g4
g5
Vbusiness
p10599
tp10600
Rp10601
atp10602
a(S'gautam_rode'
p10603
(lp10604
(lp10605
g3
(g4
g5
Vbangalore-india
p10606
tp10607
Rp10608
ag3
(g4
g5
Vmumbai-india
p10609
tp10610
Rp10611
a(lp10612
(lp10613
g3
(g4
g5
Ventertainment
p10614
tp10615
Rp10616
atp10617
a(S'YahooPuckDaddy'
p10618
(lp10619
(lp10620
(lp10621
(lp10622
g3
(g4
g5
Vsports
p10623
tp10624
Rp10625
atp10626
a(S'MPNaveenJindal'
p10627
(lp10628
g3
(g4
g5
Vmumbai-india
p10629
tp10630
Rp10631
a(lp10632
g3
(g4
g5
Vbangalore-india
p10633
tp10634
Rp10635
ag3
(g4
g5
Vmumbai-india
p10636
tp10637
Rp10638
a(lp10639
g3
(g4
g5
Vlondon-uk
p10640
tp10641
Rp10642
a(lp10643
g3
(g4
g5
Vbusiness
p10644
tp10645
Rp10646
atp10647
a(S'hitobs'
p10648
(lp10649
g3
(g4
g5
Vmumbai-india
p10650
tp10651
Rp10652
a(lp10653
g3
(g4
g5
Vbangalore-india
p10654
tp10655
Rp10656
ag3
(g4
g5
Vmumbai-india
p10657
tp10658
Rp10659
a(lp10660
g3
(g4
g5
Vmumbai-india
p10661
tp10662
Rp10663
a(lp10664
g3
(g4
g5
Vtechnology
p10665
tp10666
Rp10667
atp10668
a(S'SenBobCorker'
p10669
(lp10670
(lp10671
g3
(g4
g5
Vsan-francisco-usa
p10672
tp10673
Rp10674
ag3
(g4
g5
Vnew-york-usa
p10675
tp10676
Rp10677
ag3
(g4
g5
Vboston-usa
p10678
tp10679
Rp10680
a(lp10681
(lp10682
g3
(g4
g5
Vpolitics
p10683
tp10684
Rp10685
atp10686
a(S'SenJohnHoeven'
p10687
(lp10688
(lp10689
g3
(g4
g5
Vsan-francisco-usa
p10690
tp10691
Rp10692
ag3
(g4
g5
Vnew-york-usa
p10693
tp10694
Rp10695
ag3
(g4
g5
Vboston-usa
p10696
tp10697
Rp10698
a(lp10699
(lp10700
g3
(g4
g5
Vpolitics
p10701
tp10702
Rp10703
atp10704
a(S'GarySinise'
p10705
(lp10706
g3
(g4
g5
Vnew-york-usa
p10707
tp10708
Rp10709
a(lp10710
(lp10711
g3
(g4
g5
Vsan-francisco-usa
p10712
tp10713
Rp10714
ag3
(g4
g5
Vnew-york-usa
p10715
tp10716
Rp10717
ag3
(g4
g5
Vboston-usa
p10718
tp10719
Rp10720
a(lp10721
g3
(g4
g5
Ventertainment
p10722
tp10723
Rp10724
atp10725
a(S'WSJSports'
p10726
(lp10727
(lp10728
(lp10729
g3
(g4
g5
Vnew-york-usa
p10730
tp10731
Rp10732
a(lp10733
g3
(g4
g5
Vsports
p10734
tp10735
Rp10736
atp10737
a(S'howardlindzon'
p10738
(lp10739
g3
(g4
g5
Vsan-francisco-usa
p10740
tp10741
Rp10742
a(lp10743
(lp10744
(lp10745
g3
(g4
g5
Vtechnology
p10746
tp10747
Rp10748
ag3
(g4
g5
Vbusiness
p10749
tp10750
Rp10751
atp10752
a(S'JDMahama'
p10753
(lp10754
(lp10755
(lp10756
(lp10757
g3
(g4
g5
Vpolitics
p10758
tp10759
Rp10760
atp10761
a(S'BmbayTalkies'
p10762
(lp10763
(lp10764
g3
(g4
g5
Vbangalore-india
p10765
tp10766
Rp10767
ag3
(g4
g5
Vmumbai-india
p10768
tp10769
Rp10770
a(lp10771
(lp10772
g3
(g4
g5
Ventertainment
p10773
tp10774
Rp10775
atp10776
a(S'tomweirsports'
p10777
(lp10778
(lp10779
(lp10780
(lp10781
g3
(g4
g5
Vsports
p10782
tp10783
Rp10784
atp10785
a(S'BinkleyOnStyle'
p10786
(lp10787
(lp10788
(lp10789
g3
(g4
g5
Vsan-francisco-usa
p10790
tp10791
Rp10792
a(lp10793
g3
(g4
g5
Ventertainment
p10794
tp10795
Rp10796
atp10797
a(S'MedvedevRussiaE'
p10798
(lp10799
(lp10800
(lp10801
(lp10802
g3
(g4
g5
Vpolitics
p10803
tp10804
Rp10805
atp10806
a(S'RNTata2000'
p10807
(lp10808
g3
(g4
g5
Vmumbai-india
p10809
tp10810
Rp10811
a(lp10812
g3
(g4
g5
Vbangalore-india
p10813
tp10814
Rp10815
ag3
(g4
g5
Vmumbai-india
p10816
tp10817
Rp10818
a(lp10819
g3
(g4
g5
Vmumbai-india
p10820
tp10821
Rp10822
a(lp10823
g3
(g4
g5
Vbusiness
p10824
tp10825
Rp10826
atp10827
a(S'gregskidmore'
p10828
(lp10829
(lp10830
(lp10831
(lp10832
g3
(g4
g5
Vbusiness
p10833
tp10834
Rp10835
atp10836
a(S'jonathaneppers'
p10837
(lp10838
(lp10839
(lp10840
(lp10841
g3
(g4
g5
Vtechnology
p10842
tp10843
Rp10844
atp10845
a(S'Pink'
p10846
(lp10847
g3
(g4
g5
Vsan-francisco-usa
p10848
tp10849
Rp10850
a(lp10851
(lp10852
g3
(g4
g5
Vsan-francisco-usa
p10853
tp10854
Rp10855
a(lp10856
g3
(g4
g5
Ventertainment
p10857
tp10858
Rp10859
atp10860
a(S'patricknorton'
p10861
(lp10862
(lp10863
(lp10864
g3
(g4
g5
Vsan-francisco-usa
p10865
tp10866
Rp10867
ag3
(g4
g5
Vnew-york-usa
p10868
tp10869
Rp10870
ag3
(g4
g5
Vboston-usa
p10871
tp10872
Rp10873
a(lp10874
g3
(g4
g5
Vtechnology
p10875
tp10876
Rp10877
atp10878
a(S'ForbesOpinion'
p10879
(lp10880
(lp10881
(lp10882
g3
(g4
g5
Vnew-york-usa
p10883
tp10884
Rp10885
a(lp10886
g3
(g4
g5
Vbusiness
p10887
tp10888
Rp10889
atp10890
a(S'StevenEBryant'
p10891
(lp10892
(lp10893
(lp10894
(lp10895
g3
(g4
g5
Vbusiness
p10896
tp10897
Rp10898
atp10899
a(S'RepAndyBarr'
p10900
(lp10901
(lp10902
g3
(g4
g5
Vsan-francisco-usa
p10903
tp10904
Rp10905
ag3
(g4
g5
Vnew-york-usa
p10906
tp10907
Rp10908
ag3
(g4
g5
Vboston-usa
p10909
tp10910
Rp10911
a(lp10912
(lp10913
g3
(g4
g5
Vpolitics
p10914
tp10915
Rp10916
atp10917
a(S'RepChrisSmith'
p10918
(lp10919
(lp10920
g3
(g4
g5
Vsan-francisco-usa
p10921
tp10922
Rp10923
ag3
(g4
g5
Vnew-york-usa
p10924
tp10925
Rp10926
ag3
(g4
g5
Vboston-usa
p10927
tp10928
Rp10929
a(lp10930
(lp10931
g3
(g4
g5
Vpolitics
p10932
tp10933
Rp10934
atp10935
a(S'Gorman_Siobhan'
p10936
(lp10937
(lp10938
(lp10939
(lp10940
g3
(g4
g5
Vpolitics
p10941
tp10942
Rp10943
atp10944
a(S'VoteMarsha'
p10945
(lp10946
(lp10947
g3
(g4
g5
Vsan-francisco-usa
p10948
tp10949
Rp10950
ag3
(g4
g5
Vnew-york-usa
p10951
tp10952
Rp10953
ag3
(g4
g5
Vboston-usa
p10954
tp10955
Rp10956
a(lp10957
(lp10958
g3
(g4
g5
Vpolitics
p10959
tp10960
Rp10961
atp10962
a(S'ekhatami'
p10963
(lp10964
g3
(g4
g5
Vnew-york-usa
p10965
tp10966
Rp10967
a(lp10968
g3
(g4
g5
Vsan-francisco-usa
p10969
tp10970
Rp10971
ag3
(g4
g5
Vnew-york-usa
p10972
tp10973
Rp10974
ag3
(g4
g5
Vboston-usa
p10975
tp10976
Rp10977
a(lp10978
(lp10979
g3
(g4
g5
Vpolitics
p10980
tp10981
Rp10982
atp10983
a(S'RobMargetta'
p10984
(lp10985
(lp10986
g3
(g4
g5
Vsan-francisco-usa
p10987
tp10988
Rp10989
ag3
(g4
g5
Vnew-york-usa
p10990
tp10991
Rp10992
ag3
(g4
g5
Vboston-usa
p10993
tp10994
Rp10995
a(lp10996
(lp10997
g3
(g4
g5
Vpolitics
p10998
tp10999
Rp11000
atp11001
a(S'BenParamore'
p11002
(lp11003
(lp11004
(lp11005
(lp11006
g3
(g4
g5
Vbusiness
p11007
tp11008
Rp11009
atp11010
a(S'OtagoVolts'
p11011
(lp11012
(lp11013
g3
(g4
g5
Vbangalore-india
p11014
tp11015
Rp11016
ag3
(g4
g5
Vmumbai-india
p11017
tp11018
Rp11019
a(lp11020
(lp11021
g3
(g4
g5
Vsports
p11022
tp11023
Rp11024
atp11025
a(S'prcavacosilva'
p11026
(lp11027
(lp11028
(lp11029
(lp11030
g3
(g4
g5
Vpolitics
p11031
tp11032
Rp11033
atp11034
a(S'CNNPR'
p11035
(lp11036
(lp11037
(lp11038
(lp11039
g3
(g4
g5
Vpolitics
p11040
tp11041
Rp11042
atp11043
a(S'CindyCrawford'
p11044
(lp11045
(lp11046
(lp11047
g3
(g4
g5
Vsan-francisco-usa
p11048
tp11049
Rp11050
a(lp11051
g3
(g4
g5
Ventertainment
p11052
tp11053
Rp11054
atp11055
a(S'LilTunechi'
p11056
(lp11057
(lp11058
(lp11059
(lp11060
g3
(g4
g5
Ventertainment
p11061
tp11062
Rp11063
atp11064
a(S'MHPshow'
p11065
(lp11066
(lp11067
(lp11068
g3
(g4
g5
Vnew-york-usa
p11069
tp11070
Rp11071
a(lp11072
g3
(g4
g5
Vpolitics
p11073
tp11074
Rp11075
atp11076
a(S'anandmahindra'
p11077
(lp11078
(lp11079
g3
(g4
g5
Vbangalore-india
p11080
tp11081
Rp11082
ag3
(g4
g5
Vmumbai-india
p11083
tp11084
Rp11085
a(lp11086
g3
(g4
g5
Vmumbai-india
p11087
tp11088
Rp11089
a(lp11090
g3
(g4
g5
Vbusiness
p11091
tp11092
Rp11093
atp11094
a(S'TechnoBuffalo'
p11095
(lp11096
(lp11097
(lp11098
(lp11099
g3
(g4
g5
Vtechnology
p11100
tp11101
Rp11102
atp11103
a(S'richaanirudh'
p11104
(lp11105
(lp11106
g3
(g4
g5
Vbangalore-india
p11107
tp11108
Rp11109
ag3
(g4
g5
Vmumbai-india
p11110
tp11111
Rp11112
a(lp11113
(lp11114
g3
(g4
g5
Vpolitics
p11115
tp11116
Rp11117
atp11118
a(S'mrcoolone1'
p11119
(lp11120
(lp11121
(lp11122
(lp11123
g3
(g4
g5
Vbusiness
p11124
tp11125
Rp11126
atp11127
a(S'shrepfur'
p11128
(lp11129
(lp11130
(lp11131
(lp11132
g3
(g4
g5
Vtechnology
p11133
tp11134
Rp11135
ag3
(g4
g5
Vbusiness
p11136
tp11137
Rp11138
atp11139
a(S'emjbanks'
p11140
(lp11141
(lp11142
(lp11143
g3
(g4
g5
Vnew-york-usa
p11144
tp11145
Rp11146
a(lp11147
g3
(g4
g5
Vtechnology
p11148
tp11149
Rp11150
atp11151
a(S'georgezachary'
p11152
(lp11153
(lp11154
(lp11155
g3
(g4
g5
Vsan-francisco-usa
p11156
tp11157
Rp11158
a(lp11159
g3
(g4
g5
Vtechnology
p11160
tp11161
Rp11162
ag3
(g4
g5
Vbusiness
p11163
tp11164
Rp11165
atp11166
a(S'BackType'
p11167
(lp11168
g3
(g4
g5
Vsan-francisco-usa
p11169
tp11170
Rp11171
a(lp11172
g3
(g4
g5
Vsan-francisco-usa
p11173
tp11174
Rp11175
a(lp11176
g3
(g4
g5
Vsan-francisco-usa
p11177
tp11178
Rp11179
a(lp11180
g3
(g4
g5
Vtechnology
p11181
tp11182
Rp11183
atp11184
a(S'ShraddhaKapoor'
p11185
(lp11186
g3
(g4
g5
Vmumbai-india
p11187
tp11188
Rp11189
a(lp11190
g3
(g4
g5
Vbangalore-india
p11191
tp11192
Rp11193
ag3
(g4
g5
Vmumbai-india
p11194
tp11195
Rp11196
a(lp11197
g3
(g4
g5
Vmumbai-india
p11198
tp11199
Rp11200
a(lp11201
g3
(g4
g5
Ventertainment
p11202
tp11203
Rp11204
atp11205
a(S'pedropintotv'
p11206
(lp11207
(lp11208
(lp11209
g3
(g4
g5
Vlondon-uk
p11210
tp11211
Rp11212
a(lp11213
g3
(g4
g5
Vsports
p11214
tp11215
Rp11216
atp11217
a(S'RenttheRunway'
p11218
(lp11219
g3
(g4
g5
Vnew-york-usa
p11220
tp11221
Rp11222
a(lp11223
g3
(g4
g5
Vnew-york-usa
p11224
tp11225
Rp11226
a(lp11227
g3
(g4
g5
Vnew-york-usa
p11228
tp11229
Rp11230
a(lp11231
g3
(g4
g5
Vtechnology
p11232
tp11233
Rp11234
atp11235
a(S'BillPlaschke'
p11236
(lp11237
(lp11238
(lp11239
g3
(g4
g5
Vsan-francisco-usa
p11240
tp11241
Rp11242
a(lp11243
g3
(g4
g5
Vsports
p11244
tp11245
Rp11246
atp11247
a(S'REALsaeedajmal'
p11248
(lp11249
(lp11250
g3
(g4
g5
Vbangalore-india
p11251
tp11252
Rp11253
ag3
(g4
g5
Vmumbai-india
p11254
tp11255
Rp11256
a(lp11257
(lp11258
g3
(g4
g5
Vsports
p11259
tp11260
Rp11261
atp11262
a(S'SBYudhoyono'
p11263
(lp11264
(lp11265
(lp11266
(lp11267
g3
(g4
g5
Vpolitics
p11268
tp11269
Rp11270
atp11271
a(S'JonHeymanCBS'
p11272
(lp11273
g3
(g4
g5
Vnew-york-usa
p11274
tp11275
Rp11276
a(lp11277
(lp11278
g3
(g4
g5
Vnew-york-usa
p11279
tp11280
Rp11281
a(lp11282
g3
(g4
g5
Vsports
p11283
tp11284
Rp11285
atp11286
a(S'DrChandanMitra'
p11287
(lp11288
(lp11289
g3
(g4
g5
Vbangalore-india
p11290
tp11291
Rp11292
ag3
(g4
g5
Vmumbai-india
p11293
tp11294
Rp11295
a(lp11296
(lp11297
g3
(g4
g5
Vpolitics
p11298
tp11299
Rp11300
atp11301
a(S'BrianCostaWSJ'
p11302
(lp11303
(lp11304
(lp11305
g3
(g4
g5
Vnew-york-usa
p11306
tp11307
Rp11308
a(lp11309
g3
(g4
g5
Vsports
p11310
tp11311
Rp11312
atp11313
a(S'film_girl'
p11314
(lp11315
(lp11316
(lp11317
g3
(g4
g5
Vnew-york-usa
p11318
tp11319
Rp11320
a(lp11321
g3
(g4
g5
Vtechnology
p11322
tp11323
Rp11324
atp11325
a(S'CoventryChoppa'
p11326
(lp11327
(lp11328
g3
(g4
g5
Vbangalore-india
p11329
tp11330
Rp11331
ag3
(g4
g5
Vmumbai-india
p11332
tp11333
Rp11334
a(lp11335
(lp11336
g3
(g4
g5
Vsports
p11337
tp11338
Rp11339
atp11340
a(S'esofge'
p11341
(lp11342
(lp11343
(lp11344
(lp11345
g3
(g4
g5
Vtechnology
p11346
tp11347
Rp11348
atp11349
a(S'thebravery'
p11350
(lp11351
(lp11352
(lp11353
g3
(g4
g5
Vsan-francisco-usa
p11354
tp11355
Rp11356
a(lp11357
g3
(g4
g5
Ventertainment
p11358
tp11359
Rp11360
atp11361
a(S'CNNSitRoom'
p11362
(lp11363
(lp11364
(lp11365
(lp11366
g3
(g4
g5
Vpolitics
p11367
tp11368
Rp11369
atp11370
a(S'kristinapet'
p11371
(lp11372
g3
(g4
g5
Vnew-york-usa
p11373
tp11374
Rp11375
a(lp11376
(lp11377
(lp11378
g3
(g4
g5
Vpolitics
p11379
tp11380
Rp11381
ag3
(g4
g5
Vbusiness
p11382
tp11383
Rp11384
atp11385
a(S'David_Gergen'
p11386
(lp11387
(lp11388
(lp11389
(lp11390
g3
(g4
g5
Vpolitics
p11391
tp11392
Rp11393
atp11394
a(S'SnapGoods'
p11395
(lp11396
(lp11397
g3
(g4
g5
Vnew-york-usa
p11398
tp11399
Rp11400
a(lp11401
(lp11402
g3
(g4
g5
Vtechnology
p11403
tp11404
Rp11405
atp11406
a(S'BJPcentralmedia'
p11407
(lp11408
(lp11409
g3
(g4
g5
Vbangalore-india
p11410
tp11411
Rp11412
ag3
(g4
g5
Vmumbai-india
p11413
tp11414
Rp11415
a(lp11416
(lp11417
g3
(g4
g5
Vpolitics
p11418
tp11419
Rp11420
atp11421
a(S'chr1sa'
p11422
(lp11423
(lp11424
(lp11425
(lp11426
g3
(g4
g5
Vtechnology
p11427
tp11428
Rp11429
atp11430
a(S'darrylktaft'
p11431
(lp11432
(lp11433
(lp11434
(lp11435
g3
(g4
g5
Vtechnology
p11436
tp11437
Rp11438
atp11439
a(S'lassecgen'
p11440
(lp11441
g3
(g4
g5
Vlondon-uk
p11442
tp11443
Rp11444
a(lp11445
(lp11446
(lp11447
g3
(g4
g5
Vpolitics
p11448
tp11449
Rp11450
atp11451
a(S'WSJMoneyBeat'
p11452
(lp11453
(lp11454
(lp11455
g3
(g4
g5
Vnew-york-usa
p11456
tp11457
Rp11458
a(lp11459
g3
(g4
g5
Vbusiness
p11460
tp11461
Rp11462
atp11463
a(S'repmarkpocan'
p11464
(lp11465
g3
(g4
g5
Vnew-york-usa
p11466
tp11467
Rp11468
a(lp11469
g3
(g4
g5
Vsan-francisco-usa
p11470
tp11471
Rp11472
ag3
(g4
g5
Vnew-york-usa
p11473
tp11474
Rp11475
ag3
(g4
g5
Vboston-usa
p11476
tp11477
Rp11478
a(lp11479
(lp11480
g3
(g4
g5
Vpolitics
p11481
tp11482
Rp11483
atp11484
a(S'orenjacob'
p11485
(lp11486
(lp11487
(lp11488
(lp11489
g3
(g4
g5
Vtechnology
p11490
tp11491
Rp11492
atp11493
a(S'NaveenTewari'
p11494
(lp11495
(lp11496
g3
(g4
g5
Vbangalore-india
p11497
tp11498
Rp11499
ag3
(g4
g5
Vmumbai-india
p11500
tp11501
Rp11502
a(lp11503
(lp11504
g3
(g4
g5
Vtechnology
p11505
tp11506
Rp11507
atp11508
a(S'LalitKModi'
p11509
(lp11510
(lp11511
g3
(g4
g5
Vbangalore-india
p11512
tp11513
Rp11514
ag3
(g4
g5
Vmumbai-india
p11515
tp11516
Rp11517
a(lp11518
(lp11519
g3
(g4
g5
Vsports
p11520
tp11521
Rp11522
atp11523
a(S'madhutrehan'
p11524
(lp11525
(lp11526
g3
(g4
g5
Vbangalore-india
p11527
tp11528
Rp11529
ag3
(g4
g5
Vmumbai-india
p11530
tp11531
Rp11532
a(lp11533
g3
(g4
g5
Vmumbai-india
p11534
tp11535
Rp11536
a(lp11537
g3
(g4
g5
Vpolitics
p11538
tp11539
Rp11540
atp11541
a(S'PTI_News'
p11542
(lp11543
(lp11544
g3
(g4
g5
Vbangalore-india
p11545
tp11546
Rp11547
ag3
(g4
g5
Vmumbai-india
p11548
tp11549
Rp11550
a(lp11551
g3
(g4
g5
Vmumbai-india
p11552
tp11553
Rp11554
a(lp11555
g3
(g4
g5
Vpolitics
p11556
tp11557
Rp11558
atp11559
a(S'hellikerk'
p11560
(lp11561
(lp11562
(lp11563
(lp11564
g3
(g4
g5
Vsports
p11565
tp11566
Rp11567
atp11568
a(S'BJP_Gujarat'
p11569
(lp11570
(lp11571
g3
(g4
g5
Vbangalore-india
p11572
tp11573
Rp11574
ag3
(g4
g5
Vmumbai-india
p11575
tp11576
Rp11577
a(lp11578
(lp11579
g3
(g4
g5
Vpolitics
p11580
tp11581
Rp11582
atp11583
a(S'GregPorto'
p11584
(lp11585
(lp11586
(lp11587
(lp11588
g3
(g4
g5
Vbusiness
p11589
tp11590
Rp11591
atp11592
a(S'KristinDSantos'
p11593
(lp11594
(lp11595
(lp11596
g3
(g4
g5
Vsan-francisco-usa
p11597
tp11598
Rp11599
a(lp11600
g3
(g4
g5
Ventertainment
p11601
tp11602
Rp11603
atp11604
a(S'CPL_T20'
p11605
(lp11606
(lp11607
g3
(g4
g5
Vbangalore-india
p11608
tp11609
Rp11610
ag3
(g4
g5
Vmumbai-india
p11611
tp11612
Rp11613
a(lp11614
(lp11615
g3
(g4
g5
Vsports
p11616
tp11617
Rp11618
atp11619
a(S'Maelezo1'
p11620
(lp11621
(lp11622
(lp11623
(lp11624
g3
(g4
g5
Vpolitics
p11625
tp11626
Rp11627
atp11628
a(S'YamiGautam_YG'
p11629
(lp11630
(lp11631
g3
(g4
g5
Vbangalore-india
p11632
tp11633
Rp11634
ag3
(g4
g5
Vmumbai-india
p11635
tp11636
Rp11637
a(lp11638
(lp11639
g3
(g4
g5
Ventertainment
p11640
tp11641
Rp11642
atp11643
a(S'GuyMansueto'
p11644
(lp11645
(lp11646
(lp11647
(lp11648
g3
(g4
g5
Vbusiness
p11649
tp11650
Rp11651
atp11652
a(S'ENews'
p11653
(lp11654
g3
(g4
g5
Vsan-francisco-usa
p11655
tp11656
Rp11657
a(lp11658
(lp11659
g3
(g4
g5
Vsan-francisco-usa
p11660
tp11661
Rp11662
a(lp11663
g3
(g4
g5
Ventertainment
p11664
tp11665
Rp11666
atp11667
a(S'CritterDJ'
p11668
(lp11669
(lp11670
g3
(g4
g5
Vsan-francisco-usa
p11671
tp11672
Rp11673
ag3
(g4
g5
Vnew-york-usa
p11674
tp11675
Rp11676
ag3
(g4
g5
Vboston-usa
p11677
tp11678
Rp11679
a(lp11680
g3
(g4
g5
Vnew-york-usa
p11681
tp11682
Rp11683
a(lp11684
g3
(g4
g5
Vpolitics
p11685
tp11686
Rp11687
atp11688
a(S'julianobelletti'
p11689
(lp11690
(lp11691
g3
(g4
g5
Vsan-francisco-usa
p11692
tp11693
Rp11694
ag3
(g4
g5
Vnew-york-usa
p11695
tp11696
Rp11697
ag3
(g4
g5
Vlondon-uk
p11698
tp11699
Rp11700
ag3
(g4
g5
Vboston-usa
p11701
tp11702
Rp11703
a(lp11704
(lp11705
g3
(g4
g5
Vsports
p11706
tp11707
Rp11708
atp11709
a(S'YahooSportsBox'
p11710
(lp11711
(lp11712
(lp11713
g3
(g4
g5
Vsan-francisco-usa
p11714
tp11715
Rp11716
a(lp11717
g3
(g4
g5
Vsports
p11718
tp11719
Rp11720
atp11721
a(S'karincaifaCNN'
p11722
(lp11723
g3
(g4
g5
Vnew-york-usa
p11724
tp11725
Rp11726
a(lp11727
(lp11728
(lp11729
g3
(g4
g5
Vtechnology
p11730
tp11731
Rp11732
atp11733
a(S'Malaysia_Gov'
p11734
(lp11735
(lp11736
(lp11737
(lp11738
g3
(g4
g5
Vpolitics
p11739
tp11740
Rp11741
atp11742
a(S'NiketanMadhok'
p11743
(lp11744
g3
(g4
g5
Vmumbai-india
p11745
tp11746
Rp11747
a(lp11748
g3
(g4
g5
Vbangalore-india
p11749
tp11750
Rp11751
ag3
(g4
g5
Vmumbai-india
p11752
tp11753
Rp11754
a(lp11755
g3
(g4
g5
Vmumbai-india
p11756
tp11757
Rp11758
a(lp11759
g3
(g4
g5
Ventertainment
p11760
tp11761
Rp11762
atp11763
a(S'MargvelashviliG'
p11764
(lp11765
(lp11766
(lp11767
(lp11768
g3
(g4
g5
Vpolitics
p11769
tp11770
Rp11771
atp11772
a(S'DanGraziano'
p11773
(lp11774
(lp11775
(lp11776
g3
(g4
g5
Vnew-york-usa
p11777
tp11778
Rp11779
a(lp11780
g3
(g4
g5
Vtechnology
p11781
tp11782
Rp11783
atp11784
a(S'kagtireema'
p11785
(lp11786
g3
(g4
g5
Vmumbai-india
p11787
tp11788
Rp11789
a(lp11790
g3
(g4
g5
Vbangalore-india
p11791
tp11792
Rp11793
ag3
(g4
g5
Vmumbai-india
p11794
tp11795
Rp11796
a(lp11797
g3
(g4
g5
Vmumbai-india
p11798
tp11799
Rp11800
a(lp11801
g3
(g4
g5
Ventertainment
p11802
tp11803
Rp11804
atp11805
a(S'Pinterest'
p11806
(lp11807
g3
(g4
g5
Vsan-francisco-usa
p11808
tp11809
Rp11810
a(lp11811
g3
(g4
g5
Vsan-francisco-usa
p11812
tp11813
Rp11814
a(lp11815
g3
(g4
g5
Vsan-francisco-usa
p11816
tp11817
Rp11818
a(lp11819
g3
(g4
g5
Vtechnology
p11820
tp11821
Rp11822
atp11823
a(S'JayGlazer'
p11824
(lp11825
(lp11826
(lp11827
(lp11828
g3
(g4
g5
Vsports
p11829
tp11830
Rp11831
atp11832
a(S'marthacoakley'
p11833
(lp11834
(lp11835
(lp11836
(lp11837
g3
(g4
g5
Vpolitics
p11838
tp11839
Rp11840
atp11841
a(S'SenFeinstein'
p11842
(lp11843
(lp11844
g3
(g4
g5
Vsan-francisco-usa
p11845
tp11846
Rp11847
ag3
(g4
g5
Vnew-york-usa
p11848
tp11849
Rp11850
ag3
(g4
g5
Vboston-usa
p11851
tp11852
Rp11853
a(lp11854
g3
(g4
g5
Vsan-francisco-usa
p11855
tp11856
Rp11857
a(lp11858
g3
(g4
g5
Vpolitics
p11859
tp11860
Rp11861
atp11862
a(S'pierre'
p11863
(lp11864
g3
(g4
g5
Vsan-francisco-usa
p11865
tp11866
Rp11867
a(lp11868
(lp11869
(lp11870
g3
(g4
g5
Vtechnology
p11871
tp11872
Rp11873
atp11874
a(S'realDonaldTrump'
p11875
(lp11876
(lp11877
g3
(g4
g5
Vbangalore-india
p11878
tp11879
Rp11880
ag3
(g4
g5
Vmumbai-india
p11881
tp11882
Rp11883
a(lp11884
g3
(g4
g5
Vnew-york-usa
p11885
tp11886
Rp11887
a(lp11888
g3
(g4
g5
Vbusiness
p11889
tp11890
Rp11891
atp11892
a(S'tumblr'
p11893
(lp11894
(lp11895
g3
(g4
g5
Vnew-york-usa
p11896
tp11897
Rp11898
a(lp11899
g3
(g4
g5
Vnew-york-usa
p11900
tp11901
Rp11902
a(lp11903
g3
(g4
g5
Vtechnology
p11904
tp11905
Rp11906
atp11907
a(S'BNPolitics'
p11908
(lp11909
(lp11910
(lp11911
(lp11912
g3
(g4
g5
Vpolitics
p11913
tp11914
Rp11915
atp11916
a(S'ChiesaNews'
p11917
(lp11918
g3
(g4
g5
Vnew-york-usa
p11919
tp11920
Rp11921
a(lp11922
g3
(g4
g5
Vsan-francisco-usa
p11923
tp11924
Rp11925
ag3
(g4
g5
Vnew-york-usa
p11926
tp11927
Rp11928
ag3
(g4
g5
Vboston-usa
p11929
tp11930
Rp11931
a(lp11932
(lp11933
g3
(g4
g5
Vpolitics
p11934
tp11935
Rp11936
atp11937
a(S'behaviorgap'
p11938
(lp11939
(lp11940
(lp11941
(lp11942
g3
(g4
g5
Vbusiness
p11943
tp11944
Rp11945
atp11946
a(S'radiohead'
p11947
(lp11948
(lp11949
(lp11950
g3
(g4
g5
Vlondon-uk
p11951
tp11952
Rp11953
a(lp11954
g3
(g4
g5
Ventertainment
p11955
tp11956
Rp11957
atp11958
a(S'nytimestech'
p11959
(lp11960
(lp11961
(lp11962
g3
(g4
g5
Vnew-york-usa
p11963
tp11964
Rp11965
a(lp11966
g3
(g4
g5
Vtechnology
p11967
tp11968
Rp11969
atp11970
a(S'WSJbusiness'
p11971
(lp11972
(lp11973
(lp11974
g3
(g4
g5
Vnew-york-usa
p11975
tp11976
Rp11977
a(lp11978
g3
(g4
g5
Vbusiness
p11979
tp11980
Rp11981
atp11982
a(S'shakira'
p11983
(lp11984
g3
(g4
g5
Vnew-york-usa
p11985
tp11986
Rp11987
a(lp11988
(lp11989
(lp11990
g3
(g4
g5
Ventertainment
p11991
tp11992
Rp11993
atp11994
a(S'siobhanehughes'
p11995
(lp11996
(lp11997
(lp11998
(lp11999
g3
(g4
g5
Vpolitics
p12000
tp12001
Rp12002
atp12003
a(S'janetadamy'
p12004
(lp12005
g3
(g4
g5
Vnew-york-usa
p12006
tp12007
Rp12008
a(lp12009
(lp12010
(lp12011
g3
(g4
g5
Vpolitics
p12012
tp12013
Rp12014
atp12015
a(S'RepTimWalz'
p12016
(lp12017
(lp12018
g3
(g4
g5
Vsan-francisco-usa
p12019
tp12020
Rp12021
ag3
(g4
g5
Vnew-york-usa
p12022
tp12023
Rp12024
ag3
(g4
g5
Vboston-usa
p12025
tp12026
Rp12027
a(lp12028
(lp12029
g3
(g4
g5
Vpolitics
p12030
tp12031
Rp12032
atp12033
a(S'newsyc20'
p12034
(lp12035
(lp12036
(lp12037
g3
(g4
g5
Vsan-francisco-usa
p12038
tp12039
Rp12040
a(lp12041
g3
(g4
g5
Vtechnology
p12042
tp12043
Rp12044
atp12045
a(S'kurtdietrich'
p12046
(lp12047
(lp12048
(lp12049
g3
(g4
g5
Vnew-york-usa
p12050
tp12051
Rp12052
a(lp12053
g3
(g4
g5
Ventertainment
p12054
tp12055
Rp12056
atp12057
a(S'PTI'
p12058
(lp12059
g3
(g4
g5
Vnew-york-usa
p12060
tp12061
Rp12062
a(lp12063
(lp12064
(lp12065
g3
(g4
g5
Vsports
p12066
tp12067
Rp12068
atp12069
a(S'stuholden'
p12070
(lp12071
(lp12072
g3
(g4
g5
Vsan-francisco-usa
p12073
tp12074
Rp12075
ag3
(g4
g5
Vnew-york-usa
p12076
tp12077
Rp12078
ag3
(g4
g5
Vlondon-uk
p12079
tp12080
Rp12081
ag3
(g4
g5
Vboston-usa
p12082
tp12083
Rp12084
a(lp12085
(lp12086
g3
(g4
g5
Vsports
p12087
tp12088
Rp12089
atp12090
a(S'adamplevycnn'
p12091
(lp12092
(lp12093
(lp12094
(lp12095
g3
(g4
g5
Vpolitics
p12096
tp12097
Rp12098
atp12099
a(S'RealRonHoward'
p12100
(lp12101
(lp12102
(lp12103
g3
(g4
g5
Vsan-francisco-usa
p12104
tp12105
Rp12106
a(lp12107
g3
(g4
g5
Ventertainment
p12108
tp12109
Rp12110
atp12111
a(S'ScorchersBBL'
p12112
(lp12113
(lp12114
g3
(g4
g5
Vbangalore-india
p12115
tp12116
Rp12117
ag3
(g4
g5
Vmumbai-india
p12118
tp12119
Rp12120
a(lp12121
(lp12122
g3
(g4
g5
Vsports
p12123
tp12124
Rp12125
atp12126
a(S'emilyparkhurst'
p12127
(lp12128
g3
(g4
g5
Vsan-francisco-usa
p12129
tp12130
Rp12131
a(lp12132
(lp12133
(lp12134
g3
(g4
g5
Vtechnology
p12135
tp12136
Rp12137
atp12138
a(S'MissyElliott'
p12139
(lp12140
(lp12141
(lp12142
(lp12143
g3
(g4
g5
Ventertainment
p12144
tp12145
Rp12146
atp12147
a(S'HuffPostTech'
p12148
(lp12149
(lp12150
(lp12151
g3
(g4
g5
Vnew-york-usa
p12152
tp12153
Rp12154
a(lp12155
g3
(g4
g5
Vtechnology
p12156
tp12157
Rp12158
atp12159
a(S'PoppyHarlowCNN'
p12160
(lp12161
g3
(g4
g5
Vnew-york-usa
p12162
tp12163
Rp12164
a(lp12165
(lp12166
g3
(g4
g5
Vnew-york-usa
p12167
tp12168
Rp12169
a(lp12170
g3
(g4
g5
Vbusiness
p12171
tp12172
Rp12173
atp12174
a(S'DannyDeVito'
p12175
(lp12176
(lp12177
(lp12178
g3
(g4
g5
Vsan-francisco-usa
p12179
tp12180
Rp12181
a(lp12182
g3
(g4
g5
Ventertainment
p12183
tp12184
Rp12185
atp12186
a(S'MikeReiss'
p12187
(lp12188
g3
(g4
g5
Vboston-usa
p12189
tp12190
Rp12191
a(lp12192
g3
(g4
g5
Vboston-usa
p12193
tp12194
Rp12195
a(lp12196
(lp12197
g3
(g4
g5
Vsports
p12198
tp12199
Rp12200
atp12201
a(S'fearlesscomp'
p12202
(lp12203
g3
(g4
g5
Vnew-york-usa
p12204
tp12205
Rp12206
a(lp12207
(lp12208
g3
(g4
g5
Vnew-york-usa
p12209
tp12210
Rp12211
a(lp12212
g3
(g4
g5
Vbusiness
p12213
tp12214
Rp12215
atp12216
a(S'worldofapple'
p12217
(lp12218
(lp12219
(lp12220
(lp12221
g3
(g4
g5
Vtechnology
p12222
tp12223
Rp12224
atp12225
a(S'finstoryteller'
p12226
(lp12227
(lp12228
(lp12229
(lp12230
g3
(g4
g5
Vbusiness
p12231
tp12232
Rp12233
atp12234
a(S'GroupMe'
p12235
(lp12236
(lp12237
g3
(g4
g5
Vnew-york-usa
p12238
tp12239
Rp12240
a(lp12241
g3
(g4
g5
Vnew-york-usa
p12242
tp12243
Rp12244
a(lp12245
g3
(g4
g5
Vtechnology
p12246
tp12247
Rp12248
atp12249
a(S'OkieFields'
p12250
(lp12251
(lp12252
g3
(g4
g5
Vsan-francisco-usa
p12253
tp12254
Rp12255
ag3
(g4
g5
Vnew-york-usa
p12256
tp12257
Rp12258
ag3
(g4
g5
Vboston-usa
p12259
tp12260
Rp12261
a(lp12262
(lp12263
g3
(g4
g5
Vsports
p12264
tp12265
Rp12266
atp12267
a(S'giladpn'
p12268
(lp12269
(lp12270
(lp12271
(lp12272
g3
(g4
g5
Vtechnology
p12273
tp12274
Rp12275
ag3
(g4
g5
Vbusiness
p12276
tp12277
Rp12278
atp12279
a(S'racheldodes'
p12280
(lp12281
(lp12282
(lp12283
(lp12284
g3
(g4
g5
Ventertainment
p12285
tp12286
Rp12287
atp12288
a(S'TheTechStartups'
p12289
(lp12290
(lp12291
g3
(g4
g5
Vnew-york-usa
p12292
tp12293
Rp12294
a(lp12295
g3
(g4
g5
Vnew-york-usa
p12296
tp12297
Rp12298
a(lp12299
g3
(g4
g5
Vtechnology
p12300
tp12301
Rp12302
atp12303
a(S'TFletchernordic'
p12304
(lp12305
(lp12306
(lp12307
(lp12308
g3
(g4
g5
Vsports
p12309
tp12310
Rp12311
atp12312
a(S'alydudek'
p12313
(lp12314
g3
(g4
g5
Vsan-francisco-usa
p12315
tp12316
Rp12317
a(lp12318
(lp12319
(lp12320
g3
(g4
g5
Vsports
p12321
tp12322
Rp12323
atp12324
a(S'aliciakeys'
p12325
(lp12326
(lp12327
(lp12328
g3
(g4
g5
Vnew-york-usa
p12329
tp12330
Rp12331
a(lp12332
g3
(g4
g5
Ventertainment
p12333
tp12334
Rp12335
atp12336
a(S'RepRWilliams'
p12337
(lp12338
g3
(g4
g5
Vnew-york-usa
p12339
tp12340
Rp12341
a(lp12342
g3
(g4
g5
Vsan-francisco-usa
p12343
tp12344
Rp12345
ag3
(g4
g5
Vnew-york-usa
p12346
tp12347
Rp12348
ag3
(g4
g5
Vboston-usa
p12349
tp12350
Rp12351
a(lp12352
(lp12353
g3
(g4
g5
Vpolitics
p12354
tp12355
Rp12356
atp12357
a(S'CharlieDavies9'
p12358
(lp12359
g3
(g4
g5
Vboston-usa
p12360
tp12361
Rp12362
a(lp12363
g3
(g4
g5
Vsan-francisco-usa
p12364
tp12365
Rp12366
ag3
(g4
g5
Vnew-york-usa
p12367
tp12368
Rp12369
ag3
(g4
g5
Vlondon-uk
p12370
tp12371
Rp12372
ag3
(g4
g5
Vboston-usa
p12373
tp12374
Rp12375
a(lp12376
g3
(g4
g5
Vboston-usa
p12377
tp12378
Rp12379
a(lp12380
g3
(g4
g5
Vsports
p12381
tp12382
Rp12383
atp12384
a(S'BobCusack'
p12385
(lp12386
g3
(g4
g5
Vnew-york-usa
p12387
tp12388
Rp12389
a(lp12390
g3
(g4
g5
Vsan-francisco-usa
p12391
tp12392
Rp12393
ag3
(g4
g5
Vnew-york-usa
p12394
tp12395
Rp12396
ag3
(g4
g5
Vboston-usa
p12397
tp12398
Rp12399
a(lp12400
(lp12401
g3
(g4
g5
Vpolitics
p12402
tp12403
Rp12404
atp12405
a(S'DanielMcCutchen'
p12406
(lp12407
g3
(g4
g5
Vnew-york-usa
p12408
tp12409
Rp12410
a(lp12411
g3
(g4
g5
Vsan-francisco-usa
p12412
tp12413
Rp12414
ag3
(g4
g5
Vnew-york-usa
p12415
tp12416
Rp12417
ag3
(g4
g5
Vboston-usa
p12418
tp12419
Rp12420
a(lp12421
(lp12422
g3
(g4
g5
Vsports
p12423
tp12424
Rp12425
atp12426
a(S'RanjiKarnataka'
p12427
(lp12428
(lp12429
g3
(g4
g5
Vbangalore-india
p12430
tp12431
Rp12432
ag3
(g4
g5
Vmumbai-india
p12433
tp12434
Rp12435
a(lp12436
(lp12437
g3
(g4
g5
Vsports
p12438
tp12439
Rp12440
atp12441
a(S'SamirAlRifai'
p12442
(lp12443
(lp12444
(lp12445
(lp12446
g3
(g4
g5
Vpolitics
p12447
tp12448
Rp12449
atp12450
a(S'mattmireles'
p12451
(lp12452
g3
(g4
g5
Vsan-francisco-usa
p12453
tp12454
Rp12455
a(lp12456
g3
(g4
g5
Vsan-francisco-usa
p12457
tp12458
Rp12459
a(lp12460
g3
(g4
g5
Vsan-francisco-usa
p12461
tp12462
Rp12463
a(lp12464
g3
(g4
g5
Vtechnology
p12465
tp12466
Rp12467
atp12468
a(S'YahooSports_NFL'
p12469
(lp12470
(lp12471
(lp12472
g3
(g4
g5
Vsan-francisco-usa
p12473
tp12474
Rp12475
a(lp12476
g3
(g4
g5
Vsports
p12477
tp12478
Rp12479
atp12480
a(S'JohnKingCNN'
p12481
(lp12482
g3
(g4
g5
Vnew-york-usa
p12483
tp12484
Rp12485
a(lp12486
(lp12487
(lp12488
g3
(g4
g5
Vpolitics
p12489
tp12490
Rp12491
atp12492
a(S'RepJuanVargas'
p12493
(lp12494
g3
(g4
g5
Vsan-francisco-usa
p12495
tp12496
Rp12497
a(lp12498
g3
(g4
g5
Vsan-francisco-usa
p12499
tp12500
Rp12501
ag3
(g4
g5
Vnew-york-usa
p12502
tp12503
Rp12504
ag3
(g4
g5
Vboston-usa
p12505
tp12506
Rp12507
a(lp12508
g3
(g4
g5
Vsan-francisco-usa
p12509
tp12510
Rp12511
a(lp12512
g3
(g4
g5
Vpolitics
p12513
tp12514
Rp12515
atp12516
a(S'Mohanlal'
p12517
(lp12518
(lp12519
g3
(g4
g5
Vbangalore-india
p12520
tp12521
Rp12522
ag3
(g4
g5
Vmumbai-india
p12523
tp12524
Rp12525
a(lp12526
(lp12527
g3
(g4
g5
Ventertainment
p12528
tp12529
Rp12530
atp12531
a(S'BAnderson_30'
p12532
(lp12533
(lp12534
g3
(g4
g5
Vsan-francisco-usa
p12535
tp12536
Rp12537
ag3
(g4
g5
Vnew-york-usa
p12538
tp12539
Rp12540
ag3
(g4
g5
Vboston-usa
p12541
tp12542
Rp12543
a(lp12544
(lp12545
g3
(g4
g5
Vsports
p12546
tp12547
Rp12548
atp12549
a(S'KrisAllen'
p12550
(lp12551
(lp12552
(lp12553
(lp12554
g3
(g4
g5
Ventertainment
p12555
tp12556
Rp12557
atp12558
a(S'ramonashelburne'
p12559
(lp12560
(lp12561
g3
(g4
g5
Vsan-francisco-usa
p12562
tp12563
Rp12564
a(lp12565
g3
(g4
g5
Vsan-francisco-usa
p12566
tp12567
Rp12568
a(lp12569
g3
(g4
g5
Vsports
p12570
tp12571
Rp12572
atp12573
a(S'GregJaros'
p12574
(lp12575
(lp12576
(lp12577
(lp12578
g3
(g4
g5
Vtechnology
p12579
tp12580
Rp12581
ag3
(g4
g5
Vbusiness
p12582
tp12583
Rp12584
atp12585
a(S'TimOBrien'
p12586
(lp12587
g3
(g4
g5
Vnew-york-usa
p12588
tp12589
Rp12590
a(lp12591
(lp12592
g3
(g4
g5
Vnew-york-usa
p12593
tp12594
Rp12595
a(lp12596
g3
(g4
g5
Vbusiness
p12597
tp12598
Rp12599
atp12600
a(S'IChitrangda'
p12601
(lp12602
(lp12603
g3
(g4
g5
Vbangalore-india
p12604
tp12605
Rp12606
ag3
(g4
g5
Vmumbai-india
p12607
tp12608
Rp12609
a(lp12610
(lp12611
g3
(g4
g5
Ventertainment
p12612
tp12613
Rp12614
atp12615
a(S'MichaelKitces'
p12616
(lp12617
(lp12618
(lp12619
(lp12620
g3
(g4
g5
Vbusiness
p12621
tp12622
Rp12623
atp12624
a(S'FrankMullens'
p12625
(lp12626
(lp12627
(lp12628
g3
(g4
g5
Vsan-francisco-usa
p12629
tp12630
Rp12631
a(lp12632
g3
(g4
g5
Vbusiness
p12633
tp12634
Rp12635
atp12636
a(S'aparanjape'
p12637
(lp12638
g3
(g4
g5
Vmumbai-india
p12639
tp12640
Rp12641
a(lp12642
g3
(g4
g5
Vbangalore-india
p12643
tp12644
Rp12645
ag3
(g4
g5
Vmumbai-india
p12646
tp12647
Rp12648
a(lp12649
(lp12650
g3
(g4
g5
Vbusiness
p12651
tp12652
Rp12653
atp12654
a(S'SamFeistCNN'
p12655
(lp12656
g3
(g4
g5
Vnew-york-usa
p12657
tp12658
Rp12659
a(lp12660
(lp12661
(lp12662
g3
(g4
g5
Vpolitics
p12663
tp12664
Rp12665
atp12666
a(S'GordonKljestan'
p12667
(lp12668
(lp12669
g3
(g4
g5
Vsan-francisco-usa
p12670
tp12671
Rp12672
ag3
(g4
g5
Vnew-york-usa
p12673
tp12674
Rp12675
ag3
(g4
g5
Vlondon-uk
p12676
tp12677
Rp12678
ag3
(g4
g5
Vboston-usa
p12679
tp12680
Rp12681
a(lp12682
(lp12683
g3
(g4
g5
Vsports
p12684
tp12685
Rp12686
atp12687
a(S'TimJHanrahan'
p12688
(lp12689
g3
(g4
g5
Vnew-york-usa
p12690
tp12691
Rp12692
a(lp12693
(lp12694
(lp12695
g3
(g4
g5
Vpolitics
p12696
tp12697
Rp12698
ag3
(g4
g5
Vbusiness
p12699
tp12700
Rp12701
atp12702
a(S'SenTedCruz'
p12703
(lp12704
(lp12705
g3
(g4
g5
Vsan-francisco-usa
p12706
tp12707
Rp12708
ag3
(g4
g5
Vnew-york-usa
p12709
tp12710
Rp12711
ag3
(g4
g5
Vboston-usa
p12712
tp12713
Rp12714
a(lp12715
(lp12716
g3
(g4
g5
Vpolitics
p12717
tp12718
Rp12719
atp12720
a(S'rohitshettyfilm'
p12721
(lp12722
(lp12723
g3
(g4
g5
Vbangalore-india
p12724
tp12725
Rp12726
ag3
(g4
g5
Vmumbai-india
p12727
tp12728
Rp12729
a(lp12730
(lp12731
g3
(g4
g5
Ventertainment
p12732
tp12733
Rp12734
atp12735
a(S'accomplsh'
p12736
(lp12737
(lp12738
g3
(g4
g5
Vnew-york-usa
p12739
tp12740
Rp12741
a(lp12742
g3
(g4
g5
Vnew-york-usa
p12743
tp12744
Rp12745
a(lp12746
g3
(g4
g5
Vtechnology
p12747
tp12748
Rp12749
atp12750
a(S'emilyhholden'
p12751
(lp12752
g3
(g4
g5
Vnew-york-usa
p12753
tp12754
Rp12755
a(lp12756
g3
(g4
g5
Vsan-francisco-usa
p12757
tp12758
Rp12759
ag3
(g4
g5
Vnew-york-usa
p12760
tp12761
Rp12762
ag3
(g4
g5
Vboston-usa
p12763
tp12764
Rp12765
a(lp12766
(lp12767
g3
(g4
g5
Vpolitics
p12768
tp12769
Rp12770
atp12771
a(S'CNNMoney'
p12772
(lp12773
(lp12774
(lp12775
(lp12776
g3
(g4
g5
Vbusiness
p12777
tp12778
Rp12779
atp12780
a(S'ShaniDavis'
p12781
(lp12782
(lp12783
(lp12784
(lp12785
g3
(g4
g5
Vsports
p12786
tp12787
Rp12788
atp12789
a(S'CB_fundings'
p12790
(lp12791
(lp12792
(lp12793
(lp12794
g3
(g4
g5
Vtechnology
p12795
tp12796
Rp12797
atp12798
a(S'EyeOnThePitch'
p12799
(lp12800
(lp12801
g3
(g4
g5
Vbangalore-india
p12802
tp12803
Rp12804
ag3
(g4
g5
Vmumbai-india
p12805
tp12806
Rp12807
a(lp12808
g3
(g4
g5
Vnew-york-usa
p12809
tp12810
Rp12811
a(lp12812
g3
(g4
g5
Vsports
p12813
tp12814
Rp12815
atp12816
a(S'ShivAroor'
p12817
(lp12818
g3
(g4
g5
Vmumbai-india
p12819
tp12820
Rp12821
a(lp12822
g3
(g4
g5
Vbangalore-india
p12823
tp12824
Rp12825
ag3
(g4
g5
Vmumbai-india
p12826
tp12827
Rp12828
a(lp12829
g3
(g4
g5
Vmumbai-india
p12830
tp12831
Rp12832
a(lp12833
g3
(g4
g5
Vpolitics
p12834
tp12835
Rp12836
atp12837
a(S'humasqureshi'
p12838
(lp12839
(lp12840
g3
(g4
g5
Vbangalore-india
p12841
tp12842
Rp12843
ag3
(g4
g5
Vmumbai-india
p12844
tp12845
Rp12846
a(lp12847
(lp12848
g3
(g4
g5
Ventertainment
p12849
tp12850
Rp12851
atp12852
a(S'DanaBashCNN'
p12853
(lp12854
g3
(g4
g5
Vnew-york-usa
p12855
tp12856
Rp12857
a(lp12858
(lp12859
(lp12860
g3
(g4
g5
Vpolitics
p12861
tp12862
Rp12863
atp12864
a(S'YahooSportsGolf'
p12865
(lp12866
(lp12867
(lp12868
g3
(g4
g5
Vsan-francisco-usa
p12869
tp12870
Rp12871
a(lp12872
g3
(g4
g5
Vsports
p12873
tp12874
Rp12875
atp12876
a(S'GobarGuinness'
p12877
(lp12878
(lp12879
g3
(g4
g5
Vbangalore-india
p12880
tp12881
Rp12882
ag3
(g4
g5
Vmumbai-india
p12883
tp12884
Rp12885
a(lp12886
(lp12887
g3
(g4
g5
Vtechnology
p12888
tp12889
Rp12890
atp12891
a(S'sharmashradha'
p12892
(lp12893
g3
(g4
g5
Vbangalore-india
p12894
tp12895
Rp12896
a(lp12897
g3
(g4
g5
Vbangalore-india
p12898
tp12899
Rp12900
ag3
(g4
g5
Vmumbai-india
p12901
tp12902
Rp12903
a(lp12904
g3
(g4
g5
Vbangalore-india
p12905
tp12906
Rp12907
a(lp12908
g3
(g4
g5
Vtechnology
p12909
tp12910
Rp12911
atp12912
a(S'cparrino'
p12913
(lp12914
(lp12915
(lp12916
g3
(g4
g5
Vlondon-uk
p12917
tp12918
Rp12919
a(lp12920
g3
(g4
g5
Vbusiness
p12921
tp12922
Rp12923
atp12924
a(S'terrybaddoo'
p12925
(lp12926
(lp12927
(lp12928
g3
(g4
g5
Vnew-york-usa
p12929
tp12930
Rp12931
a(lp12932
g3
(g4
g5
Vsports
p12933
tp12934
Rp12935
atp12936
a(S'stickybits'
p12937
(lp12938
(lp12939
g3
(g4
g5
Vnew-york-usa
p12940
tp12941
Rp12942
a(lp12943
(lp12944
g3
(g4
g5
Vtechnology
p12945
tp12946
Rp12947
atp12948
a(S'SuzyWelch'
p12949
(lp12950
(lp12951
(lp12952
(lp12953
g3
(g4
g5
Vbusiness
p12954
tp12955
Rp12956
atp12957
a(S'mbahamoute'
p12958
(lp12959
g3
(g4
g5
Vnew-york-usa
p12960
tp12961
Rp12962
a(lp12963
g3
(g4
g5
Vsan-francisco-usa
p12964
tp12965
Rp12966
ag3
(g4
g5
Vnew-york-usa
p12967
tp12968
Rp12969
ag3
(g4
g5
Vboston-usa
p12970
tp12971
Rp12972
a(lp12973
(lp12974
g3
(g4
g5
Vsports
p12975
tp12976
Rp12977
atp12978
a(S'oneassist_in'
p12979
(lp12980
(lp12981
(lp12982
(lp12983
g3
(g4
g5
Vtechnology
p12984
tp12985
Rp12986
ag3
(g4
g5
Vbusiness
p12987
tp12988
Rp12989
atp12990
a(S'RealTracyMorgan'
p12991
(lp12992
(lp12993
(lp12994
g3
(g4
g5
Vnew-york-usa
p12995
tp12996
Rp12997
a(lp12998
g3
(g4
g5
Ventertainment
p12999
tp13000
Rp13001
atp13002
a(S'vijayshekhar'
p13003
(lp13004
g3
(g4
g5
Vmumbai-india
p13005
tp13006
Rp13007
a(lp13008
g3
(g4
g5
Vbangalore-india
p13009
tp13010
Rp13011
ag3
(g4
g5
Vmumbai-india
p13012
tp13013
Rp13014
a(lp13015
g3
(g4
g5
Vmumbai-india
p13016
tp13017
Rp13018
a(lp13019
g3
(g4
g5
Vtechnology
p13020
tp13021
Rp13022
atp13023
a(S'RepDavidValadao'
p13024
(lp13025
g3
(g4
g5
Vsan-francisco-usa
p13026
tp13027
Rp13028
a(lp13029
g3
(g4
g5
Vsan-francisco-usa
p13030
tp13031
Rp13032
ag3
(g4
g5
Vnew-york-usa
p13033
tp13034
Rp13035
ag3
(g4
g5
Vboston-usa
p13036
tp13037
Rp13038
a(lp13039
g3
(g4
g5
Vsan-francisco-usa
p13040
tp13041
Rp13042
a(lp13043
g3
(g4
g5
Vpolitics
p13044
tp13045
Rp13046
atp13047
a(S'MedvedevRussia'
p13048
(lp13049
(lp13050
(lp13051
(lp13052
g3
(g4
g5
Vpolitics
p13053
tp13054
Rp13055
atp13056
a(S'theChrisMarsh'
p13057
(lp13058
(lp13059
(lp13060
(lp13061
g3
(g4
g5
Vtechnology
p13062
tp13063
Rp13064
ag3
(g4
g5
Vbusiness
p13065
tp13066
Rp13067
atp13068
a(S'KapilSibal'
p13069
(lp13070
(lp13071
g3
(g4
g5
Vbangalore-india
p13072
tp13073
Rp13074
ag3
(g4
g5
Vmumbai-india
p13075
tp13076
Rp13077
a(lp13078
(lp13079
g3
(g4
g5
Vpolitics
p13080
tp13081
Rp13082
atp13083
a(S'Robert_Aderholt'
p13084
(lp13085
(lp13086
g3
(g4
g5
Vsan-francisco-usa
p13087
tp13088
Rp13089
ag3
(g4
g5
Vnew-york-usa
p13090
tp13091
Rp13092
ag3
(g4
g5
Vboston-usa
p13093
tp13094
Rp13095
a(lp13096
(lp13097
g3
(g4
g5
Vpolitics
p13098
tp13099
Rp13100
atp13101
a(S'jmkikwete'
p13102
(lp13103
(lp13104
(lp13105
(lp13106
g3
(g4
g5
Vpolitics
p13107
tp13108
Rp13109
atp13110
a(S'grbj'
p13111
(lp13112
(lp13113
(lp13114
(lp13115
g3
(g4
g5
Vbusiness
p13116
tp13117
Rp13118
atp13119
a(S'ChristianMagoon'
p13120
(lp13121
(lp13122
(lp13123
(lp13124
g3
(g4
g5
Vbusiness
p13125
tp13126
Rp13127
atp13128
a(S'techopedia'
p13129
(lp13130
(lp13131
(lp13132
(lp13133
g3
(g4
g5
Vtechnology
p13134
tp13135
Rp13136
atp13137
a(S'questCNN'
p13138
(lp13139
g3
(g4
g5
Vnew-york-usa
p13140
tp13141
Rp13142
a(lp13143
(lp13144
g3
(g4
g5
Vnew-york-usa
p13145
tp13146
Rp13147
a(lp13148
g3
(g4
g5
Vbusiness
p13149
tp13150
Rp13151
atp13152
a(S'BMBThefilm'
p13153
(lp13154
(lp13155
g3
(g4
g5
Vbangalore-india
p13156
tp13157
Rp13158
ag3
(g4
g5
Vmumbai-india
p13159
tp13160
Rp13161
a(lp13162
(lp13163
g3
(g4
g5
Ventertainment
p13164
tp13165
Rp13166
atp13167
a(S'tracycorrigan'
p13168
(lp13169
g3
(g4
g5
Vnew-york-usa
p13170
tp13171
Rp13172
a(lp13173
(lp13174
g3
(g4
g5
Vnew-york-usa
p13175
tp13176
Rp13177
a(lp13178
g3
(g4
g5
Vbusiness
p13179
tp13180
Rp13181
atp13182
a(S'crowleyCNN'
p13183
(lp13184
g3
(g4
g5
Vnew-york-usa
p13185
tp13186
Rp13187
a(lp13188
(lp13189
(lp13190
g3
(g4
g5
Vpolitics
p13191
tp13192
Rp13193
atp13194
a(S'RonnieScrewvala'
p13195
(lp13196
g3
(g4
g5
Vmumbai-india
p13197
tp13198
Rp13199
a(lp13200
g3
(g4
g5
Vbangalore-india
p13201
tp13202
Rp13203
ag3
(g4
g5
Vmumbai-india
p13204
tp13205
Rp13206
a(lp13207
g3
(g4
g5
Vmumbai-india
p13208
tp13209
Rp13210
a(lp13211
g3
(g4
g5
Ventertainment
p13212
tp13213
Rp13214
atp13215
a(S'rvenk'
p13216
(lp13217
g3
(g4
g5
Vbangalore-india
p13218
tp13219
Rp13220
a(lp13221
g3
(g4
g5
Vbangalore-india
p13222
tp13223
Rp13224
ag3
(g4
g5
Vmumbai-india
p13225
tp13226
Rp13227
a(lp13228
g3
(g4
g5
Vbangalore-india
p13229
tp13230
Rp13231
a(lp13232
g3
(g4
g5
Vtechnology
p13233
tp13234
Rp13235
atp13236
a(S'BJPRajnathSingh'
p13237
(lp13238
(lp13239
g3
(g4
g5
Vbangalore-india
p13240
tp13241
Rp13242
ag3
(g4
g5
Vmumbai-india
p13243
tp13244
Rp13245
a(lp13246
(lp13247
g3
(g4
g5
Vpolitics
p13248
tp13249
Rp13250
atp13251
a(S'vrinda_90'
p13252
(lp13253
g3
(g4
g5
Vmumbai-india
p13254
tp13255
Rp13256
a(lp13257
g3
(g4
g5
Vbangalore-india
p13258
tp13259
Rp13260
ag3
(g4
g5
Vmumbai-india
p13261
tp13262
Rp13263
a(lp13264
g3
(g4
g5
Vmumbai-india
p13265
tp13266
Rp13267
a(lp13268
g3
(g4
g5
Ventertainment
p13269
tp13270
Rp13271
atp13272
a(S'PATRICKCNN'
p13273
(lp13274
(lp13275
(lp13276
g3
(g4
g5
Vnew-york-usa
p13277
tp13278
Rp13279
a(lp13280
g3
(g4
g5
Vsports
p13281
tp13282
Rp13283
atp13284
a(S'Bill_Gross'
p13285
(lp13286
(lp13287
(lp13288
g3
(g4
g5
Vsan-francisco-usa
p13289
tp13290
Rp13291
a(lp13292
g3
(g4
g5
Vtechnology
p13293
tp13294
Rp13295
ag3
(g4
g5
Vbusiness
p13296
tp13297
Rp13298
atp13299
a(S'LuxNarayan'
p13300
(lp13301
(lp13302
(lp13303
(lp13304
g3
(g4
g5
Vtechnology
p13305
tp13306
Rp13307
ag3
(g4
g5
Vbusiness
p13308
tp13309
Rp13310
atp13311
a(S'aditiraohydari'
p13312
(lp13313
(lp13314
g3
(g4
g5
Vbangalore-india
p13315
tp13316
Rp13317
ag3
(g4
g5
Vmumbai-india
p13318
tp13319
Rp13320
a(lp13321
(lp13322
g3
(g4
g5
Ventertainment
p13323
tp13324
Rp13325
atp13326
a(S'jonweisman'
p13327
(lp13328
(lp13329
g3
(g4
g5
Vsan-francisco-usa
p13330
tp13331
Rp13332
a(lp13333
g3
(g4
g5
Vsan-francisco-usa
p13334
tp13335
Rp13336
a(lp13337
g3
(g4
g5
Vsports
p13338
tp13339
Rp13340
atp13341
a(S'julpepitone'
p13342
(lp13343
(lp13344
(lp13345
(lp13346
g3
(g4
g5
Vtechnology
p13347
tp13348
Rp13349
atp13350
a(S'KateMilani'
p13351
(lp13352
g3
(g4
g5
Vnew-york-usa
p13353
tp13354
Rp13355
a(lp13356
(lp13357
(lp13358
g3
(g4
g5
Vpolitics
p13359
tp13360
Rp13361
atp13362
a(S'QueenRania'
p13363
(lp13364
g3
(g4
g5
Vlondon-uk
p13365
tp13366
Rp13367
a(lp13368
(lp13369
(lp13370
g3
(g4
g5
Vpolitics
p13371
tp13372
Rp13373
atp13374
a(S'sergeybrinn'
p13375
(lp13376
(lp13377
(lp13378
(lp13379
g3
(g4
g5
Vtechnology
p13380
tp13381
Rp13382
ag3
(g4
g5
Vbusiness
p13383
tp13384
Rp13385
atp13386
a(S'SoyElChapu'
p13387
(lp13388
g3
(g4
g5
Vnew-york-usa
p13389
tp13390
Rp13391
a(lp13392
g3
(g4
g5
Vsan-francisco-usa
p13393
tp13394
Rp13395
ag3
(g4
g5
Vnew-york-usa
p13396
tp13397
Rp13398
ag3
(g4
g5
Vboston-usa
p13399
tp13400
Rp13401
a(lp13402
(lp13403
g3
(g4
g5
Vsports
p13404
tp13405
Rp13406
atp13407
a(S'adnys'
p13408
(lp13409
(lp13410
(lp13411
(lp13412
g3
(g4
g5
Vtechnology
p13413
tp13414
Rp13415
atp13416
a(S'EvelynRusli'
p13417
(lp13418
(lp13419
(lp13420
g3
(g4
g5
Vsan-francisco-usa
p13421
tp13422
Rp13423
a(lp13424
g3
(g4
g5
Vtechnology
p13425
tp13426
Rp13427
atp13428
a(S'wolfblitzer'
p13429
(lp13430
(lp13431
(lp13432
g3
(g4
g5
Vnew-york-usa
p13433
tp13434
Rp13435
a(lp13436
g3
(g4
g5
Vpolitics
p13437
tp13438
Rp13439
atp13440
a(S'CFOAlexSink'
p13441
(lp13442
g3
(g4
g5
Vnew-york-usa
p13443
tp13444
Rp13445
a(lp13446
(lp13447
(lp13448
g3
(g4
g5
Vbusiness
p13449
tp13450
Rp13451
atp13452
a(S'jeromezingg'
p13453
(lp13454
g3
(g4
g5
Vnew-york-usa
p13455
tp13456
Rp13457
a(lp13458
(lp13459
g3
(g4
g5
Vsan-francisco-usa
p13460
tp13461
Rp13462
ag3
(g4
g5
Vnew-york-usa
p13463
tp13464
Rp13465
ag3
(g4
g5
Vboston-usa
p13466
tp13467
Rp13468
a(lp13469
g3
(g4
g5
Vtechnology
p13470
tp13471
Rp13472
ag3
(g4
g5
Vbusiness
p13473
tp13474
Rp13475
atp13476
a(S'hmorgan422'
p13477
(lp13478
(lp13479
(lp13480
g3
(g4
g5
Vsan-francisco-usa
p13481
tp13482
Rp13483
a(lp13484
g3
(g4
g5
Vbusiness
p13485
tp13486
Rp13487
atp13488
a(S'FreddyAdu'
p13489
(lp13490
(lp13491
g3
(g4
g5
Vsan-francisco-usa
p13492
tp13493
Rp13494
ag3
(g4
g5
Vnew-york-usa
p13495
tp13496
Rp13497
ag3
(g4
g5
Vlondon-uk
p13498
tp13499
Rp13500
ag3
(g4
g5
Vboston-usa
p13501
tp13502
Rp13503
a(lp13504
g3
(g4
g5
Vsan-francisco-usa
p13505
tp13506
Rp13507
ag3
(g4
g5
Vnew-york-usa
p13508
tp13509
Rp13510
ag3
(g4
g5
Vboston-usa
p13511
tp13512
Rp13513
a(lp13514
g3
(g4
g5
Vsports
p13515
tp13516
Rp13517
atp13518
a(S'AlannaPetroff'
p13519
(lp13520
(lp13521
(lp13522
g3
(g4
g5
Vlondon-uk
p13523
tp13524
Rp13525
a(lp13526
g3
(g4
g5
Vbusiness
p13527
tp13528
Rp13529
atp13530
a(S'ItsTheSituation'
p13531
(lp13532
(lp13533
(lp13534
(lp13535
g3
(g4
g5
Ventertainment
p13536
tp13537
Rp13538
atp13539
a(S'OfficeDrBegJKNC'
p13540
(lp13541
(lp13542
g3
(g4
g5
Vbangalore-india
p13543
tp13544
Rp13545
ag3
(g4
g5
Vmumbai-india
p13546
tp13547
Rp13548
a(lp13549
(lp13550
g3
(g4
g5
Vpolitics
p13551
tp13552
Rp13553
atp13554
a(S'WorldSportCNN'
p13555
(lp13556
(lp13557
(lp13558
(lp13559
g3
(g4
g5
Vsports
p13560
tp13561
Rp13562
atp13563
a(S'PawarSpeaks'
p13564
(lp13565
(lp13566
g3
(g4
g5
Vbangalore-india
p13567
tp13568
Rp13569
ag3
(g4
g5
Vmumbai-india
p13570
tp13571
Rp13572
a(lp13573
(lp13574
g3
(g4
g5
Vpolitics
p13575
tp13576
Rp13577
atp13578
a(S'LauraLandroWSJ'
p13579
(lp13580
(lp13581
(lp13582
(lp13583
g3
(g4
g5
Vbusiness
p13584
tp13585
Rp13586
atp13587
a(S'dhanushkraja'
p13588
(lp13589
(lp13590
g3
(g4
g5
Vbangalore-india
p13591
tp13592
Rp13593
ag3
(g4
g5
Vmumbai-india
p13594
tp13595
Rp13596
a(lp13597
(lp13598
g3
(g4
g5
Ventertainment
p13599
tp13600
Rp13601
atp13602
a(S'ShivSDarshan'
p13603
(lp13604
g3
(g4
g5
Vmumbai-india
p13605
tp13606
Rp13607
a(lp13608
g3
(g4
g5
Vbangalore-india
p13609
tp13610
Rp13611
ag3
(g4
g5
Vmumbai-india
p13612
tp13613
Rp13614
a(lp13615
g3
(g4
g5
Vmumbai-india
p13616
tp13617
Rp13618
a(lp13619
g3
(g4
g5
Ventertainment
p13620
tp13621
Rp13622
atp13623
a(S'Neda_Semnani'
p13624
(lp13625
(lp13626
g3
(g4
g5
Vsan-francisco-usa
p13627
tp13628
Rp13629
ag3
(g4
g5
Vnew-york-usa
p13630
tp13631
Rp13632
ag3
(g4
g5
Vboston-usa
p13633
tp13634
Rp13635
a(lp13636
(lp13637
g3
(g4
g5
Vpolitics
p13638
tp13639
Rp13640
atp13641
a(S'kimjmurray'
p13642
(lp13643
(lp13644
(lp13645
(lp13646
g3
(g4
g5
Vbusiness
p13647
tp13648
Rp13649
atp13650
a(S'PEPE_LOBO'
p13651
(lp13652
(lp13653
(lp13654
(lp13655
g3
(g4
g5
Vpolitics
p13656
tp13657
Rp13658
atp13659
a(S'MattAntonelli9'
p13660
(lp13661
(lp13662
g3
(g4
g5
Vsan-francisco-usa
p13663
tp13664
Rp13665
ag3
(g4
g5
Vnew-york-usa
p13666
tp13667
Rp13668
ag3
(g4
g5
Vboston-usa
p13669
tp13670
Rp13671
a(lp13672
(lp13673
g3
(g4
g5
Vsports
p13674
tp13675
Rp13676
atp13677
a(S'MichaelFertman'
p13678
(lp13679
(lp13680
(lp13681
(lp13682
g3
(g4
g5
Vbusiness
p13683
tp13684
Rp13685
atp13686
a(S'DexterFowler'
p13687
(lp13688
g3
(g4
g5
Vnew-york-usa
p13689
tp13690
Rp13691
a(lp13692
g3
(g4
g5
Vsan-francisco-usa
p13693
tp13694
Rp13695
ag3
(g4
g5
Vnew-york-usa
p13696
tp13697
Rp13698
ag3
(g4
g5
Vboston-usa
p13699
tp13700
Rp13701
a(lp13702
(lp13703
g3
(g4
g5
Vsports
p13704
tp13705
Rp13706
atp13707
a(S'CasaCivilBR'
p13708
(lp13709
(lp13710
(lp13711
(lp13712
g3
(g4
g5
Vpolitics
p13713
tp13714
Rp13715
atp13716
a(S'S1dharthM'
p13717
(lp13718
(lp13719
g3
(g4
g5
Vbangalore-india
p13720
tp13721
Rp13722
ag3
(g4
g5
Vmumbai-india
p13723
tp13724
Rp13725
a(lp13726
(lp13727
g3
(g4
g5
Ventertainment
p13728
tp13729
Rp13730
atp13731
a(S'KamBrothers'
p13732
(lp13733
g3
(g4
g5
Vsan-francisco-usa
p13734
tp13735
Rp13736
a(lp13737
g3
(g4
g5
Vsan-francisco-usa
p13738
tp13739
Rp13740
a(lp13741
(lp13742
g3
(g4
g5
Vsports
p13743
tp13744
Rp13745
atp13746
a(S'PierceBrosnan'
p13747
(lp13748
(lp13749
(lp13750
(lp13751
g3
(g4
g5
Ventertainment
p13752
tp13753
Rp13754
atp13755
a(S'businessgp'
p13756
(lp13757
(lp13758
(lp13759
g3
(g4
g5
Vlondon-uk
p13760
tp13761
Rp13762
a(lp13763
g3
(g4
g5
Vbusiness
p13764
tp13765
Rp13766
atp13767
a(S'dreamgirlhema'
p13768
(lp13769
g3
(g4
g5
Vmumbai-india
p13770
tp13771
Rp13772
a(lp13773
g3
(g4
g5
Vbangalore-india
p13774
tp13775
Rp13776
ag3
(g4
g5
Vmumbai-india
p13777
tp13778
Rp13779
a(lp13780
g3
(g4
g5
Vmumbai-india
p13781
tp13782
Rp13783
a(lp13784
g3
(g4
g5
Ventertainment
p13785
tp13786
Rp13787
atp13788
a(S'giorakaplan'
p13789
(lp13790
(lp13791
(lp13792
(lp13793
g3
(g4
g5
Vtechnology
p13794
tp13795
Rp13796
ag3
(g4
g5
Vbusiness
p13797
tp13798
Rp13799
atp13800
a(S'BilbrayCA50'
p13801
(lp13802
(lp13803
g3
(g4
g5
Vsan-francisco-usa
p13804
tp13805
Rp13806
ag3
(g4
g5
Vnew-york-usa
p13807
tp13808
Rp13809
ag3
(g4
g5
Vboston-usa
p13810
tp13811
Rp13812
a(lp13813
g3
(g4
g5
Vsan-francisco-usa
p13814
tp13815
Rp13816
a(lp13817
g3
(g4
g5
Vpolitics
p13818
tp13819
Rp13820
atp13821
a(S'SteveCase'
p13822
(lp13823
g3
(g4
g5
Vnew-york-usa
p13824
tp13825
Rp13826
a(lp13827
(lp13828
(lp13829
g3
(g4
g5
Vtechnology
p13830
tp13831
Rp13832
atp13833
a(S'Emma_Dumain'
p13834
(lp13835
g3
(g4
g5
Vnew-york-usa
p13836
tp13837
Rp13838
a(lp13839
g3
(g4
g5
Vsan-francisco-usa
p13840
tp13841
Rp13842
ag3
(g4
g5
Vnew-york-usa
p13843
tp13844
Rp13845
ag3
(g4
g5
Vboston-usa
p13846
tp13847
Rp13848
a(lp13849
(lp13850
g3
(g4
g5
Vpolitics
p13851
tp13852
Rp13853
atp13854
a(S'wadhwa'
p13855
(lp13856
(lp13857
g3
(g4
g5
Vbangalore-india
p13858
tp13859
Rp13860
ag3
(g4
g5
Vmumbai-india
p13861
tp13862
Rp13863
a(lp13864
g3
(g4
g5
Vsan-francisco-usa
p13865
tp13866
Rp13867
a(lp13868
g3
(g4
g5
Vtechnology
p13869
tp13870
Rp13871
atp13872
a(S'benparr'
p13873
(lp13874
(lp13875
(lp13876
g3
(g4
g5
Vsan-francisco-usa
p13877
tp13878
Rp13879
a(lp13880
g3
(g4
g5
Vtechnology
p13881
tp13882
Rp13883
atp13884
a(S'justinbolsen'
p13885
(lp13886
g3
(g4
g5
Vboston-usa
p13887
tp13888
Rp13889
a(lp13890
(lp13891
g3
(g4
g5
Vnew-york-usa
p13892
tp13893
Rp13894
a(lp13895
g3
(g4
g5
Vsports
p13896
tp13897
Rp13898
atp13899
a(S'edatnews'
p13900
(lp13901
(lp13902
(lp13903
(lp13904
g3
(g4
g5
Vtechnology
p13905
tp13906
Rp13907
atp13908
a(S'_ravidubey'
p13909
(lp13910
(lp13911
g3
(g4
g5
Vbangalore-india
p13912
tp13913
Rp13914
ag3
(g4
g5
Vmumbai-india
p13915
tp13916
Rp13917
a(lp13918
(lp13919
g3
(g4
g5
Ventertainment
p13920
tp13921
Rp13922
atp13923
a(S'KellyO'
p13924
(lp13925
g3
(g4
g5
Vnew-york-usa
p13926
tp13927
Rp13928
a(lp13929
g3
(g4
g5
Vsan-francisco-usa
p13930
tp13931
Rp13932
ag3
(g4
g5
Vnew-york-usa
p13933
tp13934
Rp13935
ag3
(g4
g5
Vboston-usa
p13936
tp13937
Rp13938
a(lp13939
(lp13940
g3
(g4
g5
Vpolitics
p13941
tp13942
Rp13943
atp13944
a(S'ramsayz'
p13945
(lp13946
(lp13947
g3
(g4
g5
Vbangalore-india
p13948
tp13949
Rp13950
ag3
(g4
g5
Vmumbai-india
p13951
tp13952
Rp13953
a(lp13954
(lp13955
g3
(g4
g5
Ventertainment
p13956
tp13957
Rp13958
atp13959
a(S'tamannaahspeaks'
p13960
(lp13961
(lp13962
g3
(g4
g5
Vbangalore-india
p13963
tp13964
Rp13965
ag3
(g4
g5
Vmumbai-india
p13966
tp13967
Rp13968
a(lp13969
(lp13970
g3
(g4
g5
Ventertainment
p13971
tp13972
Rp13973
atp13974
a(S'ArnabGoswami_'
p13975
(lp13976
(lp13977
g3
(g4
g5
Vbangalore-india
p13978
tp13979
Rp13980
ag3
(g4
g5
Vmumbai-india
p13981
tp13982
Rp13983
a(lp13984
(lp13985
g3
(g4
g5
Vpolitics
p13986
tp13987
Rp13988
atp13989
a(S'ErinMcPike'
p13990
(lp13991
g3
(g4
g5
Vnew-york-usa
p13992
tp13993
Rp13994
a(lp13995
(lp13996
(lp13997
g3
(g4
g5
Vpolitics
p13998
tp13999
Rp14000
atp14001
a(S'RobManger'
p14002
(lp14003
g3
(g4
g5
Vnew-york-usa
p14004
tp14005
Rp14006
a(lp14007
(lp14008
g3
(g4
g5
Vnew-york-usa
p14009
tp14010
Rp14011
a(lp14012
g3
(g4
g5
Vbusiness
p14013
tp14014
Rp14015
atp14016
a(S'TheVijayMallya'
p14017
(lp14018
(lp14019
g3
(g4
g5
Vbangalore-india
p14020
tp14021
Rp14022
ag3
(g4
g5
Vmumbai-india
p14023
tp14024
Rp14025
a(lp14026
(lp14027
g3
(g4
g5
Vbusiness
p14028
tp14029
Rp14030
atp14031
a(S'RalphJohnsonII'
p14032
(lp14033
(lp14034
(lp14035
(lp14036
g3
(g4
g5
Vtechnology
p14037
tp14038
Rp14039
ag3
(g4
g5
Vbusiness
p14040
tp14041
Rp14042
atp14043
a(S'cpassariello'
p14044
(lp14045
(lp14046
(lp14047
(lp14048
g3
(g4
g5
Ventertainment
p14049
tp14050
Rp14051
atp14052
a(S'farnamstreet'
p14053
(lp14054
(lp14055
(lp14056
(lp14057
g3
(g4
g5
Vbusiness
p14058
tp14059
Rp14060
atp14061
a(S'umasribharti'
p14062
(lp14063
(lp14064
g3
(g4
g5
Vbangalore-india
p14065
tp14066
Rp14067
ag3
(g4
g5
Vmumbai-india
p14068
tp14069
Rp14070
a(lp14071
(lp14072
g3
(g4
g5
Vpolitics
p14073
tp14074
Rp14075
atp14076
a(S'Pallamrajumm'
p14077
(lp14078
(lp14079
g3
(g4
g5
Vbangalore-india
p14080
tp14081
Rp14082
ag3
(g4
g5
Vmumbai-india
p14083
tp14084
Rp14085
a(lp14086
g3
(g4
g5
Vmumbai-india
p14087
tp14088
Rp14089
a(lp14090
g3
(g4
g5
Vpolitics
p14091
tp14092
Rp14093
atp14094
a(S'CIOsConnect'
p14095
(lp14096
(lp14097
(lp14098
(lp14099
g3
(g4
g5
Vtechnology
p14100
tp14101
Rp14102
ag3
(g4
g5
Vbusiness
p14103
tp14104
Rp14105
atp14106
a(S'GayleCNN'
p14107
(lp14108
g3
(g4
g5
Vnew-york-usa
p14109
tp14110
Rp14111
a(lp14112
(lp14113
g3
(g4
g5
Vnew-york-usa
p14114
tp14115
Rp14116
a(lp14117
g3
(g4
g5
Vbusiness
p14118
tp14119
Rp14120
atp14121
a(S'hanrahan52'
p14122
(lp14123
(lp14124
g3
(g4
g5
Vsan-francisco-usa
p14125
tp14126
Rp14127
ag3
(g4
g5
Vnew-york-usa
p14128
tp14129
Rp14130
ag3
(g4
g5
Vboston-usa
p14131
tp14132
Rp14133
a(lp14134
(lp14135
g3
(g4
g5
Vsports
p14136
tp14137
Rp14138
atp14139
a(S'WinRumors'
p14140
(lp14141
(lp14142
(lp14143
(lp14144
g3
(g4
g5
Vtechnology
p14145
tp14146
Rp14147
atp14148
a(S'thejointstaff'
p14149
(lp14150
g3
(g4
g5
Vnew-york-usa
p14151
tp14152
Rp14153
a(lp14154
(lp14155
g3
(g4
g5
Vnew-york-usa
p14156
tp14157
Rp14158
a(lp14159
g3
(g4
g5
Vpolitics
p14160
tp14161
Rp14162
atp14163
a(S'ShanTravisCNN'
p14164
(lp14165
g3
(g4
g5
Vnew-york-usa
p14166
tp14167
Rp14168
a(lp14169
(lp14170
(lp14171
g3
(g4
g5
Vpolitics
p14172
tp14173
Rp14174
atp14175
a(S'alyankovic'
p14176
(lp14177
(lp14178
(lp14179
g3
(g4
g5
Vsan-francisco-usa
p14180
tp14181
Rp14182
a(lp14183
g3
(g4
g5
Ventertainment
p14184
tp14185
Rp14186
atp14187
a(S'terryadamsbmx'
p14188
(lp14189
(lp14190
(lp14191
(lp14192
g3
(g4
g5
Vsports
p14193
tp14194
Rp14195
atp14196
a(S'ChouhanShivraj'
p14197
(lp14198
(lp14199
g3
(g4
g5
Vbangalore-india
p14200
tp14201
Rp14202
ag3
(g4
g5
Vmumbai-india
p14203
tp14204
Rp14205
a(lp14206
(lp14207
g3
(g4
g5
Vpolitics
p14208
tp14209
Rp14210
atp14211
a(S'silviobullara'
p14212
(lp14213
(lp14214
(lp14215
(lp14216
g3
(g4
g5
Vtechnology
p14217
tp14218
Rp14219
ag3
(g4
g5
Vbusiness
p14220
tp14221
Rp14222
atp14223
a(S'KeithRothfus'
p14224
(lp14225
(lp14226
g3
(g4
g5
Vsan-francisco-usa
p14227
tp14228
Rp14229
ag3
(g4
g5
Vnew-york-usa
p14230
tp14231
Rp14232
ag3
(g4
g5
Vboston-usa
p14233
tp14234
Rp14235
a(lp14236
(lp14237
g3
(g4
g5
Vpolitics
p14238
tp14239
Rp14240
atp14241
a(S'SarahBrownUK'
p14242
(lp14243
g3
(g4
g5
Vlondon-uk
p14244
tp14245
Rp14246
a(lp14247
(lp14248
g3
(g4
g5
Vlondon-uk
p14249
tp14250
Rp14251
a(lp14252
g3
(g4
g5
Vpolitics
p14253
tp14254
Rp14255
atp14256
a(S'daily'
p14257
(lp14258
(lp14259
(lp14260
(lp14261
g3
(g4
g5
Vtechnology
p14262
tp14263
Rp14264
atp14265
a(S'sanjayjee'
p14266
(lp14267
(lp14268
g3
(g4
g5
Vbangalore-india
p14269
tp14270
Rp14271
ag3
(g4
g5
Vmumbai-india
p14272
tp14273
Rp14274
a(lp14275
(lp14276
g3
(g4
g5
Vbusiness
p14277
tp14278
Rp14279
atp14280
a(S'jeffsparshott'
p14281
(lp14282
g3
(g4
g5
Vnew-york-usa
p14283
tp14284
Rp14285
a(lp14286
(lp14287
(lp14288
g3
(g4
g5
Vbusiness
p14289
tp14290
Rp14291
atp14292
a(S'Fayarjomandi'
p14293
(lp14294
(lp14295
(lp14296
g3
(g4
g5
Vsan-francisco-usa
p14297
tp14298
Rp14299
a(lp14300
g3
(g4
g5
Vtechnology
p14301
tp14302
Rp14303
ag3
(g4
g5
Vbusiness
p14304
tp14305
Rp14306
atp14307
a(S'Forbes'
p14308
(lp14309
(lp14310
(lp14311
g3
(g4
g5
Vnew-york-usa
p14312
tp14313
Rp14314
a(lp14315
g3
(g4
g5
Vbusiness
p14316
tp14317
Rp14318
atp14319
a(S'JudgeTedPoe'
p14320
(lp14321
(lp14322
g3
(g4
g5
Vsan-francisco-usa
p14323
tp14324
Rp14325
ag3
(g4
g5
Vnew-york-usa
p14326
tp14327
Rp14328
ag3
(g4
g5
Vboston-usa
p14329
tp14330
Rp14331
a(lp14332
(lp14333
g3
(g4
g5
Vpolitics
p14334
tp14335
Rp14336
atp14337
a(S'nytmnews'
p14338
(lp14339
g3
(g4
g5
Vnew-york-usa
p14340
tp14341
Rp14342
a(lp14343
g3
(g4
g5
Vnew-york-usa
p14344
tp14345
Rp14346
a(lp14347
g3
(g4
g5
Vnew-york-usa
p14348
tp14349
Rp14350
a(lp14351
g3
(g4
g5
Vtechnology
p14352
tp14353
Rp14354
atp14355
a(S'sonalchauhan7'
p14356
(lp14357
(lp14358
g3
(g4
g5
Vbangalore-india
p14359
tp14360
Rp14361
ag3
(g4
g5
Vmumbai-india
p14362
tp14363
Rp14364
a(lp14365
g3
(g4
g5
Vmumbai-india
p14366
tp14367
Rp14368
a(lp14369
g3
(g4
g5
Ventertainment
p14370
tp14371
Rp14372
atp14373
a(S'azpresident'
p14374
(lp14375
(lp14376
(lp14377
(lp14378
g3
(g4
g5
Vpolitics
p14379
tp14380
Rp14381
atp14382
a(S'ApoorvaLakhia'
p14383
(lp14384
(lp14385
g3
(g4
g5
Vbangalore-india
p14386
tp14387
Rp14388
ag3
(g4
g5
Vmumbai-india
p14389
tp14390
Rp14391
a(lp14392
(lp14393
g3
(g4
g5
Ventertainment
p14394
tp14395
Rp14396
atp14397
a.