(lp0
(S'NabamtukiINC'
p1
S'Arunachal Pradesh,India'
p2
S'forbes_india'
p3
S'politicians'
p4
I2208395131
tp5
a(S'arunjaitley'
p6
S'New Delhi'
p7
g3
g4
I2183816041
tp8
a(S'KapilSibal'
p9
S'India'
p10
g3
g4
I1910442534
tp11
a(S'NandanNilekani'
p12
S'Bangalore / New Delhi'
p13
g3
g4
I1867843520
tp14
a(S'VasundharaBJP'
p15
V
p16
g3
g4
I1288175774
tp17
a(S'ChouhanShivraj'
p18
S'Madhya Pradesh'
p19
g3
g4
I1251083774
tp20
a(S'Pallamrajumm'
p21
S'New Delhi, India '
p22
g3
g4
I1154869812
tp23
a(S'INCIndia'
p24
S'New Delhi, India'
p25
g3
g4
I1153045459
tp26
a(S'SinghRPN'
p27
S'Padrauna,Kushinagar,Delhi'
p28
g3
g4
I1119384594
tp29
a(S'ManishTewari'
p30
S'New Delhi'
p31
g3
g4
I936695288
tp32
a(S'tarun_gogoi'
p33
S'Assam, India'
p34
g3
g4
I849477276
tp35
a(S'PriyaDutt_MP'
p36
S'Mumbai, India'
p37
g3
g4
I764334150
tp38
a(S'UPAGovt'
p39
g16
g3
g4
I763853540
tp40
a(S'drcpjoshi'
p41
S'India'
p42
g3
g4
I551757469
tp43
a(S'ArunBhatiaPune'
p44
S'Pune'
p45
g3
g4
I504628232
tp46
a(S'PMOIndia'
p47
S'New Delhi '
p48
g3
g4
I471741741
tp49
a(S'ArvindKejriwal'
p50
S'India'
p51
g3
g4
I405427035
tp52
a(S'ashokgehlot51'
p53
S'india'
p54
g3
g4
I385926583
tp55
a(S'drramansingh'
p56
S'Chhattisgarh India'
p57
g3
g4
I373280952
tp58
a(S'digvijaya_28'
p59
S'Delhi'
p60
g3
g4
I371730289
tp61
a.