(lp0
(S'HNY'
p1
V
p2
S'glamsham'
p3
S'celebrities'
p4
I2243499816
tp5
a(S'tamannaahspeaks'
p6
g2
g3
g4
I2226496302
tp7
a(S'ShivSDarshan'
p8
S'Mumbai'
p9
g3
g4
I2204441629
tp10
a(S'Ileana_Official'
p11
g2
g3
g4
I2177710981
tp12
a(S'eshagupta2811'
p13
g2
g3
g4
I2149178965
tp14
a(S'AnilKapoor'
p15
g2
g3
g4
I1652526218
tp16
a(S'KaranJoharTeam'
p17
S'Karan Johar himself follows us'
p18
g3
g4
I1415510161
tp19
a(S'AdityaRoyKapoor'
p20
S'Mumbai'
p21
g3
g4
I1341031969
tp22
a(S'IChitrangda'
p23
g2
g3
g4
I1021419306
tp24
a(S'sarojkhanji'
p25
S'Mumbai'
p26
g3
g4
I994521204
tp27
a(S'ChennaiExp2013'
p28
g2
g3
g4
I990928986
tp29
a(S'S1dharthM'
p30
g2
g3
g4
I950165300
tp31
a(S'TheJohnAbraham'
p32
g2
g3
g4
I947192262
tp33
a(S'asliyoyo'
p34
S'Mumbai / Dilli / Dubai'
p35
g3
g4
I769727912
tp36
a(S'BMBThefilm'
p37
g2
g3
g4
I757359614
tp38
a(S'PDdancing'
p39
S'India'
p40
g3
g4
I700568101
tp41
a(S'MikaSingh'
p42
g2
g3
g4
I613321095
tp43
a(S'RonnieScrewvala'
p44
S'Mumbai'
p45
g3
g4
I586361294
tp46
a(S'1Prachidesai'
p47
g2
g3
g4
I581579728
tp48
a(S'rohitshettyfilm'
p49
g2
g3
g4
I580451271
tp50
a.