(lp0
(S'AmirAmelZadeh'
p1
V
p2
S'HarvardHBS'
p3
S'hbs-faculty'
p4
I957363606
tp5
a(S'LesliePerlow'
p6
g2
g3
g4
I558665888
tp7
a(S'amyjccuddy'
p8
S'Harvard Business School'
p9
g3
g4
I529140270
tp10
a(S'uma_karma'
p11
g2
g3
g4
I399549643
tp12
a(S'MichaelTushman'
p13
S'Cambridge, MA, USA'
p14
g3
g4
I394911586
tp15
a(S'GeorgeSerafeim'
p16
g2
g3
g4
I304692002
tp17
a(S'KrishnaGPalepu'
p18
S'Boston, MA'
p19
g3
g4
I300480096
tp20
a(S'RobSKaplan'
p21
S'Boston'
p22
g3
g4
I295368170
tp23
a(S'Prof_Malhotra'
p24
S'Boston, MA'
p25
g3
g4
I253854657
tp26
a(S'rgeccles'
p27
S'Lexington, MA'
p28
g3
g4
I173976000
tp29
a(S'HHSHBS'
p30
g2
g3
g4
I109309913
tp31
a(S'nancykoehn'
p32
S'Boston, MA'
p33
g3
g4
I97218207
tp34
a(S'RosabethKanter'
p35
S'Boston, MA'
p36
g3
g4
I68768975
tp37
a(S'Pozen'
p38
S'Boston, MA USA'
p39
g3
g4
I65538216
tp40
a(S'MichaelEPorter'
p41
S'Harvard Business School'
p42
g3
g4
I64498695
tp43
a(S'Anita_Tucker'
p44
S'Boston, MA'
p45
g3
g4
I64400770
tp46
a(S'Bill_George'
p47
S'Minneapolis, MN'
p48
g3
g4
I62522718
tp49
a(S'claychristensen'
p50
S'Boston, MA'
p51
g3
g4
I60308942
tp52
a(S'pianshu'
p53
S'Boston, MA'
p54
g3
g4
I55330397
tp55
a(S'nfergus'
p56
S'On the road'
p57
g3
g4
I49279876
tp58
a.