(lp0
(S'ericschmidt'
p1
S'Mountain View, CA'
p2
S'HarvardBiz'
p3
S'innovation'
p4
I93957809
tp5
a(S'ScottDAnthony'
p6
S'Singapore'
p7
g3
g4
I18163162
tp8
a(S'TheBIF'
p9
S'Providence, RI'
p10
g3
g4
I17325009
tp11
a(S'TEDchris'
p12
S'New York City'
p13
g3
g4
I14761795
tp14
a(S'poptech'
p15
S'Camden, Maine'
p16
g3
g4
I14514411
tp17
a(S'jjsviokla'
p18
S'Newton, MA'
p19
g3
g4
I14117196
tp20
a(S'nilofer'
p21
S'Silicon Valley, CA'
p22
g3
g4
I12354252
tp23
a(S'cshirky'
p24
S'New York City'
p25
g3
g4
I6141832
tp26
a.