(lp0
(S'JustinArmsden9'
p1
S'Sydney'
p2
S'iDeskCNN'
p3
S'cnn-world-sport'
p4
tp5
a(S'kategilescnn'
p6
S''
p7
g3
g4
tp8
a(S'pedropintotv'
p9
S'London'
p10
g3
g4
tp11
a(S'EldergillCNN'
p12
S'London, UK'
p13
g3
g4
tp14
a(S'PATRICKCNN'
p15
S'Atlanta'
p16
g3
g4
tp17
a(S'alexthomascnn'
p18
S'Normally, London.'
p19
g3
g4
tp20
a(S'WorldSportCNN'
p21
S'Every country in the world'
p22
g3
g4
tp23
a(S'mckaycnn'
p24
S'Atlanta, Ga. U.S.A.'
p25
g3
g4
tp26
a(S'terrybaddoo'
p27
S'Atlanta, USA'
p28
g3
g4
tp29
a(S'KimNewsome'
p30
S'Atlanta'
p31
g3
g4
tp32
a(S'sportsdeskCNN'
p33
S'Atlanta'
p34
g3
g4
tp35
a(S'JoeMcCurdyCNN'
p36
S'Atlanta, GA'
p37
g3
g4
tp38
a(S'BenWyattCNN'
p39
S'London'
p40
g3
g4
tp41
a.