(lp0
(S'NCPspeaks'
p1
S'India'
p2
S'inTheTweetNews'
p3
S'political-parties'
p4
I1670467506
tp5
a(S'WithCongress'
p6
S'India'
p7
g3
g4
I1418662837
tp8
a(S'bjp_haryana'
p9
S'haryana'
p10
g3
g4
I1397019751
tp11
a(S'Bihar_BJP'
p12
S'Patna, Bihar'
p13
g3
g4
I1380986642
tp14
a(S'INCIndia'
p15
S'New Delhi, India'
p16
g3
g4
I1153045459
tp17
a(S'BJPcentralmedia'
p18
V
p19
g3
g4
I1073181793
tp20
a(S'BJPManipur'
p21
g19
g3
g4
I1060495231
tp22
a(S'bjphimachal'
p23
S'Shimla'
p24
g3
g4
I775379648
tp25
a(S'AamAadmiParty'
p26
S'India'
p27
g3
g4
I711694309
tp28
a(S'GujaratC'
p29
S'Rajiv Gandhi Bhavan, Ahmedabad'
p30
g3
g4
I555174678
tp31
a(S'YuvaiTV'
p32
g19
g3
g4
I486711396
tp33
a(S'yuvadesh'
p34
S'India'
p35
g3
g4
I441817658
tp36
a(S'BJP_Gujarat'
p37
S'Gujarat, India'
p38
g3
g4
I385909720
tp39
a(S'HamaraCongress'
p40
S'Every part of India '
p41
g3
g4
I357459032
tp42
a(S'AITCofficial'
p43
S'Kolkata, India'
p44
g3
g4
I290452792
tp45
a(S'JaiTDP'
p46
S'Andhra Pradesh, India'
p47
g3
g4
I272023868
tp48
a(S'YSRCParty'
p49
S'India'
p50
g3
g4
I256129678
tp51
a(S'BJP4India'
p52
g19
g3
g4
I207809313
tp53
a(S'bjpkarnataka'
p54
S'Bangalore'
p55
g3
g4
I25123615
tp56
a.