(lp0
(S'eshagupta2811'
p1
V
p2
S'inTheTweetNews'
p3
S'actress-in-india'
p4
I2149178965
tp5
a(S'DianaPenty'
p6
S'Mumbai'
p7
g3
g4
I1302871633
tp8
a(S'IChitrangda'
p9
g2
g3
g4
I1021419306
tp10
a(S'sakpataudi'
p11
S'Mumbai'
p12
g3
g4
I597301440
tp13
a(S'1Prachidesai'
p14
g2
g3
g4
I581579728
tp15
a(S'SrideviBKapoor'
p16
g2
g3
g4
I575188047
tp17
a(S'Actress_Asin'
p18
g2
g3
g4
I574623097
tp19
a(S'Esha_Deol'
p20
S'Mumbai '
p21
g3
g4
I368182367
tp22
a(S'KareenaMania'
p23
S'Mumbai, India'
p24
g3
g4
I363362774
tp25
a(S'dreamgirlhema'
p26
S'Mumbai/India'
p27
g3
g4
I333982951
tp28
a(S'ShraddhaKapoor'
p29
S'Mumbai, India.'
p30
g3
g4
I317034396
tp31
a(S'sonalchauhan7'
p32
S'mumbai'
p33
g3
g4
I302136938
tp34
a(S'AmritaRao'
p35
g2
g3
g4
I285475285
tp36
a(S'humasqureshi'
p37
g2
g3
g4
I283916211
tp38
a(S'aditiraohydari'
p39
g2
g3
g4
I251521725
tp40
a(S'MadhuriDixit'
p41
S'Mumbai'
p42
g3
g4
I220228167
tp43
a(S'Tanishaa003'
p44
S'Mumbai, Maharashtra'
p45
g3
g4
I200150767
tp46
a(S'aliaa08'
p47
g2
g3
g4
I183230911
tp48
a(S'anandnikita'
p49
g2
g3
g4
I165466384
tp50
a(S'ameesha_patel'
p51
S'mumbai'
p52
g3
g4
I142722336
tp53
a.