(lp0
(S'SecondLegSlip'
p1
V
p2
S'inTheTweetNews'
p3
S'cricket-news'
p4
I1583251602
tp5
a(S'SunRisers'
p6
S'Hyderabad'
p7
g3
g4
I989137039
tp8
a(S'CPL_T20'
p9
S'Caribbean'
p10
g3
g4
I829361395
tp11
a(S'_saadshafqat'
p12
S'Karachi, Pakistan'
p13
g3
g4
I779539110
tp14
a(S'OtagoVolts'
p15
S'Otago and Southland'
p16
g3
g4
I576768757
tp17
a(S'TheCricketPaper'
p18
g2
g3
g4
I552537503
tp19
a(S'RanjiKarnataka'
p20
S'Karnataka, India'
p21
g3
g4
I498007723
tp22
a(S'selvecricket'
p23
S'Never far from a watering hole'
p24
g3
g4
I495145422
tp25
a(S'crashcraddock1'
p26
S'Brisbane, Australia'
p27
g3
g4
I470983439
tp28
a(S'bplt20criKt'
p29
g2
g3
g4
I455462954
tp30
a(S'aotearoaxi'
p31
S'New Zealand'
p32
g3
g4
I454737810
tp33
a(S'mohanstatsman'
p34
S'Mumbai'
p35
g3
g4
I451215777
tp36
a(S'ranjiscores'
p37
S'Every Ranji Trophy Match'
p38
g3
g4
I403200425
tp39
a(S'EyeOnThePitch'
p40
S'Brooklyn, New York'
p41
g3
g4
I402037925
tp42
a(S'WisdenIndia'
p43
g2
g3
g4
I387095290
tp44
a(S'OsmanSamiuddin'
p45
S'Abu Dhabi'
p46
g3
g4
I358019924
tp47
a(S'malcolmconn'
p48
S'Sydney'
p49
g3
g4
I277242683
tp50
a(S'LineLength'
p51
S'Barbados'
p52
g3
g4
I260996982
tp53
a(S'patrick_kidd'
p54
g2
g3
g4
I260248295
tp55
a(S'ScorchersBBL'
p56
S'Perth, Australia'
p57
g3
g4
I259597381
tp58
a.