(lp0
(S'NidhiRazdanNDTV'
p1
S'New Delhi/ Srinagar'
p2
S'inTheTweetNews'
p3
S'political-journalists'
p4
I1670457284
tp5
a(S'ReporterVikrant'
p6
S'Delhi'
p7
g3
g4
I1340825414
tp8
a(S'DrChandanMitra'
p9
V
p10
g3
g4
I1269695654
tp11
a(S'SharmaKadambini'
p12
S'New Delhi'
p13
g3
g4
I997165772
tp14
a(S'ArnabGoswami_'
p15
g10
g3
g4
I893350736
tp16
a(S'mkatju'
p17
S'New Delhi'
p18
g3
g4
I561335546
tp19
a(S'RavishKumarNDTV'
p20
g10
g3
g4
I549721194
tp21
a(S'madhutrehan'
p22
S'new delhi'
p23
g3
g4
I458451038
tp24
a(S'NMenonRao'
p25
g10
g3
g4
I250495841
tp26
a(S'PTI_News'
p27
S'New Delhi, India'
p28
g3
g4
I245687754
tp29
a(S'sampitroda'
p30
g10
g3
g4
I147493686
tp31
a(S'TheJaggi'
p32
S'Mumbai'
p33
g3
g4
I143776014
tp34
a(S'ShivAroor'
p35
S'New Delhi'
p36
g3
g4
I139189823
tp37
a(S'RajatSharmaLive'
p38
S'Delhi'
p39
g3
g4
I122658025
tp40
a(S'richaanirudh'
p41
S'noida'
p42
g3
g4
I108538423
tp43
a(S'KishoreAjwani'
p44
S'India'
p45
g3
g4
I104454186
tp46
a(S'cvoter'
p47
S'Always On The Move.'
p48
g3
g4
I103849564
tp49
a(S'NaghmaNDTV'
p50
S'New Delhi'
p51
g3
g4
I90687780
tp52
a(S'VishnuNDTV'
p53
g10
g3
g4
I83531741
tp54
a(S'PrannoyRoyNDTV'
p55
S'India'
p56
g3
g4
I83529586
tp57
a.