(lp0
(S'Ram_Guha'
p1
S'Bangalore'
p2
S'inTheTweetNews'
p3
S'cricketers-and-experts'
p4
I1657730988
tp5
a(S'Devon_Smith28'
p6
S'West Indies'
p7
g3
g4
I1476719780
tp8
a(S'sherryontopp'
p9
V
p10
g3
g4
I1320600308
tp11
a(S'shaun_tait32'
p12
g10
g3
g4
I1264286744
tp13
a(S'CAIngram41'
p14
g10
g3
g4
I1262056626
tp15
a(S'imAagarkar'
p16
S'Mumbai,India'
p17
g3
g4
I1163125105
tp18
a(S'SAfridiOfficial'
p19
S'Pakistan '
p20
g3
g4
I1133920393
tp21
a(S'CoventryChoppa'
p22
S'Dubai'
p23
g3
g4
I1128625483
tp24
a(S'SouravGanguly'
p25
g10
g3
g4
I1075869774
tp26
a(S'SunRisers'
p27
S'Hyderabad'
p28
g3
g4
I989137039
tp29
a(S'JontyRhodes8'
p30
g10
g3
g4
I934113512
tp31
a(S'TheJurgs'
p32
S'Dhaka'
p33
g3
g4
I880159039
tp34
a(S'BrianLara'
p35
S'Port of Spain, Trinidad '
p36
g3
g4
I861083240
tp37
a(S'Mitch_Savage'
p38
g10
g3
g4
I842089302
tp39
a(S'REALsaeedajmal'
p40
g10
g3
g4
I834911994
tp41
a(S'CPL_T20'
p42
S'Caribbean'
p43
g3
g4
I829361395
tp44
a(S'_saadshafqat'
p45
S'Karachi, Pakistan'
p46
g3
g4
I779539110
tp47
a(S'BrendanTaylor86'
p48
S'Zimbabwe'
p49
g3
g4
I778593348
tp50
a(S'ImMananVohra'
p51
S'CHANDIGARH'
p52
g3
g4
I755329339
tp53
a(S'dfwhatmore'
p54
S'Dubai, UAE'
p55
g3
g4
I735901243
tp56
a.