(lp0
(S'VinodKhanna'
p1
V
p2
S'inTheTweetNews'
p3
S'actors-in-india'
p4
I1659400986
tp5
a(S'AnilKapoor'
p6
g2
g3
g4
I1652526218
tp7
a(S'sherryontopp'
p8
g2
g3
g4
I1320600308
tp9
a(S'S1dharthM'
p10
g2
g3
g4
I950165300
tp11
a(S'TheJohnAbraham'
p12
g2
g3
g4
I947192262
tp13
a(S'PDdancing'
p14
S'India'
p15
g3
g4
I700568101
tp16
a(S'ManishPaul03'
p17
S'Mumbai'
p18
g3
g4
I631926517
tp19
a(S'irrfan_k'
p20
S'india'
p21
g3
g4
I490442018
tp22
a(S'TheDilipKumar'
p23
S'Pali Hill Bandra Mumbai'
p24
g3
g4
I417632438
tp25
a(S'VidyutJammwal'
p26
S'Mumbai, India'
p27
g3
g4
I401865882
tp28
a(S'shreyastalpade1'
p29
g2
g3
g4
I393227168
tp30
a(S'Varun_dvn'
p31
g2
g3
g4
I366947884
tp32
a(S'SonuSood'
p33
S'Mumbai'
p34
g3
g4
I295026890
tp35
a(S'AftabShivdasani'
p36
S'Here, Now.'
p37
g3
g4
I228370791
tp38
a(S'PraveshRana26'
p39
S'mumbai'
p40
g3
g4
I222809335
tp41
a(S'dhanushkraja'
p42
S'chennai'
p43
g3
g4
I152251488
tp44
a(S'duttsanjay'
p45
g2
g3
g4
I149198901
tp46
a(S'Mohanlal'
p47
S"God's Own Country"
p48
g3
g4
I148248527
tp49
a(S'ramsayz'
p50
S'HYDERABAD'
p51
g3
g4
I147975612
tp52
a(S'SrBachchan'
p53
S'Mumbai, India'
p54
g3
g4
I145125358
tp55
a.