(lp0
(S'arunjaitley'
p1
S'New Delhi'
p2
S'inTheTweetNews'
p3
S'politicians-analyst'
p4
I2183816041
tp5
a(S'PawarSpeaks'
p6
V
p7
g3
g4
I2150403589
tp8
a(S'KapilSibal'
p9
S'India'
p10
g3
g4
I1910442534
tp11
a(S'NandanNilekani'
p12
S'Bangalore / New Delhi'
p13
g3
g4
I1867843520
tp14
a(S'NCPspeaks'
p15
S'India'
p16
g3
g4
I1670467506
tp17
a(S'NidhiRazdanNDTV'
p18
S'New Delhi/ Srinagar'
p19
g3
g4
I1670457284
tp20
a(S'AUThackeray'
p21
g7
g3
g4
I1606048885
tp22
a(S'umasribharti'
p23
S'India'
p24
g3
g4
I1516758181
tp25
a(S'BJPRajnathSingh'
p26
g7
g3
g4
I1346439824
tp27
a(S'PiyushGoyalBJP'
p28
S'India'
p29
g3
g4
I1324334436
tp30
a(S'AapYogendra'
p31
S'New Delhi'
p32
g3
g4
I1317076194
tp33
a(S'VasundharaBJP'
p34
g7
g3
g4
I1288175774
tp35
a(S'MDPai05'
p36
S'Bangalore'
p37
g3
g4
I1274690550
tp38
a(S'DrChandanMitra'
p39
g7
g3
g4
I1269695654
tp40
a(S'ChouhanShivraj'
p41
S'Madhya Pradesh'
p42
g3
g4
I1251083774
tp43
a(S'Pallamrajumm'
p44
S'New Delhi, India '
p45
g3
g4
I1154869812
tp46
a(S'INCIndia'
p47
S'New Delhi, India'
p48
g3
g4
I1153045459
tp49
a(S'OfficeDrBegJKNC'
p50
S'Anantnag, Jammu and Kashmir'
p51
g3
g4
I1125801511
tp52
a(S'SinghRPN'
p53
S'Padrauna,Kushinagar,Delhi'
p54
g3
g4
I1119384594
tp55
a(S'PrakashJavdekar'
p56
S'New Delhi, Pune,India.'
p57
g3
g4
I1072993274
tp58
a.