(lp0
(S'eshagupta2811'
p1
V
p2
S'inTheTweetNews'
p3
S'movie-stars'
p4
I2149178965
tp5
a(S'VinodKhanna'
p6
g2
g3
g4
I1659400986
tp7
a(S'AnilKapoor'
p8
g2
g3
g4
I1652526218
tp9
a(S'Krrish3'
p10
g2
g3
g4
I1471485516
tp11
a(S'DianaPenty'
p12
S'Mumbai'
p13
g3
g4
I1302871633
tp14
a(S'BmbayTalkies'
p15
g2
g3
g4
I1285515974
tp16
a(S'Bangbang2014'
p17
g2
g3
g4
I1277602014
tp18
a(S'HighwayTheFilm'
p19
S'http://bit.ly/HighwayTrailer'
p20
g3
g4
I1264619774
tp21
a(S'rajshri'
p22
g2
g3
g4
I1133436522
tp23
a(S'IChitrangda'
p24
g2
g3
g4
I1021419306
tp25
a(S'ApoorvaLakhia'
p26
S'India'
p27
g3
g4
I971638856
tp28
a(S'S1dharthM'
p29
g2
g3
g4
I950165300
tp30
a(S'TheJohnAbraham'
p31
g2
g3
g4
I947192262
tp32
a(S'2States_FC'
p33
S'Punjab and Tamil Nadu'
p34
g3
g4
I915211501
tp35
a(S'kagtireema'
p36
S'Mumbai'
p37
g3
g4
I816954661
tp38
a(S'asliyoyo'
p39
S'Mumbai / Dilli / Dubai'
p40
g3
g4
I769727912
tp41
a(S'PDdancing'
p42
S'India'
p43
g3
g4
I700568101
tp44
a(S'ManishPaul03'
p45
S'Mumbai'
p46
g3
g4
I631926517
tp47
a(S'MikaSingh'
p48
g2
g3
g4
I613321095
tp49
a(S'sakpataudi'
p50
S'Mumbai'
p51
g3
g4
I597301440
tp52
a.