(lp0
(S'mashstartups'
p1
S'New York City, USA'
p2
S'mashable'
p3
S'startups-silicon-valley-24'
p4
I182055312
tp5
a(S'Pinterest'
p6
S'San Francisco, CA'
p7
g3
g4
I106837463
tp8
a(S'path'
p9
S'San Francisco, California'
p10
g3
g4
I106333951
tp11
a(S'plancast'
p12
S'San Francisco, CA'
p13
g3
g4
I67219958
tp14
a(S'kimbalabs'
p15
S'San Francisco, CA'
p16
g3
g4
I64060729
tp17
a(S'Quora'
p18
S'Mountain View, CA'
p19
g3
g4
I33696409
tp20
a(S'expensify'
p21
S'San Francisco, CA'
p22
g3
g4
I18461565
tp23
a(S'mattmireles'
p24
S'San Francisco, CA'
p25
g3
g4
I18079631
tp26
a(S'cotweet'
p27
S'San Francisco, CA'
p28
g3
g4
I17372386
tp29
a(S'cloudcontacts'
p30
S"Land o' Business Cards Austin"
p31
g3
g4
I16846621
tp32
a(S'twilio'
p33
S'San Francisco, CA'
p34
g3
g4
I15936194
tp35
a(S'nextstop'
p36
S'San Francisco, CA'
p37
g3
g4
I15833270
tp38
a(S'posterous'
p39
S'San Francisco, CA'
p40
g3
g4
I15503880
tp41
a(S'klout'
p42
S'San Francisco'
p43
g3
g4
I15134782
tp44
a(S'BackType'
p45
S'San Francisco, CA'
p46
g3
g4
I15087414
tp47
a(S'pingfm'
p48
S'San Francisco, CA'
p49
g3
g4
I13838022
tp50
a(S'davemorin'
p51
S'California / Montana'
p52
g3
g4
I3475
tp53
a.