(lp0
(S'rihanna'
p1
S'LA BABY!'
p2
S'mashable'
p3
S'music'
p4
I79293791
tp5
a(S'thebravery'
p6
S'Los Angeles'
p7
g3
g4
I72664429
tp8
a(S'GreenDay'
p9
S'East Bay, California'
p10
g3
g4
I67995848
tp11
a(S'shakira'
p12
S'Barranquilla'
p13
g3
g4
I44409004
tp14
a(S'BenFolds'
p15
S'nashville'
p16
g3
g4
I42343110
tp17
a(S'aliciakeys'
p18
S'New York City'
p19
g3
g4
I35094637
tp20
a(S'Pink'
p21
S'los angeles'
p22
g3
g4
I28706024
tp23
a(S'ashleesimpson'
p24
S'los angeles'
p25
g3
g4
I26885308
tp26
a(S'jtimberlake'
p27
S'Memphis, TN'
p28
g3
g4
I26565946
tp29
a(S'depechemode'
p30
S'Burbank, CA (band webmaster)'
p31
g3
g4
I26347170
tp32
a(S'CollectiveSoul'
p33
S'Atlanta, GA'
p34
g3
g4
I26046257
tp35
a(S'Eminem'
p36
S'Detroit'
p37
g3
g4
I22940219
tp38
a(S'BonJovi'
p39
S'New Jersey'
p40
g3
g4
I22720074
tp41
a(S'ThisIsRobThomas'
p42
S'new york'
p43
g3
g4
I22540123
tp44
a(S'alyankovic'
p45
S'Los Angeles'
p46
g3
g4
I22461427
tp47
a(S'markhoppus'
p48
S'London/Los Angeles'
p49
g3
g4
I21955058
tp50
a(S'katyperry'
p51
S'REALITY'
p52
g3
g4
I21447363
tp53
a(S'KaiserChiefs'
p54
S'England'
p55
g3
g4
I21219666
tp56
a(S'ddlovato'
p57
S'DALLAS/LA'
p58
g3
g4
I21111883
tp59
a(S'thekillers'
p60
S'The World by way of Las Vegas'
p61
g3
g4
I19661294
tp62
a.