(lp0
(S'kanyewest'
p1
S''
p2
S'mashable'
p3
S'celebrity'
p4
tp5
a(S'ConanOBrien'
p6
S'Los Angeles'
p7
g3
g4
tp8
a(S'RealTracyMorgan'
p9
S'NYC'
p10
g3
g4
tp11
a(S'amywinehouse'
p12
S'London'
p13
g3
g4
tp14
a(S'CarrieFFisher'
p15
S'Los Angeles & New York'
p16
g3
g4
tp17
a(S'DannyDeVito'
p18
S'Los Angeles'
p19
g3
g4
tp20
a(S'StacyKeibler'
p21
S'Los Angeles'
p22
g3
g4
tp23
a(S'kylieminogue'
p24
g2
g3
g4
tp25
a(S'ReggieBush'
p26
S'D Town'
p27
g3
g4
tp28
a(S'EdwardNorton'
p29
S'New York'
p30
g3
g4
tp31
a(S'CindyCrawford'
p32
S'Los Angeles'
p33
g3
g4
tp34
a(S'JohnStamos'
p35
S'la'
p36
g3
g4
tp37
a(S'maryjblige'
p38
g2
g3
g4
tp39
a(S'IMKristenBell'
p40
S'Los Angeles, California '
p41
g3
g4
tp42
a(S'IvankaTrump'
p43
S'New York, NY'
p44
g3
g4
tp45
a(S'DrewFromTV'
p46
S'Los Angeles via Cleveland'
p47
g3
g4
tp48
a(S'IAMQUEENLATIFAH'
p49
S'Everywhere'
p50
g3
g4
tp51
a(S'KrisAllen'
p52
S'iPhone: 34.200497,-118.348869'
p53
g3
g4
tp54
a(S'iamwill'
p55
g2
g3
g4
tp56
a(S'PierceBrosnan'
p57
g2
g3
g4
tp58
a.