(lp0
(S'kanyewest'
p1
S''
p2
S'mashable'
p3
S'celebrity'
p4
I169686021
tp5
a(S'ConanOBrien'
p6
S'Los Angeles'
p7
g3
g4
I115485051
tp8
a(S'RealTracyMorgan'
p9
S'NYC'
p10
g3
g4
I80700514
tp11
a(S'amywinehouse'
p12
S'London'
p13
g3
g4
I76023925
tp14
a(S'CarrieFFisher'
p15
S'Los Angeles & New York'
p16
g3
g4
I75641903
tp17
a(S'DannyDeVito'
p18
S'Los Angeles'
p19
g3
g4
I71876190
tp20
a(S'StacyKeibler'
p21
S'Los Angeles'
p22
g3
g4
I70794696
tp23
a(S'kylieminogue'
p24
g2
g3
g4
I63172203
tp25
a(S'ReggieBush'
p26
S'D Town'
p27
g3
g4
I62902439
tp28
a(S'EdwardNorton'
p29
S'New York'
p30
g3
g4
I62591681
tp31
a(S'CindyCrawford'
p32
S'Los Angeles'
p33
g3
g4
I59247894
tp34
a(S'JohnStamos'
p35
S'la'
p36
g3
g4
I56405314
tp37
a(S'maryjblige'
p38
g2
g3
g4
I54951973
tp39
a(S'IMKristenBell'
p40
S'Los Angeles, California '
p41
g3
g4
I53297035
tp42
a(S'IvankaTrump'
p43
S'New York, NY'
p44
g3
g4
I52544275
tp45
a(S'DrewFromTV'
p46
S'Los Angeles via Cleveland'
p47
g3
g4
I50835878
tp48
a(S'IAMQUEENLATIFAH'
p49
S'Everywhere'
p50
g3
g4
I50826280
tp51
a(S'KrisAllen'
p52
S'iPhone: 34.200497,-118.348869'
p53
g3
g4
I50750339
tp54
a(S'iamwill'
p55
g2
g3
g4
I49573859
tp56
a(S'PierceBrosnan'
p57
g2
g3
g4
I48417131
tp58
a.