(lp0
(S'KatyMGeorge'
p1
V
p2
S'McKinsey'
p3
S'mckinsey-partners'
p4
I1596669649
tp5
a(S'SinghalShubham1'
p6
S'Detroit'
p7
g3
g4
I1470076735
tp8
a(S'JaanaRemes'
p9
g2
g3
g4
I1169402982
tp10
a(S'KausikRajgopal'
p11
S'San Francisco, CA'
p12
g3
g4
I1120432417
tp13
a(S'andreshgz'
p14
S'Paris'
p15
g3
g4
I1042317632
tp16
a(S'EwanRDuncan'
p17
S'Seattle'
p18
g3
g4
I1024353433
tp19
a(S'Kutcher_Eric'
p20
S'San Francisco, CA'
p21
g3
g4
I972138834
tp22
a(S'Farrell_Diana'
p23
S'Washington, DC'
p24
g3
g4
I868677612
tp25
a(S'koller_tim'
p26
S'New York'
p27
g3
g4
I729273523
tp28
a(S'DavidGKnott1'
p29
g2
g3
g4
I724085750
tp30
a(S'JW_Gordon'
p31
S'New York'
p32
g3
g4
I703172155
tp33
a(S'Brian_C_Fox'
p34
g2
g3
g4
I633740527
tp35
a(S'AdrianAABooth'
p36
S'San Francisco, CA'
p37
g3
g4
I579646167
tp38
a(S'SusanLund_DC'
p39
S'Washington, DC'
p40
g3
g4
I525457308
tp41
a(S'SBiesdorf'
p42
S'Munich, Germany'
p43
g3
g4
I489118140
tp44
a(S'PWFRutten'
p45
S'Often in Amsterdam'
p46
g3
g4
I429659439
tp47
a(S'Wiseman4th'
p48
S'Taipei, Taiwan'
p49
g3
g4
I377261584
tp50
a(S'marcesinger'
p51
S'San Francisco, CA'
p52
g3
g4
I343513118
tp53
a(S'WillmottPaul'
p54
S'I live in London'
p55
g3
g4
I330285930
tp56
a(S'richard_dobbs'
p57
S'South Korea'
p58
g3
g4
I293343117
tp59
a.