(lp0
(S'catherinedavis1'
p1
S'New York City'
p2
S'milesj'
p3
S'cmo'
p4
tp5
a(S'RobManger'
p6
S'New York'
p7
g3
g4
tp8
a(S'B_Wagner'
p9
S'Boston, MA'
p10
g3
g4
tp11
a(S'MichaelFertman'
p12
S''
p13
g3
g4
tp14
a(S'businessgp'
p15
S'UK'
p16
g3
g4
tp17
a(S'cparrino'
p18
S'London & Ipswich, UK'
p19
g3
g4
tp20
a(S'GuyMansueto'
p21
g13
g3
g4
tp22
a(S'MarketSleddogg'
p23
S'U.S.; global'
p24
g3
g4
tp25
a(S'AffiliateMgt'
p26
S'North Carolina'
p27
g3
g4
tp28
a(S'CarolMeersch'
p29
S'PhillaPa'
p30
g3
g4
tp31
a(S'SocialGrow'
p32
S'Boston, MA'
p33
g3
g4
tp34
a(S'hchimoff'
p35
g13
g3
g4
tp36
a(S'RyanSauers'
p37
S'Atlanta & Across USA'
p38
g3
g4
tp39
a(S'agoramedia'
p40
S'UK - Netherlands'
p41
g3
g4
tp42
a(S'mikelascut'
p43
S'Toronto'
p44
g3
g4
tp45
a(S'fearlesscomp'
p46
S'New York City area'
p47
g3
g4
tp48
a(S'marketingplaza'
p49
S'United States'
p50
g3
g4
tp51
a(S'ms_mktg'
p52
S'Kansas City + 10 Locations'
p53
g3
g4
tp54
a(S'JBCMKTR'
p55
S'Metro Atlanta '
p56
g3
g4
tp57
a(S'KerrySOMalley'
p58
S'Houston, TX'
p59
g3
g4
tp60
a.