(lp0
(S'arunjaitley'
p1
S'New Delhi'
p2
S'NavbharatTimes'
p3
S'elections-2014'
p4
I2183816041
tp5
a(S'PawarSpeaks'
p6
V
p7
g3
g4
I2150403589
tp8
a(S'KapilSibal'
p9
S'India'
p10
g3
g4
I1910442534
tp11
a(S'AUThackeray'
p12
g7
g3
g4
I1606048885
tp13
a(S'BJPRajnathSingh'
p14
g7
g3
g4
I1346439824
tp15
a(S'AapYogendra'
p16
S'New Delhi'
p17
g3
g4
I1317076194
tp18
a(S'DrChandanMitra'
p19
g7
g3
g4
I1269695654
tp20
a(S'kavita_krishnan'
p21
S'Delhi '
p22
g3
g4
I1263706735
tp23
a(S'INCIndia'
p24
S'New Delhi, India'
p25
g3
g4
I1153045459
tp26
a(S'SinghRPN'
p27
S'Padrauna,Kushinagar,Delhi'
p28
g3
g4
I1119384594
tp29
a(S'PrakashJavdekar'
p30
S'New Delhi, Pune,India.'
p31
g3
g4
I1072993274
tp32
a(S'ManishTewari'
p33
S'New Delhi'
p34
g3
g4
I936695288
tp35
a(S'anjali_damania'
p36
S'Mumbai, India'
p37
g3
g4
I849006404
tp38
a(S'laluprasadrjd'
p39
S'Patna'
p40
g3
g4
I786958314
tp41
a(S'rammadhavrss'
p42
S'Delhi'
p43
g3
g4
I751400048
tp44
a(S'AamAadmiParty'
p45
S'India'
p46
g3
g4
I711694309
tp47
a(S'PMOIndia'
p48
S'New Delhi '
p49
g3
g4
I471741741
tp50
a(S'ArvindKejriwal'
p51
S'India'
p52
g3
g4
I405427035
tp53
a(S'M_Lekhi'
p54
S'Delhi'
p55
g3
g4
I373410448
tp56
a(S'drramansingh'
p57
S'Chhattisgarh India'
p58
g3
g4
I373280952
tp59
a.