(lp0
(S'TheSwitch'
p1
S'Washington, DC'
p2
S'ninarfowler'
p3
S'tech-europe-news'
p4
I1585964245
tp5
a(S'KPMGTechGrowth'
p6
S'Shoreditch, East London'
p7
g3
g4
I1324292497
tp8
a(S'WashPostTech'
p9
S'Washington, D.C.'
p10
g3
g4
I1319666732
tp11
a(S'FastCoLabs'
p12
S'New York, NY'
p13
g3
g4
I1114932710
tp14
a(S'TechHubBerlin'
p15
S'Berlin'
p16
g3
g4
I1022251309
tp17
a(S'BuzzFeedNews'
p18
V
p19
g3
g4
I1020058453
tp20
a(S'WSJGruender'
p21
S'Frankfurt am Main'
p22
g3
g4
I873784975
tp23
a(S'KaiDiekmann'
p24
S'Berlin'
p25
g3
g4
I834544453
tp26
a(S'WSJ_tech'
p27
S'Frankfurt am Main'
p28
g3
g4
I817308097
tp29
a(S'RocketBerlin'
p30
S'Berlin'
p31
g3
g4
I757620158
tp32
a(S'FactoryBerlin'
p33
S'Berlin'
p34
g3
g4
I717904784
tp35
a(S'ubiindex'
p36
S'Stockholm, Sweden'
p37
g3
g4
I707651443
tp38
a(S'KarstenStrauss'
p39
S'New York City'
p40
g3
g4
I573316665
tp41
a(S'BerlinStartupAc'
p42
S'Berlin'
p43
g3
g4
I559294048
tp44
a(S'GigaEU'
p45
S'Europe!'
p46
g3
g4
I425726369
tp47
a(S'PandoDaily'
p48
S'San Francisco'
p49
g3
g4
I419710142
tp50
a(S'KernelMag'
p51
S'London'
p52
g3
g4
I412227503
tp53
a(S'Who_got_funded'
p54
S'Worldwide'
p55
g3
g4
I392703381
tp56
a(S'startupplays'
p57
S'Global'
p58
g3
g4
I374231359
tp59
a(S'SimonSchaefer'
p60
S'Berlin'
p61
g3
g4
I359418477
tp62
a.