(lp0
(S'arunjaitley'
p1
S'New Delhi'
p2
S'pi_editors'
p3
S'influence-140'
p4
I2183816041
tp5
a(S'PawarSpeaks'
p6
V
p7
g3
g4
I2150403589
tp8
a(S'KapilSibal'
p9
S'India'
p10
g3
g4
I1910442534
tp11
a(S'NandanNilekani'
p12
S'Bangalore / New Delhi'
p13
g3
g4
I1867843520
tp14
a(S'Gen_VKSingh'
p15
S'Gurgaon, Haryana'
p16
g3
g4
I1856414335
tp17
a(S'Ram_Guha'
p18
S'Bangalore'
p19
g3
g4
I1657730988
tp20
a(S'UPBJP2014'
p21
g7
g3
g4
I1513504760
tp22
a(S'BJPRajnathSingh'
p23
g7
g3
g4
I1346439824
tp24
a(S'billclinton'
p25
S'New York, NY'
p26
g3
g4
I1330457336
tp27
a(S'PiyushGoyalBJP'
p28
S'India'
p29
g3
g4
I1324334436
tp30
a(S'AapYogendra'
p31
S'New Delhi'
p32
g3
g4
I1317076194
tp33
a(S'VasundharaBJP'
p34
g7
g3
g4
I1288175774
tp35
a(S'DrChandanMitra'
p36
g7
g3
g4
I1269695654
tp37
a(S'ChouhanShivraj'
p38
S'Madhya Pradesh'
p39
g3
g4
I1251083774
tp40
a(S'PlanComIndia'
p41
S'New Delhi, India'
p42
g3
g4
I1244137812
tp43
a(S'adgpi'
p44
g7
g3
g4
I1227253801
tp45
a(S'Pallamrajumm'
p46
S'New Delhi, India '
p47
g3
g4
I1154869812
tp48
a(S'INCIndia'
p49
S'New Delhi, India'
p50
g3
g4
I1153045459
tp51
a(S'SinghRPN'
p52
S'Padrauna,Kushinagar,Delhi'
p53
g3
g4
I1119384594
tp54
a(S'PrakashJavdekar'
p55
S'New Delhi, Pune,India.'
p56
g3
g4
I1072993274
tp57
a.