(lp0
(S'PaulMarsdenxMP'
p1
S'Nuneaton, UK'
p2
S'Politics_co_uk'
p3
S'mps'
p4
I124171141
tp5
a(S'JamesDuddridge'
p6
S'Southend'
p7
g3
g4
I124170781
tp8
a(S'VeraBaird'
p9
S'Newcastle-Upon-Tyne'
p10
g3
g4
I97868229
tp11
a(S'davidcairns4mp'
p12
S'Greenock'
p13
g3
g4
I79167671
tp14
a(S'DMiliband'
p15
S'New York'
p16
g3
g4
I75896448
tp17
a(S'AndrewGeorgeLD'
p18
S'West Cornwall and Scilly'
p19
g3
g4
I72883916
tp20
a(S'EricPickles'
p21
S'Brentwood & Ongar'
p22
g3
g4
I58836363
tp23
a(S'vincecable'
p24
S'London / Twickenham'
p25
g3
g4
I56999787
tp26
a(S'LiamByrneMP'
p27
S'UK'
p28
g3
g4
I27212119
tp29
a(S'DouglasCarswell'
p30
S'Clacton-on-Sea'
p31
g3
g4
I25097735
tp32
a(S'brentrathgeber'
p33
S'Edmonton-St. Albert'
p34
g3
g4
I24738102
tp35
a(S'LindaGilroy'
p36
S'Plymouth'
p37
g3
g4
I23961519
tp38
a(S'JohnRaffertyMP'
p39
V
p40
g3
g4
I23604951
tp41
a(S'VirendraSharma'
p42
S'Ealing & Southall, London '
p43
g3
g4
I23452598
tp44
a(S'elliotmorley'
p45
S'England'
p46
g3
g4
I23213075
tp47
a(S'JoSimpson'
p48
g40
g3
g4
I22941419
tp49
a(S'ericjoyce'
p50
S'Falkirk'
p51
g3
g4
I22388326
tp52
a(S'SusanKramer'
p53
S'Richmond Park'
p54
g3
g4
I22136625
tp55
a(S'AdamAfriyie'
p56
S'Windsor and Westminster'
p57
g3
g4
I22031058
tp58
a(S'PaulRowen'
p59
S'Rochdale'
p60
g3
g4
I22004278
tp61
a.