(lp0
(S'PSBJ_Tech'
p1
S'Seattle, WA'
p2
S'Scobleizer'
p3
S'tech-news-people'
p4
I972422551
tp5
a(S'GallagherBilly'
p6
S'Stanford, CA'
p7
g3
g4
I569715710
tp8
a(S'techledes'
p9
S'San Francisco'
p10
g3
g4
I486864604
tp11
a(S'lynnlaaa'
p12
S'California'
p13
g3
g4
I446672326
tp14
a(S'DanGraziano'
p15
S'New York City and Hoboken'
p16
g3
g4
I391146189
tp17
a(S'gigabarb'
p18
S'Boston'
p19
g3
g4
I372548499
tp20
a(S'bwreedbgr'
p21
S''
p22
g3
g4
I313420182
tp23
a(S'edatnews'
p24
g22
g3
g4
I285197147
tp25
a(S'cnetkara'
p26
S'San Francisco'
p27
g3
g4
I263292091
tp28
a(S'esofge'
p29
S'Massachusetts'
p30
g3
g4
I206196557
tp31
a(S'emjbanks'
p32
S'New York City'
p33
g3
g4
I201738137
tp34
a(S'tomkrazit'
p35
S'Oakland'
p36
g3
g4
I166617624
tp37
a(S'JonErlichman'
p38
S'Los Angeles'
p39
g3
g4
I164425558
tp40
a(S'nicoleleeCNET'
p41
S'San Francisco, CA'
p42
g3
g4
I158579363
tp43
a(S'darrylktaft'
p44
g22
g3
g4
I128711440
tp45
a(S'emilyparkhurst'
p46
S'Seattle'
p47
g3
g4
I123290319
tp48
a(S'julpepitone'
p49
S"no sleep 'til"
p50
g3
g4
I118854485
tp51
a(S'IDGagne'
p52
S'Massachusetts'
p53
g3
g4
I109054913
tp54
a(S'karincaifaCNN'
p55
S'Washington, DC'
p56
g3
g4
I108806652
tp57
a(S'jkrim'
p58
S'San Francisco'
p59
g3
g4
I108432404
tp60
a.