(lp0
(S'PSBJ_Tech'
p1
S'Seattle, WA'
p2
S'Scobleizer'
p3
S'tech-news-people'
p4
tp5
a(S'GallagherBilly'
p6
S'Stanford, CA'
p7
g3
g4
tp8
a(S'techledes'
p9
S'San Francisco'
p10
g3
g4
tp11
a(S'lynnlaaa'
p12
S'California'
p13
g3
g4
tp14
a(S'DanGraziano'
p15
S'New York City and Hoboken'
p16
g3
g4
tp17
a(S'gigabarb'
p18
S'Boston'
p19
g3
g4
tp20
a(S'bwreedbgr'
p21
S''
p22
g3
g4
tp23
a(S'edatnews'
p24
g22
g3
g4
tp25
a(S'cnetkara'
p26
S'San Francisco'
p27
g3
g4
tp28
a(S'esofge'
p29
S'Massachusetts'
p30
g3
g4
tp31
a(S'emjbanks'
p32
S'New York City'
p33
g3
g4
tp34
a(S'tomkrazit'
p35
S'Oakland'
p36
g3
g4
tp37
a(S'JonErlichman'
p38
S'Los Angeles'
p39
g3
g4
tp40
a(S'nicoleleeCNET'
p41
S'San Francisco, CA'
p42
g3
g4
tp43
a(S'darrylktaft'
p44
g22
g3
g4
tp45
a(S'emilyparkhurst'
p46
S'Seattle'
p47
g3
g4
tp48
a(S'julpepitone'
p49
S"no sleep 'til"
p50
g3
g4
tp51
a(S'IDGagne'
p52
S'Massachusetts'
p53
g3
g4
tp54
a(S'karincaifaCNN'
p55
S'Washington, DC'
p56
g3
g4
tp57
a(S'jkrim'
p58
S'San Francisco'
p59
g3
g4
tp60
a.