(lp0
(S'evanspiegel'
p1
S'Pacific Palisades, CA'
p2
S'Scobleizer'
p3
S'tech-company-founders'
p4
I230287527
tp5
a(S'broganmedia'
p6
S'Airplanes'
p7
g3
g4
I92296982
tp8
a(S'timberners_lee'
p9
S'Boston'
p10
g3
g4
I84351228
tp11
a(S'robjective'
p12
S'San Francisco'
p13
g3
g4
I57523002
tp14
a(S'giorakaplan'
p15
S''
p16
g3
g4
I53013242
tp17
a(S'YOYOGRA'
p18
S'Tel Aviv - Milan'
p19
g3
g4
I52047648
tp20
a(S'shinyoung_park'
p21
S'SF, CA'
p22
g3
g4
I50901366
tp23
a(S'sergeybrinn'
p24
g16
g3
g4
I50449264
tp25
a(S'heatherarussell'
p26
S'Tokyo/London'
p27
g3
g4
I47819996
tp28
a(S'NukeGold'
p29
g16
g3
g4
I47739897
tp30
a(S'Bill_Gross'
p31
S'Pasadena, CA'
p32
g3
g4
I47539748
tp33
a(S'fucktwtr'
p34
g16
g3
g4
I46962247
tp35
a(S'udi_nir'
p36
g16
g3
g4
I44238439
tp37
a(S'dougkwarner'
p38
S'Bozeman, Montana '
p39
g3
g4
I41685075
tp40
a(S'romanscharf'
p41
S'Los Angeles, CA'
p42
g3
g4
I39635705
tp43
a(S'rangeva'
p44
S'Israel'
p45
g3
g4
I39209757
tp46
a(S'georgezachary'
p47
S'California'
p48
g3
g4
I38267932
tp49
a(S'sst2001'
p50
g16
g3
g4
I38184072
tp51
a(S'giladpn'
p52
S'The Cloud'
p53
g3
g4
I38013641
tp54
a(S'arrington'
p55
S'Palo Alto, CA'
p56
g3
g4
I37570179
tp57
a.