(lp0
(S'Recode'
p1
S'San Francisco, CA'
p2
S'Scobleizer'
p3
S'tech-news-brands'
p4
L2244340904L
tp5
a(S'diginomica'
p6
S''
p7
g3
g4
I1116482269
tp8
a(S'Nasiji'
p9
S'Planet Earth'
p10
g3
g4
I482223624
tp11
a(S'PandoDaily'
p12
S'San Francisco'
p13
g3
g4
I419710142
tp14
a(S'TechCityNews'
p15
S'London'
p16
g3
g4
I404526275
tp17
a(S'techopedia'
p18
S'Worldwide'
p19
g3
g4
I290555237
tp20
a(S'verge'
p21
S'The Universe'
p22
g3
g4
I275686563
tp23
a(S'newsyc20'
p24
S'Silicon Valley, Calif.'
p25
g3
g4
I148969874
tp26
a(S'TheAtlanticTECH'
p27
S'Washington, D.C.'
p28
g3
g4
I141335663
tp29
a(S'secure_cloud'
p30
g7
g3
g4
I140210303
tp31
a(S'SocialTimes'
p32
S'San Francisco, California'
p33
g3
g4
I117442888
tp34
a(S'WinRumors'
p35
g7
g3
g4
I101760242
tp36
a(S'BreakingWeb'
p37
g7
g3
g4
I96083711
tp38
a(S'CB_fundings'
p39
g7
g3
g4
I92106134
tp40
a(S'TopicfireNews'
p41
S'San Diego, CA'
p42
g3
g4
I89551330
tp43
a(S'Techland'
p44
S'Electric Avenue'
p45
g3
g4
I87798068
tp46
a(S'SeekingAlphaTek'
p47
g7
g3
g4
I82879667
tp48
a(S'sciencetechnews'
p49
S'United States'
p50
g3
g4
I78922168
tp51
a(S'AugmentedReal'
p52
g7
g3
g4
I78598416
tp53
a(S'ChicMeetsGeek'
p54
S'San Francisco & Silicon Valley'
p55
g3
g4
I77816654
tp56
a.