(lp0
(S'nataliemwhite'
p1
S'San Francisco, California'
p2
S'StanfordBiz'
p3
S'stanford-gsb-editorial'
p4
I356924997
tp5
a(S'UnvarnishedMom'
p6
S'Andover, MA'
p7
g3
g4
I282543330
tp8
a(S'lorenmooney'
p9
S'San Francisco'
p10
g3
g4
I140552605
tp11
a(S'editoremacb'
p12
S'Alexandria, Va.'
p13
g3
g4
I112840863
tp14
a(S'Mike_Freedman'
p15
S'SF Bay Area'
p16
g3
g4
I64418451
tp17
a(S'DeboraPetersen'
p18
S'Silicon Valley'
p19
g3
g4
I60773989
tp20
a(S'marinakrakovsky'
p21
S'San Francisco Bay Area'
p22
g3
g4
I38926255
tp23
a(S'KerryDolan'
p24
S'San Francisco'
p25
g3
g4
I33669217
tp26
a(S'brianeule'
p27
V
p28
g3
g4
I26158327
tp29
a(S'LilyBixler'
p30
S'San Francisco, CA'
p31
g3
g4
I20798664
tp32
a(S'janinezacharia'
p33
S'Stanford'
p34
g3
g4
I19086064
tp35
a(S'ebekiel'
p36
S'Silicon Valley'
p37
g3
g4
I17630078
tp38
a(S'karenlee'
p39
g28
g3
g4
I17495155
tp40
a(S'tonibird'
p41
S'San Francisco, ca'
p42
g3
g4
I15927930
tp43
a(S'JennyHutch'
p44
S'Santa Clara, CA'
p45
g3
g4
I15778241
tp46
a(S'eilenez'
p47
g28
g3
g4
I13682512
tp48
a.