(lp0
(S'BrianBergstein'
p1
V
p2
S'techreview'
p3
S'team'
p4
I1175932646
tp5
a(S'mckennapr'
p6
S'Cambridge, MA'
p7
g3
g4
I534701258
tp8
a(S'NickVokey'
p9
g2
g3
g4
I516135810
tp10
a(S'realavivahr'
p11
S'Boston, MA'
p12
g3
g4
I497649301
tp13
a(S'MITvideo'
p14
S'Cambridge, MA'
p15
g3
g4
I424398490
tp16
a(S'cehumphries'
p17
g2
g3
g4
I292920223
tp18
a(S'conormyhrvold'
p19
S'Boston, MA'
p20
g3
g4
I259716070
tp21
a(S'emilydunkle'
p22
S'Boston, MA'
p23
g3
g4
I130266177
tp24
a(S'abschaffer'
p25
g2
g3
g4
I118255684
tp26
a(S'KevinBullis'
p27
S'Cambridge, MA'
p28
g3
g4
I59782703
tp29
a(S'EmTechMIT'
p30
S'MIT'
p31
g3
g4
I58591032
tp32
a(S'JohnPollock'
p33
S'On the Thames & in the world'
p34
g3
g4
I55166663
tp35
a(S'slyoung11'
p36
S'Boston area'
p37
g3
g4
I48180033
tp38
a(S'xchatty'
p39
S'Washington DC'
p40
g3
g4
I35696704
tp41
a(S'sciencecohen'
p42
g2
g3
g4
I34020042
tp43
a(S'marvinminsky'
p44
g2
g3
g4
I32641337
tp45
a(S'BiellaColeman'
p46
S'Montreal'
p47
g3
g4
I31030273
tp48
a(S'evgenymorozov'
p49
S'Republic of Mischiefology'
p50
g3
g4
I30331417
tp51
a(S'paigejourney'
p52
S'Boston, MA'
p53
g3
g4
I25394998
tp54
a(S'mike_orcutt'
p55
S'Boston, MA'
p56
g3
g4
I23153051
tp57
a.