(lp0
(S'Asifazimasif'
p1
S''
p2
S'tellychakkar'
p3
S'celebs'
p4
tp5
a(S'AnilKapoor'
p6
g2
g3
g4
tp7
a(S'AjazkhanActor'
p8
S'where i meant to be '
p9
g3
g4
tp10
a(S'meghna1malik'
p11
g2
g3
g4
tp12
a(S'sidharth_shukla'
p13
g2
g3
g4
tp14
a(S'vrinda_90'
p15
S'Mumbai'
p16
g3
g4
tp17
a(S'VivianDsena06'
p18
S'Mumbai'
p19
g3
g4
tp20
a(S'cupalwaysfull'
p21
S'mumbai'
p22
g3
g4
tp23
a(S'YamiGautam_YG'
p24
g2
g3
g4
tp25
a(S'NiketanMadhok'
p26
S'Mumbai'
p27
g3
g4
tp28
a(S'Registaan'
p29
g2
g3
g4
tp30
a(S'IamArrtiPuuri'
p31
g2
g3
g4
tp32
a(S'Sayantanigosh'
p33
S'(Kolkata) India'
p34
g3
g4
tp35
a(S'_suhasidhami'
p36
g2
g3
g4
tp37
a(S'dimpy_mahajan'
p38
g2
g3
g4
tp39
a(S'TheRahulMahajan'
p40
S'mumbai , India '
p41
g3
g4
tp42
a(S'_ravidubey'
p43
g2
g3
g4
tp44
a(S'gautam_rode'
p45
g2
g3
g4
tp46
a(S'BansalSmita_'
p47
g2
g3
g4
tp48
a(S'_KaranMehra'
p49
S'Mumbai,India'
p50
g3
g4
tp51
a.