(lp0
(S'DirtyTackle'
p1
S'DirtyTackle.net'
p2
S'TheWeek'
p3
S'sports-news'
p4
I476147724
tp5
a(S'Busted_Racquet'
p6
S'Windswept Fields'
p7
g3
g4
I455027668
tp8
a(S'bigleaguestew'
p9
S'Yahoo'
p10
g3
g4
I455007363
tp11
a(S'YahooPuckDaddy'
p12
S'Yahoo Sports'
p13
g3
g4
I454591550
tp14
a(S'YahooDagger'
p15
S''
p16
g3
g4
I445093826
tp17
a(S'YahooBDL'
p18
g16
g3
g4
I443129739
tp19
a(S'YahooDevilBall'
p20
S'On the back nine'
p21
g3
g4
I426918726
tp22
a(S'YahooCagewriter'
p23
S'Cageside'
p24
g3
g4
I426813282
tp25
a(S'YahooSportNCAAF'
p26
S'Santa Monica, CA'
p27
g3
g4
I358489085
tp28
a(S'YahooSportNCAAB'
p29
S'Santa Monica, CA'
p30
g3
g4
I358486797
tp31
a(S'YahooSportsMLB'
p32
S'Santa Monica, CA'
p33
g3
g4
I358476501
tp34
a(S'YahooSportsGolf'
p35
S'Santa Monica, CA'
p36
g3
g4
I358471430
tp37
a(S'YahooSportsBox'
p38
S'Santa Monica, CA'
p39
g3
g4
I358468699
tp40
a(S'YahooSportsMMA'
p41
S'Santa Monica, CA'
p42
g3
g4
I358466799
tp43
a(S'YahooSportsNBA'
p44
S'Santa Monica, CA'
p45
g3
g4
I358416432
tp46
a(S'YahooSports_NFL'
p47
S'Santa Monica, CA'
p48
g3
g4
I357855443
tp49
a(S'Classical'
p50
g16
g3
g4
I345772816
tp51
a(S'SI_ENewman'
p52
S'NYC'
p53
g3
g4
I303974719
tp54
a(S'SI_Faces'
p55
S'New York, NY'
p56
g3
g4
I270044205
tp57
a(S'negativedunks'
p58
S'Boston'
p59
g3
g4
I223692928
tp60
a.