(lp0
(S'RonBrownstein'
p1
S'Washington DC metro area'
p2
S'TheWeek'
p3
S'politics'
p4
I731167584
tp5
a(S'BNPolitics'
p6
S''
p7
g3
g4
I564111558
tp8
a(S'JoyLinFN'
p9
S'Washington, DC'
p10
g3
g4
I486911734
tp11
a(S'RyuSpaeth'
p12
g7
g3
g4
I485871273
tp13
a(S'MHPshow'
p14
S'New York, NY'
p15
g3
g4
I475286355
tp16
a(S'GQPolitics'
p17
g7
g3
g4
I467867120
tp18
a(S'Nate_Cohn'
p19
S'Washington DC'
p20
g3
g4
I463765807
tp21
a(S'AlecMacGillis'
p22
g7
g3
g4
I436925910
tp23
a(S'MichelleObama'
p24
g7
g3
g4
I409486555
tp25
a(S'GlobeKranish'
p26
S'Washington, D.C. '
p27
g3
g4
I397542335
tp28
a(S'jrpsaki'
p29
S'Washington DC'
p30
g3
g4
I388513351
tp31
a(S'WHLive'
p32
S'Washington, DC'
p33
g3
g4
I369505837
tp34
a(S'BuzzFeedAndrew'
p35
S'Queens, NY'
p36
g3
g4
I326255267
tp37
a(S'YouTubePolitics'
p38
g7
g3
g4
I278654482
tp39
a(S'reidcherlin'
p40
g7
g3
g4
I272549524
tp41
a(S'nickconfessore'
p42
g7
g3
g4
I258885469
tp43
a(S'igorbobic'
p44
S'Washington, D.C.'
p45
g3
g4
I250492272
tp46
a(S'davidaxelrod'
p47
g7
g3
g4
I244655353
tp48
a(S'BloombergView'
p49
S'New York'
p50
g3
g4
I227682918
tp51
a(S'gov'
p52
S'Washington, DC'
p53
g3
g4
I222953824
tp54
a.