(lp0
(S'the5forty5'
p1
V
p2
S'Trushar'
p3
S'indian-election-campaign'
p4
I2335973900
tp5
a(S'HartoshSinghBal'
p6
g2
g3
g4
I2190026348
tp7
a(S'politicalbaaba'
p8
S'Mumbai'
p9
g3
g4
I1879453129
tp10
a(S'FriendsOfRahul'
p11
g2
g3
g4
I1699095182
tp12
a(S'Politics_of_Ind'
p13
S'India'
p14
g3
g4
I475650553
tp15
a(S'ArvindKejriwal'
p16
S'India'
p17
g3
g4
I405427035
tp18
a(S'ippatel'
p19
S'new delhi'
p20
g3
g4
I285655507
tp21
a(S'varungandhi80'
p22
S'New Delhi'
p23
g3
g4
I172057857
tp24
a(S'irfhabib'
p25
S'New Delhi'
p26
g3
g4
I94022742
tp27
a(S'MrsGandhi'
p28
g2
g3
g4
I85657578
tp29
a(S'nanditathhakur'
p30
S'Nadiad, Gujarat, India'
p31
g3
g4
I75816710
tp32
a(S'rahulkanwal'
p33
S'India Today Mediaplex'
p34
g3
g4
I75509967
tp35
a(S'thekiranbedi'
p36
S'Delhi. India '
p37
g3
g4
I68977380
tp38
a(S'sardesairajdeep'
p39
S'NOIDA'
p40
g3
g4
I56304605
tp41
a(S'bytheganges'
p42
S'Delhi'
p43
g3
g4
I55161691
tp44
a(S'BDUTT'
p45
S'India '
p46
g3
g4
I19929890
tp47
a(S'narendramodi'
p48
S'Gandhinagar, Gujarat, India'
p49
g3
g4
I18839785
tp50
a.