(lp0
(S'DavidGauke'
p1
V
p2
S'tweetminster'
p3
S'ukmps'
p4
I2230539338
tp5
a(S'NormanBakerMP'
p6
S'Lewes Constituency, UK'
p7
g3
g4
I2213899424
tp8
a(S'NickHarveyND'
p9
g2
g3
g4
I2204660084
tp10
a(S'RobinWalkerMP'
p11
S'Worcester & Westminster'
p12
g3
g4
I1978270322
tp13
a(S'uxbridgewalrus'
p14
g2
g3
g4
I1958399821
tp15
a(S'PhilipDunneMP'
p16
g2
g3
g4
I1650144662
tp17
a(S'mowat4ws'
p18
S'Warrington'
p19
g3
g4
I1645585171
tp20
a(S'MalcolmRifkind'
p21
S'Westminster'
p22
g3
g4
I1615220864
tp23
a(S'NickBolesMP'
p24
S'Grantham & Stamford'
p25
g3
g4
I1548391070
tp26
a(S'RichardGrahamMP'
p27
S'Gloucester'
p28
g3
g4
I1530621674
tp29
a(S'khopkinsmp'
p30
g2
g3
g4
I1478436140
tp31
a(S'MarcusJonesMP'
p32
S'Nuneaton'
p33
g3
g4
I1469686752
tp34
a(S'Simonhartmp'
p35
g2
g3
g4
I1442028488
tp36
a(S'tcunninghammp1'
p37
g2
g3
g4
I1432808990
tp38
a(S'AndyLoveMP'
p39
g2
g3
g4
I1394209135
tp40
a(S'AlbertOwenMP'
p41
S'Isle of Anglesey'
p42
g3
g4
I1354610803
tp43
a(S'hoeykateMP'
p44
g2
g3
g4
I1284146730
tp45
a(S'George_Osborne'
p46
g2
g3
g4
I1225696320
tp47
a(S'EdwardDaveyMP'
p48
S'Surbiton, UK'
p49
g3
g4
I1179455215
tp50
a(S'Mike4Eastleigh'
p51
S'Eastleigh'
p52
g3
g4
I1163395104
tp53
a.