(lp0
(S'ericschmidt'
p1
S'Mountain View, CA'
p2
S'verified'
p3
S'technology'
p4
I93957809
tp5
a(S'jonathaneppers'
p6
S'#LosAngeles'
p7
g3
g4
I74307323
tp8
a(S'MichaelDell'
p9
S'Austin, TX '
p10
g3
g4
I58560480
tp11
a(S'kaifulee'
p12
S'Beijing, China'
p13
g3
g4
I50940456
tp14
a(S'BillGates'
p15
S'Seattle, WA'
p16
g3
g4
I50393960
tp17
a(S'vkhosla'
p18
S''
p19
g3
g4
I42226885
tp20
a(S'marissamayer'
p21
S'San Francisco, CA'
p22
g3
g4
I17503180
tp23
a(S'Padmasree'
p24
S'California'
p25
g3
g4
I15076390
tp26
a(S'Chad_Hurley'
p27
S'Palo Alto, CA, USA'
p28
g3
g4
I14749070
tp29
a(S'randizuckerberg'
p30
S'Silicon Valley'
p31
g3
g4
I14130784
tp32
a(S'GuyKawasaki'
p33
S'Silicon Valley, California'
p34
g3
g4
I8453452
tp35
a(S'howardlindzon'
p36
S'Coronado'
p37
g3
g4
I7517052
tp38
a(S'SteveCase'
p39
S'Washington DC'
p40
g3
g4
I6708952
tp41
a(S'myspacetom'
p42
S'Los Angeles, CA'
p43
g3
g4
I3393521
tp44
a(S'timoreilly'
p45
S'Sebastopol, CA'
p46
g3
g4
I2384071
tp47
a(S'pierre'
p48
S'Honolulu, HI'
p49
g3
g4
I749963
tp50
a(S'loic'
p51
S'San Francisco'
p52
g3
g4
I740983
tp53
a(S'kevinrose'
p54
S'San Francisco, CA'
p55
g3
g4
I657863
tp56
a(S'majornelson'
p57
S'Xbox One'
p58
g3
g4
I15913
tp59
a(S'Jason'
p60
S'90049 '
p61
g3
g4
I3840
tp62
a.