(lp0
(S'ericschmidt'
p1
S'Mountain View, CA'
p2
S'verified'
p3
S'technology'
p4
tp5
a(S'jonathaneppers'
p6
S'#LosAngeles'
p7
g3
g4
tp8
a(S'MichaelDell'
p9
S'Austin, TX '
p10
g3
g4
tp11
a(S'kaifulee'
p12
S'Beijing, China'
p13
g3
g4
tp14
a(S'BillGates'
p15
S'Seattle, WA'
p16
g3
g4
tp17
a(S'vkhosla'
p18
S''
p19
g3
g4
tp20
a(S'marissamayer'
p21
S'San Francisco, CA'
p22
g3
g4
tp23
a(S'Padmasree'
p24
S'California'
p25
g3
g4
tp26
a(S'Chad_Hurley'
p27
S'Palo Alto, CA, USA'
p28
g3
g4
tp29
a(S'randizuckerberg'
p30
S'Silicon Valley'
p31
g3
g4
tp32
a(S'GuyKawasaki'
p33
S'Silicon Valley, California'
p34
g3
g4
tp35
a(S'howardlindzon'
p36
S'Coronado'
p37
g3
g4
tp38
a(S'SteveCase'
p39
S'Washington DC'
p40
g3
g4
tp41
a(S'myspacetom'
p42
S'Los Angeles, CA'
p43
g3
g4
tp44
a(S'timoreilly'
p45
S'Sebastopol, CA'
p46
g3
g4
tp47
a(S'pierre'
p48
S'Honolulu, HI'
p49
g3
g4
tp50
a(S'loic'
p51
S'San Francisco'
p52
g3
g4
tp53
a(S'kevinrose'
p54
S'San Francisco, CA'
p55
g3
g4
tp56
a(S'majornelson'
p57
S'Xbox One'
p58
g3
g4
tp59
a(S'Jason'
p60
S'90049 '
p61
g3
g4
tp62
a.