(lp0
(S'JakePeavy_44'
p1
S'Boston/Alabama'
p2
S'verified'
p3
S'baseball'
p4
tp5
a(S'Joba_44'
p6
S'Detroit via Nebraska'
p7
g3
g4
tp8
a(S'csampson43'
p9
S'Houston,TX'
p10
g3
g4
tp11
a(S'BobKellyAbreu'
p12
S'Anaheim'
p13
g3
g4
tp14
a(S'DexterFowler'
p15
S'Houston, TX'
p16
g3
g4
tp17
a(S'OkieFields'
p18
S'Key Largo, FL'
p19
g3
g4
tp20
a(S'DanielMcCutchen'
p21
S'Central Texas'
p22
g3
g4
tp23
a(S'BradZiegler'
p24
S'God bless the U.S.A.!!'
p25
g3
g4
tp26
a(S'thisisdspan'
p27
S'Tampa, FL'
p28
g3
g4
tp29
a(S'mattholliday7'
p30
S''
p31
g3
g4
tp32
a(S'manbearwolf'
p33
S'REHAB '
p34
g3
g4
tp35
a(S'RyanDempsterFDN'
p36
g31
g3
g4
tp37
a(S'JUP_8TL'
p38
S'Atlanta'
p39
g3
g4
tp40
a(S'DAVIDprice14'
p41
S'alllll over the place'
p42
g3
g4
tp43
a(S'BAnderson_30'
p44
S'Houston, Tx'
p45
g3
g4
tp46
a(S'MattAntonelli9'
p47
S'Peabody, Massachusetts'
p48
g3
g4
tp49
a(S'Evan3Longoria'
p50
S'Tampa, FL'
p51
g3
g4
tp52
a(S'EYJr'
p53
S'NY'
p54
g3
g4
tp55
a(S'hanrahan52'
p56
S'Lewisville, TX'
p57
g3
g4
tp58
a.