(lp0
(S'MissyElliott'
p1
S''
p2
S'verified'
p3
S'music'
p4
tp5
a(S'TiredPony'
p6
g2
g3
g4
tp7
a(S'DaveSitek'
p8
g2
g3
g4
tp9
a(S'MylesKennedy'
p10
S'Spokane Washington'
p11
g3
g4
tp12
a(S'LilTunechi'
p13
S'Mars'
p14
g3
g4
tp15
a(S'braziliangirls'
p16
S'NYC'
p17
g3
g4
tp18
a(S'boniver'
p19
S'Minnesota, WI'
p20
g3
g4
tp21
a(S'aqualungmusic'
p22
S'Los Angeles'
p23
g3
g4
tp24
a(S'radiohead'
p25
S'Oxford, UK'
p26
g3
g4
tp27
a(S'itspetergabriel'
p28
S'The Wild West of England'
p29
g3
g4
tp30
a(S'therealmix'
p31
S'Seattle,Wa'
p32
g3
g4
tp33
a(S'chicagotheband'
p34
S'all roads lead to Chicago..'
p35
g3
g4
tp36
a(S'joejonas'
p37
g2
g3
g4
tp38
a(S'TheRealEve'
p39
S'THE WORLD...'
p40
g3
g4
tp41
a(S'Nas'
p42
S'NYC'
p43
g3
g4
tp44
a(S'krisallenband'
p45
S'Everywhere'
p46
g3
g4
tp47
a(S'gunsnroses'
p48
S'here, there & on the air! '
p49
g3
g4
tp50
a(S'JTandNL'
p51
S'Texas'
p52
g3
g4
tp53
a(S'titojackson5'
p54
S'Calabasas,CA.'
p55
g3
g4
tp56
a(S'pnut'
p57
S'omnipresent'
p58
g3
g4
tp59
a.