(lp0
(S'MissyElliott'
p1
S''
p2
S'verified'
p3
S'music'
p4
I145499533
tp5
a(S'TiredPony'
p6
g2
g3
g4
I143372922
tp7
a(S'DaveSitek'
p8
g2
g3
g4
I140146781
tp9
a(S'MylesKennedy'
p10
S'Spokane Washington'
p11
g3
g4
I139791861
tp12
a(S'LilTunechi'
p13
S'Mars'
p14
g3
g4
I116362700
tp15
a(S'braziliangirls'
p16
S'NYC'
p17
g3
g4
I115513085
tp18
a(S'boniver'
p19
S'Minnesota, WI'
p20
g3
g4
I115512512
tp21
a(S'aqualungmusic'
p22
S'Los Angeles'
p23
g3
g4
I114824339
tp24
a(S'radiohead'
p25
S'Oxford, UK'
p26
g3
g4
I108382988
tp27
a(S'itspetergabriel'
p28
S'The Wild West of England'
p29
g3
g4
I107544554
tp30
a(S'therealmix'
p31
S'Seattle,Wa'
p32
g3
g4
I105961394
tp33
a(S'chicagotheband'
p34
S'all roads lead to Chicago..'
p35
g3
g4
I104963798
tp36
a(S'joejonas'
p37
g2
g3
g4
I104249727
tp38
a(S'TheRealEve'
p39
S'THE WORLD...'
p40
g3
g4
I104235481
tp41
a(S'Nas'
p42
S'NYC'
p43
g3
g4
I96829836
tp44
a(S'krisallenband'
p45
S'Everywhere'
p46
g3
g4
I96664271
tp47
a(S'gunsnroses'
p48
S'here, there & on the air! '
p49
g3
g4
I95955871
tp50
a(S'JTandNL'
p51
S'Texas'
p52
g3
g4
I95731172
tp53
a(S'titojackson5'
p54
S'Calabasas,CA.'
p55
g3
g4
I94636858
tp56
a(S'pnut'
p57
S'omnipresent'
p58
g3
g4
I92623297
tp59
a.