(lp0
(S'JoeLieberman'
p1
S''
p2
S'verified'
p3
S'us-congress'
p4
tp5
a(S'BachusAL06'
p6
S'Washington'
p7
g3
g4
tp8
a(S'RepRonPaul'
p9
S'Lake Jackson, TX'
p10
g3
g4
tp11
a(S'Robert_Aderholt'
p12
S'Haleyville, AL'
p13
g3
g4
tp14
a(S'JudgeTedPoe'
p15
S'Humble, Texas'
p16
g3
g4
tp17
a(S'SenBobCorker'
p18
S'Tennessee'
p19
g3
g4
tp20
a(S'VoteMarsha'
p21
S"Tennessee's 7th District"
p22
g3
g4
tp23
a(S'RepAdamSmith'
p24
S"Washington's 9th District"
p25
g3
g4
tp26
a(S'RepMikeQuigley'
p27
S'Chicago, IL; Washington, DC'
p28
g3
g4
tp29
a(S'BillCassidy'
p30
S'Baton Rouge, LA'
p31
g3
g4
tp32
a(S'BilbrayCA50'
p33
S'Carlsbad, California'
p34
g3
g4
tp35
a(S'DrPhilRoe'
p36
S'East Tennessee'
p37
g3
g4
tp38
a(S'RepMcClintock'
p39
S'Washington, DC'
p40
g3
g4
tp41
a(S'Jim_Moran'
p42
S'8th District of Virginia'
p43
g3
g4
tp44
a(S'RepJimMatheson'
p45
g2
g3
g4
tp46
a(S'GabbyGiffords'
p47
S'Tucson, Arizona'
p48
g3
g4
tp49
a(S'SenSherrodBrown'
p50
S'Ohio/Washington D.C.'
p51
g3
g4
tp52
a(S'DeanHeller'
p53
S'Carson City, Nevada'
p54
g3
g4
tp55
a(S'JimGerlach'
p56
S'Chester Springs, PA'
p57
g3
g4
tp58
a(S'eltongallegly24'
p59
g2
g3
g4
tp60
a.