(lp0
(S'katy_milkman'
p1
S'Philadelphia, PA'
p2
S'WhartonSchoolPR'
p3
S'wharton-faculty'
p4
I1589179254
tp5
a(S'uri_sohn'
p6
V
p7
g3
g4
I1061859804
tp8
a(S'AdamMGrant'
p9
S'Philadelphia, USA'
p10
g3
g4
I1059273780
tp11
a(S'amreed2'
p12
S'Philadelphia, PA'
p13
g3
g4
I851561821
tp14
a(S'MauroFGuillen'
p15
g7
g3
g4
I471869573
tp16
a(S'aedmans'
p17
g7
g3
g4
I464952385
tp18
a(S'MoriTaheripour'
p19
S'Washington DC'
p20
g3
g4
I355273480
tp21
a(S'ktulrich'
p22
S'Philadelphia'
p23
g3
g4
I321924253
tp24
a(S'WhartonDigital'
p25
S'Philadelphia, PA'
p26
g3
g4
I278620896
tp27
a(S'j1berger'
p28
g7
g3
g4
I223666748
tp29
a(S'faderp'
p30
S'Philadelphia, PA'
p31
g3
g4
I138271896
tp32
a(S'EnableTech'
p33
S'Philadelphia, PA'
p34
g3
g4
I96417109
tp35
a(S'Stuart_Diamond'
p36
S'Philadelphia, PA'
p37
g3
g4
I89533247
tp38
a(S'ebradlow'
p39
g7
g3
g4
I74635644
tp40
a(S'terwiesch'
p41
S'Philadelphia'
p42
g3
g4
I56781855
tp43
a(S'barbarakahn'
p44
g7
g3
g4
I42449911
tp45
a(S'cmogilner'
p46
S'San Francisco'
p47
g3
g4
I41758268
tp48
a(S'emollick'
p49
S'Philadelphia, PA'
p50
g3
g4
I39125788
tp51
a(S'jerrywind'
p52
g7
g3
g4
I37032188
tp53
a(S'davidbnz'
p54
S'East Coast '
p55
g3
g4
I31048964
tp56
a.