(lp0
(S'ScottMAustin'
p1
S'New York'
p2
S'WSJ'
p3
S'wsj-tech'
p4
tp5
a(S'jkrim'
p6
S'San Francisco'
p7
g3
g4
tp8
a(S'ShaliniWSJ'
p9
S'New York City'
p10
g3
g4
tp11
a(S'geoffreyfowler'
p12
S'San Francisco'
p13
g3
g4
tp14
a(S'WSJdigits'
p15
S'New York, NY'
p16
g3
g4
tp17
a(S'dmac1'
p18
S'San Francisco'
p19
g3
g4
tp20
a(S'EvelynRusli'
p21
S'San Francisco'
p22
g3
g4
tp23
a(S'daiwaka'
p24
S'San Francisco'
p25
g3
g4
tp26
a(S'BryFitz'
p27
S'Middlesex, NJ'
p28
g3
g4
tp29
a(S'ShiraOvide'
p30
S'San Francisco'
p31
g3
g4
tp32
a(S'donal888'
p33
S'San Francisco'
p34
g3
g4
tp35
a(S'iansherr'
p36
S'San Francisco | @wsjd'
p37
g3
g4
tp38
a.