(lp0
(S'LauraLandroWSJ'
p1
S''
p2
S'WSJ'
p3
S'wsj-ceo-council'
p4
I1726533451
tp5
a(S'RBlumenstein'
p6
g2
g3
g4
I598818721
tp7
a(S'EricMorath'
p8
S'Washington DC'
p9
g3
g4
I382232114
tp10
a(S'johncbussey'
p11
S'New York'
p12
g3
g4
I376153291
tp13
a(S'ForsythJenn'
p14
g2
g3
g4
I321027249
tp15
a(S'gerardtbaker'
p16
S'New York, New York'
p17
g3
g4
I229139732
tp18
a(S'kristinapet'
p19
S'Washington, D.C.'
p20
g3
g4
I189129306
tp21
a(S'jaredfavole'
p22
S'White House'
p23
g3
g4
I143192634
tp24
a(S'damianpaletta'
p25
S'Washington DC'
p26
g3
g4
I115718513
tp27
a(S'dkberman'
p28
S'New York, NY'
p29
g3
g4
I111441302
tp30
a(S'DionNissenbaum'
p31
g2
g3
g4
I100860790
tp32
a(S'tracycorrigan'
p33
S'New York'
p34
g3
g4
I66198455
tp35
a(S'vgmac'
p36
S'Washington, DC'
p37
g3
g4
I60763047
tp38
a(S'TimJHanrahan'
p39
S'Washington, D.C.'
p40
g3
g4
I36442614
tp41
a(S'murraymatt'
p42
S'New York'
p43
g3
g4
I26285079
tp44
a(S'Reddy'
p45
S' Washington, D.C.'
p46
g3
g4
I21312469
tp47
a(S'jeffsparshott'
p48
S'Washington, D.C.'
p49
g3
g4
I20760831
tp50
a(S'GeraldFSeib'
p51
S'Washington, D.C.'
p52
g3
g4
I18915795
tp53
a(S'SaraMurray'
p54
g2
g3
g4
I18637396
tp55
a(S'MaryLuWSJ'
p56
S'Washington, D.C.'
p57
g3
g4
I16336095
tp58
a.