(lp0
(S'CleggJon'
p1
S'New York'
p2
S'WSJ'
p3
S'wsj-sports'
p4
I577038352
tp5
a(S'jimchair'
p6
S''
p7
g3
g4
I531705241
tp8
a(S'HerringWSJ'
p9
S'New York, NY'
p10
g3
g4
I370706811
tp11
a(S'thegeoff2000'
p12
g7
g3
g4
I324388124
tp13
a(S'germanotes'
p14
S'Harlem'
p15
g3
g4
I217210051
tp16
a(S'KevinClarkWSJ'
p17
S'New York by way of Florida'
p18
g3
g4
I194784415
tp19
a(S'DanBarbarisi'
p20
S'New York'
p21
g3
g4
I130546600
tp22
a(S'WillMHDavies'
p23
S'Hong Kong'
p24
g3
g4
I126551155
tp25
a(S'hellikerk'
p26
g7
g3
g4
I91193617
tp27
a(S'MattFutterman'
p28
g7
g3
g4
I87570309
tp29
a(S'SamWalkers'
p30
g7
g3
g4
I86343120
tp31
a(S'jasonWSJ'
p32
g7
g3
g4
I86158118
tp33
a(S'Bachscore'
p34
S'New York'
p35
g3
g4
I59303878
tp36
a(S'BrianCostaWSJ'
p37
S'New York, NY'
p38
g3
g4
I39092709
tp39
a(S'WSJSports'
p40
S'New York City'
p41
g3
g4
I28327049
tp42
a(S'bzcohen'
p43
S'New York, NY'
p44
g3
g4
I21073108
tp45
a(S'stuwoo'
p46
S'New York'
p47
g3
g4
I15694788
tp48
a(S'jareddiamond'
p49
S'New York'
p50
g3
g4
I14633871
tp51
a.