(lp0
(S'JonesTheMarkets'
p1
S''
p2
S'WSJ'
p3
S'wsj-money'
p4
tp5
a(S'CarmenSense'
p6
S'FiDi/NYC'
p7
g3
g4
tp8
a(S'ChristianMagoon'
p9
S'Chicago'
p10
g3
g4
tp11
a(S'GCGodfrey'
p12
S'London'
p13
g3
g4
tp14
a(S'claychristensen'
p15
S'Boston, MA'
p16
g3
g4
tp17
a(S'ritholtz'
p18
S'NYC'
p19
g3
g4
tp20
a(S'CurtisErickson'
p21
S'Seattle WA'
p22
g3
g4
tp23
a(S'timseymour'
p24
S'New York, NY'
p25
g3
g4
tp26
a(S'farnamstreet'
p27
S'Ottawa, Canada'
p28
g3
g4
tp29
a(S'johnsonwhitney'
p30
S'Boston'
p31
g3
g4
tp32
a(S'hmorgan422'
p33
S'San Diego, California USA'
p34
g3
g4
tp35
a(S'ReformedBroker'
p36
g2
g3
g4
tp37
a(S'charlesrotblut'
p38
S'Chicago'
p39
g3
g4
tp40
a(S'ManishaThakor'
p41
S'Santa Fe, NM'
p42
g3
g4
tp43
a(S'jerrykerns'
p44
S'Chicago'
p45
g3
g4
tp46
a(S'MichaelKitces'
p47
g2
g3
g4
tp48
a(S'behaviorgap'
p49
S'Park City, Utah'
p50
g3
g4
tp51
a(S'abnormalreturns'
p52
g2
g3
g4
tp53
a(S'gregskidmore'
p54
S'Greenwich, CT'
p55
g3
g4
tp56
a(S'howardlindzon'
p57
S'Coronado'
p58
g3
g4
tp59
a.