(lp0
(S'Gorman_Siobhan'
p1
S''
p2
S'WSJ'
p3
S'wsj-politics'
p4
I1564728318
tp5
a(S'wsjMelanie'
p6
S'Washington, DC Bureau'
p7
g3
g4
I867504295
tp8
a(S'brkend'
p9
g2
g3
g4
I844158102
tp10
a(S'willmauldin'
p11
S'Washington, D.C.'
p12
g3
g4
I339024811
tp13
a(S'aliciamundy'
p14
S'Washington'
p15
g3
g4
I209220102
tp16
a(S'kristinapet'
p17
S'Washington, D.C.'
p18
g3
g4
I189129306
tp19
a(S'coreyboles'
p20
S'Washington DC'
p21
g3
g4
I155680896
tp22
a(S'jaredfavole'
p23
S'White House'
p24
g3
g4
I143192634
tp25
a(S'NKingofDC'
p26
S'Washington, DC'
p27
g3
g4
I135515077
tp28
a(S'siobhanehughes'
p29
S'Washington'
p30
g3
g4
I105925025
tp31
a(S'DionNissenbaum'
p32
g2
g3
g4
I100860790
tp33
a(S'KateMilani'
p34
S'Washington, D.C.'
p35
g3
g4
I83007401
tp36
a(S'johndmckinnon'
p37
S'Washington, DC'
p38
g3
g4
I82116947
tp39
a(S'JessBravin'
p40
S'Washington, D.C.'
p41
g3
g4
I80928773
tp42
a(S'randyyeip'
p43
S'New York'
p44
g3
g4
I52988487
tp45
a(S'julianbarnes'
p46
S'Washington, DC'
p47
g3
g4
I50406326
tp48
a(S'janetadamy'
p49
S'Washington, D.C.'
p50
g3
g4
I45371411
tp51
a(S'TimJHanrahan'
p52
S'Washington, D.C.'
p53
g3
g4
I36442614
tp54
a(S'ColleenMNelson'
p55
S'Washington, DC'
p56
g3
g4
I29244617
tp57
a(S'WSJpolitics'
p58
S'Washington, D.C.'
p59
g3
g4
I28195764
tp60
a.