(lp0
(S'JonesTheMarkets'
p1
S''
p2
S'WSJ'
p3
S'wsj-money'
p4
I274549348
tp5
a(S'CarmenSense'
p6
S'FiDi/NYC'
p7
g3
g4
I221843134
tp8
a(S'ChristianMagoon'
p9
S'Chicago'
p10
g3
g4
I219142329
tp11
a(S'GCGodfrey'
p12
S'London'
p13
g3
g4
I199640036
tp14
a(S'claychristensen'
p15
S'Boston, MA'
p16
g3
g4
I60308942
tp17
a(S'ritholtz'
p18
S'NYC'
p19
g3
g4
I49753604
tp20
a(S'CurtisErickson'
p21
S'Seattle WA'
p22
g3
g4
I41180963
tp23
a(S'timseymour'
p24
S'New York, NY'
p25
g3
g4
I39853973
tp26
a(S'farnamstreet'
p27
S'Ottawa, Canada'
p28
g3
g4
I33104659
tp29
a(S'johnsonwhitney'
p30
S'Boston'
p31
g3
g4
I33098821
tp32
a(S'hmorgan422'
p33
S'San Diego, California USA'
p34
g3
g4
I23209196
tp35
a(S'ReformedBroker'
p36
g2
g3
g4
I22522178
tp37
a(S'charlesrotblut'
p38
S'Chicago'
p39
g3
g4
I22490503
tp40
a(S'ManishaThakor'
p41
S'Santa Fe, NM'
p42
g3
g4
I19012517
tp43
a(S'jerrykerns'
p44
S'Chicago'
p45
g3
g4
I17367452
tp46
a(S'MichaelKitces'
p47
g2
g3
g4
I16825716
tp48
a(S'behaviorgap'
p49
S'Park City, Utah'
p50
g3
g4
I16785424
tp51
a(S'abnormalreturns'
p52
g2
g3
g4
I15485461
tp53
a(S'gregskidmore'
p54
S'Greenwich, CT'
p55
g3
g4
I12582472
tp56
a(S'howardlindzon'
p57
S'Coronado'
p58
g3
g4
I7517052
tp59
a.